
sample15:     file format pei-i386


Disassembly of section .text:

00401000 <.text>:
  401000:	00 2a                	add    %ch,(%edx)
  401002:	00 00                	add    %al,(%eax)
  401004:	03 00                	add    (%eax),%eax
  401006:	00 00                	add    %al,(%eax)
  401008:	04 00                	add    $0x0,%al
  40100a:	00 00                	add    %al,(%eax)
  40100c:	00 0f                	add    %cl,(%edi)
  40100e:	00 00                	add    %al,(%eax)
  401010:	28 00                	sub    %al,(%eax)
  401012:	00 00                	add    %al,(%eax)
  401014:	31 d2                	xor    %edx,%edx
  401016:	55                   	push   %ebp
  401017:	8d 0d 27 01 00 00    	lea    0x127,%ecx
  40101d:	89 e5                	mov    %esp,%ebp
  40101f:	6a 00                	push   $0x0
  401021:	8d 65 d4             	lea    -0x2c(%ebp),%esp
  401024:	66 81 fd 00 fe       	cmp    $0xfe00,%bp
  401029:	0f 82 e3 ae 00 00    	jb     0x40bf12
  40102f:	be 01 00 00 00       	mov    $0x1,%esi
  401034:	13 35 45 30 42 00    	adc    0x423045,%esi
  40103a:	b3 01                	mov    $0x1,%bl
  40103c:	00 c3                	add    %al,%bl
  40103e:	83 25 5f 31 42 00 24 	andl   $0x24,0x42315f
  401045:	13 35 f7 31 42 00    	adc    0x4231f7,%esi
  40104b:	8d 3d b2 15 a7 98    	lea    0x98a715b2,%edi
  401051:	81 ef 21 e3 64 98    	sub    $0x9864e321,%edi
  401057:	57                   	push   %edi
  401058:	8d 15 a3 15 a7 98    	lea    0x98a715a3,%edx
  40105e:	81 ea 21 e3 64 98    	sub    $0x9864e321,%edx
  401064:	52                   	push   %edx
  401065:	a1 84 f0 41 00       	mov    0x41f084,%eax
  40106a:	ff d0                	call   *%eax
  40106c:	19 1d 32 30 42 00    	sbb    %ebx,0x423032
  401072:	6a 0f                	push   $0xf
  401074:	ff 0c 24             	decl   (%esp)
  401077:	8d 0d 95 15 a7 98    	lea    0x98a71595,%ecx
  40107d:	81 e9 21 e3 64 98    	sub    $0x9864e321,%ecx
  401083:	51                   	push   %ecx
  401084:	8d 15 83 15 a7 98    	lea    0x98a71583,%edx
  40108a:	81 ea 21 e3 64 98    	sub    $0x9864e321,%edx
  401090:	52                   	push   %edx
  401091:	a1 78 f0 41 00       	mov    0x41f078,%eax
  401096:	ff d0                	call   *%eax
  401098:	85 c0                	test   %eax,%eax
  40109a:	0f 85 72 ae 00 00    	jne    0x40bf12
  4010a0:	6a 0f                	push   $0xf
  4010a2:	ff 0c 24             	decl   (%esp)
  4010a5:	8d 15 95 15 a7 98    	lea    0x98a71595,%edx
  4010ab:	81 ea 21 e3 64 98    	sub    $0x9864e321,%edx
  4010b1:	52                   	push   %edx
  4010b2:	8d 15 83 15 a7 98    	lea    0x98a71583,%edx
  4010b8:	81 ea 21 e3 64 98    	sub    $0x9864e321,%edx
  4010be:	52                   	push   %edx
  4010bf:	a1 78 f0 41 00       	mov    0x41f078,%eax
  4010c4:	ff d0                	call   *%eax
  4010c6:	85 c0                	test   %eax,%eax
  4010c8:	0f 85 44 ae 00 00    	jne    0x40bf12
  4010ce:	b0 01                	mov    $0x1,%al
  4010d0:	00 d8                	add    %bl,%al
  4010d2:	83 de 94             	sbb    $0xffffff94,%esi
  4010d5:	29 d8                	sub    %ebx,%eax
  4010d7:	8d 3d b2 15 a7 98    	lea    0x98a715b2,%edi
  4010dd:	81 ef 21 e3 64 98    	sub    $0x9864e321,%edi
  4010e3:	57                   	push   %edi
  4010e4:	8d 15 a3 15 a7 98    	lea    0x98a715a3,%edx
  4010ea:	81 ea 21 e3 64 98    	sub    $0x9864e321,%edx
  4010f0:	52                   	push   %edx
  4010f1:	a1 84 f0 41 00       	mov    0x41f084,%eax
  4010f6:	ff d0                	call   *%eax
  4010f8:	01 1d b8 31 42 00    	add    %ebx,0x4231b8
  4010fe:	8d 0d b2 15 a7 98    	lea    0x98a715b2,%ecx
  401104:	81 e9 21 e3 64 98    	sub    $0x9864e321,%ecx
  40110a:	51                   	push   %ecx
  40110b:	8d 05 a3 15 a7 98    	lea    0x98a715a3,%eax
  401111:	2d 21 e3 64 98       	sub    $0x9864e321,%eax
  401116:	50                   	push   %eax
  401117:	a1 84 f0 41 00       	mov    0x41f084,%eax
  40111c:	ff d0                	call   *%eax
  40111e:	11 05 58 30 42 00    	adc    %eax,0x423058
  401124:	6a 0f                	push   $0xf
  401126:	ff 0c 24             	decl   (%esp)
  401129:	8d 3d 95 15 a7 98    	lea    0x98a71595,%edi
  40112f:	81 ef 21 e3 64 98    	sub    $0x9864e321,%edi
  401135:	57                   	push   %edi
  401136:	8d 1d 83 15 a7 98    	lea    0x98a71583,%ebx
  40113c:	81 eb 21 e3 64 98    	sub    $0x9864e321,%ebx
  401142:	53                   	push   %ebx
  401143:	a1 78 f0 41 00       	mov    0x41f078,%eax
  401148:	ff d0                	call   *%eax
  40114a:	83 f8 00             	cmp    $0x0,%eax
  40114d:	0f 85 bf ad 00 00    	jne    0x40bf12
  401153:	19 05 4f 31 42 00    	sbb    %eax,0x42314f
  401159:	31 1d 0b 30 42 00    	xor    %ebx,0x42300b
  40115f:	11 c6                	adc    %eax,%esi
  401161:	6a 0f                	push   $0xf
  401163:	ff 0c 24             	decl   (%esp)
  401166:	8d 05 95 15 a7 98    	lea    0x98a71595,%eax
  40116c:	2d 21 e3 64 98       	sub    $0x9864e321,%eax
  401171:	50                   	push   %eax
  401172:	8d 1d 83 15 a7 98    	lea    0x98a71583,%ebx
  401178:	81 eb 21 e3 64 98    	sub    $0x9864e321,%ebx
  40117e:	53                   	push   %ebx
  40117f:	a1 78 f0 41 00       	mov    0x41f078,%eax
  401184:	ff d0                	call   *%eax
  401186:	85 c0                	test   %eax,%eax
  401188:	0f 85 84 ad 00 00    	jne    0x40bf12
  40118e:	81 1d 05 31 42 00 c0 	sbbl   $0xc0,0x423105
  401195:	00 00 00 
  401198:	6a 0f                	push   $0xf
  40119a:	ff 0c 24             	decl   (%esp)
  40119d:	8d 0d 95 15 a7 98    	lea    0x98a71595,%ecx
  4011a3:	81 e9 21 e3 64 98    	sub    $0x9864e321,%ecx
  4011a9:	51                   	push   %ecx
  4011aa:	8d 05 83 15 a7 98    	lea    0x98a71583,%eax
  4011b0:	2d 21 e3 64 98       	sub    $0x9864e321,%eax
  4011b5:	50                   	push   %eax
  4011b6:	a1 78 f0 41 00       	mov    0x41f078,%eax
  4011bb:	ff d0                	call   *%eax
  4011bd:	83 f8 00             	cmp    $0x0,%eax
  4011c0:	0f 85 4c ad 00 00    	jne    0x40bf12
  4011c6:	2a 05 58 30 42 00    	sub    0x423058,%al
  4011cc:	8d 0d b2 15 a7 98    	lea    0x98a715b2,%ecx
  4011d2:	81 e9 21 e3 64 98    	sub    $0x9864e321,%ecx
  4011d8:	51                   	push   %ecx
  4011d9:	8d 3d a3 15 a7 98    	lea    0x98a715a3,%edi
  4011df:	81 ef 21 e3 64 98    	sub    $0x9864e321,%edi
  4011e5:	57                   	push   %edi
  4011e6:	a1 84 f0 41 00       	mov    0x41f084,%eax
  4011eb:	ff d0                	call   *%eax
  4011ed:	09 05 2d 31 42 00    	or     %eax,0x42312d
  4011f3:	83 15 23 30 42 00 3b 	adcl   $0x3b,0x423023
  4011fa:	83 15 93 30 42 00 4d 	adcl   $0x4d,0x423093
  401201:	01 1d 10 31 42 00    	add    %ebx,0x423110
  401207:	8d 3d b2 15 a7 98    	lea    0x98a715b2,%edi
  40120d:	81 ef 21 e3 64 98    	sub    $0x9864e321,%edi
  401213:	57                   	push   %edi
  401214:	8d 1d a3 15 a7 98    	lea    0x98a715a3,%ebx
  40121a:	81 eb 21 e3 64 98    	sub    $0x9864e321,%ebx
  401220:	53                   	push   %ebx
  401221:	a1 84 f0 41 00       	mov    0x41f084,%eax
  401226:	ff d0                	call   *%eax
  401228:	bf 01 00 00 00       	mov    $0x1,%edi
  40122d:	13 3d 71 31 42 00    	adc    0x423171,%edi
  401233:	6a 0f                	push   $0xf
  401235:	ff 0c 24             	decl   (%esp)
  401238:	8d 0d 95 15 a7 98    	lea    0x98a71595,%ecx
  40123e:	81 e9 21 e3 64 98    	sub    $0x9864e321,%ecx
  401244:	51                   	push   %ecx
  401245:	8d 15 83 15 a7 98    	lea    0x98a71583,%edx
  40124b:	81 ea 21 e3 64 98    	sub    $0x9864e321,%edx
  401251:	52                   	push   %edx
  401252:	a1 78 f0 41 00       	mov    0x41f078,%eax
  401257:	ff d0                	call   *%eax
  401259:	83 f8 00             	cmp    $0x0,%eax
  40125c:	0f 85 b0 ac 00 00    	jne    0x40bf12
  401262:	2e e9 e8 a7 00 00    	cs jmp 0x40ba50
  401268:	83 cb d8             	or     $0xffffffd8,%ebx
  40126b:	ba 01 00 00 00       	mov    $0x1,%edx
  401270:	83 c2 93             	add    $0xffffff93,%edx
  401273:	01 d0                	add    %edx,%eax
  401275:	01 15 09 30 42 00    	add    %edx,0x423009
  40127b:	01 c6                	add    %eax,%esi
	...
  401285:	00 00                	add    %al,(%eax)
  401287:	83 d0 25             	adc    $0x25,%eax
  40128a:	c7 05 e1 31 42 00 c3 	movl   $0xc3,0x4231e1
  401291:	00 00 00 
  401294:	82 2d 4d 31 42 00 ce 	subb   $0xce,0x42314d
  40129b:	82 f7 30             	xor    $0x30,%bh
  40129e:	0b 05 2c 30 42 00    	or     0x42302c,%eax
  4012a4:	6a 0f                	push   $0xf
  4012a6:	ff 0c 24             	decl   (%esp)
  4012a9:	8d 3d 95 15 a7 98    	lea    0x98a71595,%edi
  4012af:	81 ef 21 e3 64 98    	sub    $0x9864e321,%edi
  4012b5:	57                   	push   %edi
  4012b6:	8d 35 83 15 a7 98    	lea    0x98a71583,%esi
  4012bc:	81 ee 21 e3 64 98    	sub    $0x9864e321,%esi
  4012c2:	56                   	push   %esi
  4012c3:	a1 78 f0 41 00       	mov    0x41f078,%eax
  4012c8:	ff d0                	call   *%eax
  4012ca:	83 f8 00             	cmp    $0x0,%eax
  4012cd:	0f 85 3f ac 00 00    	jne    0x40bf12
  4012d3:	83 0d 48 30 42 00 4c 	orl    $0x4c,0x423048
  4012da:	29 1d aa 30 42 00    	sub    %ebx,0x4230aa
  4012e0:	6a 0f                	push   $0xf
  4012e2:	ff 0c 24             	decl   (%esp)
  4012e5:	8d 0d 95 15 a7 98    	lea    0x98a71595,%ecx
  4012eb:	81 e9 21 e3 64 98    	sub    $0x9864e321,%ecx
  4012f1:	51                   	push   %ecx
  4012f2:	8d 05 83 15 a7 98    	lea    0x98a71583,%eax
  4012f8:	2d 21 e3 64 98       	sub    $0x9864e321,%eax
  4012fd:	50                   	push   %eax
  4012fe:	a1 78 f0 41 00       	mov    0x41f078,%eax
  401303:	ff d0                	call   *%eax
  401305:	83 f8 00             	cmp    $0x0,%eax
  401308:	0f 85 04 ac 00 00    	jne    0x40bf12
  40130e:	83 eb 77             	sub    $0x77,%ebx
  401311:	ba 01 00 00 00       	mov    $0x1,%edx
  401316:	13 15 e1 30 42 00    	adc    0x4230e1,%edx
  40131c:	18 f7                	sbb    %dh,%bh
  40131e:	29 ff                	sub    %edi,%edi
  401320:	6a 0f                	push   $0xf
  401322:	ff 0c 24             	decl   (%esp)
  401325:	8d 35 95 15 a7 98    	lea    0x98a71595,%esi
  40132b:	81 ee 21 e3 64 98    	sub    $0x9864e321,%esi
  401331:	56                   	push   %esi
  401332:	8d 05 83 15 a7 98    	lea    0x98a71583,%eax
  401338:	2d 21 e3 64 98       	sub    $0x9864e321,%eax
  40133d:	50                   	push   %eax
  40133e:	a1 78 f0 41 00       	mov    0x41f078,%eax
  401343:	ff d0                	call   *%eax
  401345:	85 c0                	test   %eax,%eax
  401347:	0f 85 c5 ab 00 00    	jne    0x40bf12
  40134d:	8d 0d b2 15 a7 98    	lea    0x98a715b2,%ecx
  401353:	81 e9 21 e3 64 98    	sub    $0x9864e321,%ecx
  401359:	51                   	push   %ecx
  40135a:	8d 05 a3 15 a7 98    	lea    0x98a715a3,%eax
  401360:	2d 21 e3 64 98       	sub    $0x9864e321,%eax
  401365:	50                   	push   %eax
  401366:	a1 84 f0 41 00       	mov    0x41f084,%eax
  40136b:	ff d0                	call   *%eax
  40136d:	19 c7                	sbb    %eax,%edi
  40136f:	83 c3 1b             	add    $0x1b,%ebx
  401372:	83 15 1b 31 42 00 17 	adcl   $0x17,0x42311b
  401379:	13 1d fd 30 42 00    	adc    0x4230fd,%ebx
  40137f:	13 3d 20 30 42 00    	adc    0x423020,%edi
  401385:	6a 0f                	push   $0xf
  401387:	ff 0c 24             	decl   (%esp)
  40138a:	8d 15 95 15 a7 98    	lea    0x98a71595,%edx
  401390:	81 ea 21 e3 64 98    	sub    $0x9864e321,%edx
  401396:	52                   	push   %edx
  401397:	8d 15 83 15 a7 98    	lea    0x98a71583,%edx
  40139d:	81 ea 21 e3 64 98    	sub    $0x9864e321,%edx
  4013a3:	52                   	push   %edx
  4013a4:	a1 78 f0 41 00       	mov    0x41f078,%eax
  4013a9:	ff d0                	call   *%eax
  4013ab:	85 c0                	test   %eax,%eax
  4013ad:	0f 85 5f ab 00 00    	jne    0x40bf12
  4013b3:	81 25 01 31 42 00 a5 	andl   $0xa5,0x423101
  4013ba:	00 00 00 
  4013bd:	81 15 db 31 42 00 a9 	adcl   $0xa9,0x4231db
  4013c4:	00 00 00 
  4013c7:	83 ef 1b             	sub    $0x1b,%edi
  4013ca:	6a 0f                	push   $0xf
  4013cc:	ff 0c 24             	decl   (%esp)
  4013cf:	8d 0d 95 15 a7 98    	lea    0x98a71595,%ecx
  4013d5:	81 e9 21 e3 64 98    	sub    $0x9864e321,%ecx
  4013db:	51                   	push   %ecx
  4013dc:	8d 15 83 15 a7 98    	lea    0x98a71583,%edx
  4013e2:	81 ea 21 e3 64 98    	sub    $0x9864e321,%edx
  4013e8:	52                   	push   %edx
  4013e9:	a1 78 f0 41 00       	mov    0x41f078,%eax
  4013ee:	ff d0                	call   *%eax
  4013f0:	83 f8 00             	cmp    $0x0,%eax
  4013f3:	0f 85 19 ab 00 00    	jne    0x40bf12
  4013f9:	6a 0f                	push   $0xf
  4013fb:	ff 0c 24             	decl   (%esp)
  4013fe:	8d 3d 95 15 a7 98    	lea    0x98a71595,%edi
  401404:	81 ef 21 e3 64 98    	sub    $0x9864e321,%edi
  40140a:	57                   	push   %edi
  40140b:	8d 35 83 15 a7 98    	lea    0x98a71583,%esi
  401411:	81 ee 21 e3 64 98    	sub    $0x9864e321,%esi
  401417:	56                   	push   %esi
  401418:	a1 78 f0 41 00       	mov    0x41f078,%eax
  40141d:	ff d0                	call   *%eax
  40141f:	85 c0                	test   %eax,%eax
  401421:	0f 85 eb aa 00 00    	jne    0x40bf12
  401427:	81 15 2b 30 42 00 de 	adcl   $0xde,0x42302b
  40142e:	00 00 00 
  401431:	8d 15 b2 15 a7 98    	lea    0x98a715b2,%edx
  401437:	81 ea 21 e3 64 98    	sub    $0x9864e321,%edx
  40143d:	52                   	push   %edx
  40143e:	8d 15 a3 15 a7 98    	lea    0x98a715a3,%edx
  401444:	81 ea 21 e3 64 98    	sub    $0x9864e321,%edx
  40144a:	52                   	push   %edx
  40144b:	a1 84 f0 41 00       	mov    0x41f084,%eax
  401450:	ff d0                	call   *%eax
  401452:	b9 01 00 00 00       	mov    $0x1,%ecx
  401457:	01 c1                	add    %eax,%ecx
  401459:	81 25 a7 31 42 00 cc 	andl   $0xcc,0x4231a7
  401460:	00 00 00 
  401463:	29 0d ff 30 42 00    	sub    %ecx,0x4230ff
  401469:	31 0d 35 31 42 00    	xor    %ecx,0x423135
  40146f:	82 2d 9b 30 42 00 d9 	subb   $0xd9,0x42309b
  401476:	8d 35 b2 15 a7 98    	lea    0x98a715b2,%esi
  40147c:	81 ee 21 e3 64 98    	sub    $0x9864e321,%esi
  401482:	56                   	push   %esi
  401483:	8d 1d a3 15 a7 98    	lea    0x98a715a3,%ebx
  401489:	81 eb 21 e3 64 98    	sub    $0x9864e321,%ebx
  40148f:	53                   	push   %ebx
  401490:	a1 84 f0 41 00       	mov    0x41f084,%eax
  401495:	ff d0                	call   *%eax
  401497:	82 2d f4 31 42 00 31 	subb   $0x31,0x4231f4
  40149e:	2b 1d 88 31 42 00    	sub    0x423188,%ebx
  4014a4:	b9 01 00 00 00       	mov    $0x1,%ecx
  4014a9:	83 c1 2b             	add    $0x2b,%ecx
  4014ac:	12 1d fe 31 42 00    	adc    0x4231fe,%bl
  4014b2:	8d 05 b2 15 a7 98    	lea    0x98a715b2,%eax
  4014b8:	2d 21 e3 64 98       	sub    $0x9864e321,%eax
  4014bd:	50                   	push   %eax
  4014be:	8d 1d a3 15 a7 98    	lea    0x98a715a3,%ebx
  4014c4:	81 eb 21 e3 64 98    	sub    $0x9864e321,%ebx
  4014ca:	53                   	push   %ebx
  4014cb:	a1 84 f0 41 00       	mov    0x41f084,%eax
  4014d0:	ff d0                	call   *%eax
  4014d2:	13 1d 03 31 42 00    	adc    0x423103,%ebx
  4014d8:	31 f7                	xor    %esi,%edi
  4014da:	13 05 ee 31 42 00    	adc    0x4231ee,%eax
  4014e0:	6a 0f                	push   $0xf
  4014e2:	ff 0c 24             	decl   (%esp)
  4014e5:	8d 1d 95 15 a7 98    	lea    0x98a71595,%ebx
  4014eb:	81 eb 21 e3 64 98    	sub    $0x9864e321,%ebx
  4014f1:	53                   	push   %ebx
  4014f2:	8d 35 83 15 a7 98    	lea    0x98a71583,%esi
  4014f8:	81 ee 21 e3 64 98    	sub    $0x9864e321,%esi
  4014fe:	56                   	push   %esi
  4014ff:	a1 78 f0 41 00       	mov    0x41f078,%eax
  401504:	ff d0                	call   *%eax
  401506:	85 c0                	test   %eax,%eax
  401508:	0f 85 04 aa 00 00    	jne    0x40bf12
  40150e:	81 15 b5 31 42 00 ac 	adcl   $0xac,0x4231b5
  401515:	00 00 00 
  401518:	19 db                	sbb    %ebx,%ebx
  40151a:	29 df                	sub    %ebx,%edi
  40151c:	13 05 80 31 42 00    	adc    0x423180,%eax
  401522:	2a 25 97 30 42 00    	sub    0x423097,%ah
  401528:	6a 0f                	push   $0xf
  40152a:	ff 0c 24             	decl   (%esp)
  40152d:	8d 35 95 15 a7 98    	lea    0x98a71595,%esi
  401533:	81 ee 21 e3 64 98    	sub    $0x9864e321,%esi
  401539:	56                   	push   %esi
  40153a:	8d 3d 83 15 a7 98    	lea    0x98a71583,%edi
  401540:	81 ef 21 e3 64 98    	sub    $0x9864e321,%edi
  401546:	57                   	push   %edi
  401547:	a1 78 f0 41 00       	mov    0x41f078,%eax
  40154c:	ff d0                	call   *%eax
  40154e:	85 c0                	test   %eax,%eax
  401550:	0f 85 bc a9 00 00    	jne    0x40bf12
  401556:	11 1d c7 31 42 00    	adc    %ebx,0x4231c7
  40155c:	2e e9 ee a4 00 00    	cs jmp 0x40ba50
  401562:	83 c6 a4             	add    $0xffffffa4,%esi
	...
  401571:	00 00                	add    %al,(%eax)
  401573:	00 13                	add    %dl,(%ebx)
  401575:	3d f9 31 42 00       	cmp    $0x4231f9,%eax
  40157a:	b9 01 00 00 00       	mov    $0x1,%ecx
  40157f:	83 c1 a2             	add    $0xffffffa2,%ecx
  401582:	2b 1d e6 30 42 00    	sub    0x4230e6,%ebx
  401588:	ba 01 00 00 00       	mov    $0x1,%edx
  40158d:	83 c2 8d             	add    $0xffffff8d,%edx
  401590:	19 3d e2 30 42 00    	sbb    %edi,0x4230e2
  401596:	8d 35 b2 15 a7 98    	lea    0x98a715b2,%esi
  40159c:	81 ee 21 e3 64 98    	sub    $0x9864e321,%esi
  4015a2:	56                   	push   %esi
  4015a3:	8d 1d a3 15 a7 98    	lea    0x98a715a3,%ebx
  4015a9:	81 eb 21 e3 64 98    	sub    $0x9864e321,%ebx
  4015af:	53                   	push   %ebx
  4015b0:	a1 84 f0 41 00       	mov    0x41f084,%eax
  4015b5:	ff d0                	call   *%eax
  4015b7:	ba 01 00 00 00       	mov    $0x1,%edx
  4015bc:	13 15 b6 30 42 00    	adc    0x4230b6,%edx
  4015c2:	8d 15 b2 15 a7 98    	lea    0x98a715b2,%edx
  4015c8:	81 ea 21 e3 64 98    	sub    $0x9864e321,%edx
  4015ce:	52                   	push   %edx
  4015cf:	8d 05 a3 15 a7 98    	lea    0x98a715a3,%eax
  4015d5:	2d 21 e3 64 98       	sub    $0x9864e321,%eax
  4015da:	50                   	push   %eax
  4015db:	a1 84 f0 41 00       	mov    0x41f084,%eax
  4015e0:	ff d0                	call   *%eax
  4015e2:	01 f3                	add    %esi,%ebx
  4015e4:	6a 0f                	push   $0xf
  4015e6:	ff 0c 24             	decl   (%esp)
  4015e9:	8d 15 95 15 a7 98    	lea    0x98a71595,%edx
  4015ef:	81 ea 21 e3 64 98    	sub    $0x9864e321,%edx
  4015f5:	52                   	push   %edx
  4015f6:	8d 0d 83 15 a7 98    	lea    0x98a71583,%ecx
  4015fc:	81 e9 21 e3 64 98    	sub    $0x9864e321,%ecx
  401602:	51                   	push   %ecx
  401603:	a1 78 f0 41 00       	mov    0x41f078,%eax
  401608:	ff d0                	call   *%eax
  40160a:	85 c0                	test   %eax,%eax
  40160c:	0f 85 00 a9 00 00    	jne    0x40bf12
  401612:	01 df                	add    %ebx,%edi
  401614:	8d 05 b2 15 a7 98    	lea    0x98a715b2,%eax
  40161a:	2d 21 e3 64 98       	sub    $0x9864e321,%eax
  40161f:	50                   	push   %eax
  401620:	8d 3d a3 15 a7 98    	lea    0x98a715a3,%edi
  401626:	81 ef 21 e3 64 98    	sub    $0x9864e321,%edi
  40162c:	57                   	push   %edi
  40162d:	a1 84 f0 41 00       	mov    0x41f084,%eax
  401632:	ff d0                	call   *%eax
  401634:	01 c7                	add    %eax,%edi
  401636:	01 1d 27 31 42 00    	add    %ebx,0x423127
  40163c:	8d 1d b2 15 a7 98    	lea    0x98a715b2,%ebx
  401642:	81 eb 21 e3 64 98    	sub    $0x9864e321,%ebx
  401648:	53                   	push   %ebx
  401649:	8d 35 a3 15 a7 98    	lea    0x98a715a3,%esi
  40164f:	81 ee 21 e3 64 98    	sub    $0x9864e321,%esi
  401655:	56                   	push   %esi
  401656:	a1 84 f0 41 00       	mov    0x41f084,%eax
  40165b:	ff d0                	call   *%eax
  40165d:	6a 0f                	push   $0xf
  40165f:	ff 0c 24             	decl   (%esp)
  401662:	8d 35 95 15 a7 98    	lea    0x98a71595,%esi
  401668:	81 ee 21 e3 64 98    	sub    $0x9864e321,%esi
  40166e:	56                   	push   %esi
  40166f:	8d 35 83 15 a7 98    	lea    0x98a71583,%esi
  401675:	81 ee 21 e3 64 98    	sub    $0x9864e321,%esi
  40167b:	56                   	push   %esi
  40167c:	a1 78 f0 41 00       	mov    0x41f078,%eax
  401681:	ff d0                	call   *%eax
  401683:	85 c0                	test   %eax,%eax
  401685:	0f 85 87 a8 00 00    	jne    0x40bf12
  40168b:	81 35 ca 30 42 00 e5 	xorl   $0xe5,0x4230ca
  401692:	00 00 00 
  401695:	19 f3                	sbb    %esi,%ebx
  401697:	6a 0f                	push   $0xf
  401699:	ff 0c 24             	decl   (%esp)
  40169c:	8d 3d 95 15 a7 98    	lea    0x98a71595,%edi
  4016a2:	81 ef 21 e3 64 98    	sub    $0x9864e321,%edi
  4016a8:	57                   	push   %edi
  4016a9:	8d 05 83 15 a7 98    	lea    0x98a71583,%eax
  4016af:	2d 21 e3 64 98       	sub    $0x9864e321,%eax
  4016b4:	50                   	push   %eax
  4016b5:	a1 78 f0 41 00       	mov    0x41f078,%eax
  4016ba:	ff d0                	call   *%eax
  4016bc:	83 f8 00             	cmp    $0x0,%eax
  4016bf:	0f 85 4d a8 00 00    	jne    0x40bf12
  4016c5:	01 3d a9 30 42 00    	add    %edi,0x4230a9
  4016cb:	13 35 9e 31 42 00    	adc    0x42319e,%esi
  4016d1:	8d 0d b2 15 a7 98    	lea    0x98a715b2,%ecx
  4016d7:	81 e9 21 e3 64 98    	sub    $0x9864e321,%ecx
  4016dd:	51                   	push   %ecx
  4016de:	8d 35 a3 15 a7 98    	lea    0x98a715a3,%esi
  4016e4:	81 ee 21 e3 64 98    	sub    $0x9864e321,%esi
  4016ea:	56                   	push   %esi
  4016eb:	a1 84 f0 41 00       	mov    0x41f084,%eax
  4016f0:	ff d0                	call   *%eax
  4016f2:	83 f6 41             	xor    $0x41,%esi
  4016f5:	83 0d f4 30 42 00 57 	orl    $0x57,0x4230f4
  4016fc:	c7 05 1c 30 42 00 6a 	movl   $0x6a,0x42301c
  401703:	00 00 00 
  401706:	8d 0d b2 15 a7 98    	lea    0x98a715b2,%ecx
  40170c:	81 e9 21 e3 64 98    	sub    $0x9864e321,%ecx
  401712:	51                   	push   %ecx
  401713:	8d 3d a3 15 a7 98    	lea    0x98a715a3,%edi
  401719:	81 ef 21 e3 64 98    	sub    $0x9864e321,%edi
  40171f:	57                   	push   %edi
  401720:	a1 84 f0 41 00       	mov    0x41f084,%eax
  401725:	ff d0                	call   *%eax
  401727:	11 3d 57 30 42 00    	adc    %edi,0x423057
  40172d:	31 fb                	xor    %edi,%ebx
  40172f:	b9 01 00 00 00       	mov    $0x1,%ecx
  401734:	01 c1                	add    %eax,%ecx
  401736:	6a 0f                	push   $0xf
  401738:	ff 0c 24             	decl   (%esp)
  40173b:	8d 05 95 15 a7 98    	lea    0x98a71595,%eax
  401741:	2d 21 e3 64 98       	sub    $0x9864e321,%eax
  401746:	50                   	push   %eax
  401747:	8d 05 83 15 a7 98    	lea    0x98a71583,%eax
  40174d:	2d 21 e3 64 98       	sub    $0x9864e321,%eax
  401752:	50                   	push   %eax
  401753:	a1 78 f0 41 00       	mov    0x41f078,%eax
  401758:	ff d0                	call   *%eax
  40175a:	85 c0                	test   %eax,%eax
  40175c:	0f 85 b0 a7 00 00    	jne    0x40bf12
  401762:	2e e9 e8 a2 00 00    	cs jmp 0x40ba50
  401768:	83 d0 64             	adc    $0x64,%eax
  40176b:	ba 01 00 00 00       	mov    $0x1,%edx
  401770:	83 c2 78             	add    $0x78,%edx
	...
  401783:	6a 0f                	push   $0xf
  401785:	ff 0c 24             	decl   (%esp)
  401788:	8d 0d 95 15 a7 98    	lea    0x98a71595,%ecx
  40178e:	81 e9 21 e3 64 98    	sub    $0x9864e321,%ecx
  401794:	51                   	push   %ecx
  401795:	8d 1d 83 15 a7 98    	lea    0x98a71583,%ebx
  40179b:	81 eb 21 e3 64 98    	sub    $0x9864e321,%ebx
  4017a1:	53                   	push   %ebx
  4017a2:	a1 78 f0 41 00       	mov    0x41f078,%eax
  4017a7:	ff d0                	call   *%eax
  4017a9:	85 c0                	test   %eax,%eax
  4017ab:	0f 85 61 a7 00 00    	jne    0x40bf12
  4017b1:	01 3d 69 30 42 00    	add    %edi,0x423069
  4017b7:	0b 05 1a 31 42 00    	or     0x42311a,%eax
  4017bd:	c7 05 81 30 42 00 a0 	movl   $0xa0,0x423081
  4017c4:	00 00 00 
  4017c7:	6a 0f                	push   $0xf
  4017c9:	ff 0c 24             	decl   (%esp)
  4017cc:	8d 15 95 15 a7 98    	lea    0x98a71595,%edx
  4017d2:	81 ea 21 e3 64 98    	sub    $0x9864e321,%edx
  4017d8:	52                   	push   %edx
  4017d9:	8d 3d 83 15 a7 98    	lea    0x98a71583,%edi
  4017df:	81 ef 21 e3 64 98    	sub    $0x9864e321,%edi
  4017e5:	57                   	push   %edi
  4017e6:	a1 78 f0 41 00       	mov    0x41f078,%eax
  4017eb:	ff d0                	call   *%eax
  4017ed:	85 c0                	test   %eax,%eax
  4017ef:	0f 85 1d a7 00 00    	jne    0x40bf12
  4017f5:	2a 1d f8 31 42 00    	sub    0x4231f8,%bl
  4017fb:	19 3d cd 31 42 00    	sbb    %edi,0x4231cd
  401801:	8d 35 b2 15 a7 98    	lea    0x98a715b2,%esi
  401807:	81 ee 21 e3 64 98    	sub    $0x9864e321,%esi
  40180d:	56                   	push   %esi
  40180e:	8d 0d a3 15 a7 98    	lea    0x98a715a3,%ecx
  401814:	81 e9 21 e3 64 98    	sub    $0x9864e321,%ecx
  40181a:	51                   	push   %ecx
  40181b:	a1 84 f0 41 00       	mov    0x41f084,%eax
  401820:	ff d0                	call   *%eax
  401822:	6a 0f                	push   $0xf
  401824:	ff 0c 24             	decl   (%esp)
  401827:	8d 35 95 15 a7 98    	lea    0x98a71595,%esi
  40182d:	81 ee 21 e3 64 98    	sub    $0x9864e321,%esi
  401833:	56                   	push   %esi
  401834:	8d 0d 83 15 a7 98    	lea    0x98a71583,%ecx
  40183a:	81 e9 21 e3 64 98    	sub    $0x9864e321,%ecx
  401840:	51                   	push   %ecx
  401841:	a1 78 f0 41 00       	mov    0x41f078,%eax
  401846:	ff d0                	call   *%eax
  401848:	83 f8 00             	cmp    $0x0,%eax
  40184b:	0f 85 c1 a6 00 00    	jne    0x40bf12
  401851:	83 cf 85             	or     $0xffffff85,%edi
  401854:	01 3d ec 31 42 00    	add    %edi,0x4231ec
  40185a:	82 c4 ec             	add    $0xec,%ah
  40185d:	6a 0f                	push   $0xf
  40185f:	ff 0c 24             	decl   (%esp)
  401862:	8d 3d 95 15 a7 98    	lea    0x98a71595,%edi
  401868:	81 ef 21 e3 64 98    	sub    $0x9864e321,%edi
  40186e:	57                   	push   %edi
  40186f:	8d 05 83 15 a7 98    	lea    0x98a71583,%eax
  401875:	2d 21 e3 64 98       	sub    $0x9864e321,%eax
  40187a:	50                   	push   %eax
  40187b:	a1 78 f0 41 00       	mov    0x41f078,%eax
  401880:	ff d0                	call   *%eax
  401882:	85 c0                	test   %eax,%eax
  401884:	0f 85 88 a6 00 00    	jne    0x40bf12
  40188a:	6a 0f                	push   $0xf
  40188c:	ff 0c 24             	decl   (%esp)
  40188f:	8d 1d 95 15 a7 98    	lea    0x98a71595,%ebx
  401895:	81 eb 21 e3 64 98    	sub    $0x9864e321,%ebx
  40189b:	53                   	push   %ebx
  40189c:	8d 15 83 15 a7 98    	lea    0x98a71583,%edx
  4018a2:	81 ea 21 e3 64 98    	sub    $0x9864e321,%edx
  4018a8:	52                   	push   %edx
  4018a9:	a1 78 f0 41 00       	mov    0x41f078,%eax
  4018ae:	ff d0                	call   *%eax
  4018b0:	85 c0                	test   %eax,%eax
  4018b2:	0f 85 5a a6 00 00    	jne    0x40bf12
  4018b8:	83 c7 dd             	add    $0xffffffdd,%edi
  4018bb:	31 c7                	xor    %eax,%edi
  4018bd:	83 d6 93             	adc    $0xffffff93,%esi
  4018c0:	00 1d fc 31 42 00    	add    %bl,0x4231fc
  4018c6:	29 d8                	sub    %ebx,%eax
  4018c8:	6a 0f                	push   $0xf
  4018ca:	ff 0c 24             	decl   (%esp)
  4018cd:	8d 1d 95 15 a7 98    	lea    0x98a71595,%ebx
  4018d3:	81 eb 21 e3 64 98    	sub    $0x9864e321,%ebx
  4018d9:	53                   	push   %ebx
  4018da:	8d 1d 83 15 a7 98    	lea    0x98a71583,%ebx
  4018e0:	81 eb 21 e3 64 98    	sub    $0x9864e321,%ebx
  4018e6:	53                   	push   %ebx
  4018e7:	a1 78 f0 41 00       	mov    0x41f078,%eax
  4018ec:	ff d0                	call   *%eax
  4018ee:	83 f8 00             	cmp    $0x0,%eax
  4018f1:	0f 85 1b a6 00 00    	jne    0x40bf12
  4018f7:	29 c3                	sub    %eax,%ebx
  4018f9:	6a 0f                	push   $0xf
  4018fb:	ff 0c 24             	decl   (%esp)
  4018fe:	8d 3d 95 15 a7 98    	lea    0x98a71595,%edi
  401904:	81 ef 21 e3 64 98    	sub    $0x9864e321,%edi
  40190a:	57                   	push   %edi
  40190b:	8d 0d 83 15 a7 98    	lea    0x98a71583,%ecx
  401911:	81 e9 21 e3 64 98    	sub    $0x9864e321,%ecx
  401917:	51                   	push   %ecx
  401918:	a1 78 f0 41 00       	mov    0x41f078,%eax
  40191d:	ff d0                	call   *%eax
  40191f:	83 f8 00             	cmp    $0x0,%eax
  401922:	0f 85 ea a5 00 00    	jne    0x40bf12
  401928:	01 fe                	add    %edi,%esi
  40192a:	11 f3                	adc    %esi,%ebx
  40192c:	29 fb                	sub    %edi,%ebx
  40192e:	8d 15 b2 15 a7 98    	lea    0x98a715b2,%edx
  401934:	81 ea 21 e3 64 98    	sub    $0x9864e321,%edx
  40193a:	52                   	push   %edx
  40193b:	8d 3d a3 15 a7 98    	lea    0x98a715a3,%edi
  401941:	81 ef 21 e3 64 98    	sub    $0x9864e321,%edi
  401947:	57                   	push   %edi
  401948:	a1 84 f0 41 00       	mov    0x41f084,%eax
  40194d:	ff d0                	call   *%eax
  40194f:	13 35 87 31 42 00    	adc    0x423187,%esi
  401955:	31 35 14 30 42 00    	xor    %esi,0x423014
  40195b:	b9 01 00 00 00       	mov    $0x1,%ecx
  401960:	13 0d cc 31 42 00    	adc    0x4231cc,%ecx
  401966:	83 0d 0e 31 42 00 60 	orl    $0x60,0x42310e
  40196d:	13 0d 4c 31 42 00    	adc    0x42314c,%ecx
  401973:	8d 1d b2 15 a7 98    	lea    0x98a715b2,%ebx
  401979:	81 eb 21 e3 64 98    	sub    $0x9864e321,%ebx
  40197f:	53                   	push   %ebx
  401980:	8d 0d a3 15 a7 98    	lea    0x98a715a3,%ecx
  401986:	81 e9 21 e3 64 98    	sub    $0x9864e321,%ecx
  40198c:	51                   	push   %ecx
  40198d:	a1 84 f0 41 00       	mov    0x41f084,%eax
  401992:	ff d0                	call   *%eax
  401994:	81 25 28 31 42 00 cd 	andl   $0xcd,0x423128
  40199b:	00 00 00 
  40199e:	2b 05 c3 30 42 00    	sub    0x4230c3,%eax
  4019a4:	30 1d e1 30 42 00    	xor    %bl,0x4230e1
  4019aa:	c7 05 a6 30 42 00 6b 	movl   $0x6b,0x4230a6
  4019b1:	00 00 00 
  4019b4:	6a 0f                	push   $0xf
  4019b6:	ff 0c 24             	decl   (%esp)
  4019b9:	8d 0d 95 15 a7 98    	lea    0x98a71595,%ecx
  4019bf:	81 e9 21 e3 64 98    	sub    $0x9864e321,%ecx
  4019c5:	51                   	push   %ecx
  4019c6:	8d 05 83 15 a7 98    	lea    0x98a71583,%eax
  4019cc:	2d 21 e3 64 98       	sub    $0x9864e321,%eax
  4019d1:	50                   	push   %eax
  4019d2:	a1 78 f0 41 00       	mov    0x41f078,%eax
  4019d7:	ff d0                	call   *%eax
  4019d9:	85 c0                	test   %eax,%eax
  4019db:	0f 85 31 a5 00 00    	jne    0x40bf12
  4019e1:	31 3d ca 31 42 00    	xor    %edi,0x4231ca
  4019e7:	19 df                	sbb    %ebx,%edi
  4019e9:	09 3d ad 30 42 00    	or     %edi,0x4230ad
  4019ef:	ba 01 00 00 00       	mov    $0x1,%edx
  4019f4:	01 c2                	add    %eax,%edx
  4019f6:	13 15 2b 31 42 00    	adc    0x42312b,%edx
  4019fc:	8d 0d b2 15 a7 98    	lea    0x98a715b2,%ecx
  401a02:	81 e9 21 e3 64 98    	sub    $0x9864e321,%ecx
  401a08:	51                   	push   %ecx
  401a09:	8d 1d a3 15 a7 98    	lea    0x98a715a3,%ebx
  401a0f:	81 eb 21 e3 64 98    	sub    $0x9864e321,%ebx
  401a15:	53                   	push   %ebx
  401a16:	a1 84 f0 41 00       	mov    0x41f084,%eax
  401a1b:	ff d0                	call   *%eax
  401a1d:	c7 05 dd 31 42 00 4a 	movl   $0x4a,0x4231dd
  401a24:	00 00 00 
  401a27:	2e e9 23 a0 00 00    	cs jmp 0x40ba50
  401a2d:	81 15 20 30 42 00 84 	adcl   $0x84,0x423020
  401a34:	00 00 00 
  401a37:	83 35 87 31 42 00 71 	xorl   $0x71,0x423187
	...
  401a4a:	b9 01 00 00 00       	mov    $0x1,%ecx
  401a4f:	01 f1                	add    %esi,%ecx
  401a51:	12 1d 10 30 42 00    	adc    0x423010,%bl
  401a57:	83 d9 48             	sbb    $0x48,%ecx
  401a5a:	10 2d bc 30 42 00    	adc    %ch,0x4230bc
  401a60:	ba 01 00 00 00       	mov    $0x1,%edx
  401a65:	13 15 1b 31 42 00    	adc    0x42311b,%edx
  401a6b:	8d 1d b2 15 a7 98    	lea    0x98a715b2,%ebx
  401a71:	81 eb 21 e3 64 98    	sub    $0x9864e321,%ebx
  401a77:	53                   	push   %ebx
  401a78:	8d 1d a3 15 a7 98    	lea    0x98a715a3,%ebx
  401a7e:	81 eb 21 e3 64 98    	sub    $0x9864e321,%ebx
  401a84:	53                   	push   %ebx
  401a85:	a1 84 f0 41 00       	mov    0x41f084,%eax
  401a8a:	ff d0                	call   *%eax
  401a8c:	6a 0f                	push   $0xf
  401a8e:	ff 0c 24             	decl   (%esp)
  401a91:	8d 05 95 15 a7 98    	lea    0x98a71595,%eax
  401a97:	2d 21 e3 64 98       	sub    $0x9864e321,%eax
  401a9c:	50                   	push   %eax
  401a9d:	8d 05 83 15 a7 98    	lea    0x98a71583,%eax
  401aa3:	2d 21 e3 64 98       	sub    $0x9864e321,%eax
  401aa8:	50                   	push   %eax
  401aa9:	a1 78 f0 41 00       	mov    0x41f078,%eax
  401aae:	ff d0                	call   *%eax
  401ab0:	83 f8 00             	cmp    $0x0,%eax
  401ab3:	0f 85 59 a4 00 00    	jne    0x40bf12
  401ab9:	ba 01 00 00 00       	mov    $0x1,%edx
  401abe:	01 fa                	add    %edi,%edx
  401ac0:	6a 0f                	push   $0xf
  401ac2:	ff 0c 24             	decl   (%esp)
  401ac5:	8d 1d 95 15 a7 98    	lea    0x98a71595,%ebx
  401acb:	81 eb 21 e3 64 98    	sub    $0x9864e321,%ebx
  401ad1:	53                   	push   %ebx
  401ad2:	8d 35 83 15 a7 98    	lea    0x98a71583,%esi
  401ad8:	81 ee 21 e3 64 98    	sub    $0x9864e321,%esi
  401ade:	56                   	push   %esi
  401adf:	a1 78 f0 41 00       	mov    0x41f078,%eax
  401ae4:	ff d0                	call   *%eax
  401ae6:	85 c0                	test   %eax,%eax
  401ae8:	0f 85 24 a4 00 00    	jne    0x40bf12
  401aee:	6a 0f                	push   $0xf
  401af0:	ff 0c 24             	decl   (%esp)
  401af3:	8d 15 95 15 a7 98    	lea    0x98a71595,%edx
  401af9:	81 ea 21 e3 64 98    	sub    $0x9864e321,%edx
  401aff:	52                   	push   %edx
  401b00:	8d 05 83 15 a7 98    	lea    0x98a71583,%eax
  401b06:	2d 21 e3 64 98       	sub    $0x9864e321,%eax
  401b0b:	50                   	push   %eax
  401b0c:	a1 78 f0 41 00       	mov    0x41f078,%eax
  401b11:	ff d0                	call   *%eax
  401b13:	83 f8 00             	cmp    $0x0,%eax
  401b16:	0f 85 f6 a3 00 00    	jne    0x40bf12
  401b1c:	8d 35 b2 15 a7 98    	lea    0x98a715b2,%esi
  401b22:	81 ee 21 e3 64 98    	sub    $0x9864e321,%esi
  401b28:	56                   	push   %esi
  401b29:	8d 3d a3 15 a7 98    	lea    0x98a715a3,%edi
  401b2f:	81 ef 21 e3 64 98    	sub    $0x9864e321,%edi
  401b35:	57                   	push   %edi
  401b36:	a1 84 f0 41 00       	mov    0x41f084,%eax
  401b3b:	ff d0                	call   *%eax
  401b3d:	12 05 e3 31 42 00    	adc    0x4231e3,%al
  401b43:	13 3d 0d 30 42 00    	adc    0x42300d,%edi
  401b49:	6a 0f                	push   $0xf
  401b4b:	ff 0c 24             	decl   (%esp)
  401b4e:	8d 1d 95 15 a7 98    	lea    0x98a71595,%ebx
  401b54:	81 eb 21 e3 64 98    	sub    $0x9864e321,%ebx
  401b5a:	53                   	push   %ebx
  401b5b:	8d 0d 83 15 a7 98    	lea    0x98a71583,%ecx
  401b61:	81 e9 21 e3 64 98    	sub    $0x9864e321,%ecx
  401b67:	51                   	push   %ecx
  401b68:	a1 78 f0 41 00       	mov    0x41f078,%eax
  401b6d:	ff d0                	call   *%eax
  401b6f:	83 f8 00             	cmp    $0x0,%eax
  401b72:	0f 85 9a a3 00 00    	jne    0x40bf12
  401b78:	6a 0f                	push   $0xf
  401b7a:	ff 0c 24             	decl   (%esp)
  401b7d:	8d 15 95 15 a7 98    	lea    0x98a71595,%edx
  401b83:	81 ea 21 e3 64 98    	sub    $0x9864e321,%edx
  401b89:	52                   	push   %edx
  401b8a:	8d 0d 83 15 a7 98    	lea    0x98a71583,%ecx
  401b90:	81 e9 21 e3 64 98    	sub    $0x9864e321,%ecx
  401b96:	51                   	push   %ecx
  401b97:	a1 78 f0 41 00       	mov    0x41f078,%eax
  401b9c:	ff d0                	call   *%eax
  401b9e:	83 f8 00             	cmp    $0x0,%eax
  401ba1:	0f 85 6b a3 00 00    	jne    0x40bf12
  401ba7:	01 1d 58 31 42 00    	add    %ebx,0x423158
  401bad:	09 35 a3 30 42 00    	or     %esi,0x4230a3
  401bb3:	c7 05 46 31 42 00 b0 	movl   $0xb0,0x423146
  401bba:	00 00 00 
  401bbd:	ba 01 00 00 00       	mov    $0x1,%edx
  401bc2:	83 c2 92             	add    $0xffffff92,%edx
  401bc5:	8d 1d b2 15 a7 98    	lea    0x98a715b2,%ebx
  401bcb:	81 eb 21 e3 64 98    	sub    $0x9864e321,%ebx
  401bd1:	53                   	push   %ebx
  401bd2:	8d 0d a3 15 a7 98    	lea    0x98a715a3,%ecx
  401bd8:	81 e9 21 e3 64 98    	sub    $0x9864e321,%ecx
  401bde:	51                   	push   %ecx
  401bdf:	a1 84 f0 41 00       	mov    0x41f084,%eax
  401be4:	ff d0                	call   *%eax
  401be6:	13 1d 1c 30 42 00    	adc    0x42301c,%ebx
  401bec:	6a 0f                	push   $0xf
  401bee:	ff 0c 24             	decl   (%esp)
  401bf1:	8d 0d 95 15 a7 98    	lea    0x98a71595,%ecx
  401bf7:	81 e9 21 e3 64 98    	sub    $0x9864e321,%ecx
  401bfd:	51                   	push   %ecx
  401bfe:	8d 05 83 15 a7 98    	lea    0x98a71583,%eax
  401c04:	2d 21 e3 64 98       	sub    $0x9864e321,%eax
  401c09:	50                   	push   %eax
  401c0a:	a1 78 f0 41 00       	mov    0x41f078,%eax
  401c0f:	ff d0                	call   *%eax
  401c11:	85 c0                	test   %eax,%eax
  401c13:	0f 85 f9 a2 00 00    	jne    0x40bf12
  401c19:	8d 3d b2 15 a7 98    	lea    0x98a715b2,%edi
  401c1f:	81 ef 21 e3 64 98    	sub    $0x9864e321,%edi
  401c25:	57                   	push   %edi
  401c26:	8d 1d a3 15 a7 98    	lea    0x98a715a3,%ebx
  401c2c:	81 eb 21 e3 64 98    	sub    $0x9864e321,%ebx
  401c32:	53                   	push   %ebx
  401c33:	a1 84 f0 41 00       	mov    0x41f084,%eax
  401c38:	ff d0                	call   *%eax
  401c3a:	2e e9 10 9e 00 00    	cs jmp 0x40ba50
  401c40:	83 25 b9 30 42 00 15 	andl   $0x15,0x4230b9
  401c47:	83 ef e3             	sub    $0xffffffe3,%edi
  401c4a:	b5 01                	mov    $0x1,%ch
  401c4c:	00 fd                	add    %bh,%ch
  401c4e:	29 3d ee 30 42 00    	sub    %edi,0x4230ee
	...
  401c5c:	00 00                	add    %al,(%eax)
  401c5e:	00 12                	add    %dl,(%edx)
  401c60:	1d 3e 31 42 00       	sbb    $0x42313e,%eax
  401c65:	11 fe                	adc    %edi,%esi
  401c67:	21 05 65 31 42 00    	and    %eax,0x423165
  401c6d:	11 1d ec 30 42 00    	adc    %ebx,0x4230ec
  401c73:	8d 15 b2 15 a7 98    	lea    0x98a715b2,%edx
  401c79:	81 ea 21 e3 64 98    	sub    $0x9864e321,%edx
  401c7f:	52                   	push   %edx
  401c80:	8d 05 a3 15 a7 98    	lea    0x98a715a3,%eax
  401c86:	2d 21 e3 64 98       	sub    $0x9864e321,%eax
  401c8b:	50                   	push   %eax
  401c8c:	a1 84 f0 41 00       	mov    0x41f084,%eax
  401c91:	ff d0                	call   *%eax
  401c93:	01 05 f5 30 42 00    	add    %eax,0x4230f5
  401c99:	83 cb d4             	or     $0xffffffd4,%ebx
  401c9c:	28 25 4f 30 42 00    	sub    %ah,0x42304f
  401ca2:	8d 1d b2 15 a7 98    	lea    0x98a715b2,%ebx
  401ca8:	81 eb 21 e3 64 98    	sub    $0x9864e321,%ebx
  401cae:	53                   	push   %ebx
  401caf:	8d 15 a3 15 a7 98    	lea    0x98a715a3,%edx
  401cb5:	81 ea 21 e3 64 98    	sub    $0x9864e321,%edx
  401cbb:	52                   	push   %edx
  401cbc:	a1 84 f0 41 00       	mov    0x41f084,%eax
  401cc1:	ff d0                	call   *%eax
  401cc3:	83 35 d6 30 42 00 7f 	xorl   $0x7f,0x4230d6
  401cca:	6a 0f                	push   $0xf
  401ccc:	ff 0c 24             	decl   (%esp)
  401ccf:	8d 1d 95 15 a7 98    	lea    0x98a71595,%ebx
  401cd5:	81 eb 21 e3 64 98    	sub    $0x9864e321,%ebx
  401cdb:	53                   	push   %ebx
  401cdc:	8d 3d 83 15 a7 98    	lea    0x98a71583,%edi
  401ce2:	81 ef 21 e3 64 98    	sub    $0x9864e321,%edi
  401ce8:	57                   	push   %edi
  401ce9:	a1 78 f0 41 00       	mov    0x41f078,%eax
  401cee:	ff d0                	call   *%eax
  401cf0:	85 c0                	test   %eax,%eax
  401cf2:	0f 85 1a a2 00 00    	jne    0x40bf12
  401cf8:	6a 0f                	push   $0xf
  401cfa:	ff 0c 24             	decl   (%esp)
  401cfd:	8d 15 95 15 a7 98    	lea    0x98a71595,%edx
  401d03:	81 ea 21 e3 64 98    	sub    $0x9864e321,%edx
  401d09:	52                   	push   %edx
  401d0a:	8d 1d 83 15 a7 98    	lea    0x98a71583,%ebx
  401d10:	81 eb 21 e3 64 98    	sub    $0x9864e321,%ebx
  401d16:	53                   	push   %ebx
  401d17:	a1 78 f0 41 00       	mov    0x41f078,%eax
  401d1c:	ff d0                	call   *%eax
  401d1e:	85 c0                	test   %eax,%eax
  401d20:	0f 85 ec a1 00 00    	jne    0x40bf12
  401d26:	ba 01 00 00 00       	mov    $0x1,%edx
  401d2b:	01 da                	add    %ebx,%edx
  401d2d:	6a 0f                	push   $0xf
  401d2f:	ff 0c 24             	decl   (%esp)
  401d32:	8d 3d 95 15 a7 98    	lea    0x98a71595,%edi
  401d38:	81 ef 21 e3 64 98    	sub    $0x9864e321,%edi
  401d3e:	57                   	push   %edi
  401d3f:	8d 15 83 15 a7 98    	lea    0x98a71583,%edx
  401d45:	81 ea 21 e3 64 98    	sub    $0x9864e321,%edx
  401d4b:	52                   	push   %edx
  401d4c:	a1 78 f0 41 00       	mov    0x41f078,%eax
  401d51:	ff d0                	call   *%eax
  401d53:	85 c0                	test   %eax,%eax
  401d55:	0f 85 b7 a1 00 00    	jne    0x40bf12
  401d5b:	82 2d c7 31 42 00 a3 	subb   $0xa3,0x4231c7
  401d62:	82 2d 41 30 42 00 49 	subb   $0x49,0x423041
  401d69:	6a 0f                	push   $0xf
  401d6b:	ff 0c 24             	decl   (%esp)
  401d6e:	8d 15 95 15 a7 98    	lea    0x98a71595,%edx
  401d74:	81 ea 21 e3 64 98    	sub    $0x9864e321,%edx
  401d7a:	52                   	push   %edx
  401d7b:	8d 0d 83 15 a7 98    	lea    0x98a71583,%ecx
  401d81:	81 e9 21 e3 64 98    	sub    $0x9864e321,%ecx
  401d87:	51                   	push   %ecx
  401d88:	a1 78 f0 41 00       	mov    0x41f078,%eax
  401d8d:	ff d0                	call   *%eax
  401d8f:	85 c0                	test   %eax,%eax
  401d91:	0f 85 7b a1 00 00    	jne    0x40bf12
  401d97:	18 05 bf 30 42 00    	sbb    %al,0x4230bf
  401d9d:	13 1d 9b 30 42 00    	adc    0x42309b,%ebx
  401da3:	13 05 a7 31 42 00    	adc    0x4231a7,%eax
  401da9:	83 ef a3             	sub    $0xffffffa3,%edi
  401dac:	83 1d 4a 30 42 00 6f 	sbbl   $0x6f,0x42304a
  401db3:	8d 05 b2 15 a7 98    	lea    0x98a715b2,%eax
  401db9:	2d 21 e3 64 98       	sub    $0x9864e321,%eax
  401dbe:	50                   	push   %eax
  401dbf:	8d 05 a3 15 a7 98    	lea    0x98a715a3,%eax
  401dc5:	2d 21 e3 64 98       	sub    $0x9864e321,%eax
  401dca:	50                   	push   %eax
  401dcb:	a1 84 f0 41 00       	mov    0x41f084,%eax
  401dd0:	ff d0                	call   *%eax
  401dd2:	8d 1d b2 15 a7 98    	lea    0x98a715b2,%ebx
  401dd8:	81 eb 21 e3 64 98    	sub    $0x9864e321,%ebx
  401dde:	53                   	push   %ebx
  401ddf:	8d 3d a3 15 a7 98    	lea    0x98a715a3,%edi
  401de5:	81 ef 21 e3 64 98    	sub    $0x9864e321,%edi
  401deb:	57                   	push   %edi
  401dec:	a1 84 f0 41 00       	mov    0x41f084,%eax
  401df1:	ff d0                	call   *%eax
  401df3:	18 3d 23 30 42 00    	sbb    %bh,0x423023
  401df9:	09 3d 3d 30 42 00    	or     %edi,0x42303d
  401dff:	2a 3d fb 31 42 00    	sub    0x4231fb,%bh
  401e05:	6a 0f                	push   $0xf
  401e07:	ff 0c 24             	decl   (%esp)
  401e0a:	8d 15 95 15 a7 98    	lea    0x98a71595,%edx
  401e10:	81 ea 21 e3 64 98    	sub    $0x9864e321,%edx
  401e16:	52                   	push   %edx
  401e17:	8d 05 83 15 a7 98    	lea    0x98a71583,%eax
  401e1d:	2d 21 e3 64 98       	sub    $0x9864e321,%eax
  401e22:	50                   	push   %eax
  401e23:	a1 78 f0 41 00       	mov    0x41f078,%eax
  401e28:	ff d0                	call   *%eax
  401e2a:	83 f8 00             	cmp    $0x0,%eax
  401e2d:	0f 85 df a0 00 00    	jne    0x40bf12
  401e33:	08 1d 0d 31 42 00    	or     %bl,0x42310d
  401e39:	12 1d 2f 31 42 00    	adc    0x42312f,%bl
  401e3f:	29 f3                	sub    %esi,%ebx
  401e41:	82 2d 22 31 42 00 74 	subb   $0x74,0x423122
  401e48:	6a 0f                	push   $0xf
  401e4a:	ff 0c 24             	decl   (%esp)
  401e4d:	8d 3d 95 15 a7 98    	lea    0x98a71595,%edi
  401e53:	81 ef 21 e3 64 98    	sub    $0x9864e321,%edi
  401e59:	57                   	push   %edi
  401e5a:	8d 1d 83 15 a7 98    	lea    0x98a71583,%ebx
  401e60:	81 eb 21 e3 64 98    	sub    $0x9864e321,%ebx
  401e66:	53                   	push   %ebx
  401e67:	a1 78 f0 41 00       	mov    0x41f078,%eax
  401e6c:	ff d0                	call   *%eax
  401e6e:	85 c0                	test   %eax,%eax
  401e70:	0f 85 9c a0 00 00    	jne    0x40bf12
  401e76:	11 1d 6d 30 42 00    	adc    %ebx,0x42306d
  401e7c:	0b 35 55 31 42 00    	or     0x423155,%esi
  401e82:	13 1d 07 31 42 00    	adc    0x423107,%ebx
  401e88:	81 35 ea 31 42 00 d8 	xorl   $0xd8,0x4231ea
  401e8f:	00 00 00 
  401e92:	b9 01 00 00 00       	mov    $0x1,%ecx
  401e97:	83 c1 bb             	add    $0xffffffbb,%ecx
  401e9a:	2e e9 b0 9b 00 00    	cs jmp 0x40ba50
  401ea0:	13 35 27 30 42 00    	adc    0x423027,%esi
  401ea6:	83 25 b9 31 42 00 47 	andl   $0x47,0x4231b9
	...
  401eb9:	00 00                	add    %al,(%eax)
  401ebb:	00 29                	add    %ch,(%ecx)
  401ebd:	3d d2 31 42 00       	cmp    $0x4231d2,%eax
  401ec2:	12 05 20 31 42 00    	adc    0x423120,%al
  401ec8:	81 15 8f 30 42 00 93 	adcl   $0x93,0x42308f
  401ecf:	00 00 00 
  401ed2:	13 05 ee 30 42 00    	adc    0x4230ee,%eax
  401ed8:	6a 0f                	push   $0xf
  401eda:	ff 0c 24             	decl   (%esp)
  401edd:	8d 15 95 15 a7 98    	lea    0x98a71595,%edx
  401ee3:	81 ea 21 e3 64 98    	sub    $0x9864e321,%edx
  401ee9:	52                   	push   %edx
  401eea:	8d 0d 83 15 a7 98    	lea    0x98a71583,%ecx
  401ef0:	81 e9 21 e3 64 98    	sub    $0x9864e321,%ecx
  401ef6:	51                   	push   %ecx
  401ef7:	a1 78 f0 41 00       	mov    0x41f078,%eax
  401efc:	ff d0                	call   *%eax
  401efe:	83 f8 00             	cmp    $0x0,%eax
  401f01:	0f 85 0b a0 00 00    	jne    0x40bf12
  401f07:	01 fe                	add    %edi,%esi
  401f09:	81 35 5b 30 42 00 bf 	xorl   $0xbf,0x42305b
  401f10:	00 00 00 
  401f13:	01 c0                	add    %eax,%eax
  401f15:	b6 01                	mov    $0x1,%dh
  401f17:	00 de                	add    %bl,%dh
  401f19:	01 c7                	add    %eax,%edi
  401f1b:	6a 0f                	push   $0xf
  401f1d:	ff 0c 24             	decl   (%esp)
  401f20:	8d 35 95 15 a7 98    	lea    0x98a71595,%esi
  401f26:	81 ee 21 e3 64 98    	sub    $0x9864e321,%esi
  401f2c:	56                   	push   %esi
  401f2d:	8d 35 83 15 a7 98    	lea    0x98a71583,%esi
  401f33:	81 ee 21 e3 64 98    	sub    $0x9864e321,%esi
  401f39:	56                   	push   %esi
  401f3a:	a1 78 f0 41 00       	mov    0x41f078,%eax
  401f3f:	ff d0                	call   *%eax
  401f41:	85 c0                	test   %eax,%eax
  401f43:	0f 85 c9 9f 00 00    	jne    0x40bf12
  401f49:	83 eb 75             	sub    $0x75,%ebx
  401f4c:	0b 1d e6 30 42 00    	or     0x4230e6,%ebx
  401f52:	b9 01 00 00 00       	mov    $0x1,%ecx
  401f57:	01 c1                	add    %eax,%ecx
  401f59:	8d 1d b2 15 a7 98    	lea    0x98a715b2,%ebx
  401f5f:	81 eb 21 e3 64 98    	sub    $0x9864e321,%ebx
  401f65:	53                   	push   %ebx
  401f66:	8d 0d a3 15 a7 98    	lea    0x98a715a3,%ecx
  401f6c:	81 e9 21 e3 64 98    	sub    $0x9864e321,%ecx
  401f72:	51                   	push   %ecx
  401f73:	a1 84 f0 41 00       	mov    0x41f084,%eax
  401f78:	ff d0                	call   *%eax
  401f7a:	01 35 ce 30 42 00    	add    %esi,0x4230ce
  401f80:	11 c3                	adc    %eax,%ebx
  401f82:	83 c6 01             	add    $0x1,%esi
  401f85:	12 1d 64 30 42 00    	adc    0x423064,%bl
  401f8b:	8d 1d b2 15 a7 98    	lea    0x98a715b2,%ebx
  401f91:	81 eb 21 e3 64 98    	sub    $0x9864e321,%ebx
  401f97:	53                   	push   %ebx
  401f98:	8d 1d a3 15 a7 98    	lea    0x98a715a3,%ebx
  401f9e:	81 eb 21 e3 64 98    	sub    $0x9864e321,%ebx
  401fa4:	53                   	push   %ebx
  401fa5:	a1 84 f0 41 00       	mov    0x41f084,%eax
  401faa:	ff d0                	call   *%eax
  401fac:	13 3d 3c 31 42 00    	adc    0x42313c,%edi
  401fb2:	31 db                	xor    %ebx,%ebx
  401fb4:	11 3d c2 30 42 00    	adc    %edi,0x4230c2
  401fba:	6a 0f                	push   $0xf
  401fbc:	ff 0c 24             	decl   (%esp)
  401fbf:	8d 05 95 15 a7 98    	lea    0x98a71595,%eax
  401fc5:	2d 21 e3 64 98       	sub    $0x9864e321,%eax
  401fca:	50                   	push   %eax
  401fcb:	8d 3d 83 15 a7 98    	lea    0x98a71583,%edi
  401fd1:	81 ef 21 e3 64 98    	sub    $0x9864e321,%edi
  401fd7:	57                   	push   %edi
  401fd8:	a1 78 f0 41 00       	mov    0x41f078,%eax
  401fdd:	ff d0                	call   *%eax
  401fdf:	85 c0                	test   %eax,%eax
  401fe1:	0f 85 2b 9f 00 00    	jne    0x40bf12
  401fe7:	31 d8                	xor    %ebx,%eax
  401fe9:	13 3d ee 31 42 00    	adc    0x4231ee,%edi
  401fef:	c7 05 c1 30 42 00 7f 	movl   $0x7f,0x4230c1
  401ff6:	00 00 00 
  401ff9:	b9 01 00 00 00       	mov    $0x1,%ecx
  401ffe:	83 c1 91             	add    $0xffffff91,%ecx
  402001:	83 15 1d 31 42 00 69 	adcl   $0x69,0x42311d
  402008:	8d 3d b2 15 a7 98    	lea    0x98a715b2,%edi
  40200e:	81 ef 21 e3 64 98    	sub    $0x9864e321,%edi
  402014:	57                   	push   %edi
  402015:	8d 1d a3 15 a7 98    	lea    0x98a715a3,%ebx
  40201b:	81 eb 21 e3 64 98    	sub    $0x9864e321,%ebx
  402021:	53                   	push   %ebx
  402022:	a1 84 f0 41 00       	mov    0x41f084,%eax
  402027:	ff d0                	call   *%eax
  402029:	82 c3 47             	add    $0x47,%bl
  40202c:	6a 0f                	push   $0xf
  40202e:	ff 0c 24             	decl   (%esp)
  402031:	8d 15 95 15 a7 98    	lea    0x98a71595,%edx
  402037:	81 ea 21 e3 64 98    	sub    $0x9864e321,%edx
  40203d:	52                   	push   %edx
  40203e:	8d 3d 83 15 a7 98    	lea    0x98a71583,%edi
  402044:	81 ef 21 e3 64 98    	sub    $0x9864e321,%edi
  40204a:	57                   	push   %edi
  40204b:	a1 78 f0 41 00       	mov    0x41f078,%eax
  402050:	ff d0                	call   *%eax
  402052:	83 f8 00             	cmp    $0x0,%eax
  402055:	0f 85 b7 9e 00 00    	jne    0x40bf12
  40205b:	19 1d bc 30 42 00    	sbb    %ebx,0x4230bc
  402061:	c7 05 4f 30 42 00 f4 	movl   $0xf4,0x42304f
  402068:	00 00 00 
  40206b:	0a 3d 4f 30 42 00    	or     0x42304f,%bh
  402071:	83 d0 f4             	adc    $0xfffffff4,%eax
  402074:	8d 3d b2 15 a7 98    	lea    0x98a715b2,%edi
  40207a:	81 ef 21 e3 64 98    	sub    $0x9864e321,%edi
  402080:	57                   	push   %edi
  402081:	8d 0d a3 15 a7 98    	lea    0x98a715a3,%ecx
  402087:	81 e9 21 e3 64 98    	sub    $0x9864e321,%ecx
  40208d:	51                   	push   %ecx
  40208e:	a1 84 f0 41 00       	mov    0x41f084,%eax
  402093:	ff d0                	call   *%eax
  402095:	28 1d 2d 30 42 00    	sub    %bl,0x42302d
  40209b:	09 35 13 30 42 00    	or     %esi,0x423013
  4020a1:	13 1d 7e 30 42 00    	adc    0x42307e,%ebx
  4020a7:	0b 05 e6 31 42 00    	or     0x4231e6,%eax
  4020ad:	83 c3 73             	add    $0x73,%ebx
  4020b0:	8d 0d b2 15 a7 98    	lea    0x98a715b2,%ecx
  4020b6:	81 e9 21 e3 64 98    	sub    $0x9864e321,%ecx
  4020bc:	51                   	push   %ecx
  4020bd:	8d 1d a3 15 a7 98    	lea    0x98a715a3,%ebx
  4020c3:	81 eb 21 e3 64 98    	sub    $0x9864e321,%ebx
  4020c9:	53                   	push   %ebx
  4020ca:	a1 84 f0 41 00       	mov    0x41f084,%eax
  4020cf:	ff d0                	call   *%eax
  4020d1:	83 f3 11             	xor    $0x11,%ebx
  4020d4:	0a 05 a9 31 42 00    	or     0x4231a9,%al
  4020da:	81 15 9c 31 42 00 dc 	adcl   $0xdc,0x42319c
  4020e1:	00 00 00 
  4020e4:	ba 01 00 00 00       	mov    $0x1,%edx
  4020e9:	01 fa                	add    %edi,%edx
  4020eb:	83 25 4d 30 42 00 6f 	andl   $0x6f,0x42304d
  4020f2:	8d 05 b2 15 a7 98    	lea    0x98a715b2,%eax
  4020f8:	2d 21 e3 64 98       	sub    $0x9864e321,%eax
  4020fd:	50                   	push   %eax
  4020fe:	8d 15 a3 15 a7 98    	lea    0x98a715a3,%edx
  402104:	81 ea 21 e3 64 98    	sub    $0x9864e321,%edx
  40210a:	52                   	push   %edx
  40210b:	a1 84 f0 41 00       	mov    0x41f084,%eax
  402110:	ff d0                	call   *%eax
  402112:	6a 0f                	push   $0xf
  402114:	ff 0c 24             	decl   (%esp)
  402117:	8d 3d 95 15 a7 98    	lea    0x98a71595,%edi
  40211d:	81 ef 21 e3 64 98    	sub    $0x9864e321,%edi
  402123:	57                   	push   %edi
  402124:	8d 3d 83 15 a7 98    	lea    0x98a71583,%edi
  40212a:	81 ef 21 e3 64 98    	sub    $0x9864e321,%edi
  402130:	57                   	push   %edi
  402131:	a1 78 f0 41 00       	mov    0x41f078,%eax
  402136:	ff d0                	call   *%eax
  402138:	83 f8 00             	cmp    $0x0,%eax
  40213b:	0f 85 d1 9d 00 00    	jne    0x40bf12
  402141:	83 1d 19 30 42 00 42 	sbbl   $0x42,0x423019
  402148:	21 3d 5d 30 42 00    	and    %edi,0x42305d
  40214e:	6a 0f                	push   $0xf
  402150:	ff 0c 24             	decl   (%esp)
  402153:	8d 3d 95 15 a7 98    	lea    0x98a71595,%edi
  402159:	81 ef 21 e3 64 98    	sub    $0x9864e321,%edi
  40215f:	57                   	push   %edi
  402160:	8d 0d 83 15 a7 98    	lea    0x98a71583,%ecx
  402166:	81 e9 21 e3 64 98    	sub    $0x9864e321,%ecx
  40216c:	51                   	push   %ecx
  40216d:	a1 78 f0 41 00       	mov    0x41f078,%eax
  402172:	ff d0                	call   *%eax
  402174:	85 c0                	test   %eax,%eax
  402176:	0f 85 96 9d 00 00    	jne    0x40bf12
  40217c:	29 f6                	sub    %esi,%esi
  40217e:	ba 01 00 00 00       	mov    $0x1,%edx
  402183:	01 f2                	add    %esi,%edx
  402185:	01 d6                	add    %edx,%esi
  402187:	09 1d 7e 31 42 00    	or     %ebx,0x42317e
  40218d:	2e e9 bd 98 00 00    	cs jmp 0x40ba50
  402193:	01 05 06 31 42 00    	add    %eax,0x423106
  402199:	01 fe                	add    %edi,%esi
  40219b:	83 35 53 30 42 00 2d 	xorl   $0x2d,0x423053
  4021a2:	0b 15 6c 31 42 00    	or     0x42316c,%edx
  4021a8:	83 d2 16             	adc    $0x16,%edx
	...
  4021bb:	81 25 40 31 42 00 c3 	andl   $0xc3,0x423140
  4021c2:	00 00 00 
  4021c5:	6a 0f                	push   $0xf
  4021c7:	ff 0c 24             	decl   (%esp)
  4021ca:	8d 0d 95 15 a7 98    	lea    0x98a71595,%ecx
  4021d0:	81 e9 21 e3 64 98    	sub    $0x9864e321,%ecx
  4021d6:	51                   	push   %ecx
  4021d7:	8d 1d 83 15 a7 98    	lea    0x98a71583,%ebx
  4021dd:	81 eb 21 e3 64 98    	sub    $0x9864e321,%ebx
  4021e3:	53                   	push   %ebx
  4021e4:	a1 78 f0 41 00       	mov    0x41f078,%eax
  4021e9:	ff d0                	call   *%eax
  4021eb:	85 c0                	test   %eax,%eax
  4021ed:	0f 85 1f 9d 00 00    	jne    0x40bf12
  4021f3:	ba 01 00 00 00       	mov    $0x1,%edx
  4021f8:	83 c2 05             	add    $0x5,%edx
  4021fb:	c7 05 a6 30 42 00 dc 	movl   $0xdc,0x4230a6
  402202:	00 00 00 
  402205:	6a 0f                	push   $0xf
  402207:	ff 0c 24             	decl   (%esp)
  40220a:	8d 35 95 15 a7 98    	lea    0x98a71595,%esi
  402210:	81 ee 21 e3 64 98    	sub    $0x9864e321,%esi
  402216:	56                   	push   %esi
  402217:	8d 3d 83 15 a7 98    	lea    0x98a71583,%edi
  40221d:	81 ef 21 e3 64 98    	sub    $0x9864e321,%edi
  402223:	57                   	push   %edi
  402224:	a1 78 f0 41 00       	mov    0x41f078,%eax
  402229:	ff d0                	call   *%eax
  40222b:	85 c0                	test   %eax,%eax
  40222d:	0f 85 df 9c 00 00    	jne    0x40bf12
  402233:	6a 0f                	push   $0xf
  402235:	ff 0c 24             	decl   (%esp)
  402238:	8d 3d 95 15 a7 98    	lea    0x98a71595,%edi
  40223e:	81 ef 21 e3 64 98    	sub    $0x9864e321,%edi
  402244:	57                   	push   %edi
  402245:	8d 0d 83 15 a7 98    	lea    0x98a71583,%ecx
  40224b:	81 e9 21 e3 64 98    	sub    $0x9864e321,%ecx
  402251:	51                   	push   %ecx
  402252:	a1 78 f0 41 00       	mov    0x41f078,%eax
  402257:	ff d0                	call   *%eax
  402259:	83 f8 00             	cmp    $0x0,%eax
  40225c:	0f 85 b0 9c 00 00    	jne    0x40bf12
  402262:	b6 01                	mov    $0x1,%dh
  402264:	82 c6 4d             	add    $0x4d,%dh
  402267:	29 fe                	sub    %edi,%esi
  402269:	11 15 92 30 42 00    	adc    %edx,0x423092
  40226f:	8d 3d b2 15 a7 98    	lea    0x98a715b2,%edi
  402275:	81 ef 21 e3 64 98    	sub    $0x9864e321,%edi
  40227b:	57                   	push   %edi
  40227c:	8d 0d a3 15 a7 98    	lea    0x98a715a3,%ecx
  402282:	81 e9 21 e3 64 98    	sub    $0x9864e321,%ecx
  402288:	51                   	push   %ecx
  402289:	a1 84 f0 41 00       	mov    0x41f084,%eax
  40228e:	ff d0                	call   *%eax
  402290:	83 cb d0             	or     $0xffffffd0,%ebx
  402293:	13 05 65 30 42 00    	adc    0x423065,%eax
  402299:	12 3d d7 31 42 00    	adc    0x4231d7,%bh
  40229f:	8d 35 b2 15 a7 98    	lea    0x98a715b2,%esi
  4022a5:	81 ee 21 e3 64 98    	sub    $0x9864e321,%esi
  4022ab:	56                   	push   %esi
  4022ac:	8d 15 a3 15 a7 98    	lea    0x98a715a3,%edx
  4022b2:	81 ea 21 e3 64 98    	sub    $0x9864e321,%edx
  4022b8:	52                   	push   %edx
  4022b9:	a1 84 f0 41 00       	mov    0x41f084,%eax
  4022be:	ff d0                	call   *%eax
  4022c0:	8d 1d b2 15 a7 98    	lea    0x98a715b2,%ebx
  4022c6:	81 eb 21 e3 64 98    	sub    $0x9864e321,%ebx
  4022cc:	53                   	push   %ebx
  4022cd:	8d 0d a3 15 a7 98    	lea    0x98a715a3,%ecx
  4022d3:	81 e9 21 e3 64 98    	sub    $0x9864e321,%ecx
  4022d9:	51                   	push   %ecx
  4022da:	a1 84 f0 41 00       	mov    0x41f084,%eax
  4022df:	ff d0                	call   *%eax
  4022e1:	b5 01                	mov    $0x1,%ch
  4022e3:	00 c5                	add    %al,%ch
  4022e5:	8d 3d b2 15 a7 98    	lea    0x98a715b2,%edi
  4022eb:	81 ef 21 e3 64 98    	sub    $0x9864e321,%edi
  4022f1:	57                   	push   %edi
  4022f2:	8d 1d a3 15 a7 98    	lea    0x98a715a3,%ebx
  4022f8:	81 eb 21 e3 64 98    	sub    $0x9864e321,%ebx
  4022fe:	53                   	push   %ebx
  4022ff:	a1 84 f0 41 00       	mov    0x41f084,%eax
  402304:	ff d0                	call   *%eax
  402306:	12 3d 2c 30 42 00    	adc    0x42302c,%bh
  40230c:	01 3d c1 31 42 00    	add    %edi,0x4231c1
  402312:	83 d8 c4             	sbb    $0xffffffc4,%eax
  402315:	83 eb a4             	sub    $0xffffffa4,%ebx
  402318:	0b 1d ef 30 42 00    	or     0x4230ef,%ebx
  40231e:	8d 3d b2 15 a7 98    	lea    0x98a715b2,%edi
  402324:	81 ef 21 e3 64 98    	sub    $0x9864e321,%edi
  40232a:	57                   	push   %edi
  40232b:	8d 1d a3 15 a7 98    	lea    0x98a715a3,%ebx
  402331:	81 eb 21 e3 64 98    	sub    $0x9864e321,%ebx
  402337:	53                   	push   %ebx
  402338:	a1 84 f0 41 00       	mov    0x41f084,%eax
  40233d:	ff d0                	call   *%eax
  40233f:	6a 0f                	push   $0xf
  402341:	ff 0c 24             	decl   (%esp)
  402344:	8d 0d 95 15 a7 98    	lea    0x98a71595,%ecx
  40234a:	81 e9 21 e3 64 98    	sub    $0x9864e321,%ecx
  402350:	51                   	push   %ecx
  402351:	8d 05 83 15 a7 98    	lea    0x98a71583,%eax
  402357:	2d 21 e3 64 98       	sub    $0x9864e321,%eax
  40235c:	50                   	push   %eax
  40235d:	a1 78 f0 41 00       	mov    0x41f078,%eax
  402362:	ff d0                	call   *%eax
  402364:	83 f8 00             	cmp    $0x0,%eax
  402367:	0f 85 a5 9b 00 00    	jne    0x40bf12
  40236d:	13 3d 1b 30 42 00    	adc    0x42301b,%edi
  402373:	01 ff                	add    %edi,%edi
  402375:	81 15 7a 30 42 00 98 	adcl   $0x98,0x42307a
  40237c:	00 00 00 
  40237f:	83 c7 ea             	add    $0xffffffea,%edi
  402382:	8d 0d b2 15 a7 98    	lea    0x98a715b2,%ecx
  402388:	81 e9 21 e3 64 98    	sub    $0x9864e321,%ecx
  40238e:	51                   	push   %ecx
  40238f:	8d 05 a3 15 a7 98    	lea    0x98a715a3,%eax
  402395:	2d 21 e3 64 98       	sub    $0x9864e321,%eax
  40239a:	50                   	push   %eax
  40239b:	a1 84 f0 41 00       	mov    0x41f084,%eax
  4023a0:	ff d0                	call   *%eax
  4023a2:	00 1d 46 30 42 00    	add    %bl,0x423046
  4023a8:	b9 01 00 00 00       	mov    $0x1,%ecx
  4023ad:	01 d9                	add    %ebx,%ecx
  4023af:	83 ce b9             	or     $0xffffffb9,%esi
  4023b2:	8d 35 b2 15 a7 98    	lea    0x98a715b2,%esi
  4023b8:	81 ee 21 e3 64 98    	sub    $0x9864e321,%esi
  4023be:	56                   	push   %esi
  4023bf:	8d 1d a3 15 a7 98    	lea    0x98a715a3,%ebx
  4023c5:	81 eb 21 e3 64 98    	sub    $0x9864e321,%ebx
  4023cb:	53                   	push   %ebx
  4023cc:	a1 84 f0 41 00       	mov    0x41f084,%eax
  4023d1:	ff d0                	call   *%eax
  4023d3:	ba 01 00 00 00       	mov    $0x1,%edx
  4023d8:	01 c2                	add    %eax,%edx
  4023da:	b9 01 00 00 00       	mov    $0x1,%ecx
  4023df:	83 c1 18             	add    $0x18,%ecx
  4023e2:	21 05 9d 31 42 00    	and    %eax,0x42319d
  4023e8:	31 c7                	xor    %eax,%edi
  4023ea:	8d 1d b2 15 a7 98    	lea    0x98a715b2,%ebx
  4023f0:	81 eb 21 e3 64 98    	sub    $0x9864e321,%ebx
  4023f6:	53                   	push   %ebx
  4023f7:	8d 3d a3 15 a7 98    	lea    0x98a715a3,%edi
  4023fd:	81 ef 21 e3 64 98    	sub    $0x9864e321,%edi
  402403:	57                   	push   %edi
  402404:	a1 84 f0 41 00       	mov    0x41f084,%eax
  402409:	ff d0                	call   *%eax
  40240b:	2e e9 3f 96 00 00    	cs jmp 0x40ba50
  402411:	29 05 5a 30 42 00    	sub    %eax,0x42305a
	...
  402423:	00 29                	add    %ch,(%ecx)
  402425:	35 8f 31 42 00       	xor    $0x42318f,%eax
  40242a:	8d 3d b2 15 a7 98    	lea    0x98a715b2,%edi
  402430:	81 ef 21 e3 64 98    	sub    $0x9864e321,%edi
  402436:	57                   	push   %edi
  402437:	8d 35 a3 15 a7 98    	lea    0x98a715a3,%esi
  40243d:	81 ee 21 e3 64 98    	sub    $0x9864e321,%esi
  402443:	56                   	push   %esi
  402444:	a1 84 f0 41 00       	mov    0x41f084,%eax
  402449:	ff d0                	call   *%eax
  40244b:	18 e3                	sbb    %ah,%bl
  40244d:	6a 0f                	push   $0xf
  40244f:	ff 0c 24             	decl   (%esp)
  402452:	8d 15 95 15 a7 98    	lea    0x98a71595,%edx
  402458:	81 ea 21 e3 64 98    	sub    $0x9864e321,%edx
  40245e:	52                   	push   %edx
  40245f:	8d 0d 83 15 a7 98    	lea    0x98a71583,%ecx
  402465:	81 e9 21 e3 64 98    	sub    $0x9864e321,%ecx
  40246b:	51                   	push   %ecx
  40246c:	a1 78 f0 41 00       	mov    0x41f078,%eax
  402471:	ff d0                	call   *%eax
  402473:	83 f8 00             	cmp    $0x0,%eax
  402476:	0f 85 96 9a 00 00    	jne    0x40bf12
  40247c:	01 35 79 31 42 00    	add    %esi,0x423179
  402482:	6a 0f                	push   $0xf
  402484:	ff 0c 24             	decl   (%esp)
  402487:	8d 15 95 15 a7 98    	lea    0x98a71595,%edx
  40248d:	81 ea 21 e3 64 98    	sub    $0x9864e321,%edx
  402493:	52                   	push   %edx
  402494:	8d 15 83 15 a7 98    	lea    0x98a71583,%edx
  40249a:	81 ea 21 e3 64 98    	sub    $0x9864e321,%edx
  4024a0:	52                   	push   %edx
  4024a1:	a1 78 f0 41 00       	mov    0x41f078,%eax
  4024a6:	ff d0                	call   *%eax
  4024a8:	85 c0                	test   %eax,%eax
  4024aa:	0f 85 62 9a 00 00    	jne    0x40bf12
  4024b0:	8d 3d b2 15 a7 98    	lea    0x98a715b2,%edi
  4024b6:	81 ef 21 e3 64 98    	sub    $0x9864e321,%edi
  4024bc:	57                   	push   %edi
  4024bd:	8d 15 a3 15 a7 98    	lea    0x98a715a3,%edx
  4024c3:	81 ea 21 e3 64 98    	sub    $0x9864e321,%edx
  4024c9:	52                   	push   %edx
  4024ca:	a1 84 f0 41 00       	mov    0x41f084,%eax
  4024cf:	ff d0                	call   *%eax
  4024d1:	18 1d 14 30 42 00    	sbb    %bl,0x423014
  4024d7:	83 f3 de             	xor    $0xffffffde,%ebx
  4024da:	01 35 9c 30 42 00    	add    %esi,0x42309c
  4024e0:	b9 01 00 00 00       	mov    $0x1,%ecx
  4024e5:	01 c1                	add    %eax,%ecx
  4024e7:	83 15 66 30 42 00 28 	adcl   $0x28,0x423066
  4024ee:	6a 0f                	push   $0xf
  4024f0:	ff 0c 24             	decl   (%esp)
  4024f3:	8d 1d 95 15 a7 98    	lea    0x98a71595,%ebx
  4024f9:	81 eb 21 e3 64 98    	sub    $0x9864e321,%ebx
  4024ff:	53                   	push   %ebx
  402500:	8d 3d 83 15 a7 98    	lea    0x98a71583,%edi
  402506:	81 ef 21 e3 64 98    	sub    $0x9864e321,%edi
  40250c:	57                   	push   %edi
  40250d:	a1 78 f0 41 00       	mov    0x41f078,%eax
  402512:	ff d0                	call   *%eax
  402514:	85 c0                	test   %eax,%eax
  402516:	0f 85 f6 99 00 00    	jne    0x40bf12
  40251c:	29 c6                	sub    %eax,%esi
  40251e:	c7 05 53 31 42 00 72 	movl   $0x72,0x423153
  402525:	00 00 00 
  402528:	13 35 dc 31 42 00    	adc    0x4231dc,%esi
  40252e:	c7 05 dd 30 42 00 48 	movl   $0x48,0x4230dd
  402535:	00 00 00 
  402538:	8d 35 b2 15 a7 98    	lea    0x98a715b2,%esi
  40253e:	81 ee 21 e3 64 98    	sub    $0x9864e321,%esi
  402544:	56                   	push   %esi
  402545:	8d 0d a3 15 a7 98    	lea    0x98a715a3,%ecx
  40254b:	81 e9 21 e3 64 98    	sub    $0x9864e321,%ecx
  402551:	51                   	push   %ecx
  402552:	a1 84 f0 41 00       	mov    0x41f084,%eax
  402557:	ff d0                	call   *%eax
  402559:	b1 01                	mov    $0x1,%cl
  40255b:	82 c1 0d             	add    $0xd,%cl
  40255e:	8d 0d b2 15 a7 98    	lea    0x98a715b2,%ecx
  402564:	81 e9 21 e3 64 98    	sub    $0x9864e321,%ecx
  40256a:	51                   	push   %ecx
  40256b:	8d 3d a3 15 a7 98    	lea    0x98a715a3,%edi
  402571:	81 ef 21 e3 64 98    	sub    $0x9864e321,%edi
  402577:	57                   	push   %edi
  402578:	a1 84 f0 41 00       	mov    0x41f084,%eax
  40257d:	ff d0                	call   *%eax
  40257f:	83 1d 67 30 42 00 35 	sbbl   $0x35,0x423067
  402586:	81 15 48 30 42 00 c9 	adcl   $0xc9,0x423048
  40258d:	00 00 00 
  402590:	12 1d e8 30 42 00    	adc    0x4230e8,%bl
  402596:	c7 05 99 31 42 00 ed 	movl   $0xed,0x423199
  40259d:	00 00 00 
  4025a0:	6a 0f                	push   $0xf
  4025a2:	ff 0c 24             	decl   (%esp)
  4025a5:	8d 15 95 15 a7 98    	lea    0x98a71595,%edx
  4025ab:	81 ea 21 e3 64 98    	sub    $0x9864e321,%edx
  4025b1:	52                   	push   %edx
  4025b2:	8d 15 83 15 a7 98    	lea    0x98a71583,%edx
  4025b8:	81 ea 21 e3 64 98    	sub    $0x9864e321,%edx
  4025be:	52                   	push   %edx
  4025bf:	a1 78 f0 41 00       	mov    0x41f078,%eax
  4025c4:	ff d0                	call   *%eax
  4025c6:	85 c0                	test   %eax,%eax
  4025c8:	0f 85 44 99 00 00    	jne    0x40bf12
  4025ce:	ba 01 00 00 00       	mov    $0x1,%edx
  4025d3:	83 c2 eb             	add    $0xffffffeb,%edx
  4025d6:	83 c2 6a             	add    $0x6a,%edx
  4025d9:	83 c2 f9             	add    $0xfffffff9,%edx
  4025dc:	6a 0f                	push   $0xf
  4025de:	ff 0c 24             	decl   (%esp)
  4025e1:	8d 15 95 15 a7 98    	lea    0x98a71595,%edx
  4025e7:	81 ea 21 e3 64 98    	sub    $0x9864e321,%edx
  4025ed:	52                   	push   %edx
  4025ee:	8d 1d 83 15 a7 98    	lea    0x98a71583,%ebx
  4025f4:	81 eb 21 e3 64 98    	sub    $0x9864e321,%ebx
  4025fa:	53                   	push   %ebx
  4025fb:	a1 78 f0 41 00       	mov    0x41f078,%eax
  402600:	ff d0                	call   *%eax
  402602:	83 f8 00             	cmp    $0x0,%eax
  402605:	0f 85 07 99 00 00    	jne    0x40bf12
  40260b:	21 1d c5 30 42 00    	and    %ebx,0x4230c5
  402611:	83 15 37 30 42 00 27 	adcl   $0x27,0x423037
  402618:	83 1d b8 31 42 00 7b 	sbbl   $0x7b,0x4231b8
  40261f:	6a 0f                	push   $0xf
  402621:	ff 0c 24             	decl   (%esp)
  402624:	8d 3d 95 15 a7 98    	lea    0x98a71595,%edi
  40262a:	81 ef 21 e3 64 98    	sub    $0x9864e321,%edi
  402630:	57                   	push   %edi
  402631:	8d 3d 83 15 a7 98    	lea    0x98a71583,%edi
  402637:	81 ef 21 e3 64 98    	sub    $0x9864e321,%edi
  40263d:	57                   	push   %edi
  40263e:	a1 78 f0 41 00       	mov    0x41f078,%eax
  402643:	ff d0                	call   *%eax
  402645:	85 c0                	test   %eax,%eax
  402647:	0f 85 c5 98 00 00    	jne    0x40bf12
  40264d:	19 fb                	sbb    %edi,%ebx
  40264f:	83 f0 9d             	xor    $0xffffff9d,%eax
  402652:	83 35 1c 30 42 00 00 	xorl   $0x0,0x42301c
  402659:	82 db 93             	sbb    $0x93,%bl
  40265c:	11 df                	adc    %ebx,%edi
  40265e:	8d 0d b2 15 a7 98    	lea    0x98a715b2,%ecx
  402664:	81 e9 21 e3 64 98    	sub    $0x9864e321,%ecx
  40266a:	51                   	push   %ecx
  40266b:	8d 0d a3 15 a7 98    	lea    0x98a715a3,%ecx
  402671:	81 e9 21 e3 64 98    	sub    $0x9864e321,%ecx
  402677:	51                   	push   %ecx
  402678:	a1 84 f0 41 00       	mov    0x41f084,%eax
  40267d:	ff d0                	call   *%eax
  40267f:	6a 0f                	push   $0xf
  402681:	ff 0c 24             	decl   (%esp)
  402684:	8d 3d 95 15 a7 98    	lea    0x98a71595,%edi
  40268a:	81 ef 21 e3 64 98    	sub    $0x9864e321,%edi
  402690:	57                   	push   %edi
  402691:	8d 15 83 15 a7 98    	lea    0x98a71583,%edx
  402697:	81 ea 21 e3 64 98    	sub    $0x9864e321,%edx
  40269d:	52                   	push   %edx
  40269e:	a1 78 f0 41 00       	mov    0x41f078,%eax
  4026a3:	ff d0                	call   *%eax
  4026a5:	83 f8 00             	cmp    $0x0,%eax
  4026a8:	0f 85 64 98 00 00    	jne    0x40bf12
  4026ae:	83 d8 67             	sbb    $0x67,%eax
  4026b1:	81 15 8e 30 42 00 f7 	adcl   $0xf7,0x42308e
  4026b8:	00 00 00 
  4026bb:	2e e9 8f 93 00 00    	cs jmp 0x40ba50
  4026c1:	ba 01 00 00 00       	mov    $0x1,%edx
  4026c6:	13 15 22 31 42 00    	adc    0x423122,%edx
  4026cc:	c7 05 65 31 42 00 b9 	movl   $0xb9,0x423165
  4026d3:	00 00 00 
  4026d6:	01 c2                	add    %eax,%edx
  4026d8:	29 35 dc 30 42 00    	sub    %esi,0x4230dc
  4026de:	31 3d 99 31 42 00    	xor    %edi,0x423199
  4026e4:	00 81 35 37 30 42    	add    %al,0x42303735(%ecx)
  4026ea:	00 aa 00 00 00 01    	add    %ch,0x1000000(%edx)
  4026f0:	f0 83 c0 9f          	lock add $0xffffff9f,%eax
  4026f4:	6a 0f                	push   $0xf
  4026f6:	ff 0c 24             	decl   (%esp)
  4026f9:	8d 15 95 15 a7 98    	lea    0x98a71595,%edx
  4026ff:	81 ea 21 e3 64 98    	sub    $0x9864e321,%edx
  402705:	52                   	push   %edx
  402706:	8d 15 83 15 a7 98    	lea    0x98a71583,%edx
  40270c:	81 ea 21 e3 64 98    	sub    $0x9864e321,%edx
  402712:	52                   	push   %edx
  402713:	a1 78 f0 41 00       	mov    0x41f078,%eax
  402718:	ff d0                	call   *%eax
  40271a:	85 c0                	test   %eax,%eax
  40271c:	0f 85 f0 97 00 00    	jne    0x40bf12
  402722:	83 f6 8a             	xor    $0xffffff8a,%esi
  402725:	83 ee 03             	sub    $0x3,%esi
  402728:	19 fb                	sbb    %edi,%ebx
  40272a:	11 1d 64 30 42 00    	adc    %ebx,0x423064
  402730:	81 15 3a 30 42 00 be 	adcl   $0xbe,0x42303a
  402737:	00 00 00 
  40273a:	8d 35 b2 15 a7 98    	lea    0x98a715b2,%esi
  402740:	81 ee 21 e3 64 98    	sub    $0x9864e321,%esi
  402746:	56                   	push   %esi
  402747:	8d 0d a3 15 a7 98    	lea    0x98a715a3,%ecx
  40274d:	81 e9 21 e3 64 98    	sub    $0x9864e321,%ecx
  402753:	51                   	push   %ecx
  402754:	a1 84 f0 41 00       	mov    0x41f084,%eax
  402759:	ff d0                	call   *%eax
  40275b:	83 e6 0f             	and    $0xf,%esi
  40275e:	b9 01 00 00 00       	mov    $0x1,%ecx
  402763:	83 c1 6b             	add    $0x6b,%ecx
  402766:	83 db b9             	sbb    $0xffffffb9,%ebx
  402769:	29 f8                	sub    %edi,%eax
  40276b:	8d 3d b2 15 a7 98    	lea    0x98a715b2,%edi
  402771:	81 ef 21 e3 64 98    	sub    $0x9864e321,%edi
  402777:	57                   	push   %edi
  402778:	8d 0d a3 15 a7 98    	lea    0x98a715a3,%ecx
  40277e:	81 e9 21 e3 64 98    	sub    $0x9864e321,%ecx
  402784:	51                   	push   %ecx
  402785:	a1 84 f0 41 00       	mov    0x41f084,%eax
  40278a:	ff d0                	call   *%eax
  40278c:	2b 35 32 31 42 00    	sub    0x423132,%esi
  402792:	83 15 8c 31 42 00 7c 	adcl   $0x7c,0x42318c
  402799:	6a 0f                	push   $0xf
  40279b:	ff 0c 24             	decl   (%esp)
  40279e:	8d 05 95 15 a7 98    	lea    0x98a71595,%eax
  4027a4:	2d 21 e3 64 98       	sub    $0x9864e321,%eax
  4027a9:	50                   	push   %eax
  4027aa:	8d 0d 83 15 a7 98    	lea    0x98a71583,%ecx
  4027b0:	81 e9 21 e3 64 98    	sub    $0x9864e321,%ecx
  4027b6:	51                   	push   %ecx
  4027b7:	a1 78 f0 41 00       	mov    0x41f078,%eax
  4027bc:	ff d0                	call   *%eax
  4027be:	83 f8 00             	cmp    $0x0,%eax
  4027c1:	0f 85 4b 97 00 00    	jne    0x40bf12
  4027c7:	8d 35 b2 15 a7 98    	lea    0x98a715b2,%esi
  4027cd:	81 ee 21 e3 64 98    	sub    $0x9864e321,%esi
  4027d3:	56                   	push   %esi
  4027d4:	8d 0d a3 15 a7 98    	lea    0x98a715a3,%ecx
  4027da:	81 e9 21 e3 64 98    	sub    $0x9864e321,%ecx
  4027e0:	51                   	push   %ecx
  4027e1:	a1 84 f0 41 00       	mov    0x41f084,%eax
  4027e6:	ff d0                	call   *%eax
  4027e8:	31 05 5c 31 42 00    	xor    %eax,0x42315c
  4027ee:	09 05 89 31 42 00    	or     %eax,0x423189
  4027f4:	8d 05 b2 15 a7 98    	lea    0x98a715b2,%eax
  4027fa:	2d 21 e3 64 98       	sub    $0x9864e321,%eax
  4027ff:	50                   	push   %eax
  402800:	8d 1d a3 15 a7 98    	lea    0x98a715a3,%ebx
  402806:	81 eb 21 e3 64 98    	sub    $0x9864e321,%ebx
  40280c:	53                   	push   %ebx
  40280d:	a1 84 f0 41 00       	mov    0x41f084,%eax
  402812:	ff d0                	call   *%eax
  402814:	29 c7                	sub    %eax,%edi
  402816:	ba 01 00 00 00       	mov    $0x1,%edx
  40281b:	01 da                	add    %ebx,%edx
  40281d:	0b 1d ff 31 42 00    	or     0x4231ff,%ebx
  402823:	29 05 a3 30 42 00    	sub    %eax,0x4230a3
  402829:	6a 0f                	push   $0xf
  40282b:	ff 0c 24             	decl   (%esp)
  40282e:	8d 15 95 15 a7 98    	lea    0x98a71595,%edx
  402834:	81 ea 21 e3 64 98    	sub    $0x9864e321,%edx
  40283a:	52                   	push   %edx
  40283b:	8d 15 83 15 a7 98    	lea    0x98a71583,%edx
  402841:	81 ea 21 e3 64 98    	sub    $0x9864e321,%edx
  402847:	52                   	push   %edx
  402848:	a1 78 f0 41 00       	mov    0x41f078,%eax
  40284d:	ff d0                	call   *%eax
  40284f:	83 f8 00             	cmp    $0x0,%eax
  402852:	0f 85 ba 96 00 00    	jne    0x40bf12
  402858:	6a 0f                	push   $0xf
  40285a:	ff 0c 24             	decl   (%esp)
  40285d:	8d 15 95 15 a7 98    	lea    0x98a71595,%edx
  402863:	81 ea 21 e3 64 98    	sub    $0x9864e321,%edx
  402869:	52                   	push   %edx
  40286a:	8d 35 83 15 a7 98    	lea    0x98a71583,%esi
  402870:	81 ee 21 e3 64 98    	sub    $0x9864e321,%esi
  402876:	56                   	push   %esi
  402877:	a1 78 f0 41 00       	mov    0x41f078,%eax
  40287c:	ff d0                	call   *%eax
  40287e:	85 c0                	test   %eax,%eax
  402880:	0f 85 8c 96 00 00    	jne    0x40bf12
  402886:	8d 05 b2 15 a7 98    	lea    0x98a715b2,%eax
  40288c:	2d 21 e3 64 98       	sub    $0x9864e321,%eax
  402891:	50                   	push   %eax
  402892:	8d 0d a3 15 a7 98    	lea    0x98a715a3,%ecx
  402898:	81 e9 21 e3 64 98    	sub    $0x9864e321,%ecx
  40289e:	51                   	push   %ecx
  40289f:	a1 84 f0 41 00       	mov    0x41f084,%eax
  4028a4:	ff d0                	call   *%eax
  4028a6:	28 ff                	sub    %bh,%bh
  4028a8:	11 ff                	adc    %edi,%edi
  4028aa:	8d 0d b2 15 a7 98    	lea    0x98a715b2,%ecx
  4028b0:	81 e9 21 e3 64 98    	sub    $0x9864e321,%ecx
  4028b6:	51                   	push   %ecx
  4028b7:	8d 15 a3 15 a7 98    	lea    0x98a715a3,%edx
  4028bd:	81 ea 21 e3 64 98    	sub    $0x9864e321,%edx
  4028c3:	52                   	push   %edx
  4028c4:	a1 84 f0 41 00       	mov    0x41f084,%eax
  4028c9:	ff d0                	call   *%eax
  4028cb:	19 f8                	sbb    %edi,%eax
  4028cd:	81 15 21 30 42 00 e5 	adcl   $0xe5,0x423021
  4028d4:	00 00 00 
  4028d7:	83 d7 ad             	adc    $0xffffffad,%edi
  4028da:	13 05 09 31 42 00    	adc    0x423109,%eax
  4028e0:	b9 01 00 00 00       	mov    $0x1,%ecx
  4028e5:	01 f9                	add    %edi,%ecx
  4028e7:	8d 1d b2 15 a7 98    	lea    0x98a715b2,%ebx
  4028ed:	81 eb 21 e3 64 98    	sub    $0x9864e321,%ebx
  4028f3:	53                   	push   %ebx
  4028f4:	8d 35 a3 15 a7 98    	lea    0x98a715a3,%esi
  4028fa:	81 ee 21 e3 64 98    	sub    $0x9864e321,%esi
  402900:	56                   	push   %esi
  402901:	a1 84 f0 41 00       	mov    0x41f084,%eax
  402906:	ff d0                	call   *%eax
  402908:	30 1d 7a 31 42 00    	xor    %bl,0x42317a
  40290e:	08 3d 03 31 42 00    	or     %bh,0x423103
  402914:	01 05 51 30 42 00    	add    %eax,0x423051
  40291a:	2e e9 30 91 00 00    	cs jmp 0x40ba50
	...
  40292c:	83 25 84 31 42 00 46 	andl   $0x46,0x423184
  402933:	c7 05 79 30 42 00 7c 	movl   $0x7c,0x423079
  40293a:	00 00 00 
  40293d:	8d 35 b2 15 a7 98    	lea    0x98a715b2,%esi
  402943:	81 ee 21 e3 64 98    	sub    $0x9864e321,%esi
  402949:	56                   	push   %esi
  40294a:	8d 05 a3 15 a7 98    	lea    0x98a715a3,%eax
  402950:	2d 21 e3 64 98       	sub    $0x9864e321,%eax
  402955:	50                   	push   %eax
  402956:	a1 84 f0 41 00       	mov    0x41f084,%eax
  40295b:	ff d0                	call   *%eax
  40295d:	ba 01 00 00 00       	mov    $0x1,%edx
  402962:	13 15 d1 30 42 00    	adc    0x4230d1,%edx
  402968:	01 3d 62 30 42 00    	add    %edi,0x423062
  40296e:	01 35 d1 30 42 00    	add    %esi,0x4230d1
  402974:	8d 35 b2 15 a7 98    	lea    0x98a715b2,%esi
  40297a:	81 ee 21 e3 64 98    	sub    $0x9864e321,%esi
  402980:	56                   	push   %esi
  402981:	8d 05 a3 15 a7 98    	lea    0x98a715a3,%eax
  402987:	2d 21 e3 64 98       	sub    $0x9864e321,%eax
  40298c:	50                   	push   %eax
  40298d:	a1 84 f0 41 00       	mov    0x41f084,%eax
  402992:	ff d0                	call   *%eax
  402994:	19 05 8a 30 42 00    	sbb    %eax,0x42308a
  40299a:	83 c7 d3             	add    $0xffffffd3,%edi
  40299d:	b9 01 00 00 00       	mov    $0x1,%ecx
  4029a2:	13 0d 3c 30 42 00    	adc    0x42303c,%ecx
  4029a8:	6a 0f                	push   $0xf
  4029aa:	ff 0c 24             	decl   (%esp)
  4029ad:	8d 1d 95 15 a7 98    	lea    0x98a71595,%ebx
  4029b3:	81 eb 21 e3 64 98    	sub    $0x9864e321,%ebx
  4029b9:	53                   	push   %ebx
  4029ba:	8d 1d 83 15 a7 98    	lea    0x98a71583,%ebx
  4029c0:	81 eb 21 e3 64 98    	sub    $0x9864e321,%ebx
  4029c6:	53                   	push   %ebx
  4029c7:	a1 78 f0 41 00       	mov    0x41f078,%eax
  4029cc:	ff d0                	call   *%eax
  4029ce:	83 f8 00             	cmp    $0x0,%eax
  4029d1:	0f 85 3b 95 00 00    	jne    0x40bf12
  4029d7:	81 35 2a 31 42 00 a7 	xorl   $0xa7,0x42312a
  4029de:	00 00 00 
  4029e1:	83 f0 a7             	xor    $0xffffffa7,%eax
  4029e4:	13 35 0e 31 42 00    	adc    0x42310e,%esi
  4029ea:	8d 05 b2 15 a7 98    	lea    0x98a715b2,%eax
  4029f0:	2d 21 e3 64 98       	sub    $0x9864e321,%eax
  4029f5:	50                   	push   %eax
  4029f6:	8d 1d a3 15 a7 98    	lea    0x98a715a3,%ebx
  4029fc:	81 eb 21 e3 64 98    	sub    $0x9864e321,%ebx
  402a02:	53                   	push   %ebx
  402a03:	a1 84 f0 41 00       	mov    0x41f084,%eax
  402a08:	ff d0                	call   *%eax
  402a0a:	83 15 3f 30 42 00 0c 	adcl   $0xc,0x42303f
  402a11:	ba 01 00 00 00       	mov    $0x1,%edx
  402a16:	01 c2                	add    %eax,%edx
  402a18:	81 1d 18 31 42 00 c8 	sbbl   $0xc8,0x423118
  402a1f:	00 00 00 
  402a22:	11 05 65 31 42 00    	adc    %eax,0x423165
  402a28:	6a 0f                	push   $0xf
  402a2a:	ff 0c 24             	decl   (%esp)
  402a2d:	8d 05 95 15 a7 98    	lea    0x98a71595,%eax
  402a33:	2d 21 e3 64 98       	sub    $0x9864e321,%eax
  402a38:	50                   	push   %eax
  402a39:	8d 1d 83 15 a7 98    	lea    0x98a71583,%ebx
  402a3f:	81 eb 21 e3 64 98    	sub    $0x9864e321,%ebx
  402a45:	53                   	push   %ebx
  402a46:	a1 78 f0 41 00       	mov    0x41f078,%eax
  402a4b:	ff d0                	call   *%eax
  402a4d:	83 f8 00             	cmp    $0x0,%eax
  402a50:	0f 85 bc 94 00 00    	jne    0x40bf12
  402a56:	b9 01 00 00 00       	mov    $0x1,%ecx
  402a5b:	83 c1 77             	add    $0x77,%ecx
  402a5e:	83 c6 64             	add    $0x64,%esi
  402a61:	83 1d f2 31 42 00 14 	sbbl   $0x14,0x4231f2
  402a68:	6a 0f                	push   $0xf
  402a6a:	ff 0c 24             	decl   (%esp)
  402a6d:	8d 35 95 15 a7 98    	lea    0x98a71595,%esi
  402a73:	81 ee 21 e3 64 98    	sub    $0x9864e321,%esi
  402a79:	56                   	push   %esi
  402a7a:	8d 0d 83 15 a7 98    	lea    0x98a71583,%ecx
  402a80:	81 e9 21 e3 64 98    	sub    $0x9864e321,%ecx
  402a86:	51                   	push   %ecx
  402a87:	a1 78 f0 41 00       	mov    0x41f078,%eax
  402a8c:	ff d0                	call   *%eax
  402a8e:	83 f8 00             	cmp    $0x0,%eax
  402a91:	0f 85 7b 94 00 00    	jne    0x40bf12
  402a97:	b9 01 00 00 00       	mov    $0x1,%ecx
  402a9c:	01 d9                	add    %ebx,%ecx
  402a9e:	2b 3d b5 30 42 00    	sub    0x4230b5,%edi
  402aa4:	01 35 02 31 42 00    	add    %esi,0x423102
  402aaa:	83 d3 32             	adc    $0x32,%ebx
  402aad:	6a 0f                	push   $0xf
  402aaf:	ff 0c 24             	decl   (%esp)
  402ab2:	8d 05 95 15 a7 98    	lea    0x98a71595,%eax
  402ab8:	2d 21 e3 64 98       	sub    $0x9864e321,%eax
  402abd:	50                   	push   %eax
  402abe:	8d 3d 83 15 a7 98    	lea    0x98a71583,%edi
  402ac4:	81 ef 21 e3 64 98    	sub    $0x9864e321,%edi
  402aca:	57                   	push   %edi
  402acb:	a1 78 f0 41 00       	mov    0x41f078,%eax
  402ad0:	ff d0                	call   *%eax
  402ad2:	85 c0                	test   %eax,%eax
  402ad4:	0f 85 38 94 00 00    	jne    0x40bf12
  402ada:	04 8c                	add    $0x8c,%al
  402adc:	b2 01                	mov    $0x1,%dl
  402ade:	00 c2                	add    %al,%dl
  402ae0:	6a 0f                	push   $0xf
  402ae2:	ff 0c 24             	decl   (%esp)
  402ae5:	8d 0d 95 15 a7 98    	lea    0x98a71595,%ecx
  402aeb:	81 e9 21 e3 64 98    	sub    $0x9864e321,%ecx
  402af1:	51                   	push   %ecx
  402af2:	8d 0d 83 15 a7 98    	lea    0x98a71583,%ecx
  402af8:	81 e9 21 e3 64 98    	sub    $0x9864e321,%ecx
  402afe:	51                   	push   %ecx
  402aff:	a1 78 f0 41 00       	mov    0x41f078,%eax
  402b04:	ff d0                	call   *%eax
  402b06:	83 f8 00             	cmp    $0x0,%eax
  402b09:	0f 85 03 94 00 00    	jne    0x40bf12
  402b0f:	21 1d 30 30 42 00    	and    %ebx,0x423030
  402b15:	82 2d 20 31 42 00 da 	subb   $0xda,0x423120
  402b1c:	6a 0f                	push   $0xf
  402b1e:	ff 0c 24             	decl   (%esp)
  402b21:	8d 05 95 15 a7 98    	lea    0x98a71595,%eax
  402b27:	2d 21 e3 64 98       	sub    $0x9864e321,%eax
  402b2c:	50                   	push   %eax
  402b2d:	8d 35 83 15 a7 98    	lea    0x98a71583,%esi
  402b33:	81 ee 21 e3 64 98    	sub    $0x9864e321,%esi
  402b39:	56                   	push   %esi
  402b3a:	a1 78 f0 41 00       	mov    0x41f078,%eax
  402b3f:	ff d0                	call   *%eax
  402b41:	85 c0                	test   %eax,%eax
  402b43:	0f 85 c9 93 00 00    	jne    0x40bf12
  402b49:	31 3d 93 31 42 00    	xor    %edi,0x423193
  402b4f:	12 1d 59 31 42 00    	adc    0x423159,%bl
  402b55:	6a 0f                	push   $0xf
  402b57:	ff 0c 24             	decl   (%esp)
  402b5a:	8d 1d 95 15 a7 98    	lea    0x98a71595,%ebx
  402b60:	81 eb 21 e3 64 98    	sub    $0x9864e321,%ebx
  402b66:	53                   	push   %ebx
  402b67:	8d 35 83 15 a7 98    	lea    0x98a71583,%esi
  402b6d:	81 ee 21 e3 64 98    	sub    $0x9864e321,%esi
  402b73:	56                   	push   %esi
  402b74:	a1 78 f0 41 00       	mov    0x41f078,%eax
  402b79:	ff d0                	call   *%eax
  402b7b:	83 f8 00             	cmp    $0x0,%eax
  402b7e:	0f 85 8e 93 00 00    	jne    0x40bf12
  402b84:	c7 05 32 30 42 00 f2 	movl   $0xf2,0x423032
  402b8b:	00 00 00 
  402b8e:	31 3d d1 31 42 00    	xor    %edi,0x4231d1
  402b94:	8d 35 b2 15 a7 98    	lea    0x98a715b2,%esi
  402b9a:	81 ee 21 e3 64 98    	sub    $0x9864e321,%esi
  402ba0:	56                   	push   %esi
  402ba1:	8d 05 a3 15 a7 98    	lea    0x98a715a3,%eax
  402ba7:	2d 21 e3 64 98       	sub    $0x9864e321,%eax
  402bac:	50                   	push   %eax
  402bad:	a1 84 f0 41 00       	mov    0x41f084,%eax
  402bb2:	ff d0                	call   *%eax
  402bb4:	19 3d ef 30 42 00    	sbb    %edi,0x4230ef
  402bba:	b9 01 00 00 00       	mov    $0x1,%ecx
  402bbf:	13 0d 4f 30 42 00    	adc    0x42304f,%ecx
  402bc5:	ba 01 00 00 00       	mov    $0x1,%edx
  402bca:	83 c2 7b             	add    $0x7b,%edx
  402bcd:	2e e9 7d 8e 00 00    	cs jmp 0x40ba50
  402bd3:	11 f0                	adc    %esi,%eax
  402bd5:	83 d8 e6             	sbb    $0xffffffe6,%eax
  402bd8:	11 fa                	adc    %edi,%edx
  402bda:	11 35 be 31 42 00    	adc    %esi,0x4231be
  402be0:	00 00                	add    %al,(%eax)
  402be2:	00 00                	add    %al,(%eax)
  402be4:	00 01                	add    %al,(%ecx)
  402be6:	05 9c 31 42 00       	add    $0x42319c,%eax
  402beb:	29 3d cd 30 42 00    	sub    %edi,0x4230cd
  402bf1:	2b 1d fd 31 42 00    	sub    0x4231fd,%ebx
  402bf7:	83 d3 5d             	adc    $0x5d,%ebx
  402bfa:	83 35 fb 30 42 00 6d 	xorl   $0x6d,0x4230fb
  402c01:	6a 0f                	push   $0xf
  402c03:	ff 0c 24             	decl   (%esp)
  402c06:	8d 1d 95 15 a7 98    	lea    0x98a71595,%ebx
  402c0c:	81 eb 21 e3 64 98    	sub    $0x9864e321,%ebx
  402c12:	53                   	push   %ebx
  402c13:	8d 35 83 15 a7 98    	lea    0x98a71583,%esi
  402c19:	81 ee 21 e3 64 98    	sub    $0x9864e321,%esi
  402c1f:	56                   	push   %esi
  402c20:	a1 78 f0 41 00       	mov    0x41f078,%eax
  402c25:	ff d0                	call   *%eax
  402c27:	83 f8 00             	cmp    $0x0,%eax
  402c2a:	0f 85 e2 92 00 00    	jne    0x40bf12
  402c30:	ba 01 00 00 00       	mov    $0x1,%edx
  402c35:	83 c2 45             	add    $0x45,%edx
  402c38:	0b 35 40 31 42 00    	or     0x423140,%esi
  402c3e:	83 15 ee 31 42 00 42 	adcl   $0x42,0x4231ee
  402c45:	11 1d 89 30 42 00    	adc    %ebx,0x423089
  402c4b:	83 c6 b8             	add    $0xffffffb8,%esi
  402c4e:	6a 0f                	push   $0xf
  402c50:	ff 0c 24             	decl   (%esp)
  402c53:	8d 15 95 15 a7 98    	lea    0x98a71595,%edx
  402c59:	81 ea 21 e3 64 98    	sub    $0x9864e321,%edx
  402c5f:	52                   	push   %edx
  402c60:	8d 15 83 15 a7 98    	lea    0x98a71583,%edx
  402c66:	81 ea 21 e3 64 98    	sub    $0x9864e321,%edx
  402c6c:	52                   	push   %edx
  402c6d:	a1 78 f0 41 00       	mov    0x41f078,%eax
  402c72:	ff d0                	call   *%eax
  402c74:	85 c0                	test   %eax,%eax
  402c76:	0f 85 96 92 00 00    	jne    0x40bf12
  402c7c:	b9 01 00 00 00       	mov    $0x1,%ecx
  402c81:	01 d9                	add    %ebx,%ecx
  402c83:	31 3d 7b 30 42 00    	xor    %edi,0x42307b
  402c89:	ba 01 00 00 00       	mov    $0x1,%edx
  402c8e:	83 c2 62             	add    $0x62,%edx
  402c91:	8d 35 b2 15 a7 98    	lea    0x98a715b2,%esi
  402c97:	81 ee 21 e3 64 98    	sub    $0x9864e321,%esi
  402c9d:	56                   	push   %esi
  402c9e:	8d 05 a3 15 a7 98    	lea    0x98a715a3,%eax
  402ca4:	2d 21 e3 64 98       	sub    $0x9864e321,%eax
  402ca9:	50                   	push   %eax
  402caa:	a1 84 f0 41 00       	mov    0x41f084,%eax
  402caf:	ff d0                	call   *%eax
  402cb1:	29 c3                	sub    %eax,%ebx
  402cb3:	11 05 c8 31 42 00    	adc    %eax,0x4231c8
  402cb9:	0b 35 fd 30 42 00    	or     0x4230fd,%esi
  402cbf:	13 1d 5f 30 42 00    	adc    0x42305f,%ebx
  402cc5:	83 d0 3d             	adc    $0x3d,%eax
  402cc8:	6a 0f                	push   $0xf
  402cca:	ff 0c 24             	decl   (%esp)
  402ccd:	8d 35 95 15 a7 98    	lea    0x98a71595,%esi
  402cd3:	81 ee 21 e3 64 98    	sub    $0x9864e321,%esi
  402cd9:	56                   	push   %esi
  402cda:	8d 1d 83 15 a7 98    	lea    0x98a71583,%ebx
  402ce0:	81 eb 21 e3 64 98    	sub    $0x9864e321,%ebx
  402ce6:	53                   	push   %ebx
  402ce7:	a1 78 f0 41 00       	mov    0x41f078,%eax
  402cec:	ff d0                	call   *%eax
  402cee:	85 c0                	test   %eax,%eax
  402cf0:	0f 85 1c 92 00 00    	jne    0x40bf12
  402cf6:	83 15 f8 30 42 00 6a 	adcl   $0x6a,0x4230f8
  402cfd:	b5 01                	mov    $0x1,%ch
  402cff:	00 fd                	add    %bh,%ch
  402d01:	81 0d 85 30 42 00 f5 	orl    $0xf5,0x423085
  402d08:	00 00 00 
  402d0b:	6a 0f                	push   $0xf
  402d0d:	ff 0c 24             	decl   (%esp)
  402d10:	8d 15 95 15 a7 98    	lea    0x98a71595,%edx
  402d16:	81 ea 21 e3 64 98    	sub    $0x9864e321,%edx
  402d1c:	52                   	push   %edx
  402d1d:	8d 05 83 15 a7 98    	lea    0x98a71583,%eax
  402d23:	2d 21 e3 64 98       	sub    $0x9864e321,%eax
  402d28:	50                   	push   %eax
  402d29:	a1 78 f0 41 00       	mov    0x41f078,%eax
  402d2e:	ff d0                	call   *%eax
  402d30:	85 c0                	test   %eax,%eax
  402d32:	0f 85 da 91 00 00    	jne    0x40bf12
  402d38:	ba 01 00 00 00       	mov    $0x1,%edx
  402d3d:	01 da                	add    %ebx,%edx
  402d3f:	b9 01 00 00 00       	mov    $0x1,%ecx
  402d44:	01 f1                	add    %esi,%ecx
  402d46:	81 25 a4 31 42 00 db 	andl   $0xdb,0x4231a4
  402d4d:	00 00 00 
  402d50:	83 cb 44             	or     $0x44,%ebx
  402d53:	82 2d db 31 42 00 06 	subb   $0x6,0x4231db
  402d5a:	6a 0f                	push   $0xf
  402d5c:	ff 0c 24             	decl   (%esp)
  402d5f:	8d 0d 95 15 a7 98    	lea    0x98a71595,%ecx
  402d65:	81 e9 21 e3 64 98    	sub    $0x9864e321,%ecx
  402d6b:	51                   	push   %ecx
  402d6c:	8d 15 83 15 a7 98    	lea    0x98a71583,%edx
  402d72:	81 ea 21 e3 64 98    	sub    $0x9864e321,%edx
  402d78:	52                   	push   %edx
  402d79:	a1 78 f0 41 00       	mov    0x41f078,%eax
  402d7e:	ff d0                	call   *%eax
  402d80:	85 c0                	test   %eax,%eax
  402d82:	0f 85 8a 91 00 00    	jne    0x40bf12
  402d88:	8d 05 b2 15 a7 98    	lea    0x98a715b2,%eax
  402d8e:	2d 21 e3 64 98       	sub    $0x9864e321,%eax
  402d93:	50                   	push   %eax
  402d94:	8d 1d a3 15 a7 98    	lea    0x98a715a3,%ebx
  402d9a:	81 eb 21 e3 64 98    	sub    $0x9864e321,%ebx
  402da0:	53                   	push   %ebx
  402da1:	a1 84 f0 41 00       	mov    0x41f084,%eax
  402da6:	ff d0                	call   *%eax
  402da8:	83 15 f8 31 42 00 50 	adcl   $0x50,0x4231f8
  402daf:	ba 01 00 00 00       	mov    $0x1,%edx
  402db4:	13 15 63 31 42 00    	adc    0x423163,%edx
  402dba:	6a 0f                	push   $0xf
  402dbc:	ff 0c 24             	decl   (%esp)
  402dbf:	8d 0d 95 15 a7 98    	lea    0x98a71595,%ecx
  402dc5:	81 e9 21 e3 64 98    	sub    $0x9864e321,%ecx
  402dcb:	51                   	push   %ecx
  402dcc:	8d 3d 83 15 a7 98    	lea    0x98a71583,%edi
  402dd2:	81 ef 21 e3 64 98    	sub    $0x9864e321,%edi
  402dd8:	57                   	push   %edi
  402dd9:	a1 78 f0 41 00       	mov    0x41f078,%eax
  402dde:	ff d0                	call   *%eax
  402de0:	83 f8 00             	cmp    $0x0,%eax
  402de3:	0f 85 29 91 00 00    	jne    0x40bf12
  402de9:	b9 01 00 00 00       	mov    $0x1,%ecx
  402dee:	01 c1                	add    %eax,%ecx
  402df0:	13 3d 13 31 42 00    	adc    0x423113,%edi
  402df6:	83 c8 52             	or     $0x52,%eax
  402df9:	ba 01 00 00 00       	mov    $0x1,%edx
  402dfe:	01 da                	add    %ebx,%edx
  402e00:	6a 0f                	push   $0xf
  402e02:	ff 0c 24             	decl   (%esp)
  402e05:	8d 0d 95 15 a7 98    	lea    0x98a71595,%ecx
  402e0b:	81 e9 21 e3 64 98    	sub    $0x9864e321,%ecx
  402e11:	51                   	push   %ecx
  402e12:	8d 35 83 15 a7 98    	lea    0x98a71583,%esi
  402e18:	81 ee 21 e3 64 98    	sub    $0x9864e321,%esi
  402e1e:	56                   	push   %esi
  402e1f:	a1 78 f0 41 00       	mov    0x41f078,%eax
  402e24:	ff d0                	call   *%eax
  402e26:	85 c0                	test   %eax,%eax
  402e28:	0f 85 e4 90 00 00    	jne    0x40bf12
  402e2e:	83 0d f1 30 42 00 49 	orl    $0x49,0x4230f1
  402e35:	01 3d bf 31 42 00    	add    %edi,0x4231bf
  402e3b:	8d 3d b2 15 a7 98    	lea    0x98a715b2,%edi
  402e41:	81 ef 21 e3 64 98    	sub    $0x9864e321,%edi
  402e47:	57                   	push   %edi
  402e48:	8d 15 a3 15 a7 98    	lea    0x98a715a3,%edx
  402e4e:	81 ea 21 e3 64 98    	sub    $0x9864e321,%edx
  402e54:	52                   	push   %edx
  402e55:	a1 84 f0 41 00       	mov    0x41f084,%eax
  402e5a:	ff d0                	call   *%eax
  402e5c:	01 f3                	add    %esi,%ebx
  402e5e:	6a 0f                	push   $0xf
  402e60:	ff 0c 24             	decl   (%esp)
  402e63:	8d 35 95 15 a7 98    	lea    0x98a71595,%esi
  402e69:	81 ee 21 e3 64 98    	sub    $0x9864e321,%esi
  402e6f:	56                   	push   %esi
  402e70:	8d 05 83 15 a7 98    	lea    0x98a71583,%eax
  402e76:	2d 21 e3 64 98       	sub    $0x9864e321,%eax
  402e7b:	50                   	push   %eax
  402e7c:	a1 78 f0 41 00       	mov    0x41f078,%eax
  402e81:	ff d0                	call   *%eax
  402e83:	83 f8 00             	cmp    $0x0,%eax
  402e86:	0f 85 86 90 00 00    	jne    0x40bf12
  402e8c:	2e e9 be 8b 00 00    	cs jmp 0x40ba50
  402e92:	13 35 3e 31 42 00    	adc    0x42313e,%esi
  402e98:	31 1d b3 31 42 00    	xor    %ebx,0x4231b3
  402e9e:	13 1d 55 31 42 00    	adc    0x423155,%ebx
  402ea4:	81 1d 91 30 42 00 c1 	sbbl   $0xc1,0x423091
  402eab:	00 00 00 
  402eae:	81 15 32 30 42 00 ae 	adcl   $0xae,0x423032
  402eb5:	00 00 00 
  402eb8:	00 00                	add    %al,(%eax)
  402eba:	00 00                	add    %al,(%eax)
  402ebc:	ba 01 00 00 00       	mov    $0x1,%edx
  402ec1:	01 c2                	add    %eax,%edx
  402ec3:	0b 05 10 30 42 00    	or     0x423010,%eax
  402ec9:	8d 05 b2 15 a7 98    	lea    0x98a715b2,%eax
  402ecf:	2d 21 e3 64 98       	sub    $0x9864e321,%eax
  402ed4:	50                   	push   %eax
  402ed5:	8d 0d a3 15 a7 98    	lea    0x98a715a3,%ecx
  402edb:	81 e9 21 e3 64 98    	sub    $0x9864e321,%ecx
  402ee1:	51                   	push   %ecx
  402ee2:	a1 84 f0 41 00       	mov    0x41f084,%eax
  402ee7:	ff d0                	call   *%eax
  402ee9:	ba 01 00 00 00       	mov    $0x1,%edx
  402eee:	83 c2 94             	add    $0xffffff94,%edx
  402ef1:	29 05 40 31 42 00    	sub    %eax,0x423140
  402ef7:	19 da                	sbb    %ebx,%edx
  402ef9:	83 da 20             	sbb    $0x20,%edx
  402efc:	8d 15 b2 15 a7 98    	lea    0x98a715b2,%edx
  402f02:	81 ea 21 e3 64 98    	sub    $0x9864e321,%edx
  402f08:	52                   	push   %edx
  402f09:	8d 3d a3 15 a7 98    	lea    0x98a715a3,%edi
  402f0f:	81 ef 21 e3 64 98    	sub    $0x9864e321,%edi
  402f15:	57                   	push   %edi
  402f16:	a1 84 f0 41 00       	mov    0x41f084,%eax
  402f1b:	ff d0                	call   *%eax
  402f1d:	01 3d c7 30 42 00    	add    %edi,0x4230c7
  402f23:	83 0d a9 30 42 00 47 	orl    $0x47,0x4230a9
  402f2a:	09 35 71 31 42 00    	or     %esi,0x423171
  402f30:	83 35 3c 31 42 00 0d 	xorl   $0xd,0x42313c
  402f37:	6a 0f                	push   $0xf
  402f39:	ff 0c 24             	decl   (%esp)
  402f3c:	8d 0d 95 15 a7 98    	lea    0x98a71595,%ecx
  402f42:	81 e9 21 e3 64 98    	sub    $0x9864e321,%ecx
  402f48:	51                   	push   %ecx
  402f49:	8d 05 83 15 a7 98    	lea    0x98a71583,%eax
  402f4f:	2d 21 e3 64 98       	sub    $0x9864e321,%eax
  402f54:	50                   	push   %eax
  402f55:	a1 78 f0 41 00       	mov    0x41f078,%eax
  402f5a:	ff d0                	call   *%eax
  402f5c:	83 f8 00             	cmp    $0x0,%eax
  402f5f:	0f 85 ad 8f 00 00    	jne    0x40bf12
  402f65:	31 1d a6 31 42 00    	xor    %ebx,0x4231a6
  402f6b:	6a 0f                	push   $0xf
  402f6d:	ff 0c 24             	decl   (%esp)
  402f70:	8d 15 95 15 a7 98    	lea    0x98a71595,%edx
  402f76:	81 ea 21 e3 64 98    	sub    $0x9864e321,%edx
  402f7c:	52                   	push   %edx
  402f7d:	8d 35 83 15 a7 98    	lea    0x98a71583,%esi
  402f83:	81 ee 21 e3 64 98    	sub    $0x9864e321,%esi
  402f89:	56                   	push   %esi
  402f8a:	a1 78 f0 41 00       	mov    0x41f078,%eax
  402f8f:	ff d0                	call   *%eax
  402f91:	85 c0                	test   %eax,%eax
  402f93:	0f 85 79 8f 00 00    	jne    0x40bf12
  402f99:	83 c6 6b             	add    $0x6b,%esi
  402f9c:	01 3d b8 30 42 00    	add    %edi,0x4230b8
  402fa2:	12 25 1d 30 42 00    	adc    0x42301d,%ah
  402fa8:	6a 0f                	push   $0xf
  402faa:	ff 0c 24             	decl   (%esp)
  402fad:	8d 3d 95 15 a7 98    	lea    0x98a71595,%edi
  402fb3:	81 ef 21 e3 64 98    	sub    $0x9864e321,%edi
  402fb9:	57                   	push   %edi
  402fba:	8d 35 83 15 a7 98    	lea    0x98a71583,%esi
  402fc0:	81 ee 21 e3 64 98    	sub    $0x9864e321,%esi
  402fc6:	56                   	push   %esi
  402fc7:	a1 78 f0 41 00       	mov    0x41f078,%eax
  402fcc:	ff d0                	call   *%eax
  402fce:	83 f8 00             	cmp    $0x0,%eax
  402fd1:	0f 85 3b 8f 00 00    	jne    0x40bf12
  402fd7:	6a 0f                	push   $0xf
  402fd9:	ff 0c 24             	decl   (%esp)
  402fdc:	8d 1d 95 15 a7 98    	lea    0x98a71595,%ebx
  402fe2:	81 eb 21 e3 64 98    	sub    $0x9864e321,%ebx
  402fe8:	53                   	push   %ebx
  402fe9:	8d 0d 83 15 a7 98    	lea    0x98a71583,%ecx
  402fef:	81 e9 21 e3 64 98    	sub    $0x9864e321,%ecx
  402ff5:	51                   	push   %ecx
  402ff6:	a1 78 f0 41 00       	mov    0x41f078,%eax
  402ffb:	ff d0                	call   *%eax
  402ffd:	85 c0                	test   %eax,%eax
  402fff:	0f 85 0d 8f 00 00    	jne    0x40bf12
  403005:	01 d8                	add    %ebx,%eax
  403007:	b9 01 00 00 00       	mov    $0x1,%ecx
  40300c:	13 0d 17 31 42 00    	adc    0x423117,%ecx
  403012:	13 0d bc 31 42 00    	adc    0x4231bc,%ecx
  403018:	01 db                	add    %ebx,%ebx
  40301a:	6a 0f                	push   $0xf
  40301c:	ff 0c 24             	decl   (%esp)
  40301f:	8d 1d 95 15 a7 98    	lea    0x98a71595,%ebx
  403025:	81 eb 21 e3 64 98    	sub    $0x9864e321,%ebx
  40302b:	53                   	push   %ebx
  40302c:	8d 05 83 15 a7 98    	lea    0x98a71583,%eax
  403032:	2d 21 e3 64 98       	sub    $0x9864e321,%eax
  403037:	50                   	push   %eax
  403038:	a1 78 f0 41 00       	mov    0x41f078,%eax
  40303d:	ff d0                	call   *%eax
  40303f:	83 f8 00             	cmp    $0x0,%eax
  403042:	0f 85 ca 8e 00 00    	jne    0x40bf12
  403048:	8d 1d b2 15 a7 98    	lea    0x98a715b2,%ebx
  40304e:	81 eb 21 e3 64 98    	sub    $0x9864e321,%ebx
  403054:	53                   	push   %ebx
  403055:	8d 15 a3 15 a7 98    	lea    0x98a715a3,%edx
  40305b:	81 ea 21 e3 64 98    	sub    $0x9864e321,%edx
  403061:	52                   	push   %edx
  403062:	a1 84 f0 41 00       	mov    0x41f084,%eax
  403067:	ff d0                	call   *%eax
  403069:	09 05 a6 30 42 00    	or     %eax,0x4230a6
  40306f:	c7 05 28 31 42 00 66 	movl   $0x66,0x423128
  403076:	00 00 00 
  403079:	2a 25 cf 31 42 00    	sub    0x4231cf,%ah
  40307f:	8d 3d b2 15 a7 98    	lea    0x98a715b2,%edi
  403085:	81 ef 21 e3 64 98    	sub    $0x9864e321,%edi
  40308b:	57                   	push   %edi
  40308c:	8d 15 a3 15 a7 98    	lea    0x98a715a3,%edx
  403092:	81 ea 21 e3 64 98    	sub    $0x9864e321,%edx
  403098:	52                   	push   %edx
  403099:	a1 84 f0 41 00       	mov    0x41f084,%eax
  40309e:	ff d0                	call   *%eax
  4030a0:	29 fb                	sub    %edi,%ebx
  4030a2:	ba 01 00 00 00       	mov    $0x1,%edx
  4030a7:	13 15 5c 30 42 00    	adc    0x42305c,%edx
  4030ad:	83 f0 54             	xor    $0x54,%eax
  4030b0:	b9 01 00 00 00       	mov    $0x1,%ecx
  4030b5:	13 0d d5 30 42 00    	adc    0x4230d5,%ecx
  4030bb:	6a 0f                	push   $0xf
  4030bd:	ff 0c 24             	decl   (%esp)
  4030c0:	8d 1d 95 15 a7 98    	lea    0x98a71595,%ebx
  4030c6:	81 eb 21 e3 64 98    	sub    $0x9864e321,%ebx
  4030cc:	53                   	push   %ebx
  4030cd:	8d 15 83 15 a7 98    	lea    0x98a71583,%edx
  4030d3:	81 ea 21 e3 64 98    	sub    $0x9864e321,%edx
  4030d9:	52                   	push   %edx
  4030da:	a1 78 f0 41 00       	mov    0x41f078,%eax
  4030df:	ff d0                	call   *%eax
  4030e1:	83 f8 00             	cmp    $0x0,%eax
  4030e4:	0f 85 28 8e 00 00    	jne    0x40bf12
  4030ea:	83 35 33 31 42 00 1e 	xorl   $0x1e,0x423133
  4030f1:	01 3d 96 30 42 00    	add    %edi,0x423096
  4030f7:	83 e0 57             	and    $0x57,%eax
  4030fa:	c7 05 69 30 42 00 a3 	movl   $0xa3,0x423069
  403101:	00 00 00 
  403104:	2e e9 46 89 00 00    	cs jmp 0x40ba50
  40310a:	83 15 26 31 42 00 02 	adcl   $0x2,0x423126
  403111:	01 05 37 31 42 00    	add    %eax,0x423137
  403117:	21 05 20 31 42 00    	and    %eax,0x423120
  40311d:	09 1d ba 31 42 00    	or     %ebx,0x4231ba
  403123:	13 1d bd 30 42 00    	adc    0x4230bd,%ebx
	...
  403135:	00 00                	add    %al,(%eax)
  403137:	09 05 63 31 42 00    	or     %eax,0x423163
  40313d:	ba 01 00 00 00       	mov    $0x1,%edx
  403142:	83 c2 e5             	add    $0xffffffe5,%edx
  403145:	b9 01 00 00 00       	mov    $0x1,%ecx
  40314a:	83 c1 a6             	add    $0xffffffa6,%ecx
  40314d:	6a 0f                	push   $0xf
  40314f:	ff 0c 24             	decl   (%esp)
  403152:	8d 3d 95 15 a7 98    	lea    0x98a71595,%edi
  403158:	81 ef 21 e3 64 98    	sub    $0x9864e321,%edi
  40315e:	57                   	push   %edi
  40315f:	8d 0d 83 15 a7 98    	lea    0x98a71583,%ecx
  403165:	81 e9 21 e3 64 98    	sub    $0x9864e321,%ecx
  40316b:	51                   	push   %ecx
  40316c:	a1 78 f0 41 00       	mov    0x41f078,%eax
  403171:	ff d0                	call   *%eax
  403173:	85 c0                	test   %eax,%eax
  403175:	0f 85 97 8d 00 00    	jne    0x40bf12
  40317b:	01 1d 2d 31 42 00    	add    %ebx,0x42312d
  403181:	6a 0f                	push   $0xf
  403183:	ff 0c 24             	decl   (%esp)
  403186:	8d 1d 95 15 a7 98    	lea    0x98a71595,%ebx
  40318c:	81 eb 21 e3 64 98    	sub    $0x9864e321,%ebx
  403192:	53                   	push   %ebx
  403193:	8d 1d 83 15 a7 98    	lea    0x98a71583,%ebx
  403199:	81 eb 21 e3 64 98    	sub    $0x9864e321,%ebx
  40319f:	53                   	push   %ebx
  4031a0:	a1 78 f0 41 00       	mov    0x41f078,%eax
  4031a5:	ff d0                	call   *%eax
  4031a7:	85 c0                	test   %eax,%eax
  4031a9:	0f 85 63 8d 00 00    	jne    0x40bf12
  4031af:	13 3d 7e 30 42 00    	adc    0x42307e,%edi
  4031b5:	29 1d fc 31 42 00    	sub    %ebx,0x4231fc
  4031bb:	83 f3 46             	xor    $0x46,%ebx
  4031be:	11 35 87 30 42 00    	adc    %esi,0x423087
  4031c4:	b1 01                	mov    $0x1,%cl
  4031c6:	82 c1 f6             	add    $0xf6,%cl
  4031c9:	6a 0f                	push   $0xf
  4031cb:	ff 0c 24             	decl   (%esp)
  4031ce:	8d 05 95 15 a7 98    	lea    0x98a71595,%eax
  4031d4:	2d 21 e3 64 98       	sub    $0x9864e321,%eax
  4031d9:	50                   	push   %eax
  4031da:	8d 0d 83 15 a7 98    	lea    0x98a71583,%ecx
  4031e0:	81 e9 21 e3 64 98    	sub    $0x9864e321,%ecx
  4031e6:	51                   	push   %ecx
  4031e7:	a1 78 f0 41 00       	mov    0x41f078,%eax
  4031ec:	ff d0                	call   *%eax
  4031ee:	85 c0                	test   %eax,%eax
  4031f0:	0f 85 1c 8d 00 00    	jne    0x40bf12
  4031f6:	83 d3 46             	adc    $0x46,%ebx
  4031f9:	8d 0d b2 15 a7 98    	lea    0x98a715b2,%ecx
  4031ff:	81 e9 21 e3 64 98    	sub    $0x9864e321,%ecx
  403205:	51                   	push   %ecx
  403206:	8d 1d a3 15 a7 98    	lea    0x98a715a3,%ebx
  40320c:	81 eb 21 e3 64 98    	sub    $0x9864e321,%ebx
  403212:	53                   	push   %ebx
  403213:	a1 84 f0 41 00       	mov    0x41f084,%eax
  403218:	ff d0                	call   *%eax
  40321a:	b9 01 00 00 00       	mov    $0x1,%ecx
  40321f:	13 0d a8 30 42 00    	adc    0x4230a8,%ecx
  403225:	13 35 13 31 42 00    	adc    0x423113,%esi
  40322b:	0b 0d 23 30 42 00    	or     0x423023,%ecx
  403231:	83 f6 92             	xor    $0xffffff92,%esi
  403234:	ba 01 00 00 00       	mov    $0x1,%edx
  403239:	83 c2 a1             	add    $0xffffffa1,%edx
  40323c:	6a 0f                	push   $0xf
  40323e:	ff 0c 24             	decl   (%esp)
  403241:	8d 05 95 15 a7 98    	lea    0x98a71595,%eax
  403247:	2d 21 e3 64 98       	sub    $0x9864e321,%eax
  40324c:	50                   	push   %eax
  40324d:	8d 15 83 15 a7 98    	lea    0x98a71583,%edx
  403253:	81 ea 21 e3 64 98    	sub    $0x9864e321,%edx
  403259:	52                   	push   %edx
  40325a:	a1 78 f0 41 00       	mov    0x41f078,%eax
  40325f:	ff d0                	call   *%eax
  403261:	83 f8 00             	cmp    $0x0,%eax
  403264:	0f 85 a8 8c 00 00    	jne    0x40bf12
  40326a:	83 1d 93 30 42 00 42 	sbbl   $0x42,0x423093
  403271:	6a 0f                	push   $0xf
  403273:	ff 0c 24             	decl   (%esp)
  403276:	8d 05 95 15 a7 98    	lea    0x98a71595,%eax
  40327c:	2d 21 e3 64 98       	sub    $0x9864e321,%eax
  403281:	50                   	push   %eax
  403282:	8d 0d 83 15 a7 98    	lea    0x98a71583,%ecx
  403288:	81 e9 21 e3 64 98    	sub    $0x9864e321,%ecx
  40328e:	51                   	push   %ecx
  40328f:	a1 78 f0 41 00       	mov    0x41f078,%eax
  403294:	ff d0                	call   *%eax
  403296:	85 c0                	test   %eax,%eax
  403298:	0f 85 74 8c 00 00    	jne    0x40bf12
  40329e:	6a 0f                	push   $0xf
  4032a0:	ff 0c 24             	decl   (%esp)
  4032a3:	8d 0d 95 15 a7 98    	lea    0x98a71595,%ecx
  4032a9:	81 e9 21 e3 64 98    	sub    $0x9864e321,%ecx
  4032af:	51                   	push   %ecx
  4032b0:	8d 1d 83 15 a7 98    	lea    0x98a71583,%ebx
  4032b6:	81 eb 21 e3 64 98    	sub    $0x9864e321,%ebx
  4032bc:	53                   	push   %ebx
  4032bd:	a1 78 f0 41 00       	mov    0x41f078,%eax
  4032c2:	ff d0                	call   *%eax
  4032c4:	83 f8 00             	cmp    $0x0,%eax
  4032c7:	0f 85 45 8c 00 00    	jne    0x40bf12
  4032cd:	b9 01 00 00 00       	mov    $0x1,%ecx
  4032d2:	01 d9                	add    %ebx,%ecx
  4032d4:	29 0d d8 31 42 00    	sub    %ecx,0x4231d8
  4032da:	83 f3 1b             	xor    $0x1b,%ebx
  4032dd:	6a 0f                	push   $0xf
  4032df:	ff 0c 24             	decl   (%esp)
  4032e2:	8d 3d 95 15 a7 98    	lea    0x98a71595,%edi
  4032e8:	81 ef 21 e3 64 98    	sub    $0x9864e321,%edi
  4032ee:	57                   	push   %edi
  4032ef:	8d 0d 83 15 a7 98    	lea    0x98a71583,%ecx
  4032f5:	81 e9 21 e3 64 98    	sub    $0x9864e321,%ecx
  4032fb:	51                   	push   %ecx
  4032fc:	a1 78 f0 41 00       	mov    0x41f078,%eax
  403301:	ff d0                	call   *%eax
  403303:	83 f8 00             	cmp    $0x0,%eax
  403306:	0f 85 06 8c 00 00    	jne    0x40bf12
  40330c:	83 f7 28             	xor    $0x28,%edi
  40330f:	6a 0f                	push   $0xf
  403311:	ff 0c 24             	decl   (%esp)
  403314:	8d 0d 95 15 a7 98    	lea    0x98a71595,%ecx
  40331a:	81 e9 21 e3 64 98    	sub    $0x9864e321,%ecx
  403320:	51                   	push   %ecx
  403321:	8d 05 83 15 a7 98    	lea    0x98a71583,%eax
  403327:	2d 21 e3 64 98       	sub    $0x9864e321,%eax
  40332c:	50                   	push   %eax
  40332d:	a1 78 f0 41 00       	mov    0x41f078,%eax
  403332:	ff d0                	call   *%eax
  403334:	83 f8 00             	cmp    $0x0,%eax
  403337:	0f 85 d5 8b 00 00    	jne    0x40bf12
  40333d:	83 cf 41             	or     $0x41,%edi
  403340:	09 35 07 30 42 00    	or     %esi,0x423007
  403346:	8d 1d b2 15 a7 98    	lea    0x98a715b2,%ebx
  40334c:	81 eb 21 e3 64 98    	sub    $0x9864e321,%ebx
  403352:	53                   	push   %ebx
  403353:	8d 1d a3 15 a7 98    	lea    0x98a715a3,%ebx
  403359:	81 eb 21 e3 64 98    	sub    $0x9864e321,%ebx
  40335f:	53                   	push   %ebx
  403360:	a1 84 f0 41 00       	mov    0x41f084,%eax
  403365:	ff d0                	call   *%eax
  403367:	83 cb 72             	or     $0x72,%ebx
  40336a:	6a 0f                	push   $0xf
  40336c:	ff 0c 24             	decl   (%esp)
  40336f:	8d 1d 95 15 a7 98    	lea    0x98a71595,%ebx
  403375:	81 eb 21 e3 64 98    	sub    $0x9864e321,%ebx
  40337b:	53                   	push   %ebx
  40337c:	8d 35 83 15 a7 98    	lea    0x98a71583,%esi
  403382:	81 ee 21 e3 64 98    	sub    $0x9864e321,%esi
  403388:	56                   	push   %esi
  403389:	a1 78 f0 41 00       	mov    0x41f078,%eax
  40338e:	ff d0                	call   *%eax
  403390:	85 c0                	test   %eax,%eax
  403392:	0f 85 7a 8b 00 00    	jne    0x40bf12
  403398:	12 25 5b 31 42 00    	adc    0x42315b,%ah
  40339e:	81 15 a4 30 42 00 f4 	adcl   $0xf4,0x4230a4
  4033a5:	00 00 00 
  4033a8:	2e e9 a2 86 00 00    	cs jmp 0x40ba50
  4033ae:	b6 01                	mov    $0x1,%dh
  4033b0:	82 c6 a3             	add    $0xa3,%dh
  4033b3:	09 15 6a 30 42 00    	or     %edx,0x42306a
  4033b9:	11 d6                	adc    %edx,%esi
  4033bb:	83 d6 9a             	adc    $0xffffff9a,%esi
	...
  4033c6:	6a 0f                	push   $0xf
  4033c8:	ff 0c 24             	decl   (%esp)
  4033cb:	8d 3d 95 15 a7 98    	lea    0x98a71595,%edi
  4033d1:	81 ef 21 e3 64 98    	sub    $0x9864e321,%edi
  4033d7:	57                   	push   %edi
  4033d8:	8d 3d 83 15 a7 98    	lea    0x98a71583,%edi
  4033de:	81 ef 21 e3 64 98    	sub    $0x9864e321,%edi
  4033e4:	57                   	push   %edi
  4033e5:	a1 78 f0 41 00       	mov    0x41f078,%eax
  4033ea:	ff d0                	call   *%eax
  4033ec:	85 c0                	test   %eax,%eax
  4033ee:	0f 85 1e 8b 00 00    	jne    0x40bf12
  4033f4:	83 15 6c 31 42 00 1d 	adcl   $0x1d,0x42316c
  4033fb:	b9 01 00 00 00       	mov    $0x1,%ecx
  403400:	13 0d 82 31 42 00    	adc    0x423182,%ecx
  403406:	2b 0d c7 31 42 00    	sub    0x4231c7,%ecx
  40340c:	83 15 71 31 42 00 53 	adcl   $0x53,0x423171
  403413:	81 1d 79 31 42 00 9f 	sbbl   $0x9f,0x423179
  40341a:	00 00 00 
  40341d:	6a 0f                	push   $0xf
  40341f:	ff 0c 24             	decl   (%esp)
  403422:	8d 35 95 15 a7 98    	lea    0x98a71595,%esi
  403428:	81 ee 21 e3 64 98    	sub    $0x9864e321,%esi
  40342e:	56                   	push   %esi
  40342f:	8d 35 83 15 a7 98    	lea    0x98a71583,%esi
  403435:	81 ee 21 e3 64 98    	sub    $0x9864e321,%esi
  40343b:	56                   	push   %esi
  40343c:	a1 78 f0 41 00       	mov    0x41f078,%eax
  403441:	ff d0                	call   *%eax
  403443:	83 f8 00             	cmp    $0x0,%eax
  403446:	0f 85 c6 8a 00 00    	jne    0x40bf12
  40344c:	8d 1d b2 15 a7 98    	lea    0x98a715b2,%ebx
  403452:	81 eb 21 e3 64 98    	sub    $0x9864e321,%ebx
  403458:	53                   	push   %ebx
  403459:	8d 05 a3 15 a7 98    	lea    0x98a715a3,%eax
  40345f:	2d 21 e3 64 98       	sub    $0x9864e321,%eax
  403464:	50                   	push   %eax
  403465:	a1 84 f0 41 00       	mov    0x41f084,%eax
  40346a:	ff d0                	call   *%eax
  40346c:	8d 35 b2 15 a7 98    	lea    0x98a715b2,%esi
  403472:	81 ee 21 e3 64 98    	sub    $0x9864e321,%esi
  403478:	56                   	push   %esi
  403479:	8d 1d a3 15 a7 98    	lea    0x98a715a3,%ebx
  40347f:	81 eb 21 e3 64 98    	sub    $0x9864e321,%ebx
  403485:	53                   	push   %ebx
  403486:	a1 84 f0 41 00       	mov    0x41f084,%eax
  40348b:	ff d0                	call   *%eax
  40348d:	c7 05 7f 30 42 00 1e 	movl   $0x1e,0x42307f
  403494:	00 00 00 
  403497:	c7 05 d0 30 42 00 b2 	movl   $0xb2,0x4230d0
  40349e:	00 00 00 
  4034a1:	8d 1d b2 15 a7 98    	lea    0x98a715b2,%ebx
  4034a7:	81 eb 21 e3 64 98    	sub    $0x9864e321,%ebx
  4034ad:	53                   	push   %ebx
  4034ae:	8d 3d a3 15 a7 98    	lea    0x98a715a3,%edi
  4034b4:	81 ef 21 e3 64 98    	sub    $0x9864e321,%edi
  4034ba:	57                   	push   %edi
  4034bb:	a1 84 f0 41 00       	mov    0x41f084,%eax
  4034c0:	ff d0                	call   *%eax
  4034c2:	2a 1d 38 31 42 00    	sub    0x423138,%bl
  4034c8:	83 15 71 30 42 00 21 	adcl   $0x21,0x423071
  4034cf:	6a 0f                	push   $0xf
  4034d1:	ff 0c 24             	decl   (%esp)
  4034d4:	8d 0d 95 15 a7 98    	lea    0x98a71595,%ecx
  4034da:	81 e9 21 e3 64 98    	sub    $0x9864e321,%ecx
  4034e0:	51                   	push   %ecx
  4034e1:	8d 35 83 15 a7 98    	lea    0x98a71583,%esi
  4034e7:	81 ee 21 e3 64 98    	sub    $0x9864e321,%esi
  4034ed:	56                   	push   %esi
  4034ee:	a1 78 f0 41 00       	mov    0x41f078,%eax
  4034f3:	ff d0                	call   *%eax
  4034f5:	83 f8 00             	cmp    $0x0,%eax
  4034f8:	0f 85 14 8a 00 00    	jne    0x40bf12
  4034fe:	83 c3 5d             	add    $0x5d,%ebx
  403501:	81 15 bb 31 42 00 de 	adcl   $0xde,0x4231bb
  403508:	00 00 00 
  40350b:	82 2d 94 30 42 00 be 	subb   $0xbe,0x423094
  403512:	6a 0f                	push   $0xf
  403514:	ff 0c 24             	decl   (%esp)
  403517:	8d 0d 95 15 a7 98    	lea    0x98a71595,%ecx
  40351d:	81 e9 21 e3 64 98    	sub    $0x9864e321,%ecx
  403523:	51                   	push   %ecx
  403524:	8d 3d 83 15 a7 98    	lea    0x98a71583,%edi
  40352a:	81 ef 21 e3 64 98    	sub    $0x9864e321,%edi
  403530:	57                   	push   %edi
  403531:	a1 78 f0 41 00       	mov    0x41f078,%eax
  403536:	ff d0                	call   *%eax
  403538:	85 c0                	test   %eax,%eax
  40353a:	0f 85 d2 89 00 00    	jne    0x40bf12
  403540:	82 c7 69             	add    $0x69,%bh
  403543:	21 1d 28 30 42 00    	and    %ebx,0x423028
  403549:	08 3d 09 31 42 00    	or     %bh,0x423109
  40354f:	83 15 48 30 42 00 38 	adcl   $0x38,0x423048
  403556:	01 f0                	add    %esi,%eax
  403558:	8d 15 b2 15 a7 98    	lea    0x98a715b2,%edx
  40355e:	81 ea 21 e3 64 98    	sub    $0x9864e321,%edx
  403564:	52                   	push   %edx
  403565:	8d 0d a3 15 a7 98    	lea    0x98a715a3,%ecx
  40356b:	81 e9 21 e3 64 98    	sub    $0x9864e321,%ecx
  403571:	51                   	push   %ecx
  403572:	a1 84 f0 41 00       	mov    0x41f084,%eax
  403577:	ff d0                	call   *%eax
  403579:	01 1d ea 30 42 00    	add    %ebx,0x4230ea
  40357f:	b9 01 00 00 00       	mov    $0x1,%ecx
  403584:	13 0d 03 31 42 00    	adc    0x423103,%ecx
  40358a:	01 05 88 31 42 00    	add    %eax,0x423188
  403590:	6a 0f                	push   $0xf
  403592:	ff 0c 24             	decl   (%esp)
  403595:	8d 15 95 15 a7 98    	lea    0x98a71595,%edx
  40359b:	81 ea 21 e3 64 98    	sub    $0x9864e321,%edx
  4035a1:	52                   	push   %edx
  4035a2:	8d 15 83 15 a7 98    	lea    0x98a71583,%edx
  4035a8:	81 ea 21 e3 64 98    	sub    $0x9864e321,%edx
  4035ae:	52                   	push   %edx
  4035af:	a1 78 f0 41 00       	mov    0x41f078,%eax
  4035b4:	ff d0                	call   *%eax
  4035b6:	83 f8 00             	cmp    $0x0,%eax
  4035b9:	0f 85 53 89 00 00    	jne    0x40bf12
  4035bf:	2a 3d 3e 30 42 00    	sub    0x42303e,%bh
  4035c5:	83 c3 c1             	add    $0xffffffc1,%ebx
  4035c8:	83 d0 58             	adc    $0x58,%eax
  4035cb:	6a 0f                	push   $0xf
  4035cd:	ff 0c 24             	decl   (%esp)
  4035d0:	8d 3d 95 15 a7 98    	lea    0x98a71595,%edi
  4035d6:	81 ef 21 e3 64 98    	sub    $0x9864e321,%edi
  4035dc:	57                   	push   %edi
  4035dd:	8d 0d 83 15 a7 98    	lea    0x98a71583,%ecx
  4035e3:	81 e9 21 e3 64 98    	sub    $0x9864e321,%ecx
  4035e9:	51                   	push   %ecx
  4035ea:	a1 78 f0 41 00       	mov    0x41f078,%eax
  4035ef:	ff d0                	call   *%eax
  4035f1:	85 c0                	test   %eax,%eax
  4035f3:	0f 85 19 89 00 00    	jne    0x40bf12
  4035f9:	19 c7                	sbb    %eax,%edi
  4035fb:	2a 25 54 30 42 00    	sub    0x423054,%ah
  403601:	12 25 16 31 42 00    	adc    0x423116,%ah
  403607:	2e e9 43 84 00 00    	cs jmp 0x40ba50
  40360d:	11 c7                	adc    %eax,%edi
  40360f:	ba 01 00 00 00       	mov    $0x1,%edx
  403614:	01 da                	add    %ebx,%edx
  403616:	31 35 76 31 42 00    	xor    %esi,0x423176
  40361c:	0b 3d 42 31 42 00    	or     0x423142,%edi
  403622:	01 d0                	add    %edx,%eax
	...
  403630:	00 00                	add    %al,(%eax)
  403632:	00 01                	add    %al,(%ecx)
  403634:	35 27 31 42 00       	xor    $0x423127,%eax
  403639:	13 1d e2 31 42 00    	adc    0x4231e2,%ebx
  40363f:	8d 05 b2 15 a7 98    	lea    0x98a715b2,%eax
  403645:	2d 21 e3 64 98       	sub    $0x9864e321,%eax
  40364a:	50                   	push   %eax
  40364b:	8d 05 a3 15 a7 98    	lea    0x98a715a3,%eax
  403651:	2d 21 e3 64 98       	sub    $0x9864e321,%eax
  403656:	50                   	push   %eax
  403657:	a1 84 f0 41 00       	mov    0x41f084,%eax
  40365c:	ff d0                	call   *%eax
  40365e:	b9 01 00 00 00       	mov    $0x1,%ecx
  403663:	83 c1 12             	add    $0x12,%ecx
  403666:	8d 15 b2 15 a7 98    	lea    0x98a715b2,%edx
  40366c:	81 ea 21 e3 64 98    	sub    $0x9864e321,%edx
  403672:	52                   	push   %edx
  403673:	8d 1d a3 15 a7 98    	lea    0x98a715a3,%ebx
  403679:	81 eb 21 e3 64 98    	sub    $0x9864e321,%ebx
  40367f:	53                   	push   %ebx
  403680:	a1 84 f0 41 00       	mov    0x41f084,%eax
  403685:	ff d0                	call   *%eax
  403687:	13 1d 4d 30 42 00    	adc    0x42304d,%ebx
  40368d:	6a 0f                	push   $0xf
  40368f:	ff 0c 24             	decl   (%esp)
  403692:	8d 35 95 15 a7 98    	lea    0x98a71595,%esi
  403698:	81 ee 21 e3 64 98    	sub    $0x9864e321,%esi
  40369e:	56                   	push   %esi
  40369f:	8d 15 83 15 a7 98    	lea    0x98a71583,%edx
  4036a5:	81 ea 21 e3 64 98    	sub    $0x9864e321,%edx
  4036ab:	52                   	push   %edx
  4036ac:	a1 78 f0 41 00       	mov    0x41f078,%eax
  4036b1:	ff d0                	call   *%eax
  4036b3:	83 f8 00             	cmp    $0x0,%eax
  4036b6:	0f 85 56 88 00 00    	jne    0x40bf12
  4036bc:	6a 0f                	push   $0xf
  4036be:	ff 0c 24             	decl   (%esp)
  4036c1:	8d 0d 95 15 a7 98    	lea    0x98a71595,%ecx
  4036c7:	81 e9 21 e3 64 98    	sub    $0x9864e321,%ecx
  4036cd:	51                   	push   %ecx
  4036ce:	8d 1d 83 15 a7 98    	lea    0x98a71583,%ebx
  4036d4:	81 eb 21 e3 64 98    	sub    $0x9864e321,%ebx
  4036da:	53                   	push   %ebx
  4036db:	a1 78 f0 41 00       	mov    0x41f078,%eax
  4036e0:	ff d0                	call   *%eax
  4036e2:	85 c0                	test   %eax,%eax
  4036e4:	0f 85 28 88 00 00    	jne    0x40bf12
  4036ea:	14 4b                	adc    $0x4b,%al
  4036ec:	0b 1d 29 31 42 00    	or     0x423129,%ebx
  4036f2:	13 35 11 30 42 00    	adc    0x423011,%esi
  4036f8:	6a 0f                	push   $0xf
  4036fa:	ff 0c 24             	decl   (%esp)
  4036fd:	8d 1d 95 15 a7 98    	lea    0x98a71595,%ebx
  403703:	81 eb 21 e3 64 98    	sub    $0x9864e321,%ebx
  403709:	53                   	push   %ebx
  40370a:	8d 1d 83 15 a7 98    	lea    0x98a71583,%ebx
  403710:	81 eb 21 e3 64 98    	sub    $0x9864e321,%ebx
  403716:	53                   	push   %ebx
  403717:	a1 78 f0 41 00       	mov    0x41f078,%eax
  40371c:	ff d0                	call   *%eax
  40371e:	85 c0                	test   %eax,%eax
  403720:	0f 85 ec 87 00 00    	jne    0x40bf12
  403726:	ba 01 00 00 00       	mov    $0x1,%edx
  40372b:	01 da                	add    %ebx,%edx
  40372d:	0b 1d 9d 31 42 00    	or     0x42319d,%ebx
  403733:	12 35 8f 30 42 00    	adc    0x42308f,%dh
  403739:	09 3d b6 30 42 00    	or     %edi,0x4230b6
  40373f:	6a 0f                	push   $0xf
  403741:	ff 0c 24             	decl   (%esp)
  403744:	8d 05 95 15 a7 98    	lea    0x98a71595,%eax
  40374a:	2d 21 e3 64 98       	sub    $0x9864e321,%eax
  40374f:	50                   	push   %eax
  403750:	8d 1d 83 15 a7 98    	lea    0x98a71583,%ebx
  403756:	81 eb 21 e3 64 98    	sub    $0x9864e321,%ebx
  40375c:	53                   	push   %ebx
  40375d:	a1 78 f0 41 00       	mov    0x41f078,%eax
  403762:	ff d0                	call   *%eax
  403764:	85 c0                	test   %eax,%eax
  403766:	0f 85 a6 87 00 00    	jne    0x40bf12
  40376c:	83 15 1f 30 42 00 06 	adcl   $0x6,0x42301f
  403773:	6a 0f                	push   $0xf
  403775:	ff 0c 24             	decl   (%esp)
  403778:	8d 3d 95 15 a7 98    	lea    0x98a71595,%edi
  40377e:	81 ef 21 e3 64 98    	sub    $0x9864e321,%edi
  403784:	57                   	push   %edi
  403785:	8d 05 83 15 a7 98    	lea    0x98a71583,%eax
  40378b:	2d 21 e3 64 98       	sub    $0x9864e321,%eax
  403790:	50                   	push   %eax
  403791:	a1 78 f0 41 00       	mov    0x41f078,%eax
  403796:	ff d0                	call   *%eax
  403798:	83 f8 00             	cmp    $0x0,%eax
  40379b:	0f 85 71 87 00 00    	jne    0x40bf12
  4037a1:	19 05 e1 31 42 00    	sbb    %eax,0x4231e1
  4037a7:	31 d8                	xor    %ebx,%eax
  4037a9:	8d 35 b2 15 a7 98    	lea    0x98a715b2,%esi
  4037af:	81 ee 21 e3 64 98    	sub    $0x9864e321,%esi
  4037b5:	56                   	push   %esi
  4037b6:	8d 15 a3 15 a7 98    	lea    0x98a715a3,%edx
  4037bc:	81 ea 21 e3 64 98    	sub    $0x9864e321,%edx
  4037c2:	52                   	push   %edx
  4037c3:	a1 84 f0 41 00       	mov    0x41f084,%eax
  4037c8:	ff d0                	call   *%eax
  4037ca:	ba 01 00 00 00       	mov    $0x1,%edx
  4037cf:	13 15 5a 30 42 00    	adc    0x42305a,%edx
  4037d5:	11 3d 79 31 42 00    	adc    %edi,0x423179
  4037db:	83 35 e5 31 42 00 1c 	xorl   $0x1c,0x4231e5
  4037e2:	6a 0f                	push   $0xf
  4037e4:	ff 0c 24             	decl   (%esp)
  4037e7:	8d 3d 95 15 a7 98    	lea    0x98a71595,%edi
  4037ed:	81 ef 21 e3 64 98    	sub    $0x9864e321,%edi
  4037f3:	57                   	push   %edi
  4037f4:	8d 1d 83 15 a7 98    	lea    0x98a71583,%ebx
  4037fa:	81 eb 21 e3 64 98    	sub    $0x9864e321,%ebx
  403800:	53                   	push   %ebx
  403801:	a1 78 f0 41 00       	mov    0x41f078,%eax
  403806:	ff d0                	call   *%eax
  403808:	85 c0                	test   %eax,%eax
  40380a:	0f 85 02 87 00 00    	jne    0x40bf12
  403810:	6a 0f                	push   $0xf
  403812:	ff 0c 24             	decl   (%esp)
  403815:	8d 0d 95 15 a7 98    	lea    0x98a71595,%ecx
  40381b:	81 e9 21 e3 64 98    	sub    $0x9864e321,%ecx
  403821:	51                   	push   %ecx
  403822:	8d 15 83 15 a7 98    	lea    0x98a71583,%edx
  403828:	81 ea 21 e3 64 98    	sub    $0x9864e321,%edx
  40382e:	52                   	push   %edx
  40382f:	a1 78 f0 41 00       	mov    0x41f078,%eax
  403834:	ff d0                	call   *%eax
  403836:	85 c0                	test   %eax,%eax
  403838:	0f 85 d4 86 00 00    	jne    0x40bf12
  40383e:	8d 05 b2 15 a7 98    	lea    0x98a715b2,%eax
  403844:	2d 21 e3 64 98       	sub    $0x9864e321,%eax
  403849:	50                   	push   %eax
  40384a:	8d 0d a3 15 a7 98    	lea    0x98a715a3,%ecx
  403850:	81 e9 21 e3 64 98    	sub    $0x9864e321,%ecx
  403856:	51                   	push   %ecx
  403857:	a1 84 f0 41 00       	mov    0x41f084,%eax
  40385c:	ff d0                	call   *%eax
  40385e:	13 3d 83 31 42 00    	adc    0x423183,%edi
  403864:	c7 05 c5 30 42 00 bb 	movl   $0xbb,0x4230c5
  40386b:	00 00 00 
  40386e:	6a 0f                	push   $0xf
  403870:	ff 0c 24             	decl   (%esp)
  403873:	8d 15 95 15 a7 98    	lea    0x98a71595,%edx
  403879:	81 ea 21 e3 64 98    	sub    $0x9864e321,%edx
  40387f:	52                   	push   %edx
  403880:	8d 1d 83 15 a7 98    	lea    0x98a71583,%ebx
  403886:	81 eb 21 e3 64 98    	sub    $0x9864e321,%ebx
  40388c:	53                   	push   %ebx
  40388d:	a1 78 f0 41 00       	mov    0x41f078,%eax
  403892:	ff d0                	call   *%eax
  403894:	85 c0                	test   %eax,%eax
  403896:	0f 85 76 86 00 00    	jne    0x40bf12
  40389c:	13 1d 26 30 42 00    	adc    0x423026,%ebx
  4038a2:	ba 01 00 00 00       	mov    $0x1,%edx
  4038a7:	13 15 65 31 42 00    	adc    0x423165,%edx
  4038ad:	2e e9 9d 81 00 00    	cs jmp 0x40ba50
  4038b3:	19 c2                	sbb    %eax,%edx
  4038b5:	01 fb                	add    %edi,%ebx
  4038b7:	0a 35 24 31 42 00    	or     0x423124,%dh
  4038bd:	13 15 ba 30 42 00    	adc    0x4230ba,%edx
  4038c3:	b9 01 00 00 00       	mov    $0x1,%ecx
  4038c8:	01 f9                	add    %edi,%ecx
	...
  4038d2:	6a 0f                	push   $0xf
  4038d4:	ff 0c 24             	decl   (%esp)
  4038d7:	8d 0d 95 15 a7 98    	lea    0x98a71595,%ecx
  4038dd:	81 e9 21 e3 64 98    	sub    $0x9864e321,%ecx
  4038e3:	51                   	push   %ecx
  4038e4:	8d 15 83 15 a7 98    	lea    0x98a71583,%edx
  4038ea:	81 ea 21 e3 64 98    	sub    $0x9864e321,%edx
  4038f0:	52                   	push   %edx
  4038f1:	a1 78 f0 41 00       	mov    0x41f078,%eax
  4038f6:	ff d0                	call   *%eax
  4038f8:	83 f8 00             	cmp    $0x0,%eax
  4038fb:	0f 85 11 86 00 00    	jne    0x40bf12
  403901:	0a 1d 5f 30 42 00    	or     0x42305f,%bl
  403907:	6a 0f                	push   $0xf
  403909:	ff 0c 24             	decl   (%esp)
  40390c:	8d 15 95 15 a7 98    	lea    0x98a71595,%edx
  403912:	81 ea 21 e3 64 98    	sub    $0x9864e321,%edx
  403918:	52                   	push   %edx
  403919:	8d 3d 83 15 a7 98    	lea    0x98a71583,%edi
  40391f:	81 ef 21 e3 64 98    	sub    $0x9864e321,%edi
  403925:	57                   	push   %edi
  403926:	a1 78 f0 41 00       	mov    0x41f078,%eax
  40392b:	ff d0                	call   *%eax
  40392d:	85 c0                	test   %eax,%eax
  40392f:	0f 85 dd 85 00 00    	jne    0x40bf12
  403935:	01 f8                	add    %edi,%eax
  403937:	01 35 88 30 42 00    	add    %esi,0x423088
  40393d:	29 de                	sub    %ebx,%esi
  40393f:	8d 1d b2 15 a7 98    	lea    0x98a715b2,%ebx
  403945:	81 eb 21 e3 64 98    	sub    $0x9864e321,%ebx
  40394b:	53                   	push   %ebx
  40394c:	8d 15 a3 15 a7 98    	lea    0x98a715a3,%edx
  403952:	81 ea 21 e3 64 98    	sub    $0x9864e321,%edx
  403958:	52                   	push   %edx
  403959:	a1 84 f0 41 00       	mov    0x41f084,%eax
  40395e:	ff d0                	call   *%eax
  403960:	83 c0 d8             	add    $0xffffffd8,%eax
  403963:	09 1d e8 30 42 00    	or     %ebx,0x4230e8
  403969:	0b 1d 87 31 42 00    	or     0x423187,%ebx
  40396f:	13 1d 2c 30 42 00    	adc    0x42302c,%ebx
  403975:	31 1d 74 31 42 00    	xor    %ebx,0x423174
  40397b:	6a 0f                	push   $0xf
  40397d:	ff 0c 24             	decl   (%esp)
  403980:	8d 0d 95 15 a7 98    	lea    0x98a71595,%ecx
  403986:	81 e9 21 e3 64 98    	sub    $0x9864e321,%ecx
  40398c:	51                   	push   %ecx
  40398d:	8d 15 83 15 a7 98    	lea    0x98a71583,%edx
  403993:	81 ea 21 e3 64 98    	sub    $0x9864e321,%edx
  403999:	52                   	push   %edx
  40399a:	a1 78 f0 41 00       	mov    0x41f078,%eax
  40399f:	ff d0                	call   *%eax
  4039a1:	85 c0                	test   %eax,%eax
  4039a3:	0f 85 69 85 00 00    	jne    0x40bf12
  4039a9:	b9 01 00 00 00       	mov    $0x1,%ecx
  4039ae:	13 0d ab 30 42 00    	adc    0x4230ab,%ecx
  4039b4:	2a 25 f5 31 42 00    	sub    0x4231f5,%ah
  4039ba:	83 cf 78             	or     $0x78,%edi
  4039bd:	83 25 fe 30 42 00 0d 	andl   $0xd,0x4230fe
  4039c4:	8d 3d b2 15 a7 98    	lea    0x98a715b2,%edi
  4039ca:	81 ef 21 e3 64 98    	sub    $0x9864e321,%edi
  4039d0:	57                   	push   %edi
  4039d1:	8d 35 a3 15 a7 98    	lea    0x98a715a3,%esi
  4039d7:	81 ee 21 e3 64 98    	sub    $0x9864e321,%esi
  4039dd:	56                   	push   %esi
  4039de:	a1 84 f0 41 00       	mov    0x41f084,%eax
  4039e3:	ff d0                	call   *%eax
  4039e5:	8d 3d b2 15 a7 98    	lea    0x98a715b2,%edi
  4039eb:	81 ef 21 e3 64 98    	sub    $0x9864e321,%edi
  4039f1:	57                   	push   %edi
  4039f2:	8d 0d a3 15 a7 98    	lea    0x98a715a3,%ecx
  4039f8:	81 e9 21 e3 64 98    	sub    $0x9864e321,%ecx
  4039fe:	51                   	push   %ecx
  4039ff:	a1 84 f0 41 00       	mov    0x41f084,%eax
  403a04:	ff d0                	call   *%eax
  403a06:	2b 05 4e 31 42 00    	sub    0x42314e,%eax
  403a0c:	01 c3                	add    %eax,%ebx
  403a0e:	2b 35 03 31 42 00    	sub    0x423103,%esi
  403a14:	c7 05 8c 31 42 00 6d 	movl   $0x6d,0x42318c
  403a1b:	00 00 00 
  403a1e:	8d 15 b2 15 a7 98    	lea    0x98a715b2,%edx
  403a24:	81 ea 21 e3 64 98    	sub    $0x9864e321,%edx
  403a2a:	52                   	push   %edx
  403a2b:	8d 05 a3 15 a7 98    	lea    0x98a715a3,%eax
  403a31:	2d 21 e3 64 98       	sub    $0x9864e321,%eax
  403a36:	50                   	push   %eax
  403a37:	a1 84 f0 41 00       	mov    0x41f084,%eax
  403a3c:	ff d0                	call   *%eax
  403a3e:	82 2d 5e 30 42 00 d3 	subb   $0xd3,0x42305e
  403a45:	10 f8                	adc    %bh,%al
  403a47:	21 1d 92 30 42 00    	and    %ebx,0x423092
  403a4d:	6a 0f                	push   $0xf
  403a4f:	ff 0c 24             	decl   (%esp)
  403a52:	8d 05 95 15 a7 98    	lea    0x98a71595,%eax
  403a58:	2d 21 e3 64 98       	sub    $0x9864e321,%eax
  403a5d:	50                   	push   %eax
  403a5e:	8d 3d 83 15 a7 98    	lea    0x98a71583,%edi
  403a64:	81 ef 21 e3 64 98    	sub    $0x9864e321,%edi
  403a6a:	57                   	push   %edi
  403a6b:	a1 78 f0 41 00       	mov    0x41f078,%eax
  403a70:	ff d0                	call   *%eax
  403a72:	83 f8 00             	cmp    $0x0,%eax
  403a75:	0f 85 97 84 00 00    	jne    0x40bf12
  403a7b:	b9 01 00 00 00       	mov    $0x1,%ecx
  403a80:	83 c1 d3             	add    $0xffffffd3,%ecx
  403a83:	83 25 f8 30 42 00 5c 	andl   $0x5c,0x4230f8
  403a8a:	81 15 04 31 42 00 f0 	adcl   $0xf0,0x423104
  403a91:	00 00 00 
  403a94:	83 0d 85 31 42 00 01 	orl    $0x1,0x423185
  403a9b:	19 f3                	sbb    %esi,%ebx
  403a9d:	8d 1d b2 15 a7 98    	lea    0x98a715b2,%ebx
  403aa3:	81 eb 21 e3 64 98    	sub    $0x9864e321,%ebx
  403aa9:	53                   	push   %ebx
  403aaa:	8d 05 a3 15 a7 98    	lea    0x98a715a3,%eax
  403ab0:	2d 21 e3 64 98       	sub    $0x9864e321,%eax
  403ab5:	50                   	push   %eax
  403ab6:	a1 84 f0 41 00       	mov    0x41f084,%eax
  403abb:	ff d0                	call   *%eax
  403abd:	01 05 0b 30 42 00    	add    %eax,0x42300b
  403ac3:	2a 3d 12 30 42 00    	sub    0x423012,%bh
  403ac9:	81 0d 3a 31 42 00 ac 	orl    $0xac,0x42313a
  403ad0:	00 00 00 
  403ad3:	8d 3d b2 15 a7 98    	lea    0x98a715b2,%edi
  403ad9:	81 ef 21 e3 64 98    	sub    $0x9864e321,%edi
  403adf:	57                   	push   %edi
  403ae0:	8d 35 a3 15 a7 98    	lea    0x98a715a3,%esi
  403ae6:	81 ee 21 e3 64 98    	sub    $0x9864e321,%esi
  403aec:	56                   	push   %esi
  403aed:	a1 84 f0 41 00       	mov    0x41f084,%eax
  403af2:	ff d0                	call   *%eax
  403af4:	10 1d 21 31 42 00    	adc    %bl,0x423121
  403afa:	13 05 1d 30 42 00    	adc    0x42301d,%eax
  403b00:	19 f6                	sbb    %esi,%esi
  403b02:	13 05 8e 31 42 00    	adc    0x42318e,%eax
  403b08:	2e e9 42 7f 00 00    	cs jmp 0x40ba50
  403b0e:	29 c3                	sub    %eax,%ebx
  403b10:	b9 01 00 00 00       	mov    $0x1,%ecx
  403b15:	83 c1 a8             	add    $0xffffffa8,%ecx
  403b18:	31 35 ea 30 42 00    	xor    %esi,0x4230ea
  403b1e:	13 35 77 30 42 00    	adc    0x423077,%esi
  403b24:	11 de                	adc    %ebx,%esi
  403b26:	00 00                	add    %al,(%eax)
  403b28:	00 00                	add    %al,(%eax)
  403b2a:	00 19                	add    %bl,(%ecx)
  403b2c:	f0 ba 01 00 00 00    	lock mov $0x1,%edx
  403b32:	13 15 f3 31 42 00    	adc    0x4231f3,%edx
  403b38:	83 de 9d             	sbb    $0xffffff9d,%esi
  403b3b:	b9 01 00 00 00       	mov    $0x1,%ecx
  403b40:	01 c1                	add    %eax,%ecx
  403b42:	6a 0f                	push   $0xf
  403b44:	ff 0c 24             	decl   (%esp)
  403b47:	8d 0d 95 15 a7 98    	lea    0x98a71595,%ecx
  403b4d:	81 e9 21 e3 64 98    	sub    $0x9864e321,%ecx
  403b53:	51                   	push   %ecx
  403b54:	8d 05 83 15 a7 98    	lea    0x98a71583,%eax
  403b5a:	2d 21 e3 64 98       	sub    $0x9864e321,%eax
  403b5f:	50                   	push   %eax
  403b60:	a1 78 f0 41 00       	mov    0x41f078,%eax
  403b65:	ff d0                	call   *%eax
  403b67:	83 f8 00             	cmp    $0x0,%eax
  403b6a:	0f 85 a2 83 00 00    	jne    0x40bf12
  403b70:	10 1d e2 31 42 00    	adc    %bl,0x4231e2
  403b76:	0b 3d a5 30 42 00    	or     0x4230a5,%edi
  403b7c:	13 05 0b 31 42 00    	adc    0x42310b,%eax
  403b82:	b9 01 00 00 00       	mov    $0x1,%ecx
  403b87:	83 c1 d4             	add    $0xffffffd4,%ecx
  403b8a:	82 2d 33 31 42 00 35 	subb   $0x35,0x423133
  403b91:	6a 0f                	push   $0xf
  403b93:	ff 0c 24             	decl   (%esp)
  403b96:	8d 35 95 15 a7 98    	lea    0x98a71595,%esi
  403b9c:	81 ee 21 e3 64 98    	sub    $0x9864e321,%esi
  403ba2:	56                   	push   %esi
  403ba3:	8d 0d 83 15 a7 98    	lea    0x98a71583,%ecx
  403ba9:	81 e9 21 e3 64 98    	sub    $0x9864e321,%ecx
  403baf:	51                   	push   %ecx
  403bb0:	a1 78 f0 41 00       	mov    0x41f078,%eax
  403bb5:	ff d0                	call   *%eax
  403bb7:	83 f8 00             	cmp    $0x0,%eax
  403bba:	0f 85 52 83 00 00    	jne    0x40bf12
  403bc0:	ba 01 00 00 00       	mov    $0x1,%edx
  403bc5:	13 15 a8 30 42 00    	adc    0x4230a8,%edx
  403bcb:	81 15 ab 30 42 00 ef 	adcl   $0xef,0x4230ab
  403bd2:	00 00 00 
  403bd5:	29 15 d7 31 42 00    	sub    %edx,0x4231d7
  403bdb:	82 d2 00             	adc    $0x0,%dl
  403bde:	6a 0f                	push   $0xf
  403be0:	ff 0c 24             	decl   (%esp)
  403be3:	8d 3d 95 15 a7 98    	lea    0x98a71595,%edi
  403be9:	81 ef 21 e3 64 98    	sub    $0x9864e321,%edi
  403bef:	57                   	push   %edi
  403bf0:	8d 35 83 15 a7 98    	lea    0x98a71583,%esi
  403bf6:	81 ee 21 e3 64 98    	sub    $0x9864e321,%esi
  403bfc:	56                   	push   %esi
  403bfd:	a1 78 f0 41 00       	mov    0x41f078,%eax
  403c02:	ff d0                	call   *%eax
  403c04:	85 c0                	test   %eax,%eax
  403c06:	0f 85 06 83 00 00    	jne    0x40bf12
  403c0c:	83 15 47 30 42 00 0d 	adcl   $0xd,0x423047
  403c13:	83 15 13 31 42 00 15 	adcl   $0x15,0x423113
  403c1a:	6a 0f                	push   $0xf
  403c1c:	ff 0c 24             	decl   (%esp)
  403c1f:	8d 05 95 15 a7 98    	lea    0x98a71595,%eax
  403c25:	2d 21 e3 64 98       	sub    $0x9864e321,%eax
  403c2a:	50                   	push   %eax
  403c2b:	8d 0d 83 15 a7 98    	lea    0x98a71583,%ecx
  403c31:	81 e9 21 e3 64 98    	sub    $0x9864e321,%ecx
  403c37:	51                   	push   %ecx
  403c38:	a1 78 f0 41 00       	mov    0x41f078,%eax
  403c3d:	ff d0                	call   *%eax
  403c3f:	85 c0                	test   %eax,%eax
  403c41:	0f 85 cb 82 00 00    	jne    0x40bf12
  403c47:	83 0d 5e 31 42 00 41 	orl    $0x41,0x42315e
  403c4e:	b1 01                	mov    $0x1,%cl
  403c50:	00 f9                	add    %bh,%cl
  403c52:	29 0d 0f 30 42 00    	sub    %ecx,0x42300f
  403c58:	6a 0f                	push   $0xf
  403c5a:	ff 0c 24             	decl   (%esp)
  403c5d:	8d 05 95 15 a7 98    	lea    0x98a71595,%eax
  403c63:	2d 21 e3 64 98       	sub    $0x9864e321,%eax
  403c68:	50                   	push   %eax
  403c69:	8d 05 83 15 a7 98    	lea    0x98a71583,%eax
  403c6f:	2d 21 e3 64 98       	sub    $0x9864e321,%eax
  403c74:	50                   	push   %eax
  403c75:	a1 78 f0 41 00       	mov    0x41f078,%eax
  403c7a:	ff d0                	call   *%eax
  403c7c:	85 c0                	test   %eax,%eax
  403c7e:	0f 85 8e 82 00 00    	jne    0x40bf12
  403c84:	29 3d d2 31 42 00    	sub    %edi,0x4231d2
  403c8a:	19 fb                	sbb    %edi,%ebx
  403c8c:	83 15 35 31 42 00 1a 	adcl   $0x1a,0x423135
  403c93:	83 e7 f3             	and    $0xfffffff3,%edi
  403c96:	8d 3d b2 15 a7 98    	lea    0x98a715b2,%edi
  403c9c:	81 ef 21 e3 64 98    	sub    $0x9864e321,%edi
  403ca2:	57                   	push   %edi
  403ca3:	8d 3d a3 15 a7 98    	lea    0x98a715a3,%edi
  403ca9:	81 ef 21 e3 64 98    	sub    $0x9864e321,%edi
  403caf:	57                   	push   %edi
  403cb0:	a1 84 f0 41 00       	mov    0x41f084,%eax
  403cb5:	ff d0                	call   *%eax
  403cb7:	13 1d 06 31 42 00    	adc    0x423106,%ebx
  403cbd:	81 1d b4 31 42 00 f9 	sbbl   $0xf9,0x4231b4
  403cc4:	00 00 00 
  403cc7:	c7 05 1c 30 42 00 50 	movl   $0x50,0x42301c
  403cce:	00 00 00 
  403cd1:	82 2d fe 30 42 00 19 	subb   $0x19,0x4230fe
  403cd8:	c7 05 0a 31 42 00 f6 	movl   $0xf6,0x42310a
  403cdf:	00 00 00 
  403ce2:	6a 0f                	push   $0xf
  403ce4:	ff 0c 24             	decl   (%esp)
  403ce7:	8d 15 95 15 a7 98    	lea    0x98a71595,%edx
  403ced:	81 ea 21 e3 64 98    	sub    $0x9864e321,%edx
  403cf3:	52                   	push   %edx
  403cf4:	8d 1d 83 15 a7 98    	lea    0x98a71583,%ebx
  403cfa:	81 eb 21 e3 64 98    	sub    $0x9864e321,%ebx
  403d00:	53                   	push   %ebx
  403d01:	a1 78 f0 41 00       	mov    0x41f078,%eax
  403d06:	ff d0                	call   *%eax
  403d08:	85 c0                	test   %eax,%eax
  403d0a:	0f 85 02 82 00 00    	jne    0x40bf12
  403d10:	21 35 77 31 42 00    	and    %esi,0x423177
  403d16:	09 35 90 30 42 00    	or     %esi,0x423090
  403d1c:	6a 0f                	push   $0xf
  403d1e:	ff 0c 24             	decl   (%esp)
  403d21:	8d 05 95 15 a7 98    	lea    0x98a71595,%eax
  403d27:	2d 21 e3 64 98       	sub    $0x9864e321,%eax
  403d2c:	50                   	push   %eax
  403d2d:	8d 15 83 15 a7 98    	lea    0x98a71583,%edx
  403d33:	81 ea 21 e3 64 98    	sub    $0x9864e321,%edx
  403d39:	52                   	push   %edx
  403d3a:	a1 78 f0 41 00       	mov    0x41f078,%eax
  403d3f:	ff d0                	call   *%eax
  403d41:	85 c0                	test   %eax,%eax
  403d43:	0f 85 c9 81 00 00    	jne    0x40bf12
  403d49:	83 15 36 31 42 00 7c 	adcl   $0x7c,0x423136
  403d50:	ba 01 00 00 00       	mov    $0x1,%edx
  403d55:	83 c2 3f             	add    $0x3f,%edx
  403d58:	83 d3 77             	adc    $0x77,%ebx
  403d5b:	83 35 5e 30 42 00 0e 	xorl   $0xe,0x42305e
  403d62:	29 1d ef 30 42 00    	sub    %ebx,0x4230ef
  403d68:	8d 35 b2 15 a7 98    	lea    0x98a715b2,%esi
  403d6e:	81 ee 21 e3 64 98    	sub    $0x9864e321,%esi
  403d74:	56                   	push   %esi
  403d75:	8d 35 a3 15 a7 98    	lea    0x98a715a3,%esi
  403d7b:	81 ee 21 e3 64 98    	sub    $0x9864e321,%esi
  403d81:	56                   	push   %esi
  403d82:	a1 84 f0 41 00       	mov    0x41f084,%eax
  403d87:	ff d0                	call   *%eax
  403d89:	29 f6                	sub    %esi,%esi
  403d8b:	ba 01 00 00 00       	mov    $0x1,%edx
  403d90:	83 c2 1a             	add    $0x1a,%edx
  403d93:	81 0d 54 31 42 00 bb 	orl    $0xbb,0x423154
  403d9a:	00 00 00 
  403d9d:	13 35 a7 30 42 00    	adc    0x4230a7,%esi
  403da3:	13 1d 98 30 42 00    	adc    0x423098,%ebx
  403da9:	6a 0f                	push   $0xf
  403dab:	ff 0c 24             	decl   (%esp)
  403dae:	8d 15 95 15 a7 98    	lea    0x98a71595,%edx
  403db4:	81 ea 21 e3 64 98    	sub    $0x9864e321,%edx
  403dba:	52                   	push   %edx
  403dbb:	8d 1d 83 15 a7 98    	lea    0x98a71583,%ebx
  403dc1:	81 eb 21 e3 64 98    	sub    $0x9864e321,%ebx
  403dc7:	53                   	push   %ebx
  403dc8:	a1 78 f0 41 00       	mov    0x41f078,%eax
  403dcd:	ff d0                	call   *%eax
  403dcf:	85 c0                	test   %eax,%eax
  403dd1:	0f 85 3b 81 00 00    	jne    0x40bf12
  403dd7:	ba 01 00 00 00       	mov    $0x1,%edx
  403ddc:	01 da                	add    %ebx,%edx
  403dde:	8d 15 b2 15 a7 98    	lea    0x98a715b2,%edx
  403de4:	81 ea 21 e3 64 98    	sub    $0x9864e321,%edx
  403dea:	52                   	push   %edx
  403deb:	8d 1d a3 15 a7 98    	lea    0x98a715a3,%ebx
  403df1:	81 eb 21 e3 64 98    	sub    $0x9864e321,%ebx
  403df7:	53                   	push   %ebx
  403df8:	a1 84 f0 41 00       	mov    0x41f084,%eax
  403dfd:	ff d0                	call   *%eax
  403dff:	b1 01                	mov    $0x1,%cl
  403e01:	82 c1 3a             	add    $0x3a,%cl
  403e04:	2e e9 46 7c 00 00    	cs jmp 0x40ba50
	...
  403e1a:	83 35 4d 31 42 00 48 	xorl   $0x48,0x42314d
  403e21:	11 1d 5a 31 42 00    	adc    %ebx,0x42315a
  403e27:	ba 01 00 00 00       	mov    $0x1,%edx
  403e2c:	01 c2                	add    %eax,%edx
  403e2e:	8d 3d b2 15 a7 98    	lea    0x98a715b2,%edi
  403e34:	81 ef 21 e3 64 98    	sub    $0x9864e321,%edi
  403e3a:	57                   	push   %edi
  403e3b:	8d 35 a3 15 a7 98    	lea    0x98a715a3,%esi
  403e41:	81 ee 21 e3 64 98    	sub    $0x9864e321,%esi
  403e47:	56                   	push   %esi
  403e48:	a1 84 f0 41 00       	mov    0x41f084,%eax
  403e4d:	ff d0                	call   *%eax
  403e4f:	8d 1d b2 15 a7 98    	lea    0x98a715b2,%ebx
  403e55:	81 eb 21 e3 64 98    	sub    $0x9864e321,%ebx
  403e5b:	53                   	push   %ebx
  403e5c:	8d 05 a3 15 a7 98    	lea    0x98a715a3,%eax
  403e62:	2d 21 e3 64 98       	sub    $0x9864e321,%eax
  403e67:	50                   	push   %eax
  403e68:	a1 84 f0 41 00       	mov    0x41f084,%eax
  403e6d:	ff d0                	call   *%eax
  403e6f:	10 25 1a 30 42 00    	adc    %ah,0x42301a
  403e75:	13 05 23 30 42 00    	adc    0x423023,%eax
  403e7b:	21 3d 0c 30 42 00    	and    %edi,0x42300c
  403e81:	31 1d 22 31 42 00    	xor    %ebx,0x423122
  403e87:	13 35 74 30 42 00    	adc    0x423074,%esi
  403e8d:	6a 0f                	push   $0xf
  403e8f:	ff 0c 24             	decl   (%esp)
  403e92:	8d 1d 95 15 a7 98    	lea    0x98a71595,%ebx
  403e98:	81 eb 21 e3 64 98    	sub    $0x9864e321,%ebx
  403e9e:	53                   	push   %ebx
  403e9f:	8d 15 83 15 a7 98    	lea    0x98a71583,%edx
  403ea5:	81 ea 21 e3 64 98    	sub    $0x9864e321,%edx
  403eab:	52                   	push   %edx
  403eac:	a1 78 f0 41 00       	mov    0x41f078,%eax
  403eb1:	ff d0                	call   *%eax
  403eb3:	85 c0                	test   %eax,%eax
  403eb5:	0f 85 57 80 00 00    	jne    0x40bf12
  403ebb:	83 35 68 30 42 00 78 	xorl   $0x78,0x423068
  403ec2:	b2 01                	mov    $0x1,%dl
  403ec4:	00 da                	add    %bl,%dl
  403ec6:	b9 01 00 00 00       	mov    $0x1,%ecx
  403ecb:	13 0d 83 30 42 00    	adc    0x423083,%ecx
  403ed1:	13 1d 8b 31 42 00    	adc    0x42318b,%ebx
  403ed7:	82 c1 13             	add    $0x13,%cl
  403eda:	8d 35 b2 15 a7 98    	lea    0x98a715b2,%esi
  403ee0:	81 ee 21 e3 64 98    	sub    $0x9864e321,%esi
  403ee6:	56                   	push   %esi
  403ee7:	8d 35 a3 15 a7 98    	lea    0x98a715a3,%esi
  403eed:	81 ee 21 e3 64 98    	sub    $0x9864e321,%esi
  403ef3:	56                   	push   %esi
  403ef4:	a1 84 f0 41 00       	mov    0x41f084,%eax
  403ef9:	ff d0                	call   *%eax
  403efb:	b9 01 00 00 00       	mov    $0x1,%ecx
  403f00:	83 c1 fe             	add    $0xfffffffe,%ecx
  403f03:	31 c1                	xor    %eax,%ecx
  403f05:	83 0d 9f 31 42 00 4b 	orl    $0x4b,0x42319f
  403f0c:	81 0d 10 31 42 00 96 	orl    $0x96,0x423110
  403f13:	00 00 00 
  403f16:	ba 01 00 00 00       	mov    $0x1,%edx
  403f1b:	01 da                	add    %ebx,%edx
  403f1d:	6a 0f                	push   $0xf
  403f1f:	ff 0c 24             	decl   (%esp)
  403f22:	8d 3d 95 15 a7 98    	lea    0x98a71595,%edi
  403f28:	81 ef 21 e3 64 98    	sub    $0x9864e321,%edi
  403f2e:	57                   	push   %edi
  403f2f:	8d 1d 83 15 a7 98    	lea    0x98a71583,%ebx
  403f35:	81 eb 21 e3 64 98    	sub    $0x9864e321,%ebx
  403f3b:	53                   	push   %ebx
  403f3c:	a1 78 f0 41 00       	mov    0x41f078,%eax
  403f41:	ff d0                	call   *%eax
  403f43:	85 c0                	test   %eax,%eax
  403f45:	0f 85 c7 7f 00 00    	jne    0x40bf12
  403f4b:	82 2d c9 30 42 00 ea 	subb   $0xea,0x4230c9
  403f52:	12 3d d7 30 42 00    	adc    0x4230d7,%bh
  403f58:	8d 05 b2 15 a7 98    	lea    0x98a715b2,%eax
  403f5e:	2d 21 e3 64 98       	sub    $0x9864e321,%eax
  403f63:	50                   	push   %eax
  403f64:	8d 15 a3 15 a7 98    	lea    0x98a715a3,%edx
  403f6a:	81 ea 21 e3 64 98    	sub    $0x9864e321,%edx
  403f70:	52                   	push   %edx
  403f71:	a1 84 f0 41 00       	mov    0x41f084,%eax
  403f76:	ff d0                	call   *%eax
  403f78:	6a 0f                	push   $0xf
  403f7a:	ff 0c 24             	decl   (%esp)
  403f7d:	8d 1d 95 15 a7 98    	lea    0x98a71595,%ebx
  403f83:	81 eb 21 e3 64 98    	sub    $0x9864e321,%ebx
  403f89:	53                   	push   %ebx
  403f8a:	8d 3d 83 15 a7 98    	lea    0x98a71583,%edi
  403f90:	81 ef 21 e3 64 98    	sub    $0x9864e321,%edi
  403f96:	57                   	push   %edi
  403f97:	a1 78 f0 41 00       	mov    0x41f078,%eax
  403f9c:	ff d0                	call   *%eax
  403f9e:	83 f8 00             	cmp    $0x0,%eax
  403fa1:	0f 85 6b 7f 00 00    	jne    0x40bf12
  403fa7:	83 ef bb             	sub    $0xffffffbb,%edi
  403faa:	83 15 f1 30 42 00 24 	adcl   $0x24,0x4230f1
  403fb1:	01 1d a1 30 42 00    	add    %ebx,0x4230a1
  403fb7:	81 35 3c 30 42 00 88 	xorl   $0x88,0x42303c
  403fbe:	00 00 00 
  403fc1:	12 25 e2 30 42 00    	adc    0x4230e2,%ah
  403fc7:	8d 15 b2 15 a7 98    	lea    0x98a715b2,%edx
  403fcd:	81 ea 21 e3 64 98    	sub    $0x9864e321,%edx
  403fd3:	52                   	push   %edx
  403fd4:	8d 15 a3 15 a7 98    	lea    0x98a715a3,%edx
  403fda:	81 ea 21 e3 64 98    	sub    $0x9864e321,%edx
  403fe0:	52                   	push   %edx
  403fe1:	a1 84 f0 41 00       	mov    0x41f084,%eax
  403fe6:	ff d0                	call   *%eax
  403fe8:	ba 01 00 00 00       	mov    $0x1,%edx
  403fed:	13 15 16 30 42 00    	adc    0x423016,%edx
  403ff3:	83 ee cf             	sub    $0xffffffcf,%esi
  403ff6:	83 25 11 31 42 00 06 	andl   $0x6,0x423111
  403ffd:	83 15 8f 31 42 00 06 	adcl   $0x6,0x42318f
  404004:	6a 0f                	push   $0xf
  404006:	ff 0c 24             	decl   (%esp)
  404009:	8d 3d 95 15 a7 98    	lea    0x98a71595,%edi
  40400f:	81 ef 21 e3 64 98    	sub    $0x9864e321,%edi
  404015:	57                   	push   %edi
  404016:	8d 15 83 15 a7 98    	lea    0x98a71583,%edx
  40401c:	81 ea 21 e3 64 98    	sub    $0x9864e321,%edx
  404022:	52                   	push   %edx
  404023:	a1 78 f0 41 00       	mov    0x41f078,%eax
  404028:	ff d0                	call   *%eax
  40402a:	85 c0                	test   %eax,%eax
  40402c:	0f 85 e0 7e 00 00    	jne    0x40bf12
  404032:	83 15 92 31 42 00 2e 	adcl   $0x2e,0x423192
  404039:	11 3d 55 30 42 00    	adc    %edi,0x423055
  40403f:	6a 0f                	push   $0xf
  404041:	ff 0c 24             	decl   (%esp)
  404044:	8d 15 95 15 a7 98    	lea    0x98a71595,%edx
  40404a:	81 ea 21 e3 64 98    	sub    $0x9864e321,%edx
  404050:	52                   	push   %edx
  404051:	8d 05 83 15 a7 98    	lea    0x98a71583,%eax
  404057:	2d 21 e3 64 98       	sub    $0x9864e321,%eax
  40405c:	50                   	push   %eax
  40405d:	a1 78 f0 41 00       	mov    0x41f078,%eax
  404062:	ff d0                	call   *%eax
  404064:	83 f8 00             	cmp    $0x0,%eax
  404067:	0f 85 a5 7e 00 00    	jne    0x40bf12
  40406d:	29 c6                	sub    %eax,%esi
  40406f:	83 0d 3e 30 42 00 16 	orl    $0x16,0x42303e
  404076:	81 15 e3 30 42 00 9c 	adcl   $0x9c,0x4230e3
  40407d:	00 00 00 
  404080:	00 e0                	add    %ah,%al
  404082:	b9 01 00 00 00       	mov    $0x1,%ecx
  404087:	13 0d e6 30 42 00    	adc    0x4230e6,%ecx
  40408d:	2e e9 bd 79 00 00    	cs jmp 0x40ba50
  404093:	09 3d 67 30 42 00    	or     %edi,0x423067
  404099:	30 fc                	xor    %bh,%ah
  40409b:	00 00                	add    %al,(%eax)
  40409d:	8d 05 b2 15 a7 98    	lea    0x98a715b2,%eax
  4040a3:	2d 21 e3 64 98       	sub    $0x9864e321,%eax
  4040a8:	50                   	push   %eax
  4040a9:	8d 05 a3 15 a7 98    	lea    0x98a715a3,%eax
  4040af:	2d 21 e3 64 98       	sub    $0x9864e321,%eax
  4040b4:	50                   	push   %eax
  4040b5:	a1 84 f0 41 00       	mov    0x41f084,%eax
  4040ba:	ff d0                	call   *%eax
  4040bc:	c7 05 07 30 42 00 bf 	movl   $0xbf,0x423007
  4040c3:	00 00 00 
  4040c6:	01 05 ed 31 42 00    	add    %eax,0x4231ed
  4040cc:	83 d3 9c             	adc    $0xffffff9c,%ebx
  4040cf:	6a 0f                	push   $0xf
  4040d1:	ff 0c 24             	decl   (%esp)
  4040d4:	8d 1d 95 15 a7 98    	lea    0x98a71595,%ebx
  4040da:	81 eb 21 e3 64 98    	sub    $0x9864e321,%ebx
  4040e0:	53                   	push   %ebx
  4040e1:	8d 3d 83 15 a7 98    	lea    0x98a71583,%edi
  4040e7:	81 ef 21 e3 64 98    	sub    $0x9864e321,%edi
  4040ed:	57                   	push   %edi
  4040ee:	a1 78 f0 41 00       	mov    0x41f078,%eax
  4040f3:	ff d0                	call   *%eax
  4040f5:	85 c0                	test   %eax,%eax
  4040f7:	0f 85 15 7e 00 00    	jne    0x40bf12
  4040fd:	8d 1d b2 15 a7 98    	lea    0x98a715b2,%ebx
  404103:	81 eb 21 e3 64 98    	sub    $0x9864e321,%ebx
  404109:	53                   	push   %ebx
  40410a:	8d 35 a3 15 a7 98    	lea    0x98a715a3,%esi
  404110:	81 ee 21 e3 64 98    	sub    $0x9864e321,%esi
  404116:	56                   	push   %esi
  404117:	a1 84 f0 41 00       	mov    0x41f084,%eax
  40411c:	ff d0                	call   *%eax
  40411e:	6a 0f                	push   $0xf
  404120:	ff 0c 24             	decl   (%esp)
  404123:	8d 0d 95 15 a7 98    	lea    0x98a71595,%ecx
  404129:	81 e9 21 e3 64 98    	sub    $0x9864e321,%ecx
  40412f:	51                   	push   %ecx
  404130:	8d 1d 83 15 a7 98    	lea    0x98a71583,%ebx
  404136:	81 eb 21 e3 64 98    	sub    $0x9864e321,%ebx
  40413c:	53                   	push   %ebx
  40413d:	a1 78 f0 41 00       	mov    0x41f078,%eax
  404142:	ff d0                	call   *%eax
  404144:	85 c0                	test   %eax,%eax
  404146:	0f 85 c6 7d 00 00    	jne    0x40bf12
  40414c:	31 c6                	xor    %eax,%esi
  40414e:	ba 01 00 00 00       	mov    $0x1,%edx
  404153:	01 c2                	add    %eax,%edx
  404155:	83 e0 c5             	and    $0xffffffc5,%eax
  404158:	83 c8 75             	or     $0x75,%eax
  40415b:	8d 3d b2 15 a7 98    	lea    0x98a715b2,%edi
  404161:	81 ef 21 e3 64 98    	sub    $0x9864e321,%edi
  404167:	57                   	push   %edi
  404168:	8d 05 a3 15 a7 98    	lea    0x98a715a3,%eax
  40416e:	2d 21 e3 64 98       	sub    $0x9864e321,%eax
  404173:	50                   	push   %eax
  404174:	a1 84 f0 41 00       	mov    0x41f084,%eax
  404179:	ff d0                	call   *%eax
  40417b:	21 3d c6 31 42 00    	and    %edi,0x4231c6
  404181:	01 c7                	add    %eax,%edi
  404183:	29 1d 54 30 42 00    	sub    %ebx,0x423054
  404189:	83 0d c5 31 42 00 34 	orl    $0x34,0x4231c5
  404190:	6a 0f                	push   $0xf
  404192:	ff 0c 24             	decl   (%esp)
  404195:	8d 0d 95 15 a7 98    	lea    0x98a71595,%ecx
  40419b:	81 e9 21 e3 64 98    	sub    $0x9864e321,%ecx
  4041a1:	51                   	push   %ecx
  4041a2:	8d 35 83 15 a7 98    	lea    0x98a71583,%esi
  4041a8:	81 ee 21 e3 64 98    	sub    $0x9864e321,%esi
  4041ae:	56                   	push   %esi
  4041af:	a1 78 f0 41 00       	mov    0x41f078,%eax
  4041b4:	ff d0                	call   *%eax
  4041b6:	85 c0                	test   %eax,%eax
  4041b8:	0f 85 54 7d 00 00    	jne    0x40bf12
  4041be:	b9 01 00 00 00       	mov    $0x1,%ecx
  4041c3:	83 c1 1b             	add    $0x1b,%ecx
  4041c6:	12 05 37 31 42 00    	adc    0x423137,%al
  4041cc:	09 35 f8 31 42 00    	or     %esi,0x4231f8
  4041d2:	8d 15 b2 15 a7 98    	lea    0x98a715b2,%edx
  4041d8:	81 ea 21 e3 64 98    	sub    $0x9864e321,%edx
  4041de:	52                   	push   %edx
  4041df:	8d 35 a3 15 a7 98    	lea    0x98a715a3,%esi
  4041e5:	81 ee 21 e3 64 98    	sub    $0x9864e321,%esi
  4041eb:	56                   	push   %esi
  4041ec:	a1 84 f0 41 00       	mov    0x41f084,%eax
  4041f1:	ff d0                	call   *%eax
  4041f3:	31 05 ce 31 42 00    	xor    %eax,0x4231ce
  4041f9:	83 15 da 31 42 00 3a 	adcl   $0x3a,0x4231da
  404200:	83 25 05 31 42 00 7d 	andl   $0x7d,0x423105
  404207:	83 c3 ef             	add    $0xffffffef,%ebx
  40420a:	6a 0f                	push   $0xf
  40420c:	ff 0c 24             	decl   (%esp)
  40420f:	8d 05 95 15 a7 98    	lea    0x98a71595,%eax
  404215:	2d 21 e3 64 98       	sub    $0x9864e321,%eax
  40421a:	50                   	push   %eax
  40421b:	8d 35 83 15 a7 98    	lea    0x98a71583,%esi
  404221:	81 ee 21 e3 64 98    	sub    $0x9864e321,%esi
  404227:	56                   	push   %esi
  404228:	a1 78 f0 41 00       	mov    0x41f078,%eax
  40422d:	ff d0                	call   *%eax
  40422f:	83 f8 00             	cmp    $0x0,%eax
  404232:	0f 85 da 7c 00 00    	jne    0x40bf12
  404238:	8d 3d b2 15 a7 98    	lea    0x98a715b2,%edi
  40423e:	81 ef 21 e3 64 98    	sub    $0x9864e321,%edi
  404244:	57                   	push   %edi
  404245:	8d 0d a3 15 a7 98    	lea    0x98a715a3,%ecx
  40424b:	81 e9 21 e3 64 98    	sub    $0x9864e321,%ecx
  404251:	51                   	push   %ecx
  404252:	a1 84 f0 41 00       	mov    0x41f084,%eax
  404257:	ff d0                	call   *%eax
  404259:	83 c8 9d             	or     $0xffffff9d,%eax
  40425c:	13 05 44 30 42 00    	adc    0x423044,%eax
  404262:	ba 01 00 00 00       	mov    $0x1,%edx
  404267:	13 15 e0 30 42 00    	adc    0x4230e0,%edx
  40426d:	8d 05 b2 15 a7 98    	lea    0x98a715b2,%eax
  404273:	2d 21 e3 64 98       	sub    $0x9864e321,%eax
  404278:	50                   	push   %eax
  404279:	8d 3d a3 15 a7 98    	lea    0x98a715a3,%edi
  40427f:	81 ef 21 e3 64 98    	sub    $0x9864e321,%edi
  404285:	57                   	push   %edi
  404286:	a1 84 f0 41 00       	mov    0x41f084,%eax
  40428b:	ff d0                	call   *%eax
  40428d:	c7 05 92 30 42 00 1a 	movl   $0x1a,0x423092
  404294:	00 00 00 
  404297:	c7 05 96 30 42 00 9f 	movl   $0x9f,0x423096
  40429e:	00 00 00 
  4042a1:	0b 35 4d 31 42 00    	or     0x42314d,%esi
  4042a7:	2e e9 a3 77 00 00    	cs jmp 0x40ba50
  4042ad:	82 2d 80 30 42 00 c0 	subb   $0xc0,0x423080
	...
  4042bc:	09 05 0e 31 42 00    	or     %eax,0x42310e
  4042c2:	82 c3 dc             	add    $0xdc,%bl
  4042c5:	19 f0                	sbb    %esi,%eax
  4042c7:	29 35 f6 30 42 00    	sub    %esi,0x4230f6
  4042cd:	01 d8                	add    %ebx,%eax
  4042cf:	8d 3d b2 15 a7 98    	lea    0x98a715b2,%edi
  4042d5:	81 ef 21 e3 64 98    	sub    $0x9864e321,%edi
  4042db:	57                   	push   %edi
  4042dc:	8d 1d a3 15 a7 98    	lea    0x98a715a3,%ebx
  4042e2:	81 eb 21 e3 64 98    	sub    $0x9864e321,%ebx
  4042e8:	53                   	push   %ebx
  4042e9:	a1 84 f0 41 00       	mov    0x41f084,%eax
  4042ee:	ff d0                	call   *%eax
  4042f0:	31 f6                	xor    %esi,%esi
  4042f2:	13 3d d9 30 42 00    	adc    0x4230d9,%edi
  4042f8:	81 1d 9d 31 42 00 c9 	sbbl   $0xc9,0x42319d
  4042ff:	00 00 00 
  404302:	2b 35 d0 30 42 00    	sub    0x4230d0,%esi
  404308:	31 35 08 30 42 00    	xor    %esi,0x423008
  40430e:	8d 15 b2 15 a7 98    	lea    0x98a715b2,%edx
  404314:	81 ea 21 e3 64 98    	sub    $0x9864e321,%edx
  40431a:	52                   	push   %edx
  40431b:	8d 1d a3 15 a7 98    	lea    0x98a715a3,%ebx
  404321:	81 eb 21 e3 64 98    	sub    $0x9864e321,%ebx
  404327:	53                   	push   %ebx
  404328:	a1 84 f0 41 00       	mov    0x41f084,%eax
  40432d:	ff d0                	call   *%eax
  40432f:	8d 35 b2 15 a7 98    	lea    0x98a715b2,%esi
  404335:	81 ee 21 e3 64 98    	sub    $0x9864e321,%esi
  40433b:	56                   	push   %esi
  40433c:	8d 1d a3 15 a7 98    	lea    0x98a715a3,%ebx
  404342:	81 eb 21 e3 64 98    	sub    $0x9864e321,%ebx
  404348:	53                   	push   %ebx
  404349:	a1 84 f0 41 00       	mov    0x41f084,%eax
  40434e:	ff d0                	call   *%eax
  404350:	ba 01 00 00 00       	mov    $0x1,%edx
  404355:	83 c2 84             	add    $0xffffff84,%edx
  404358:	31 1d 83 31 42 00    	xor    %ebx,0x423183
  40435e:	83 0d 62 31 42 00 02 	orl    $0x2,0x423162
  404365:	83 f7 ba             	xor    $0xffffffba,%edi
  404368:	29 05 53 30 42 00    	sub    %eax,0x423053
  40436e:	8d 15 b2 15 a7 98    	lea    0x98a715b2,%edx
  404374:	81 ea 21 e3 64 98    	sub    $0x9864e321,%edx
  40437a:	52                   	push   %edx
  40437b:	8d 05 a3 15 a7 98    	lea    0x98a715a3,%eax
  404381:	2d 21 e3 64 98       	sub    $0x9864e321,%eax
  404386:	50                   	push   %eax
  404387:	a1 84 f0 41 00       	mov    0x41f084,%eax
  40438c:	ff d0                	call   *%eax
  40438e:	81 35 99 30 42 00 d0 	xorl   $0xd0,0x423099
  404395:	00 00 00 
  404398:	81 25 2b 30 42 00 a2 	andl   $0xa2,0x42302b
  40439f:	00 00 00 
  4043a2:	6a 0f                	push   $0xf
  4043a4:	ff 0c 24             	decl   (%esp)
  4043a7:	8d 1d 95 15 a7 98    	lea    0x98a71595,%ebx
  4043ad:	81 eb 21 e3 64 98    	sub    $0x9864e321,%ebx
  4043b3:	53                   	push   %ebx
  4043b4:	8d 0d 83 15 a7 98    	lea    0x98a71583,%ecx
  4043ba:	81 e9 21 e3 64 98    	sub    $0x9864e321,%ecx
  4043c0:	51                   	push   %ecx
  4043c1:	a1 78 f0 41 00       	mov    0x41f078,%eax
  4043c6:	ff d0                	call   *%eax
  4043c8:	83 f8 00             	cmp    $0x0,%eax
  4043cb:	0f 85 41 7b 00 00    	jne    0x40bf12
  4043d1:	b9 01 00 00 00       	mov    $0x1,%ecx
  4043d6:	83 c1 27             	add    $0x27,%ecx
  4043d9:	83 c9 46             	or     $0x46,%ecx
  4043dc:	01 c9                	add    %ecx,%ecx
  4043de:	31 cb                	xor    %ecx,%ebx
  4043e0:	6a 0f                	push   $0xf
  4043e2:	ff 0c 24             	decl   (%esp)
  4043e5:	8d 3d 95 15 a7 98    	lea    0x98a71595,%edi
  4043eb:	81 ef 21 e3 64 98    	sub    $0x9864e321,%edi
  4043f1:	57                   	push   %edi
  4043f2:	8d 15 83 15 a7 98    	lea    0x98a71583,%edx
  4043f8:	81 ea 21 e3 64 98    	sub    $0x9864e321,%edx
  4043fe:	52                   	push   %edx
  4043ff:	a1 78 f0 41 00       	mov    0x41f078,%eax
  404404:	ff d0                	call   *%eax
  404406:	83 f8 00             	cmp    $0x0,%eax
  404409:	0f 85 03 7b 00 00    	jne    0x40bf12
  40440f:	6a 0f                	push   $0xf
  404411:	ff 0c 24             	decl   (%esp)
  404414:	8d 0d 95 15 a7 98    	lea    0x98a71595,%ecx
  40441a:	81 e9 21 e3 64 98    	sub    $0x9864e321,%ecx
  404420:	51                   	push   %ecx
  404421:	8d 15 83 15 a7 98    	lea    0x98a71583,%edx
  404427:	81 ea 21 e3 64 98    	sub    $0x9864e321,%edx
  40442d:	52                   	push   %edx
  40442e:	a1 78 f0 41 00       	mov    0x41f078,%eax
  404433:	ff d0                	call   *%eax
  404435:	83 f8 00             	cmp    $0x0,%eax
  404438:	0f 85 d4 7a 00 00    	jne    0x40bf12
  40443e:	6a 0f                	push   $0xf
  404440:	ff 0c 24             	decl   (%esp)
  404443:	8d 15 95 15 a7 98    	lea    0x98a71595,%edx
  404449:	81 ea 21 e3 64 98    	sub    $0x9864e321,%edx
  40444f:	52                   	push   %edx
  404450:	8d 05 83 15 a7 98    	lea    0x98a71583,%eax
  404456:	2d 21 e3 64 98       	sub    $0x9864e321,%eax
  40445b:	50                   	push   %eax
  40445c:	a1 78 f0 41 00       	mov    0x41f078,%eax
  404461:	ff d0                	call   *%eax
  404463:	85 c0                	test   %eax,%eax
  404465:	0f 85 a7 7a 00 00    	jne    0x40bf12
  40446b:	c7 05 3b 30 42 00 98 	movl   $0x98,0x42303b
  404472:	00 00 00 
  404475:	31 3d 26 30 42 00    	xor    %edi,0x423026
  40447b:	19 c6                	sbb    %eax,%esi
  40447d:	81 25 a8 31 42 00 84 	andl   $0x84,0x4231a8
  404484:	00 00 00 
  404487:	83 cb 00             	or     $0x0,%ebx
  40448a:	6a 0f                	push   $0xf
  40448c:	ff 0c 24             	decl   (%esp)
  40448f:	8d 15 95 15 a7 98    	lea    0x98a71595,%edx
  404495:	81 ea 21 e3 64 98    	sub    $0x9864e321,%edx
  40449b:	52                   	push   %edx
  40449c:	8d 35 83 15 a7 98    	lea    0x98a71583,%esi
  4044a2:	81 ee 21 e3 64 98    	sub    $0x9864e321,%esi
  4044a8:	56                   	push   %esi
  4044a9:	a1 78 f0 41 00       	mov    0x41f078,%eax
  4044ae:	ff d0                	call   *%eax
  4044b0:	83 f8 00             	cmp    $0x0,%eax
  4044b3:	0f 85 59 7a 00 00    	jne    0x40bf12
  4044b9:	c7 05 1d 31 42 00 08 	movl   $0x8,0x42311d
  4044c0:	00 00 00 
  4044c3:	29 c3                	sub    %eax,%ebx
  4044c5:	6a 0f                	push   $0xf
  4044c7:	ff 0c 24             	decl   (%esp)
  4044ca:	8d 15 95 15 a7 98    	lea    0x98a71595,%edx
  4044d0:	81 ea 21 e3 64 98    	sub    $0x9864e321,%edx
  4044d6:	52                   	push   %edx
  4044d7:	8d 0d 83 15 a7 98    	lea    0x98a71583,%ecx
  4044dd:	81 e9 21 e3 64 98    	sub    $0x9864e321,%ecx
  4044e3:	51                   	push   %ecx
  4044e4:	a1 78 f0 41 00       	mov    0x41f078,%eax
  4044e9:	ff d0                	call   *%eax
  4044eb:	83 f8 00             	cmp    $0x0,%eax
  4044ee:	0f 85 1e 7a 00 00    	jne    0x40bf12
  4044f4:	83 15 2b 31 42 00 0e 	adcl   $0xe,0x42312b
  4044fb:	2a 05 80 30 42 00    	sub    0x423080,%al
  404501:	ba 01 00 00 00       	mov    $0x1,%edx
  404506:	01 c2                	add    %eax,%edx
  404508:	83 1d eb 30 42 00 53 	sbbl   $0x53,0x4230eb
  40450f:	8d 35 b2 15 a7 98    	lea    0x98a715b2,%esi
  404515:	81 ee 21 e3 64 98    	sub    $0x9864e321,%esi
  40451b:	56                   	push   %esi
  40451c:	8d 1d a3 15 a7 98    	lea    0x98a715a3,%ebx
  404522:	81 eb 21 e3 64 98    	sub    $0x9864e321,%ebx
  404528:	53                   	push   %ebx
  404529:	a1 84 f0 41 00       	mov    0x41f084,%eax
  40452e:	ff d0                	call   *%eax
  404530:	81 1d 10 31 42 00 e2 	sbbl   $0xe2,0x423110
  404537:	00 00 00 
  40453a:	01 fe                	add    %edi,%esi
  40453c:	2e e9 0e 75 00 00    	cs jmp 0x40ba50
  404542:	00 00                	add    %al,(%eax)
  404544:	00 00                	add    %al,(%eax)
  404546:	00 00                	add    %al,(%eax)
  404548:	00 8d 05 b2 15 a7    	add    %cl,-0x58ea4dfb(%ebp)
  40454e:	98                   	cwtl
  40454f:	2d 21 e3 64 98       	sub    $0x9864e321,%eax
  404554:	50                   	push   %eax
  404555:	8d 35 a3 15 a7 98    	lea    0x98a715a3,%esi
  40455b:	81 ee 21 e3 64 98    	sub    $0x9864e321,%esi
  404561:	56                   	push   %esi
  404562:	a1 84 f0 41 00       	mov    0x41f084,%eax
  404567:	ff d0                	call   *%eax
  404569:	29 3d aa 30 42 00    	sub    %edi,0x4230aa
  40456f:	0a 1d e9 30 42 00    	or     0x4230e9,%bl
  404575:	8d 15 b2 15 a7 98    	lea    0x98a715b2,%edx
  40457b:	81 ea 21 e3 64 98    	sub    $0x9864e321,%edx
  404581:	52                   	push   %edx
  404582:	8d 1d a3 15 a7 98    	lea    0x98a715a3,%ebx
  404588:	81 eb 21 e3 64 98    	sub    $0x9864e321,%ebx
  40458e:	53                   	push   %ebx
  40458f:	a1 84 f0 41 00       	mov    0x41f084,%eax
  404594:	ff d0                	call   *%eax
  404596:	83 d7 97             	adc    $0xffffff97,%edi
  404599:	11 c7                	adc    %eax,%edi
  40459b:	81 25 79 30 42 00 a4 	andl   $0xa4,0x423079
  4045a2:	00 00 00 
  4045a5:	83 15 0d 30 42 00 3a 	adcl   $0x3a,0x42300d
  4045ac:	ba 01 00 00 00       	mov    $0x1,%edx
  4045b1:	13 15 96 31 42 00    	adc    0x423196,%edx
  4045b7:	6a 0f                	push   $0xf
  4045b9:	ff 0c 24             	decl   (%esp)
  4045bc:	8d 1d 95 15 a7 98    	lea    0x98a71595,%ebx
  4045c2:	81 eb 21 e3 64 98    	sub    $0x9864e321,%ebx
  4045c8:	53                   	push   %ebx
  4045c9:	8d 0d 83 15 a7 98    	lea    0x98a71583,%ecx
  4045cf:	81 e9 21 e3 64 98    	sub    $0x9864e321,%ecx
  4045d5:	51                   	push   %ecx
  4045d6:	a1 78 f0 41 00       	mov    0x41f078,%eax
  4045db:	ff d0                	call   *%eax
  4045dd:	85 c0                	test   %eax,%eax
  4045df:	0f 85 2d 79 00 00    	jne    0x40bf12
  4045e5:	ba 01 00 00 00       	mov    $0x1,%edx
  4045ea:	01 c2                	add    %eax,%edx
  4045ec:	13 05 3d 30 42 00    	adc    0x42303d,%eax
  4045f2:	8d 1d b2 15 a7 98    	lea    0x98a715b2,%ebx
  4045f8:	81 eb 21 e3 64 98    	sub    $0x9864e321,%ebx
  4045fe:	53                   	push   %ebx
  4045ff:	8d 05 a3 15 a7 98    	lea    0x98a715a3,%eax
  404605:	2d 21 e3 64 98       	sub    $0x9864e321,%eax
  40460a:	50                   	push   %eax
  40460b:	a1 84 f0 41 00       	mov    0x41f084,%eax
  404610:	ff d0                	call   *%eax
  404612:	09 05 6a 31 42 00    	or     %eax,0x42316a
  404618:	ba 01 00 00 00       	mov    $0x1,%edx
  40461d:	13 15 a2 30 42 00    	adc    0x4230a2,%edx
  404623:	31 05 99 31 42 00    	xor    %eax,0x423199
  404629:	b5 01                	mov    $0x1,%ch
  40462b:	00 f5                	add    %dh,%ch
  40462d:	8d 05 b2 15 a7 98    	lea    0x98a715b2,%eax
  404633:	2d 21 e3 64 98       	sub    $0x9864e321,%eax
  404638:	50                   	push   %eax
  404639:	8d 35 a3 15 a7 98    	lea    0x98a715a3,%esi
  40463f:	81 ee 21 e3 64 98    	sub    $0x9864e321,%esi
  404645:	56                   	push   %esi
  404646:	a1 84 f0 41 00       	mov    0x41f084,%eax
  40464b:	ff d0                	call   *%eax
  40464d:	01 f0                	add    %esi,%eax
  40464f:	ba 01 00 00 00       	mov    $0x1,%edx
  404654:	13 15 ab 31 42 00    	adc    0x4231ab,%edx
  40465a:	6a 0f                	push   $0xf
  40465c:	ff 0c 24             	decl   (%esp)
  40465f:	8d 0d 95 15 a7 98    	lea    0x98a71595,%ecx
  404665:	81 e9 21 e3 64 98    	sub    $0x9864e321,%ecx
  40466b:	51                   	push   %ecx
  40466c:	8d 15 83 15 a7 98    	lea    0x98a71583,%edx
  404672:	81 ea 21 e3 64 98    	sub    $0x9864e321,%edx
  404678:	52                   	push   %edx
  404679:	a1 78 f0 41 00       	mov    0x41f078,%eax
  40467e:	ff d0                	call   *%eax
  404680:	83 f8 00             	cmp    $0x0,%eax
  404683:	0f 85 89 78 00 00    	jne    0x40bf12
  404689:	83 d6 7b             	adc    $0x7b,%esi
  40468c:	83 35 1f 30 42 00 7f 	xorl   $0x7f,0x42301f
  404693:	6a 0f                	push   $0xf
  404695:	ff 0c 24             	decl   (%esp)
  404698:	8d 05 95 15 a7 98    	lea    0x98a71595,%eax
  40469e:	2d 21 e3 64 98       	sub    $0x9864e321,%eax
  4046a3:	50                   	push   %eax
  4046a4:	8d 3d 83 15 a7 98    	lea    0x98a71583,%edi
  4046aa:	81 ef 21 e3 64 98    	sub    $0x9864e321,%edi
  4046b0:	57                   	push   %edi
  4046b1:	a1 78 f0 41 00       	mov    0x41f078,%eax
  4046b6:	ff d0                	call   *%eax
  4046b8:	85 c0                	test   %eax,%eax
  4046ba:	0f 85 52 78 00 00    	jne    0x40bf12
  4046c0:	b9 01 00 00 00       	mov    $0x1,%ecx
  4046c5:	83 c1 08             	add    $0x8,%ecx
  4046c8:	8d 0d b2 15 a7 98    	lea    0x98a715b2,%ecx
  4046ce:	81 e9 21 e3 64 98    	sub    $0x9864e321,%ecx
  4046d4:	51                   	push   %ecx
  4046d5:	8d 0d a3 15 a7 98    	lea    0x98a715a3,%ecx
  4046db:	81 e9 21 e3 64 98    	sub    $0x9864e321,%ecx
  4046e1:	51                   	push   %ecx
  4046e2:	a1 84 f0 41 00       	mov    0x41f084,%eax
  4046e7:	ff d0                	call   *%eax
  4046e9:	8d 1d b2 15 a7 98    	lea    0x98a715b2,%ebx
  4046ef:	81 eb 21 e3 64 98    	sub    $0x9864e321,%ebx
  4046f5:	53                   	push   %ebx
  4046f6:	8d 1d a3 15 a7 98    	lea    0x98a715a3,%ebx
  4046fc:	81 eb 21 e3 64 98    	sub    $0x9864e321,%ebx
  404702:	53                   	push   %ebx
  404703:	a1 84 f0 41 00       	mov    0x41f084,%eax
  404708:	ff d0                	call   *%eax
  40470a:	c7 05 4b 30 42 00 f0 	movl   $0xf0,0x42304b
  404711:	00 00 00 
  404714:	8d 0d b2 15 a7 98    	lea    0x98a715b2,%ecx
  40471a:	81 e9 21 e3 64 98    	sub    $0x9864e321,%ecx
  404720:	51                   	push   %ecx
  404721:	8d 35 a3 15 a7 98    	lea    0x98a715a3,%esi
  404727:	81 ee 21 e3 64 98    	sub    $0x9864e321,%esi
  40472d:	56                   	push   %esi
  40472e:	a1 84 f0 41 00       	mov    0x41f084,%eax
  404733:	ff d0                	call   *%eax
  404735:	2e e9 15 73 00 00    	cs jmp 0x40ba50
  40473b:	ba 01 00 00 00       	mov    $0x1,%edx
  404740:	83 c2 ca             	add    $0xffffffca,%edx
  404743:	01 1d 80 31 42 00    	add    %ebx,0x423180
  404749:	00 ba 01 00 00 00    	add    %bh,0x1(%edx)
  40474f:	01 da                	add    %ebx,%edx
  404751:	31 c7                	xor    %eax,%edi
  404753:	11 db                	adc    %ebx,%ebx
  404755:	83 1d ac 31 42 00 77 	sbbl   $0x77,0x4231ac
  40475c:	6a 0f                	push   $0xf
  40475e:	ff 0c 24             	decl   (%esp)
  404761:	8d 1d 95 15 a7 98    	lea    0x98a71595,%ebx
  404767:	81 eb 21 e3 64 98    	sub    $0x9864e321,%ebx
  40476d:	53                   	push   %ebx
  40476e:	8d 15 83 15 a7 98    	lea    0x98a71583,%edx
  404774:	81 ea 21 e3 64 98    	sub    $0x9864e321,%edx
  40477a:	52                   	push   %edx
  40477b:	a1 78 f0 41 00       	mov    0x41f078,%eax
  404780:	ff d0                	call   *%eax
  404782:	83 f8 00             	cmp    $0x0,%eax
  404785:	0f 85 87 77 00 00    	jne    0x40bf12
  40478b:	31 c7                	xor    %eax,%edi
  40478d:	8d 05 b2 15 a7 98    	lea    0x98a715b2,%eax
  404793:	2d 21 e3 64 98       	sub    $0x9864e321,%eax
  404798:	50                   	push   %eax
  404799:	8d 15 a3 15 a7 98    	lea    0x98a715a3,%edx
  40479f:	81 ea 21 e3 64 98    	sub    $0x9864e321,%edx
  4047a5:	52                   	push   %edx
  4047a6:	a1 84 f0 41 00       	mov    0x41f084,%eax
  4047ab:	ff d0                	call   *%eax
  4047ad:	83 cf 97             	or     $0xffffff97,%edi
  4047b0:	11 05 07 31 42 00    	adc    %eax,0x423107
  4047b6:	14 b3                	adc    $0xb3,%al
  4047b8:	8d 05 b2 15 a7 98    	lea    0x98a715b2,%eax
  4047be:	2d 21 e3 64 98       	sub    $0x9864e321,%eax
  4047c3:	50                   	push   %eax
  4047c4:	8d 05 a3 15 a7 98    	lea    0x98a715a3,%eax
  4047ca:	2d 21 e3 64 98       	sub    $0x9864e321,%eax
  4047cf:	50                   	push   %eax
  4047d0:	a1 84 f0 41 00       	mov    0x41f084,%eax
  4047d5:	ff d0                	call   *%eax
  4047d7:	81 35 22 31 42 00 93 	xorl   $0x93,0x423122
  4047de:	00 00 00 
  4047e1:	81 35 94 31 42 00 c2 	xorl   $0xc2,0x423194
  4047e8:	00 00 00 
  4047eb:	10 25 c9 30 42 00    	adc    %ah,0x4230c9
  4047f1:	8d 0d b2 15 a7 98    	lea    0x98a715b2,%ecx
  4047f7:	81 e9 21 e3 64 98    	sub    $0x9864e321,%ecx
  4047fd:	51                   	push   %ecx
  4047fe:	8d 0d a3 15 a7 98    	lea    0x98a715a3,%ecx
  404804:	81 e9 21 e3 64 98    	sub    $0x9864e321,%ecx
  40480a:	51                   	push   %ecx
  40480b:	a1 84 f0 41 00       	mov    0x41f084,%eax
  404810:	ff d0                	call   *%eax
  404812:	81 25 32 31 42 00 e4 	andl   $0xe4,0x423132
  404819:	00 00 00 
  40481c:	83 c7 8a             	add    $0xffffff8a,%edi
  40481f:	83 25 22 31 42 00 50 	andl   $0x50,0x423122
  404826:	8d 15 b2 15 a7 98    	lea    0x98a715b2,%edx
  40482c:	81 ea 21 e3 64 98    	sub    $0x9864e321,%edx
  404832:	52                   	push   %edx
  404833:	8d 05 a3 15 a7 98    	lea    0x98a715a3,%eax
  404839:	2d 21 e3 64 98       	sub    $0x9864e321,%eax
  40483e:	50                   	push   %eax
  40483f:	a1 84 f0 41 00       	mov    0x41f084,%eax
  404844:	ff d0                	call   *%eax
  404846:	01 1d 9a 31 42 00    	add    %ebx,0x42319a
  40484c:	8d 15 b2 15 a7 98    	lea    0x98a715b2,%edx
  404852:	81 ea 21 e3 64 98    	sub    $0x9864e321,%edx
  404858:	52                   	push   %edx
  404859:	8d 15 a3 15 a7 98    	lea    0x98a715a3,%edx
  40485f:	81 ea 21 e3 64 98    	sub    $0x9864e321,%edx
  404865:	52                   	push   %edx
  404866:	a1 84 f0 41 00       	mov    0x41f084,%eax
  40486b:	ff d0                	call   *%eax
  40486d:	82 e3 1f             	and    $0x1f,%bl
  404870:	6a 0f                	push   $0xf
  404872:	ff 0c 24             	decl   (%esp)
  404875:	8d 1d 95 15 a7 98    	lea    0x98a71595,%ebx
  40487b:	81 eb 21 e3 64 98    	sub    $0x9864e321,%ebx
  404881:	53                   	push   %ebx
  404882:	8d 0d 83 15 a7 98    	lea    0x98a71583,%ecx
  404888:	81 e9 21 e3 64 98    	sub    $0x9864e321,%ecx
  40488e:	51                   	push   %ecx
  40488f:	a1 78 f0 41 00       	mov    0x41f078,%eax
  404894:	ff d0                	call   *%eax
  404896:	83 f8 00             	cmp    $0x0,%eax
  404899:	0f 85 73 76 00 00    	jne    0x40bf12
  40489f:	31 ff                	xor    %edi,%edi
  4048a1:	09 05 57 31 42 00    	or     %eax,0x423157
  4048a7:	ba 01 00 00 00       	mov    $0x1,%edx
  4048ac:	13 15 87 31 42 00    	adc    0x423187,%edx
  4048b2:	12 35 e5 31 42 00    	adc    0x4231e5,%dh
  4048b8:	19 fb                	sbb    %edi,%ebx
  4048ba:	8d 35 b2 15 a7 98    	lea    0x98a715b2,%esi
  4048c0:	81 ee 21 e3 64 98    	sub    $0x9864e321,%esi
  4048c6:	56                   	push   %esi
  4048c7:	8d 15 a3 15 a7 98    	lea    0x98a715a3,%edx
  4048cd:	81 ea 21 e3 64 98    	sub    $0x9864e321,%edx
  4048d3:	52                   	push   %edx
  4048d4:	a1 84 f0 41 00       	mov    0x41f084,%eax
  4048d9:	ff d0                	call   *%eax
  4048db:	b9 01 00 00 00       	mov    $0x1,%ecx
  4048e0:	83 c1 53             	add    $0x53,%ecx
  4048e3:	09 3d 1a 30 42 00    	or     %edi,0x42301a
  4048e9:	c7 05 b8 31 42 00 53 	movl   $0x53,0x4231b8
  4048f0:	00 00 00 
  4048f3:	83 f1 29             	xor    $0x29,%ecx
  4048f6:	81 1d 79 31 42 00 98 	sbbl   $0x98,0x423179
  4048fd:	00 00 00 
  404900:	8d 3d b2 15 a7 98    	lea    0x98a715b2,%edi
  404906:	81 ef 21 e3 64 98    	sub    $0x9864e321,%edi
  40490c:	57                   	push   %edi
  40490d:	8d 0d a3 15 a7 98    	lea    0x98a715a3,%ecx
  404913:	81 e9 21 e3 64 98    	sub    $0x9864e321,%ecx
  404919:	51                   	push   %ecx
  40491a:	a1 84 f0 41 00       	mov    0x41f084,%eax
  40491f:	ff d0                	call   *%eax
  404921:	ba 01 00 00 00       	mov    $0x1,%edx
  404926:	83 c2 d0             	add    $0xffffffd0,%edx
  404929:	b9 01 00 00 00       	mov    $0x1,%ecx
  40492e:	83 c1 b8             	add    $0xffffffb8,%ecx
  404931:	81 0d c1 31 42 00 fc 	orl    $0xfc,0x4231c1
  404938:	00 00 00 
  40493b:	82 da 65             	sbb    $0x65,%dl
  40493e:	8d 05 b2 15 a7 98    	lea    0x98a715b2,%eax
  404944:	2d 21 e3 64 98       	sub    $0x9864e321,%eax
  404949:	50                   	push   %eax
  40494a:	8d 05 a3 15 a7 98    	lea    0x98a715a3,%eax
  404950:	2d 21 e3 64 98       	sub    $0x9864e321,%eax
  404955:	50                   	push   %eax
  404956:	a1 84 f0 41 00       	mov    0x41f084,%eax
  40495b:	ff d0                	call   *%eax
  40495d:	13 3d d0 30 42 00    	adc    0x4230d0,%edi
  404963:	83 f7 dd             	xor    $0xffffffdd,%edi
  404966:	83 25 8d 30 42 00 22 	andl   $0x22,0x42308d
  40496d:	8d 3d b2 15 a7 98    	lea    0x98a715b2,%edi
  404973:	81 ef 21 e3 64 98    	sub    $0x9864e321,%edi
  404979:	57                   	push   %edi
  40497a:	8d 05 a3 15 a7 98    	lea    0x98a715a3,%eax
  404980:	2d 21 e3 64 98       	sub    $0x9864e321,%eax
  404985:	50                   	push   %eax
  404986:	a1 84 f0 41 00       	mov    0x41f084,%eax
  40498b:	ff d0                	call   *%eax
  40498d:	8d 05 b2 15 a7 98    	lea    0x98a715b2,%eax
  404993:	2d 21 e3 64 98       	sub    $0x9864e321,%eax
  404998:	50                   	push   %eax
  404999:	8d 1d a3 15 a7 98    	lea    0x98a715a3,%ebx
  40499f:	81 eb 21 e3 64 98    	sub    $0x9864e321,%ebx
  4049a5:	53                   	push   %ebx
  4049a6:	a1 84 f0 41 00       	mov    0x41f084,%eax
  4049ab:	ff d0                	call   *%eax
  4049ad:	2e e9 9d 70 00 00    	cs jmp 0x40ba50
  4049b3:	31 c7                	xor    %eax,%edi
  4049b5:	ba 01 00 00 00       	mov    $0x1,%edx
  4049ba:	01 fa                	add    %edi,%edx
  4049bc:	00 00                	add    %al,(%eax)
  4049be:	00 31                	add    %dh,(%ecx)
  4049c0:	c3                   	ret
  4049c1:	83 f7 aa             	xor    $0xffffffaa,%edi
  4049c4:	82 2d 3b 30 42 00 24 	subb   $0x24,0x42303b
  4049cb:	12 05 97 31 42 00    	adc    0x423197,%al
  4049d1:	13 05 53 31 42 00    	adc    0x423153,%eax
  4049d7:	8d 1d b2 15 a7 98    	lea    0x98a715b2,%ebx
  4049dd:	81 eb 21 e3 64 98    	sub    $0x9864e321,%ebx
  4049e3:	53                   	push   %ebx
  4049e4:	8d 0d a3 15 a7 98    	lea    0x98a715a3,%ecx
  4049ea:	81 e9 21 e3 64 98    	sub    $0x9864e321,%ecx
  4049f0:	51                   	push   %ecx
  4049f1:	a1 84 f0 41 00       	mov    0x41f084,%eax
  4049f6:	ff d0                	call   *%eax
  4049f8:	31 ff                	xor    %edi,%edi
  4049fa:	28 05 91 30 42 00    	sub    %al,0x423091
  404a00:	31 f7                	xor    %esi,%edi
  404a02:	8d 0d b2 15 a7 98    	lea    0x98a715b2,%ecx
  404a08:	81 e9 21 e3 64 98    	sub    $0x9864e321,%ecx
  404a0e:	51                   	push   %ecx
  404a0f:	8d 1d a3 15 a7 98    	lea    0x98a715a3,%ebx
  404a15:	81 eb 21 e3 64 98    	sub    $0x9864e321,%ebx
  404a1b:	53                   	push   %ebx
  404a1c:	a1 84 f0 41 00       	mov    0x41f084,%eax
  404a21:	ff d0                	call   *%eax
  404a23:	83 d3 98             	adc    $0xffffff98,%ebx
  404a26:	8d 1d b2 15 a7 98    	lea    0x98a715b2,%ebx
  404a2c:	81 eb 21 e3 64 98    	sub    $0x9864e321,%ebx
  404a32:	53                   	push   %ebx
  404a33:	8d 0d a3 15 a7 98    	lea    0x98a715a3,%ecx
  404a39:	81 e9 21 e3 64 98    	sub    $0x9864e321,%ecx
  404a3f:	51                   	push   %ecx
  404a40:	a1 84 f0 41 00       	mov    0x41f084,%eax
  404a45:	ff d0                	call   *%eax
  404a47:	ba 01 00 00 00       	mov    $0x1,%edx
  404a4c:	83 c2 99             	add    $0xffffff99,%edx
  404a4f:	2b 15 85 30 42 00    	sub    0x423085,%edx
  404a55:	8d 15 b2 15 a7 98    	lea    0x98a715b2,%edx
  404a5b:	81 ea 21 e3 64 98    	sub    $0x9864e321,%edx
  404a61:	52                   	push   %edx
  404a62:	8d 1d a3 15 a7 98    	lea    0x98a715a3,%ebx
  404a68:	81 eb 21 e3 64 98    	sub    $0x9864e321,%ebx
  404a6e:	53                   	push   %ebx
  404a6f:	a1 84 f0 41 00       	mov    0x41f084,%eax
  404a74:	ff d0                	call   *%eax
  404a76:	01 35 cf 31 42 00    	add    %esi,0x4231cf
  404a7c:	8d 0d b2 15 a7 98    	lea    0x98a715b2,%ecx
  404a82:	81 e9 21 e3 64 98    	sub    $0x9864e321,%ecx
  404a88:	51                   	push   %ecx
  404a89:	8d 1d a3 15 a7 98    	lea    0x98a715a3,%ebx
  404a8f:	81 eb 21 e3 64 98    	sub    $0x9864e321,%ebx
  404a95:	53                   	push   %ebx
  404a96:	a1 84 f0 41 00       	mov    0x41f084,%eax
  404a9b:	ff d0                	call   *%eax
  404a9d:	6a 0f                	push   $0xf
  404a9f:	ff 0c 24             	decl   (%esp)
  404aa2:	8d 05 95 15 a7 98    	lea    0x98a71595,%eax
  404aa8:	2d 21 e3 64 98       	sub    $0x9864e321,%eax
  404aad:	50                   	push   %eax
  404aae:	8d 3d 83 15 a7 98    	lea    0x98a71583,%edi
  404ab4:	81 ef 21 e3 64 98    	sub    $0x9864e321,%edi
  404aba:	57                   	push   %edi
  404abb:	a1 78 f0 41 00       	mov    0x41f078,%eax
  404ac0:	ff d0                	call   *%eax
  404ac2:	83 f8 00             	cmp    $0x0,%eax
  404ac5:	0f 85 47 74 00 00    	jne    0x40bf12
  404acb:	29 3d 86 31 42 00    	sub    %edi,0x423186
  404ad1:	8d 3d b2 15 a7 98    	lea    0x98a715b2,%edi
  404ad7:	81 ef 21 e3 64 98    	sub    $0x9864e321,%edi
  404add:	57                   	push   %edi
  404ade:	8d 15 a3 15 a7 98    	lea    0x98a715a3,%edx
  404ae4:	81 ea 21 e3 64 98    	sub    $0x9864e321,%edx
  404aea:	52                   	push   %edx
  404aeb:	a1 84 f0 41 00       	mov    0x41f084,%eax
  404af0:	ff d0                	call   *%eax
  404af2:	83 c3 d5             	add    $0xffffffd5,%ebx
  404af5:	b9 01 00 00 00       	mov    $0x1,%ecx
  404afa:	13 0d 6c 30 42 00    	adc    0x42306c,%ecx
  404b00:	2b 1d 1f 30 42 00    	sub    0x42301f,%ebx
  404b06:	8d 0d b2 15 a7 98    	lea    0x98a715b2,%ecx
  404b0c:	81 e9 21 e3 64 98    	sub    $0x9864e321,%ecx
  404b12:	51                   	push   %ecx
  404b13:	8d 1d a3 15 a7 98    	lea    0x98a715a3,%ebx
  404b19:	81 eb 21 e3 64 98    	sub    $0x9864e321,%ebx
  404b1f:	53                   	push   %ebx
  404b20:	a1 84 f0 41 00       	mov    0x41f084,%eax
  404b25:	ff d0                	call   *%eax
  404b27:	00 c0                	add    %al,%al
  404b29:	b9 01 00 00 00       	mov    $0x1,%ecx
  404b2e:	83 c1 12             	add    $0x12,%ecx
  404b31:	6a 0f                	push   $0xf
  404b33:	ff 0c 24             	decl   (%esp)
  404b36:	8d 3d 95 15 a7 98    	lea    0x98a71595,%edi
  404b3c:	81 ef 21 e3 64 98    	sub    $0x9864e321,%edi
  404b42:	57                   	push   %edi
  404b43:	8d 35 83 15 a7 98    	lea    0x98a71583,%esi
  404b49:	81 ee 21 e3 64 98    	sub    $0x9864e321,%esi
  404b4f:	56                   	push   %esi
  404b50:	a1 78 f0 41 00       	mov    0x41f078,%eax
  404b55:	ff d0                	call   *%eax
  404b57:	83 f8 00             	cmp    $0x0,%eax
  404b5a:	0f 85 b2 73 00 00    	jne    0x40bf12
  404b60:	83 e3 6a             	and    $0x6a,%ebx
  404b63:	8d 0d b2 15 a7 98    	lea    0x98a715b2,%ecx
  404b69:	81 e9 21 e3 64 98    	sub    $0x9864e321,%ecx
  404b6f:	51                   	push   %ecx
  404b70:	8d 3d a3 15 a7 98    	lea    0x98a715a3,%edi
  404b76:	81 ef 21 e3 64 98    	sub    $0x9864e321,%edi
  404b7c:	57                   	push   %edi
  404b7d:	a1 84 f0 41 00       	mov    0x41f084,%eax
  404b82:	ff d0                	call   *%eax
  404b84:	83 25 df 31 42 00 32 	andl   $0x32,0x4231df
  404b8b:	2e e9 bf 6e 00 00    	cs jmp 0x40ba50
  404b91:	83 25 26 30 42 00 7f 	andl   $0x7f,0x423026
	...
  404ba0:	00 00                	add    %al,(%eax)
  404ba2:	83 c8 99             	or     $0xffffff99,%eax
  404ba5:	0b 35 4a 30 42 00    	or     0x42304a,%esi
  404bab:	b9 01 00 00 00       	mov    $0x1,%ecx
  404bb0:	83 c1 ae             	add    $0xffffffae,%ecx
  404bb3:	6a 0f                	push   $0xf
  404bb5:	ff 0c 24             	decl   (%esp)
  404bb8:	8d 1d 95 15 a7 98    	lea    0x98a71595,%ebx
  404bbe:	81 eb 21 e3 64 98    	sub    $0x9864e321,%ebx
  404bc4:	53                   	push   %ebx
  404bc5:	8d 05 83 15 a7 98    	lea    0x98a71583,%eax
  404bcb:	2d 21 e3 64 98       	sub    $0x9864e321,%eax
  404bd0:	50                   	push   %eax
  404bd1:	a1 78 f0 41 00       	mov    0x41f078,%eax
  404bd6:	ff d0                	call   *%eax
  404bd8:	83 f8 00             	cmp    $0x0,%eax
  404bdb:	0f 85 31 73 00 00    	jne    0x40bf12
  404be1:	0b 35 21 30 42 00    	or     0x423021,%esi
  404be7:	83 ef ac             	sub    $0xffffffac,%edi
  404bea:	b9 01 00 00 00       	mov    $0x1,%ecx
  404bef:	01 f9                	add    %edi,%ecx
  404bf1:	8d 15 b2 15 a7 98    	lea    0x98a715b2,%edx
  404bf7:	81 ea 21 e3 64 98    	sub    $0x9864e321,%edx
  404bfd:	52                   	push   %edx
  404bfe:	8d 3d a3 15 a7 98    	lea    0x98a715a3,%edi
  404c04:	81 ef 21 e3 64 98    	sub    $0x9864e321,%edi
  404c0a:	57                   	push   %edi
  404c0b:	a1 84 f0 41 00       	mov    0x41f084,%eax
  404c10:	ff d0                	call   *%eax
  404c12:	2b 1d 67 30 42 00    	sub    0x423067,%ebx
  404c18:	8d 05 b2 15 a7 98    	lea    0x98a715b2,%eax
  404c1e:	2d 21 e3 64 98       	sub    $0x9864e321,%eax
  404c23:	50                   	push   %eax
  404c24:	8d 1d a3 15 a7 98    	lea    0x98a715a3,%ebx
  404c2a:	81 eb 21 e3 64 98    	sub    $0x9864e321,%ebx
  404c30:	53                   	push   %ebx
  404c31:	a1 84 f0 41 00       	mov    0x41f084,%eax
  404c36:	ff d0                	call   *%eax
  404c38:	8d 1d b2 15 a7 98    	lea    0x98a715b2,%ebx
  404c3e:	81 eb 21 e3 64 98    	sub    $0x9864e321,%ebx
  404c44:	53                   	push   %ebx
  404c45:	8d 1d a3 15 a7 98    	lea    0x98a715a3,%ebx
  404c4b:	81 eb 21 e3 64 98    	sub    $0x9864e321,%ebx
  404c51:	53                   	push   %ebx
  404c52:	a1 84 f0 41 00       	mov    0x41f084,%eax
  404c57:	ff d0                	call   *%eax
  404c59:	b9 01 00 00 00       	mov    $0x1,%ecx
  404c5e:	83 c1 d2             	add    $0xffffffd2,%ecx
  404c61:	83 d7 33             	adc    $0x33,%edi
  404c64:	83 e3 51             	and    $0x51,%ebx
  404c67:	19 f6                	sbb    %esi,%esi
  404c69:	8d 05 b2 15 a7 98    	lea    0x98a715b2,%eax
  404c6f:	2d 21 e3 64 98       	sub    $0x9864e321,%eax
  404c74:	50                   	push   %eax
  404c75:	8d 35 a3 15 a7 98    	lea    0x98a715a3,%esi
  404c7b:	81 ee 21 e3 64 98    	sub    $0x9864e321,%esi
  404c81:	56                   	push   %esi
  404c82:	a1 84 f0 41 00       	mov    0x41f084,%eax
  404c87:	ff d0                	call   *%eax
  404c89:	19 c7                	sbb    %eax,%edi
  404c8b:	83 35 60 30 42 00 69 	xorl   $0x69,0x423060
  404c92:	83 15 fc 30 42 00 7b 	adcl   $0x7b,0x4230fc
  404c99:	c7 05 64 31 42 00 62 	movl   $0x62,0x423164
  404ca0:	00 00 00 
  404ca3:	31 c6                	xor    %eax,%esi
  404ca5:	8d 05 b2 15 a7 98    	lea    0x98a715b2,%eax
  404cab:	2d 21 e3 64 98       	sub    $0x9864e321,%eax
  404cb0:	50                   	push   %eax
  404cb1:	8d 05 a3 15 a7 98    	lea    0x98a715a3,%eax
  404cb7:	2d 21 e3 64 98       	sub    $0x9864e321,%eax
  404cbc:	50                   	push   %eax
  404cbd:	a1 84 f0 41 00       	mov    0x41f084,%eax
  404cc2:	ff d0                	call   *%eax
  404cc4:	83 c8 67             	or     $0x67,%eax
  404cc7:	01 d8                	add    %ebx,%eax
  404cc9:	8d 05 b2 15 a7 98    	lea    0x98a715b2,%eax
  404ccf:	2d 21 e3 64 98       	sub    $0x9864e321,%eax
  404cd4:	50                   	push   %eax
  404cd5:	8d 1d a3 15 a7 98    	lea    0x98a715a3,%ebx
  404cdb:	81 eb 21 e3 64 98    	sub    $0x9864e321,%ebx
  404ce1:	53                   	push   %ebx
  404ce2:	a1 84 f0 41 00       	mov    0x41f084,%eax
  404ce7:	ff d0                	call   *%eax
  404ce9:	83 15 d8 31 42 00 3a 	adcl   $0x3a,0x4231d8
  404cf0:	31 df                	xor    %ebx,%edi
  404cf2:	21 1d 8b 31 42 00    	and    %ebx,0x42318b
  404cf8:	81 0d c0 31 42 00 98 	orl    $0x98,0x4231c0
  404cff:	00 00 00 
  404d02:	28 3d 07 31 42 00    	sub    %bh,0x423107
  404d08:	6a 0f                	push   $0xf
  404d0a:	ff 0c 24             	decl   (%esp)
  404d0d:	8d 0d 95 15 a7 98    	lea    0x98a71595,%ecx
  404d13:	81 e9 21 e3 64 98    	sub    $0x9864e321,%ecx
  404d19:	51                   	push   %ecx
  404d1a:	8d 3d 83 15 a7 98    	lea    0x98a71583,%edi
  404d20:	81 ef 21 e3 64 98    	sub    $0x9864e321,%edi
  404d26:	57                   	push   %edi
  404d27:	a1 78 f0 41 00       	mov    0x41f078,%eax
  404d2c:	ff d0                	call   *%eax
  404d2e:	85 c0                	test   %eax,%eax
  404d30:	0f 85 dc 71 00 00    	jne    0x40bf12
  404d36:	8d 0d b2 15 a7 98    	lea    0x98a715b2,%ecx
  404d3c:	81 e9 21 e3 64 98    	sub    $0x9864e321,%ecx
  404d42:	51                   	push   %ecx
  404d43:	8d 05 a3 15 a7 98    	lea    0x98a715a3,%eax
  404d49:	2d 21 e3 64 98       	sub    $0x9864e321,%eax
  404d4e:	50                   	push   %eax
  404d4f:	a1 84 f0 41 00       	mov    0x41f084,%eax
  404d54:	ff d0                	call   *%eax
  404d56:	31 35 d1 31 42 00    	xor    %esi,0x4231d1
  404d5c:	29 c6                	sub    %eax,%esi
  404d5e:	2a 3d ea 31 42 00    	sub    0x4231ea,%bh
  404d64:	2b 05 50 31 42 00    	sub    0x423150,%eax
  404d6a:	6a 0f                	push   $0xf
  404d6c:	ff 0c 24             	decl   (%esp)
  404d6f:	8d 15 95 15 a7 98    	lea    0x98a71595,%edx
  404d75:	81 ea 21 e3 64 98    	sub    $0x9864e321,%edx
  404d7b:	52                   	push   %edx
  404d7c:	8d 35 83 15 a7 98    	lea    0x98a71583,%esi
  404d82:	81 ee 21 e3 64 98    	sub    $0x9864e321,%esi
  404d88:	56                   	push   %esi
  404d89:	a1 78 f0 41 00       	mov    0x41f078,%eax
  404d8e:	ff d0                	call   *%eax
  404d90:	83 f8 00             	cmp    $0x0,%eax
  404d93:	0f 85 79 71 00 00    	jne    0x40bf12
  404d99:	21 1d cc 30 42 00    	and    %ebx,0x4230cc
  404d9f:	c7 05 d9 30 42 00 3a 	movl   $0x3a,0x4230d9
  404da6:	00 00 00 
  404da9:	83 1d 96 30 42 00 7c 	sbbl   $0x7c,0x423096
  404db0:	2e e9 9a 6c 00 00    	cs jmp 0x40ba50
  404db6:	00 00                	add    %al,(%eax)
  404db8:	00 00                	add    %al,(%eax)
  404dba:	00 ba 01 00 00 00    	add    %bh,0x1(%edx)
  404dc0:	01 da                	add    %ebx,%edx
  404dc2:	6a 0f                	push   $0xf
  404dc4:	ff 0c 24             	decl   (%esp)
  404dc7:	8d 0d 95 15 a7 98    	lea    0x98a71595,%ecx
  404dcd:	81 e9 21 e3 64 98    	sub    $0x9864e321,%ecx
  404dd3:	51                   	push   %ecx
  404dd4:	8d 15 83 15 a7 98    	lea    0x98a71583,%edx
  404dda:	81 ea 21 e3 64 98    	sub    $0x9864e321,%edx
  404de0:	52                   	push   %edx
  404de1:	a1 78 f0 41 00       	mov    0x41f078,%eax
  404de6:	ff d0                	call   *%eax
  404de8:	85 c0                	test   %eax,%eax
  404dea:	0f 85 22 71 00 00    	jne    0x40bf12
  404df0:	19 fb                	sbb    %edi,%ebx
  404df2:	12 05 e7 30 42 00    	adc    0x4230e7,%al
  404df8:	19 05 3d 31 42 00    	sbb    %eax,0x42313d
  404dfe:	11 d8                	adc    %ebx,%eax
  404e00:	81 15 ec 31 42 00 89 	adcl   $0x89,0x4231ec
  404e07:	00 00 00 
  404e0a:	6a 0f                	push   $0xf
  404e0c:	ff 0c 24             	decl   (%esp)
  404e0f:	8d 0d 95 15 a7 98    	lea    0x98a71595,%ecx
  404e15:	81 e9 21 e3 64 98    	sub    $0x9864e321,%ecx
  404e1b:	51                   	push   %ecx
  404e1c:	8d 15 83 15 a7 98    	lea    0x98a71583,%edx
  404e22:	81 ea 21 e3 64 98    	sub    $0x9864e321,%edx
  404e28:	52                   	push   %edx
  404e29:	a1 78 f0 41 00       	mov    0x41f078,%eax
  404e2e:	ff d0                	call   *%eax
  404e30:	85 c0                	test   %eax,%eax
  404e32:	0f 85 da 70 00 00    	jne    0x40bf12
  404e38:	82 2d c7 31 42 00 09 	subb   $0x9,0x4231c7
  404e3f:	c7 05 4f 30 42 00 a7 	movl   $0xa7,0x42304f
  404e46:	00 00 00 
  404e49:	8d 0d b2 15 a7 98    	lea    0x98a715b2,%ecx
  404e4f:	81 e9 21 e3 64 98    	sub    $0x9864e321,%ecx
  404e55:	51                   	push   %ecx
  404e56:	8d 15 a3 15 a7 98    	lea    0x98a715a3,%edx
  404e5c:	81 ea 21 e3 64 98    	sub    $0x9864e321,%edx
  404e62:	52                   	push   %edx
  404e63:	a1 84 f0 41 00       	mov    0x41f084,%eax
  404e68:	ff d0                	call   *%eax
  404e6a:	21 05 40 31 42 00    	and    %eax,0x423140
  404e70:	6a 0f                	push   $0xf
  404e72:	ff 0c 24             	decl   (%esp)
  404e75:	8d 35 95 15 a7 98    	lea    0x98a71595,%esi
  404e7b:	81 ee 21 e3 64 98    	sub    $0x9864e321,%esi
  404e81:	56                   	push   %esi
  404e82:	8d 15 83 15 a7 98    	lea    0x98a71583,%edx
  404e88:	81 ea 21 e3 64 98    	sub    $0x9864e321,%edx
  404e8e:	52                   	push   %edx
  404e8f:	a1 78 f0 41 00       	mov    0x41f078,%eax
  404e94:	ff d0                	call   *%eax
  404e96:	85 c0                	test   %eax,%eax
  404e98:	0f 85 74 70 00 00    	jne    0x40bf12
  404e9e:	01 ff                	add    %edi,%edi
  404ea0:	8d 3d b2 15 a7 98    	lea    0x98a715b2,%edi
  404ea6:	81 ef 21 e3 64 98    	sub    $0x9864e321,%edi
  404eac:	57                   	push   %edi
  404ead:	8d 35 a3 15 a7 98    	lea    0x98a715a3,%esi
  404eb3:	81 ee 21 e3 64 98    	sub    $0x9864e321,%esi
  404eb9:	56                   	push   %esi
  404eba:	a1 84 f0 41 00       	mov    0x41f084,%eax
  404ebf:	ff d0                	call   *%eax
  404ec1:	11 3d ae 30 42 00    	adc    %edi,0x4230ae
  404ec7:	ba 01 00 00 00       	mov    $0x1,%edx
  404ecc:	13 15 60 30 42 00    	adc    0x423060,%edx
  404ed2:	8d 35 b2 15 a7 98    	lea    0x98a715b2,%esi
  404ed8:	81 ee 21 e3 64 98    	sub    $0x9864e321,%esi
  404ede:	56                   	push   %esi
  404edf:	8d 1d a3 15 a7 98    	lea    0x98a715a3,%ebx
  404ee5:	81 eb 21 e3 64 98    	sub    $0x9864e321,%ebx
  404eeb:	53                   	push   %ebx
  404eec:	a1 84 f0 41 00       	mov    0x41f084,%eax
  404ef1:	ff d0                	call   *%eax
  404ef3:	b9 01 00 00 00       	mov    $0x1,%ecx
  404ef8:	01 c1                	add    %eax,%ecx
  404efa:	29 0d b7 31 42 00    	sub    %ecx,0x4231b7
  404f00:	82 2d 30 30 42 00 17 	subb   $0x17,0x423030
  404f07:	8d 15 b2 15 a7 98    	lea    0x98a715b2,%edx
  404f0d:	81 ea 21 e3 64 98    	sub    $0x9864e321,%edx
  404f13:	52                   	push   %edx
  404f14:	8d 15 a3 15 a7 98    	lea    0x98a715a3,%edx
  404f1a:	81 ea 21 e3 64 98    	sub    $0x9864e321,%edx
  404f20:	52                   	push   %edx
  404f21:	a1 84 f0 41 00       	mov    0x41f084,%eax
  404f26:	ff d0                	call   *%eax
  404f28:	20 3d ca 30 42 00    	and    %bh,0x4230ca
  404f2e:	6a 0f                	push   $0xf
  404f30:	ff 0c 24             	decl   (%esp)
  404f33:	8d 3d 95 15 a7 98    	lea    0x98a71595,%edi
  404f39:	81 ef 21 e3 64 98    	sub    $0x9864e321,%edi
  404f3f:	57                   	push   %edi
  404f40:	8d 0d 83 15 a7 98    	lea    0x98a71583,%ecx
  404f46:	81 e9 21 e3 64 98    	sub    $0x9864e321,%ecx
  404f4c:	51                   	push   %ecx
  404f4d:	a1 78 f0 41 00       	mov    0x41f078,%eax
  404f52:	ff d0                	call   *%eax
  404f54:	85 c0                	test   %eax,%eax
  404f56:	0f 85 b6 6f 00 00    	jne    0x40bf12
  404f5c:	08 3d e0 30 42 00    	or     %bh,0x4230e0
  404f62:	13 05 fb 31 42 00    	adc    0x4231fb,%eax
  404f68:	83 25 cf 30 42 00 4f 	andl   $0x4f,0x4230cf
  404f6f:	09 05 bb 31 42 00    	or     %eax,0x4231bb
  404f75:	6a 0f                	push   $0xf
  404f77:	ff 0c 24             	decl   (%esp)
  404f7a:	8d 15 95 15 a7 98    	lea    0x98a71595,%edx
  404f80:	81 ea 21 e3 64 98    	sub    $0x9864e321,%edx
  404f86:	52                   	push   %edx
  404f87:	8d 15 83 15 a7 98    	lea    0x98a71583,%edx
  404f8d:	81 ea 21 e3 64 98    	sub    $0x9864e321,%edx
  404f93:	52                   	push   %edx
  404f94:	a1 78 f0 41 00       	mov    0x41f078,%eax
  404f99:	ff d0                	call   *%eax
  404f9b:	85 c0                	test   %eax,%eax
  404f9d:	0f 85 6f 6f 00 00    	jne    0x40bf12
  404fa3:	19 df                	sbb    %ebx,%edi
  404fa5:	01 df                	add    %ebx,%edi
  404fa7:	c7 05 d2 30 42 00 67 	movl   $0x67,0x4230d2
  404fae:	00 00 00 
  404fb1:	8d 0d b2 15 a7 98    	lea    0x98a715b2,%ecx
  404fb7:	81 e9 21 e3 64 98    	sub    $0x9864e321,%ecx
  404fbd:	51                   	push   %ecx
  404fbe:	8d 35 a3 15 a7 98    	lea    0x98a715a3,%esi
  404fc4:	81 ee 21 e3 64 98    	sub    $0x9864e321,%esi
  404fca:	56                   	push   %esi
  404fcb:	a1 84 f0 41 00       	mov    0x41f084,%eax
  404fd0:	ff d0                	call   *%eax
  404fd2:	c7 05 5e 31 42 00 b3 	movl   $0xb3,0x42315e
  404fd9:	00 00 00 
  404fdc:	81 0d 06 30 42 00 fa 	orl    $0xfa,0x423006
  404fe3:	00 00 00 
  404fe6:	19 f3                	sbb    %esi,%ebx
  404fe8:	ba 01 00 00 00       	mov    $0x1,%edx
  404fed:	83 c2 83             	add    $0xffffff83,%edx
  404ff0:	81 25 3e 31 42 00 cf 	andl   $0xcf,0x42313e
  404ff7:	00 00 00 
  404ffa:	8d 05 b2 15 a7 98    	lea    0x98a715b2,%eax
  405000:	2d 21 e3 64 98       	sub    $0x9864e321,%eax
  405005:	50                   	push   %eax
  405006:	8d 0d a3 15 a7 98    	lea    0x98a715a3,%ecx
  40500c:	81 e9 21 e3 64 98    	sub    $0x9864e321,%ecx
  405012:	51                   	push   %ecx
  405013:	a1 84 f0 41 00       	mov    0x41f084,%eax
  405018:	ff d0                	call   *%eax
  40501a:	b5 01                	mov    $0x1,%ch
  40501c:	00 c5                	add    %al,%ch
  40501e:	ba 01 00 00 00       	mov    $0x1,%edx
  405023:	01 c2                	add    %eax,%edx
  405025:	c7 05 c4 30 42 00 e4 	movl   $0xe4,0x4230c4
  40502c:	00 00 00 
  40502f:	6a 0f                	push   $0xf
  405031:	ff 0c 24             	decl   (%esp)
  405034:	8d 3d 95 15 a7 98    	lea    0x98a71595,%edi
  40503a:	81 ef 21 e3 64 98    	sub    $0x9864e321,%edi
  405040:	57                   	push   %edi
  405041:	8d 15 83 15 a7 98    	lea    0x98a71583,%edx
  405047:	81 ea 21 e3 64 98    	sub    $0x9864e321,%edx
  40504d:	52                   	push   %edx
  40504e:	a1 78 f0 41 00       	mov    0x41f078,%eax
  405053:	ff d0                	call   *%eax
  405055:	85 c0                	test   %eax,%eax
  405057:	0f 85 b5 6e 00 00    	jne    0x40bf12
  40505d:	01 3d 31 30 42 00    	add    %edi,0x423031
  405063:	13 1d 6c 31 42 00    	adc    0x42316c,%ebx
  405069:	2e e9 e1 69 00 00    	cs jmp 0x40ba50
  40506f:	08 1d 7e 31 42 00    	or     %bl,0x42317e
  405075:	b2 01                	mov    $0x1,%dl
  405077:	82 c2 53             	add    $0x53,%dl
  40507a:	83 ca 0e             	or     $0xe,%edx
  40507d:	01 db                	add    %ebx,%ebx
  40507f:	00 00                	add    %al,(%eax)
  405081:	00 00                	add    %al,(%eax)
  405083:	00 82 2d 14 31 42    	add    %al,0x4231142d(%edx)
  405089:	00 df                	add    %bl,%bh
  40508b:	b9 01 00 00 00       	mov    $0x1,%ecx
  405090:	01 f9                	add    %edi,%ecx
  405092:	ba 01 00 00 00       	mov    $0x1,%edx
  405097:	83 c2 df             	add    $0xffffffdf,%edx
  40509a:	6a 0f                	push   $0xf
  40509c:	ff 0c 24             	decl   (%esp)
  40509f:	8d 05 95 15 a7 98    	lea    0x98a71595,%eax
  4050a5:	2d 21 e3 64 98       	sub    $0x9864e321,%eax
  4050aa:	50                   	push   %eax
  4050ab:	8d 15 83 15 a7 98    	lea    0x98a71583,%edx
  4050b1:	81 ea 21 e3 64 98    	sub    $0x9864e321,%edx
  4050b7:	52                   	push   %edx
  4050b8:	a1 78 f0 41 00       	mov    0x41f078,%eax
  4050bd:	ff d0                	call   *%eax
  4050bf:	85 c0                	test   %eax,%eax
  4050c1:	0f 85 4b 6e 00 00    	jne    0x40bf12
  4050c7:	81 15 26 31 42 00 ee 	adcl   $0xee,0x423126
  4050ce:	00 00 00 
  4050d1:	ba 01 00 00 00       	mov    $0x1,%edx
  4050d6:	13 15 f5 30 42 00    	adc    0x4230f5,%edx
  4050dc:	83 15 ce 30 42 00 0d 	adcl   $0xd,0x4230ce
  4050e3:	28 e0                	sub    %ah,%al
  4050e5:	6a 0f                	push   $0xf
  4050e7:	ff 0c 24             	decl   (%esp)
  4050ea:	8d 3d 95 15 a7 98    	lea    0x98a71595,%edi
  4050f0:	81 ef 21 e3 64 98    	sub    $0x9864e321,%edi
  4050f6:	57                   	push   %edi
  4050f7:	8d 0d 83 15 a7 98    	lea    0x98a71583,%ecx
  4050fd:	81 e9 21 e3 64 98    	sub    $0x9864e321,%ecx
  405103:	51                   	push   %ecx
  405104:	a1 78 f0 41 00       	mov    0x41f078,%eax
  405109:	ff d0                	call   *%eax
  40510b:	85 c0                	test   %eax,%eax
  40510d:	0f 85 ff 6d 00 00    	jne    0x40bf12
  405113:	0b 05 ba 31 42 00    	or     0x4231ba,%eax
  405119:	8d 3d b2 15 a7 98    	lea    0x98a715b2,%edi
  40511f:	81 ef 21 e3 64 98    	sub    $0x9864e321,%edi
  405125:	57                   	push   %edi
  405126:	8d 0d a3 15 a7 98    	lea    0x98a715a3,%ecx
  40512c:	81 e9 21 e3 64 98    	sub    $0x9864e321,%ecx
  405132:	51                   	push   %ecx
  405133:	a1 84 f0 41 00       	mov    0x41f084,%eax
  405138:	ff d0                	call   *%eax
  40513a:	b9 01 00 00 00       	mov    $0x1,%ecx
  40513f:	83 c1 1b             	add    $0x1b,%ecx
  405142:	83 f6 d0             	xor    $0xffffffd0,%esi
  405145:	29 05 e6 31 42 00    	sub    %eax,0x4231e6
  40514b:	ba 01 00 00 00       	mov    $0x1,%edx
  405150:	01 da                	add    %ebx,%edx
  405152:	8d 3d b2 15 a7 98    	lea    0x98a715b2,%edi
  405158:	81 ef 21 e3 64 98    	sub    $0x9864e321,%edi
  40515e:	57                   	push   %edi
  40515f:	8d 35 a3 15 a7 98    	lea    0x98a715a3,%esi
  405165:	81 ee 21 e3 64 98    	sub    $0x9864e321,%esi
  40516b:	56                   	push   %esi
  40516c:	a1 84 f0 41 00       	mov    0x41f084,%eax
  405171:	ff d0                	call   *%eax
  405173:	19 1d c3 31 42 00    	sbb    %ebx,0x4231c3
  405179:	83 0d 13 31 42 00 11 	orl    $0x11,0x423113
  405180:	12 3d 85 31 42 00    	adc    0x423185,%bh
  405186:	6a 0f                	push   $0xf
  405188:	ff 0c 24             	decl   (%esp)
  40518b:	8d 15 95 15 a7 98    	lea    0x98a71595,%edx
  405191:	81 ea 21 e3 64 98    	sub    $0x9864e321,%edx
  405197:	52                   	push   %edx
  405198:	8d 0d 83 15 a7 98    	lea    0x98a71583,%ecx
  40519e:	81 e9 21 e3 64 98    	sub    $0x9864e321,%ecx
  4051a4:	51                   	push   %ecx
  4051a5:	a1 78 f0 41 00       	mov    0x41f078,%eax
  4051aa:	ff d0                	call   *%eax
  4051ac:	83 f8 00             	cmp    $0x0,%eax
  4051af:	0f 85 5d 6d 00 00    	jne    0x40bf12
  4051b5:	31 d8                	xor    %ebx,%eax
  4051b7:	09 05 13 30 42 00    	or     %eax,0x423013
  4051bd:	8d 05 b2 15 a7 98    	lea    0x98a715b2,%eax
  4051c3:	2d 21 e3 64 98       	sub    $0x9864e321,%eax
  4051c8:	50                   	push   %eax
  4051c9:	8d 3d a3 15 a7 98    	lea    0x98a715a3,%edi
  4051cf:	81 ef 21 e3 64 98    	sub    $0x9864e321,%edi
  4051d5:	57                   	push   %edi
  4051d6:	a1 84 f0 41 00       	mov    0x41f084,%eax
  4051db:	ff d0                	call   *%eax
  4051dd:	ba 01 00 00 00       	mov    $0x1,%edx
  4051e2:	83 c2 0b             	add    $0xb,%edx
  4051e5:	01 35 ef 30 42 00    	add    %esi,0x4230ef
  4051eb:	83 d7 cf             	adc    $0xffffffcf,%edi
  4051ee:	01 fa                	add    %edi,%edx
  4051f0:	6a 0f                	push   $0xf
  4051f2:	ff 0c 24             	decl   (%esp)
  4051f5:	8d 0d 95 15 a7 98    	lea    0x98a71595,%ecx
  4051fb:	81 e9 21 e3 64 98    	sub    $0x9864e321,%ecx
  405201:	51                   	push   %ecx
  405202:	8d 35 83 15 a7 98    	lea    0x98a71583,%esi
  405208:	81 ee 21 e3 64 98    	sub    $0x9864e321,%esi
  40520e:	56                   	push   %esi
  40520f:	a1 78 f0 41 00       	mov    0x41f078,%eax
  405214:	ff d0                	call   *%eax
  405216:	83 f8 00             	cmp    $0x0,%eax
  405219:	0f 85 f3 6c 00 00    	jne    0x40bf12
  40521f:	01 35 62 31 42 00    	add    %esi,0x423162
  405225:	ba 01 00 00 00       	mov    $0x1,%edx
  40522a:	01 fa                	add    %edi,%edx
  40522c:	83 ea f5             	sub    $0xfffffff5,%edx
  40522f:	81 35 11 30 42 00 eb 	xorl   $0xeb,0x423011
  405236:	00 00 00 
  405239:	c7 05 32 30 42 00 e1 	movl   $0xe1,0x423032
  405240:	00 00 00 
  405243:	6a 0f                	push   $0xf
  405245:	ff 0c 24             	decl   (%esp)
  405248:	8d 1d 95 15 a7 98    	lea    0x98a71595,%ebx
  40524e:	81 eb 21 e3 64 98    	sub    $0x9864e321,%ebx
  405254:	53                   	push   %ebx
  405255:	8d 0d 83 15 a7 98    	lea    0x98a71583,%ecx
  40525b:	81 e9 21 e3 64 98    	sub    $0x9864e321,%ecx
  405261:	51                   	push   %ecx
  405262:	a1 78 f0 41 00       	mov    0x41f078,%eax
  405267:	ff d0                	call   *%eax
  405269:	83 f8 00             	cmp    $0x0,%eax
  40526c:	0f 85 a0 6c 00 00    	jne    0x40bf12
  405272:	83 f0 56             	xor    $0x56,%eax
  405275:	83 1d 38 31 42 00 76 	sbbl   $0x76,0x423138
  40527c:	19 3d 37 30 42 00    	sbb    %edi,0x423037
  405282:	c7 05 c5 31 42 00 65 	movl   $0x65,0x4231c5
  405289:	00 00 00 
  40528c:	19 db                	sbb    %ebx,%ebx
  40528e:	8d 05 b2 15 a7 98    	lea    0x98a715b2,%eax
  405294:	2d 21 e3 64 98       	sub    $0x9864e321,%eax
  405299:	50                   	push   %eax
  40529a:	8d 1d a3 15 a7 98    	lea    0x98a715a3,%ebx
  4052a0:	81 eb 21 e3 64 98    	sub    $0x9864e321,%ebx
  4052a6:	53                   	push   %ebx
  4052a7:	a1 84 f0 41 00       	mov    0x41f084,%eax
  4052ac:	ff d0                	call   *%eax
  4052ae:	01 f0                	add    %esi,%eax
  4052b0:	6a 0f                	push   $0xf
  4052b2:	ff 0c 24             	decl   (%esp)
  4052b5:	8d 1d 95 15 a7 98    	lea    0x98a71595,%ebx
  4052bb:	81 eb 21 e3 64 98    	sub    $0x9864e321,%ebx
  4052c1:	53                   	push   %ebx
  4052c2:	8d 15 83 15 a7 98    	lea    0x98a71583,%edx
  4052c8:	81 ea 21 e3 64 98    	sub    $0x9864e321,%edx
  4052ce:	52                   	push   %edx
  4052cf:	a1 78 f0 41 00       	mov    0x41f078,%eax
  4052d4:	ff d0                	call   *%eax
  4052d6:	85 c0                	test   %eax,%eax
  4052d8:	0f 85 34 6c 00 00    	jne    0x40bf12
  4052de:	81 25 17 30 42 00 f4 	andl   $0xf4,0x423017
  4052e5:	00 00 00 
  4052e8:	2e e9 62 67 00 00    	cs jmp 0x40ba50
	...
  4052f6:	00 00                	add    %al,(%eax)
  4052f8:	00 8d 05 b2 15 a7    	add    %cl,-0x58ea4dfb(%ebp)
  4052fe:	98                   	cwtl
  4052ff:	2d 21 e3 64 98       	sub    $0x9864e321,%eax
  405304:	50                   	push   %eax
  405305:	8d 3d a3 15 a7 98    	lea    0x98a715a3,%edi
  40530b:	81 ef 21 e3 64 98    	sub    $0x9864e321,%edi
  405311:	57                   	push   %edi
  405312:	a1 84 f0 41 00       	mov    0x41f084,%eax
  405317:	ff d0                	call   *%eax
  405319:	81 35 83 31 42 00 ba 	xorl   $0xba,0x423183
  405320:	00 00 00 
  405323:	01 f8                	add    %edi,%eax
  405325:	8d 35 b2 15 a7 98    	lea    0x98a715b2,%esi
  40532b:	81 ee 21 e3 64 98    	sub    $0x9864e321,%esi
  405331:	56                   	push   %esi
  405332:	8d 05 a3 15 a7 98    	lea    0x98a715a3,%eax
  405338:	2d 21 e3 64 98       	sub    $0x9864e321,%eax
  40533d:	50                   	push   %eax
  40533e:	a1 84 f0 41 00       	mov    0x41f084,%eax
  405343:	ff d0                	call   *%eax
  405345:	31 05 a1 31 42 00    	xor    %eax,0x4231a1
  40534b:	12 3d 0a 31 42 00    	adc    0x42310a,%bh
  405351:	01 f8                	add    %edi,%eax
  405353:	c7 05 7b 30 42 00 d7 	movl   $0xd7,0x42307b
  40535a:	00 00 00 
  40535d:	6a 0f                	push   $0xf
  40535f:	ff 0c 24             	decl   (%esp)
  405362:	8d 15 95 15 a7 98    	lea    0x98a71595,%edx
  405368:	81 ea 21 e3 64 98    	sub    $0x9864e321,%edx
  40536e:	52                   	push   %edx
  40536f:	8d 05 83 15 a7 98    	lea    0x98a71583,%eax
  405375:	2d 21 e3 64 98       	sub    $0x9864e321,%eax
  40537a:	50                   	push   %eax
  40537b:	a1 78 f0 41 00       	mov    0x41f078,%eax
  405380:	ff d0                	call   *%eax
  405382:	85 c0                	test   %eax,%eax
  405384:	0f 85 88 6b 00 00    	jne    0x40bf12
  40538a:	83 15 5c 31 42 00 28 	adcl   $0x28,0x42315c
  405391:	12 25 8b 31 42 00    	adc    0x42318b,%ah
  405397:	6a 0f                	push   $0xf
  405399:	ff 0c 24             	decl   (%esp)
  40539c:	8d 0d 95 15 a7 98    	lea    0x98a71595,%ecx
  4053a2:	81 e9 21 e3 64 98    	sub    $0x9864e321,%ecx
  4053a8:	51                   	push   %ecx
  4053a9:	8d 05 83 15 a7 98    	lea    0x98a71583,%eax
  4053af:	2d 21 e3 64 98       	sub    $0x9864e321,%eax
  4053b4:	50                   	push   %eax
  4053b5:	a1 78 f0 41 00       	mov    0x41f078,%eax
  4053ba:	ff d0                	call   *%eax
  4053bc:	83 f8 00             	cmp    $0x0,%eax
  4053bf:	0f 85 4d 6b 00 00    	jne    0x40bf12
  4053c5:	2b 05 f6 31 42 00    	sub    0x4231f6,%eax
  4053cb:	8d 3d b2 15 a7 98    	lea    0x98a715b2,%edi
  4053d1:	81 ef 21 e3 64 98    	sub    $0x9864e321,%edi
  4053d7:	57                   	push   %edi
  4053d8:	8d 0d a3 15 a7 98    	lea    0x98a715a3,%ecx
  4053de:	81 e9 21 e3 64 98    	sub    $0x9864e321,%ecx
  4053e4:	51                   	push   %ecx
  4053e5:	a1 84 f0 41 00       	mov    0x41f084,%eax
  4053ea:	ff d0                	call   *%eax
  4053ec:	b9 01 00 00 00       	mov    $0x1,%ecx
  4053f1:	13 0d fe 31 42 00    	adc    0x4231fe,%ecx
  4053f7:	19 3d 83 30 42 00    	sbb    %edi,0x423083
  4053fd:	09 05 0a 30 42 00    	or     %eax,0x42300a
  405403:	8d 05 b2 15 a7 98    	lea    0x98a715b2,%eax
  405409:	2d 21 e3 64 98       	sub    $0x9864e321,%eax
  40540e:	50                   	push   %eax
  40540f:	8d 3d a3 15 a7 98    	lea    0x98a715a3,%edi
  405415:	81 ef 21 e3 64 98    	sub    $0x9864e321,%edi
  40541b:	57                   	push   %edi
  40541c:	a1 84 f0 41 00       	mov    0x41f084,%eax
  405421:	ff d0                	call   *%eax
  405423:	ba 01 00 00 00       	mov    $0x1,%edx
  405428:	01 fa                	add    %edi,%edx
  40542a:	83 c0 8b             	add    $0xffffff8b,%eax
  40542d:	8d 15 b2 15 a7 98    	lea    0x98a715b2,%edx
  405433:	81 ea 21 e3 64 98    	sub    $0x9864e321,%edx
  405439:	52                   	push   %edx
  40543a:	8d 15 a3 15 a7 98    	lea    0x98a715a3,%edx
  405440:	81 ea 21 e3 64 98    	sub    $0x9864e321,%edx
  405446:	52                   	push   %edx
  405447:	a1 84 f0 41 00       	mov    0x41f084,%eax
  40544c:	ff d0                	call   *%eax
  40544e:	6a 0f                	push   $0xf
  405450:	ff 0c 24             	decl   (%esp)
  405453:	8d 0d 95 15 a7 98    	lea    0x98a71595,%ecx
  405459:	81 e9 21 e3 64 98    	sub    $0x9864e321,%ecx
  40545f:	51                   	push   %ecx
  405460:	8d 0d 83 15 a7 98    	lea    0x98a71583,%ecx
  405466:	81 e9 21 e3 64 98    	sub    $0x9864e321,%ecx
  40546c:	51                   	push   %ecx
  40546d:	a1 78 f0 41 00       	mov    0x41f078,%eax
  405472:	ff d0                	call   *%eax
  405474:	83 f8 00             	cmp    $0x0,%eax
  405477:	0f 85 95 6a 00 00    	jne    0x40bf12
  40547d:	01 f0                	add    %esi,%eax
  40547f:	6a 0f                	push   $0xf
  405481:	ff 0c 24             	decl   (%esp)
  405484:	8d 0d 95 15 a7 98    	lea    0x98a71595,%ecx
  40548a:	81 e9 21 e3 64 98    	sub    $0x9864e321,%ecx
  405490:	51                   	push   %ecx
  405491:	8d 35 83 15 a7 98    	lea    0x98a71583,%esi
  405497:	81 ee 21 e3 64 98    	sub    $0x9864e321,%esi
  40549d:	56                   	push   %esi
  40549e:	a1 78 f0 41 00       	mov    0x41f078,%eax
  4054a3:	ff d0                	call   *%eax
  4054a5:	83 f8 00             	cmp    $0x0,%eax
  4054a8:	0f 85 64 6a 00 00    	jne    0x40bf12
  4054ae:	83 35 e1 31 42 00 31 	xorl   $0x31,0x4231e1
  4054b5:	83 0d 7e 31 42 00 6e 	orl    $0x6e,0x42317e
  4054bc:	19 1d 0a 31 42 00    	sbb    %ebx,0x42310a
  4054c2:	21 05 53 31 42 00    	and    %eax,0x423153
  4054c8:	8d 3d b2 15 a7 98    	lea    0x98a715b2,%edi
  4054ce:	81 ef 21 e3 64 98    	sub    $0x9864e321,%edi
  4054d4:	57                   	push   %edi
  4054d5:	8d 3d a3 15 a7 98    	lea    0x98a715a3,%edi
  4054db:	81 ef 21 e3 64 98    	sub    $0x9864e321,%edi
  4054e1:	57                   	push   %edi
  4054e2:	a1 84 f0 41 00       	mov    0x41f084,%eax
  4054e7:	ff d0                	call   *%eax
  4054e9:	01 05 97 31 42 00    	add    %eax,0x423197
  4054ef:	13 1d c6 30 42 00    	adc    0x4230c6,%ebx
  4054f5:	b9 01 00 00 00       	mov    $0x1,%ecx
  4054fa:	83 c1 52             	add    $0x52,%ecx
  4054fd:	6a 0f                	push   $0xf
  4054ff:	ff 0c 24             	decl   (%esp)
  405502:	8d 15 95 15 a7 98    	lea    0x98a71595,%edx
  405508:	81 ea 21 e3 64 98    	sub    $0x9864e321,%edx
  40550e:	52                   	push   %edx
  40550f:	8d 1d 83 15 a7 98    	lea    0x98a71583,%ebx
  405515:	81 eb 21 e3 64 98    	sub    $0x9864e321,%ebx
  40551b:	53                   	push   %ebx
  40551c:	a1 78 f0 41 00       	mov    0x41f078,%eax
  405521:	ff d0                	call   *%eax
  405523:	83 f8 00             	cmp    $0x0,%eax
  405526:	0f 85 e6 69 00 00    	jne    0x40bf12
  40552c:	29 05 d4 30 42 00    	sub    %eax,0x4230d4
  405532:	0b 35 b2 30 42 00    	or     0x4230b2,%esi
  405538:	83 1d d7 30 42 00 13 	sbbl   $0x13,0x4230d7
  40553f:	2e e9 0b 65 00 00    	cs jmp 0x40ba50
  405545:	ba 01 00 00 00       	mov    $0x1,%edx
  40554a:	01 fa                	add    %edi,%edx
  40554c:	00 00                	add    %al,(%eax)
  40554e:	00 00                	add    %al,(%eax)
  405550:	6a 0f                	push   $0xf
  405552:	ff 0c 24             	decl   (%esp)
  405555:	8d 3d 95 15 a7 98    	lea    0x98a71595,%edi
  40555b:	81 ef 21 e3 64 98    	sub    $0x9864e321,%edi
  405561:	57                   	push   %edi
  405562:	8d 0d 83 15 a7 98    	lea    0x98a71583,%ecx
  405568:	81 e9 21 e3 64 98    	sub    $0x9864e321,%ecx
  40556e:	51                   	push   %ecx
  40556f:	a1 78 f0 41 00       	mov    0x41f078,%eax
  405574:	ff d0                	call   *%eax
  405576:	83 f8 00             	cmp    $0x0,%eax
  405579:	0f 85 93 69 00 00    	jne    0x40bf12
  40557f:	31 1d 6f 31 42 00    	xor    %ebx,0x42316f
  405585:	83 1d 9a 30 42 00 6c 	sbbl   $0x6c,0x42309a
  40558c:	31 c7                	xor    %eax,%edi
  40558e:	21 35 1a 31 42 00    	and    %esi,0x42311a
  405594:	82 2d 0c 31 42 00 31 	subb   $0x31,0x42310c
  40559b:	8d 0d b2 15 a7 98    	lea    0x98a715b2,%ecx
  4055a1:	81 e9 21 e3 64 98    	sub    $0x9864e321,%ecx
  4055a7:	51                   	push   %ecx
  4055a8:	8d 0d a3 15 a7 98    	lea    0x98a715a3,%ecx
  4055ae:	81 e9 21 e3 64 98    	sub    $0x9864e321,%ecx
  4055b4:	51                   	push   %ecx
  4055b5:	a1 84 f0 41 00       	mov    0x41f084,%eax
  4055ba:	ff d0                	call   *%eax
  4055bc:	12 05 5e 31 42 00    	adc    0x42315e,%al
  4055c2:	6a 0f                	push   $0xf
  4055c4:	ff 0c 24             	decl   (%esp)
  4055c7:	8d 35 95 15 a7 98    	lea    0x98a71595,%esi
  4055cd:	81 ee 21 e3 64 98    	sub    $0x9864e321,%esi
  4055d3:	56                   	push   %esi
  4055d4:	8d 0d 83 15 a7 98    	lea    0x98a71583,%ecx
  4055da:	81 e9 21 e3 64 98    	sub    $0x9864e321,%ecx
  4055e0:	51                   	push   %ecx
  4055e1:	a1 78 f0 41 00       	mov    0x41f078,%eax
  4055e6:	ff d0                	call   *%eax
  4055e8:	85 c0                	test   %eax,%eax
  4055ea:	0f 85 22 69 00 00    	jne    0x40bf12
  4055f0:	81 25 88 30 42 00 b3 	andl   $0xb3,0x423088
  4055f7:	00 00 00 
  4055fa:	01 3d bb 30 42 00    	add    %edi,0x4230bb
  405600:	6a 0f                	push   $0xf
  405602:	ff 0c 24             	decl   (%esp)
  405605:	8d 0d 95 15 a7 98    	lea    0x98a71595,%ecx
  40560b:	81 e9 21 e3 64 98    	sub    $0x9864e321,%ecx
  405611:	51                   	push   %ecx
  405612:	8d 3d 83 15 a7 98    	lea    0x98a71583,%edi
  405618:	81 ef 21 e3 64 98    	sub    $0x9864e321,%edi
  40561e:	57                   	push   %edi
  40561f:	a1 78 f0 41 00       	mov    0x41f078,%eax
  405624:	ff d0                	call   *%eax
  405626:	83 f8 00             	cmp    $0x0,%eax
  405629:	0f 85 e3 68 00 00    	jne    0x40bf12
  40562f:	c7 05 8b 31 42 00 64 	movl   $0x64,0x42318b
  405636:	00 00 00 
  405639:	13 35 b2 31 42 00    	adc    0x4231b2,%esi
  40563f:	29 f8                	sub    %edi,%eax
  405641:	31 fe                	xor    %edi,%esi
  405643:	28 3d 54 30 42 00    	sub    %bh,0x423054
  405649:	8d 0d b2 15 a7 98    	lea    0x98a715b2,%ecx
  40564f:	81 e9 21 e3 64 98    	sub    $0x9864e321,%ecx
  405655:	51                   	push   %ecx
  405656:	8d 3d a3 15 a7 98    	lea    0x98a715a3,%edi
  40565c:	81 ef 21 e3 64 98    	sub    $0x9864e321,%edi
  405662:	57                   	push   %edi
  405663:	a1 84 f0 41 00       	mov    0x41f084,%eax
  405668:	ff d0                	call   *%eax
  40566a:	13 05 ac 31 42 00    	adc    0x4231ac,%eax
  405670:	b9 01 00 00 00       	mov    $0x1,%ecx
  405675:	13 0d 7a 31 42 00    	adc    0x42317a,%ecx
  40567b:	83 25 1d 31 42 00 16 	andl   $0x16,0x42311d
  405682:	11 d8                	adc    %ebx,%eax
  405684:	6a 0f                	push   $0xf
  405686:	ff 0c 24             	decl   (%esp)
  405689:	8d 1d 95 15 a7 98    	lea    0x98a71595,%ebx
  40568f:	81 eb 21 e3 64 98    	sub    $0x9864e321,%ebx
  405695:	53                   	push   %ebx
  405696:	8d 1d 83 15 a7 98    	lea    0x98a71583,%ebx
  40569c:	81 eb 21 e3 64 98    	sub    $0x9864e321,%ebx
  4056a2:	53                   	push   %ebx
  4056a3:	a1 78 f0 41 00       	mov    0x41f078,%eax
  4056a8:	ff d0                	call   *%eax
  4056aa:	83 f8 00             	cmp    $0x0,%eax
  4056ad:	0f 85 5f 68 00 00    	jne    0x40bf12
  4056b3:	8d 3d b2 15 a7 98    	lea    0x98a715b2,%edi
  4056b9:	81 ef 21 e3 64 98    	sub    $0x9864e321,%edi
  4056bf:	57                   	push   %edi
  4056c0:	8d 15 a3 15 a7 98    	lea    0x98a715a3,%edx
  4056c6:	81 ea 21 e3 64 98    	sub    $0x9864e321,%edx
  4056cc:	52                   	push   %edx
  4056cd:	a1 84 f0 41 00       	mov    0x41f084,%eax
  4056d2:	ff d0                	call   *%eax
  4056d4:	c7 05 44 31 42 00 5f 	movl   $0x5f,0x423144
  4056db:	00 00 00 
  4056de:	ba 01 00 00 00       	mov    $0x1,%edx
  4056e3:	01 c2                	add    %eax,%edx
  4056e5:	01 f8                	add    %edi,%eax
  4056e7:	13 35 88 30 42 00    	adc    0x423088,%esi
  4056ed:	29 35 43 30 42 00    	sub    %esi,0x423043
  4056f3:	8d 3d b2 15 a7 98    	lea    0x98a715b2,%edi
  4056f9:	81 ef 21 e3 64 98    	sub    $0x9864e321,%edi
  4056ff:	57                   	push   %edi
  405700:	8d 35 a3 15 a7 98    	lea    0x98a715a3,%esi
  405706:	81 ee 21 e3 64 98    	sub    $0x9864e321,%esi
  40570c:	56                   	push   %esi
  40570d:	a1 84 f0 41 00       	mov    0x41f084,%eax
  405712:	ff d0                	call   *%eax
  405714:	13 35 2e 31 42 00    	adc    0x42312e,%esi
  40571a:	c7 05 18 31 42 00 d5 	movl   $0xd5,0x423118
  405721:	00 00 00 
  405724:	12 25 55 30 42 00    	adc    0x423055,%ah
  40572a:	6a 0f                	push   $0xf
  40572c:	ff 0c 24             	decl   (%esp)
  40572f:	8d 15 95 15 a7 98    	lea    0x98a71595,%edx
  405735:	81 ea 21 e3 64 98    	sub    $0x9864e321,%edx
  40573b:	52                   	push   %edx
  40573c:	8d 3d 83 15 a7 98    	lea    0x98a71583,%edi
  405742:	81 ef 21 e3 64 98    	sub    $0x9864e321,%edi
  405748:	57                   	push   %edi
  405749:	a1 78 f0 41 00       	mov    0x41f078,%eax
  40574e:	ff d0                	call   *%eax
  405750:	85 c0                	test   %eax,%eax
  405752:	0f 85 ba 67 00 00    	jne    0x40bf12
  405758:	82 ef b1             	sub    $0xb1,%bh
  40575b:	8d 3d b2 15 a7 98    	lea    0x98a715b2,%edi
  405761:	81 ef 21 e3 64 98    	sub    $0x9864e321,%edi
  405767:	57                   	push   %edi
  405768:	8d 3d a3 15 a7 98    	lea    0x98a715a3,%edi
  40576e:	81 ef 21 e3 64 98    	sub    $0x9864e321,%edi
  405774:	57                   	push   %edi
  405775:	a1 84 f0 41 00       	mov    0x41f084,%eax
  40577a:	ff d0                	call   *%eax
  40577c:	2b 35 51 31 42 00    	sub    0x423151,%esi
  405782:	6a 0f                	push   $0xf
  405784:	ff 0c 24             	decl   (%esp)
  405787:	8d 15 95 15 a7 98    	lea    0x98a71595,%edx
  40578d:	81 ea 21 e3 64 98    	sub    $0x9864e321,%edx
  405793:	52                   	push   %edx
  405794:	8d 15 83 15 a7 98    	lea    0x98a71583,%edx
  40579a:	81 ea 21 e3 64 98    	sub    $0x9864e321,%edx
  4057a0:	52                   	push   %edx
  4057a1:	a1 78 f0 41 00       	mov    0x41f078,%eax
  4057a6:	ff d0                	call   *%eax
  4057a8:	85 c0                	test   %eax,%eax
  4057aa:	0f 85 62 67 00 00    	jne    0x40bf12
  4057b0:	19 f8                	sbb    %edi,%eax
  4057b2:	01 3d 7d 30 42 00    	add    %edi,0x42307d
  4057b8:	01 c3                	add    %eax,%ebx
  4057ba:	01 d8                	add    %ebx,%eax
  4057bc:	b9 01 00 00 00       	mov    $0x1,%ecx
  4057c1:	13 0d cb 31 42 00    	adc    0x4231cb,%ecx
  4057c7:	6a 0f                	push   $0xf
  4057c9:	ff 0c 24             	decl   (%esp)
  4057cc:	8d 35 95 15 a7 98    	lea    0x98a71595,%esi
  4057d2:	81 ee 21 e3 64 98    	sub    $0x9864e321,%esi
  4057d8:	56                   	push   %esi
  4057d9:	8d 3d 83 15 a7 98    	lea    0x98a71583,%edi
  4057df:	81 ef 21 e3 64 98    	sub    $0x9864e321,%edi
  4057e5:	57                   	push   %edi
  4057e6:	a1 78 f0 41 00       	mov    0x41f078,%eax
  4057eb:	ff d0                	call   *%eax
  4057ed:	83 f8 00             	cmp    $0x0,%eax
  4057f0:	0f 85 1c 67 00 00    	jne    0x40bf12
  4057f6:	83 25 69 30 42 00 30 	andl   $0x30,0x423069
  4057fd:	12 05 13 31 42 00    	adc    0x423113,%al
  405803:	31 3d 96 30 42 00    	xor    %edi,0x423096
  405809:	19 35 1c 30 42 00    	sbb    %esi,0x42301c
  40580f:	2e e9 3b 62 00 00    	cs jmp 0x40ba50
  405815:	81 15 3b 31 42 00 e2 	adcl   $0xe2,0x42313b
  40581c:	00 00 00 
	...
  40582f:	13 1d b0 31 42 00    	adc    0x4231b0,%ebx
  405835:	82 2d 8b 30 42 00 d6 	subb   $0xd6,0x42308b
  40583c:	81 0d 4c 30 42 00 f1 	orl    $0xf1,0x42304c
  405843:	00 00 00 
  405846:	29 05 c0 30 42 00    	sub    %eax,0x4230c0
  40584c:	b5 01                	mov    $0x1,%ch
  40584e:	82 c5 05             	add    $0x5,%ch
  405851:	8d 1d b2 15 a7 98    	lea    0x98a715b2,%ebx
  405857:	81 eb 21 e3 64 98    	sub    $0x9864e321,%ebx
  40585d:	53                   	push   %ebx
  40585e:	8d 3d a3 15 a7 98    	lea    0x98a715a3,%edi
  405864:	81 ef 21 e3 64 98    	sub    $0x9864e321,%edi
  40586a:	57                   	push   %edi
  40586b:	a1 84 f0 41 00       	mov    0x41f084,%eax
  405870:	ff d0                	call   *%eax
  405872:	ba 01 00 00 00       	mov    $0x1,%edx
  405877:	13 15 4a 30 42 00    	adc    0x42304a,%edx
  40587d:	83 ef 59             	sub    $0x59,%edi
  405880:	b9 01 00 00 00       	mov    $0x1,%ecx
  405885:	13 0d d4 30 42 00    	adc    0x4230d4,%ecx
  40588b:	8d 05 b2 15 a7 98    	lea    0x98a715b2,%eax
  405891:	2d 21 e3 64 98       	sub    $0x9864e321,%eax
  405896:	50                   	push   %eax
  405897:	8d 35 a3 15 a7 98    	lea    0x98a715a3,%esi
  40589d:	81 ee 21 e3 64 98    	sub    $0x9864e321,%esi
  4058a3:	56                   	push   %esi
  4058a4:	a1 84 f0 41 00       	mov    0x41f084,%eax
  4058a9:	ff d0                	call   *%eax
  4058ab:	13 3d b2 31 42 00    	adc    0x4231b2,%edi
  4058b1:	b9 01 00 00 00       	mov    $0x1,%ecx
  4058b6:	01 d9                	add    %ebx,%ecx
  4058b8:	0b 0d de 30 42 00    	or     0x4230de,%ecx
  4058be:	ba 01 00 00 00       	mov    $0x1,%edx
  4058c3:	01 ca                	add    %ecx,%edx
  4058c5:	29 3d 01 31 42 00    	sub    %edi,0x423101
  4058cb:	8d 1d b2 15 a7 98    	lea    0x98a715b2,%ebx
  4058d1:	81 eb 21 e3 64 98    	sub    $0x9864e321,%ebx
  4058d7:	53                   	push   %ebx
  4058d8:	8d 1d a3 15 a7 98    	lea    0x98a715a3,%ebx
  4058de:	81 eb 21 e3 64 98    	sub    $0x9864e321,%ebx
  4058e4:	53                   	push   %ebx
  4058e5:	a1 84 f0 41 00       	mov    0x41f084,%eax
  4058ea:	ff d0                	call   *%eax
  4058ec:	29 1d 7c 30 42 00    	sub    %ebx,0x42307c
  4058f2:	b9 01 00 00 00       	mov    $0x1,%ecx
  4058f7:	13 0d dd 30 42 00    	adc    0x4230dd,%ecx
  4058fd:	21 05 81 31 42 00    	and    %eax,0x423181
  405903:	83 ef 2f             	sub    $0x2f,%edi
  405906:	11 cb                	adc    %ecx,%ebx
  405908:	6a 0f                	push   $0xf
  40590a:	ff 0c 24             	decl   (%esp)
  40590d:	8d 35 95 15 a7 98    	lea    0x98a71595,%esi
  405913:	81 ee 21 e3 64 98    	sub    $0x9864e321,%esi
  405919:	56                   	push   %esi
  40591a:	8d 15 83 15 a7 98    	lea    0x98a71583,%edx
  405920:	81 ea 21 e3 64 98    	sub    $0x9864e321,%edx
  405926:	52                   	push   %edx
  405927:	a1 78 f0 41 00       	mov    0x41f078,%eax
  40592c:	ff d0                	call   *%eax
  40592e:	85 c0                	test   %eax,%eax
  405930:	0f 85 dc 65 00 00    	jne    0x40bf12
  405936:	83 db cd             	sbb    $0xffffffcd,%ebx
  405939:	c7 05 7d 31 42 00 36 	movl   $0x36,0x42317d
  405940:	00 00 00 
  405943:	21 3d c9 31 42 00    	and    %edi,0x4231c9
  405949:	b6 01                	mov    $0x1,%dh
  40594b:	82 c6 35             	add    $0x35,%dh
  40594e:	8d 1d b2 15 a7 98    	lea    0x98a715b2,%ebx
  405954:	81 eb 21 e3 64 98    	sub    $0x9864e321,%ebx
  40595a:	53                   	push   %ebx
  40595b:	8d 05 a3 15 a7 98    	lea    0x98a715a3,%eax
  405961:	2d 21 e3 64 98       	sub    $0x9864e321,%eax
  405966:	50                   	push   %eax
  405967:	a1 84 f0 41 00       	mov    0x41f084,%eax
  40596c:	ff d0                	call   *%eax
  40596e:	8d 0d b2 15 a7 98    	lea    0x98a715b2,%ecx
  405974:	81 e9 21 e3 64 98    	sub    $0x9864e321,%ecx
  40597a:	51                   	push   %ecx
  40597b:	8d 05 a3 15 a7 98    	lea    0x98a715a3,%eax
  405981:	2d 21 e3 64 98       	sub    $0x9864e321,%eax
  405986:	50                   	push   %eax
  405987:	a1 84 f0 41 00       	mov    0x41f084,%eax
  40598c:	ff d0                	call   *%eax
  40598e:	0b 1d 10 31 42 00    	or     0x423110,%ebx
  405994:	19 35 f1 31 42 00    	sbb    %esi,0x4231f1
  40599a:	b2 01                	mov    $0x1,%dl
  40599c:	00 e2                	add    %ah,%dl
  40599e:	6a 0f                	push   $0xf
  4059a0:	ff 0c 24             	decl   (%esp)
  4059a3:	8d 0d 95 15 a7 98    	lea    0x98a71595,%ecx
  4059a9:	81 e9 21 e3 64 98    	sub    $0x9864e321,%ecx
  4059af:	51                   	push   %ecx
  4059b0:	8d 35 83 15 a7 98    	lea    0x98a71583,%esi
  4059b6:	81 ee 21 e3 64 98    	sub    $0x9864e321,%esi
  4059bc:	56                   	push   %esi
  4059bd:	a1 78 f0 41 00       	mov    0x41f078,%eax
  4059c2:	ff d0                	call   *%eax
  4059c4:	83 f8 00             	cmp    $0x0,%eax
  4059c7:	0f 85 45 65 00 00    	jne    0x40bf12
  4059cd:	83 35 20 30 42 00 06 	xorl   $0x6,0x423020
  4059d4:	8d 1d b2 15 a7 98    	lea    0x98a715b2,%ebx
  4059da:	81 eb 21 e3 64 98    	sub    $0x9864e321,%ebx
  4059e0:	53                   	push   %ebx
  4059e1:	8d 1d a3 15 a7 98    	lea    0x98a715a3,%ebx
  4059e7:	81 eb 21 e3 64 98    	sub    $0x9864e321,%ebx
  4059ed:	53                   	push   %ebx
  4059ee:	a1 84 f0 41 00       	mov    0x41f084,%eax
  4059f3:	ff d0                	call   *%eax
  4059f5:	c7 05 f8 31 42 00 ba 	movl   $0xba,0x4231f8
  4059fc:	00 00 00 
  4059ff:	ba 01 00 00 00       	mov    $0x1,%edx
  405a04:	01 da                	add    %ebx,%edx
  405a06:	21 3d 04 30 42 00    	and    %edi,0x423004
  405a0c:	6a 0f                	push   $0xf
  405a0e:	ff 0c 24             	decl   (%esp)
  405a11:	8d 05 95 15 a7 98    	lea    0x98a71595,%eax
  405a17:	2d 21 e3 64 98       	sub    $0x9864e321,%eax
  405a1c:	50                   	push   %eax
  405a1d:	8d 1d 83 15 a7 98    	lea    0x98a71583,%ebx
  405a23:	81 eb 21 e3 64 98    	sub    $0x9864e321,%ebx
  405a29:	53                   	push   %ebx
  405a2a:	a1 78 f0 41 00       	mov    0x41f078,%eax
  405a2f:	ff d0                	call   *%eax
  405a31:	85 c0                	test   %eax,%eax
  405a33:	0f 85 d9 64 00 00    	jne    0x40bf12
  405a39:	0b 05 51 31 42 00    	or     0x423151,%eax
  405a3f:	13 05 ed 30 42 00    	adc    0x4230ed,%eax
  405a45:	31 c3                	xor    %eax,%ebx
  405a47:	8d 1d b2 15 a7 98    	lea    0x98a715b2,%ebx
  405a4d:	81 eb 21 e3 64 98    	sub    $0x9864e321,%ebx
  405a53:	53                   	push   %ebx
  405a54:	8d 05 a3 15 a7 98    	lea    0x98a715a3,%eax
  405a5a:	2d 21 e3 64 98       	sub    $0x9864e321,%eax
  405a5f:	50                   	push   %eax
  405a60:	a1 84 f0 41 00       	mov    0x41f084,%eax
  405a65:	ff d0                	call   *%eax
  405a67:	b9 01 00 00 00       	mov    $0x1,%ecx
  405a6c:	01 c1                	add    %eax,%ecx
  405a6e:	0b 3d 16 30 42 00    	or     0x423016,%edi
  405a74:	83 c3 a4             	add    $0xffffffa4,%ebx
  405a77:	13 3d 8c 31 42 00    	adc    0x42318c,%edi
  405a7d:	8d 35 b2 15 a7 98    	lea    0x98a715b2,%esi
  405a83:	81 ee 21 e3 64 98    	sub    $0x9864e321,%esi
  405a89:	56                   	push   %esi
  405a8a:	8d 15 a3 15 a7 98    	lea    0x98a715a3,%edx
  405a90:	81 ea 21 e3 64 98    	sub    $0x9864e321,%edx
  405a96:	52                   	push   %edx
  405a97:	a1 84 f0 41 00       	mov    0x41f084,%eax
  405a9c:	ff d0                	call   *%eax
  405a9e:	21 05 c7 31 42 00    	and    %eax,0x4231c7
  405aa4:	19 ff                	sbb    %edi,%edi
  405aa6:	83 15 b7 30 42 00 17 	adcl   $0x17,0x4230b7
  405aad:	b9 01 00 00 00       	mov    $0x1,%ecx
  405ab2:	83 c1 af             	add    $0xffffffaf,%ecx
  405ab5:	82 2d 2a 31 42 00 37 	subb   $0x37,0x42312a
  405abc:	2e e9 8e 5f 00 00    	cs jmp 0x40ba50
  405ac2:	12 25 fc 30 42 00    	adc    0x4230fc,%ah
  405ac8:	31 35 6b 31 42 00    	xor    %esi,0x42316b
  405ace:	83 c8 61             	or     $0x61,%eax
  405ad1:	00 00                	add    %al,(%eax)
  405ad3:	00 8d 1d b2 15 a7    	add    %cl,-0x58ea4de3(%ebp)
  405ad9:	98                   	cwtl
  405ada:	81 eb 21 e3 64 98    	sub    $0x9864e321,%ebx
  405ae0:	53                   	push   %ebx
  405ae1:	8d 15 a3 15 a7 98    	lea    0x98a715a3,%edx
  405ae7:	81 ea 21 e3 64 98    	sub    $0x9864e321,%edx
  405aed:	52                   	push   %edx
  405aee:	a1 84 f0 41 00       	mov    0x41f084,%eax
  405af3:	ff d0                	call   *%eax
  405af5:	ba 01 00 00 00       	mov    $0x1,%edx
  405afa:	83 c2 87             	add    $0xffffff87,%edx
  405afd:	81 15 4d 30 42 00 d2 	adcl   $0xd2,0x42304d
  405b04:	00 00 00 
  405b07:	0b 15 3a 30 42 00    	or     0x42303a,%edx
  405b0d:	82 2d 37 30 42 00 28 	subb   $0x28,0x423037
  405b14:	6a 0f                	push   $0xf
  405b16:	ff 0c 24             	decl   (%esp)
  405b19:	8d 15 95 15 a7 98    	lea    0x98a71595,%edx
  405b1f:	81 ea 21 e3 64 98    	sub    $0x9864e321,%edx
  405b25:	52                   	push   %edx
  405b26:	8d 3d 83 15 a7 98    	lea    0x98a71583,%edi
  405b2c:	81 ef 21 e3 64 98    	sub    $0x9864e321,%edi
  405b32:	57                   	push   %edi
  405b33:	a1 78 f0 41 00       	mov    0x41f078,%eax
  405b38:	ff d0                	call   *%eax
  405b3a:	85 c0                	test   %eax,%eax
  405b3c:	0f 85 d0 63 00 00    	jne    0x40bf12
  405b42:	ba 01 00 00 00       	mov    $0x1,%edx
  405b47:	83 c2 7e             	add    $0x7e,%edx
  405b4a:	83 15 d3 30 42 00 6a 	adcl   $0x6a,0x4230d3
  405b51:	01 15 3e 30 42 00    	add    %edx,0x42303e
  405b57:	6a 0f                	push   $0xf
  405b59:	ff 0c 24             	decl   (%esp)
  405b5c:	8d 35 95 15 a7 98    	lea    0x98a71595,%esi
  405b62:	81 ee 21 e3 64 98    	sub    $0x9864e321,%esi
  405b68:	56                   	push   %esi
  405b69:	8d 0d 83 15 a7 98    	lea    0x98a71583,%ecx
  405b6f:	81 e9 21 e3 64 98    	sub    $0x9864e321,%ecx
  405b75:	51                   	push   %ecx
  405b76:	a1 78 f0 41 00       	mov    0x41f078,%eax
  405b7b:	ff d0                	call   *%eax
  405b7d:	85 c0                	test   %eax,%eax
  405b7f:	0f 85 8d 63 00 00    	jne    0x40bf12
  405b85:	8d 3d b2 15 a7 98    	lea    0x98a715b2,%edi
  405b8b:	81 ef 21 e3 64 98    	sub    $0x9864e321,%edi
  405b91:	57                   	push   %edi
  405b92:	8d 0d a3 15 a7 98    	lea    0x98a715a3,%ecx
  405b98:	81 e9 21 e3 64 98    	sub    $0x9864e321,%ecx
  405b9e:	51                   	push   %ecx
  405b9f:	a1 84 f0 41 00       	mov    0x41f084,%eax
  405ba4:	ff d0                	call   *%eax
  405ba6:	19 f3                	sbb    %esi,%ebx
  405ba8:	8d 0d b2 15 a7 98    	lea    0x98a715b2,%ecx
  405bae:	81 e9 21 e3 64 98    	sub    $0x9864e321,%ecx
  405bb4:	51                   	push   %ecx
  405bb5:	8d 15 a3 15 a7 98    	lea    0x98a715a3,%edx
  405bbb:	81 ea 21 e3 64 98    	sub    $0x9864e321,%edx
  405bc1:	52                   	push   %edx
  405bc2:	a1 84 f0 41 00       	mov    0x41f084,%eax
  405bc7:	ff d0                	call   *%eax
  405bc9:	6a 0f                	push   $0xf
  405bcb:	ff 0c 24             	decl   (%esp)
  405bce:	8d 3d 95 15 a7 98    	lea    0x98a71595,%edi
  405bd4:	81 ef 21 e3 64 98    	sub    $0x9864e321,%edi
  405bda:	57                   	push   %edi
  405bdb:	8d 0d 83 15 a7 98    	lea    0x98a71583,%ecx
  405be1:	81 e9 21 e3 64 98    	sub    $0x9864e321,%ecx
  405be7:	51                   	push   %ecx
  405be8:	a1 78 f0 41 00       	mov    0x41f078,%eax
  405bed:	ff d0                	call   *%eax
  405bef:	85 c0                	test   %eax,%eax
  405bf1:	0f 85 1b 63 00 00    	jne    0x40bf12
  405bf7:	13 05 2b 31 42 00    	adc    0x42312b,%eax
  405bfd:	83 35 cf 31 42 00 50 	xorl   $0x50,0x4231cf
  405c04:	83 f6 e7             	xor    $0xffffffe7,%esi
  405c07:	ba 01 00 00 00       	mov    $0x1,%edx
  405c0c:	01 f2                	add    %esi,%edx
  405c0e:	8d 05 b2 15 a7 98    	lea    0x98a715b2,%eax
  405c14:	2d 21 e3 64 98       	sub    $0x9864e321,%eax
  405c19:	50                   	push   %eax
  405c1a:	8d 3d a3 15 a7 98    	lea    0x98a715a3,%edi
  405c20:	81 ef 21 e3 64 98    	sub    $0x9864e321,%edi
  405c26:	57                   	push   %edi
  405c27:	a1 84 f0 41 00       	mov    0x41f084,%eax
  405c2c:	ff d0                	call   *%eax
  405c2e:	83 25 0f 30 42 00 33 	andl   $0x33,0x42300f
  405c35:	8d 35 b2 15 a7 98    	lea    0x98a715b2,%esi
  405c3b:	81 ee 21 e3 64 98    	sub    $0x9864e321,%esi
  405c41:	56                   	push   %esi
  405c42:	8d 1d a3 15 a7 98    	lea    0x98a715a3,%ebx
  405c48:	81 eb 21 e3 64 98    	sub    $0x9864e321,%ebx
  405c4e:	53                   	push   %ebx
  405c4f:	a1 84 f0 41 00       	mov    0x41f084,%eax
  405c54:	ff d0                	call   *%eax
  405c56:	13 35 9b 30 42 00    	adc    0x42309b,%esi
  405c5c:	01 35 d8 30 42 00    	add    %esi,0x4230d8
  405c62:	31 c6                	xor    %eax,%esi
  405c64:	19 05 fc 30 42 00    	sbb    %eax,0x4230fc
  405c6a:	6a 0f                	push   $0xf
  405c6c:	ff 0c 24             	decl   (%esp)
  405c6f:	8d 1d 95 15 a7 98    	lea    0x98a71595,%ebx
  405c75:	81 eb 21 e3 64 98    	sub    $0x9864e321,%ebx
  405c7b:	53                   	push   %ebx
  405c7c:	8d 15 83 15 a7 98    	lea    0x98a71583,%edx
  405c82:	81 ea 21 e3 64 98    	sub    $0x9864e321,%edx
  405c88:	52                   	push   %edx
  405c89:	a1 78 f0 41 00       	mov    0x41f078,%eax
  405c8e:	ff d0                	call   *%eax
  405c90:	83 f8 00             	cmp    $0x0,%eax
  405c93:	0f 85 79 62 00 00    	jne    0x40bf12
  405c99:	b9 01 00 00 00       	mov    $0x1,%ecx
  405c9e:	83 c1 d0             	add    $0xffffffd0,%ecx
  405ca1:	2a 1d 4e 30 42 00    	sub    0x42304e,%bl
  405ca7:	19 35 fe 30 42 00    	sbb    %esi,0x4230fe
  405cad:	13 0d cf 30 42 00    	adc    0x4230cf,%ecx
  405cb3:	8d 15 b2 15 a7 98    	lea    0x98a715b2,%edx
  405cb9:	81 ea 21 e3 64 98    	sub    $0x9864e321,%edx
  405cbf:	52                   	push   %edx
  405cc0:	8d 3d a3 15 a7 98    	lea    0x98a715a3,%edi
  405cc6:	81 ef 21 e3 64 98    	sub    $0x9864e321,%edi
  405ccc:	57                   	push   %edi
  405ccd:	a1 84 f0 41 00       	mov    0x41f084,%eax
  405cd2:	ff d0                	call   *%eax
  405cd4:	2e e9 76 5d 00 00    	cs jmp 0x40ba50
  405cda:	00 00                	add    %al,(%eax)
  405cdc:	00 00                	add    %al,(%eax)
  405cde:	00 00                	add    %al,(%eax)
  405ce0:	00 b9 01 00 00 00    	add    %bh,0x1(%ecx)
  405ce6:	83 c1 bd             	add    $0xffffffbd,%ecx
  405ce9:	83 e0 96             	and    $0xffffff96,%eax
  405cec:	8d 35 b2 15 a7 98    	lea    0x98a715b2,%esi
  405cf2:	81 ee 21 e3 64 98    	sub    $0x9864e321,%esi
  405cf8:	56                   	push   %esi
  405cf9:	8d 15 a3 15 a7 98    	lea    0x98a715a3,%edx
  405cff:	81 ea 21 e3 64 98    	sub    $0x9864e321,%edx
  405d05:	52                   	push   %edx
  405d06:	a1 84 f0 41 00       	mov    0x41f084,%eax
  405d0b:	ff d0                	call   *%eax
  405d0d:	83 15 11 30 42 00 43 	adcl   $0x43,0x423011
  405d14:	31 3d 3f 30 42 00    	xor    %edi,0x42303f
  405d1a:	31 35 b8 30 42 00    	xor    %esi,0x4230b8
  405d20:	0a 1d e0 31 42 00    	or     0x4231e0,%bl
  405d26:	11 1d c1 30 42 00    	adc    %ebx,0x4230c1
  405d2c:	6a 0f                	push   $0xf
  405d2e:	ff 0c 24             	decl   (%esp)
  405d31:	8d 1d 95 15 a7 98    	lea    0x98a71595,%ebx
  405d37:	81 eb 21 e3 64 98    	sub    $0x9864e321,%ebx
  405d3d:	53                   	push   %ebx
  405d3e:	8d 15 83 15 a7 98    	lea    0x98a71583,%edx
  405d44:	81 ea 21 e3 64 98    	sub    $0x9864e321,%edx
  405d4a:	52                   	push   %edx
  405d4b:	a1 78 f0 41 00       	mov    0x41f078,%eax
  405d50:	ff d0                	call   *%eax
  405d52:	83 f8 00             	cmp    $0x0,%eax
  405d55:	0f 85 b7 61 00 00    	jne    0x40bf12
  405d5b:	8d 15 b2 15 a7 98    	lea    0x98a715b2,%edx
  405d61:	81 ea 21 e3 64 98    	sub    $0x9864e321,%edx
  405d67:	52                   	push   %edx
  405d68:	8d 3d a3 15 a7 98    	lea    0x98a715a3,%edi
  405d6e:	81 ef 21 e3 64 98    	sub    $0x9864e321,%edi
  405d74:	57                   	push   %edi
  405d75:	a1 84 f0 41 00       	mov    0x41f084,%eax
  405d7a:	ff d0                	call   *%eax
  405d7c:	6a 0f                	push   $0xf
  405d7e:	ff 0c 24             	decl   (%esp)
  405d81:	8d 05 95 15 a7 98    	lea    0x98a71595,%eax
  405d87:	2d 21 e3 64 98       	sub    $0x9864e321,%eax
  405d8c:	50                   	push   %eax
  405d8d:	8d 15 83 15 a7 98    	lea    0x98a71583,%edx
  405d93:	81 ea 21 e3 64 98    	sub    $0x9864e321,%edx
  405d99:	52                   	push   %edx
  405d9a:	a1 78 f0 41 00       	mov    0x41f078,%eax
  405d9f:	ff d0                	call   *%eax
  405da1:	85 c0                	test   %eax,%eax
  405da3:	0f 85 69 61 00 00    	jne    0x40bf12
  405da9:	83 f0 0e             	xor    $0xe,%eax
  405dac:	6a 0f                	push   $0xf
  405dae:	ff 0c 24             	decl   (%esp)
  405db1:	8d 1d 95 15 a7 98    	lea    0x98a71595,%ebx
  405db7:	81 eb 21 e3 64 98    	sub    $0x9864e321,%ebx
  405dbd:	53                   	push   %ebx
  405dbe:	8d 1d 83 15 a7 98    	lea    0x98a71583,%ebx
  405dc4:	81 eb 21 e3 64 98    	sub    $0x9864e321,%ebx
  405dca:	53                   	push   %ebx
  405dcb:	a1 78 f0 41 00       	mov    0x41f078,%eax
  405dd0:	ff d0                	call   *%eax
  405dd2:	85 c0                	test   %eax,%eax
  405dd4:	0f 85 38 61 00 00    	jne    0x40bf12
  405dda:	19 de                	sbb    %ebx,%esi
  405ddc:	83 cf 8c             	or     $0xffffff8c,%edi
  405ddf:	0a 1d a4 30 42 00    	or     0x4230a4,%bl
  405de5:	6a 0f                	push   $0xf
  405de7:	ff 0c 24             	decl   (%esp)
  405dea:	8d 0d 95 15 a7 98    	lea    0x98a71595,%ecx
  405df0:	81 e9 21 e3 64 98    	sub    $0x9864e321,%ecx
  405df6:	51                   	push   %ecx
  405df7:	8d 1d 83 15 a7 98    	lea    0x98a71583,%ebx
  405dfd:	81 eb 21 e3 64 98    	sub    $0x9864e321,%ebx
  405e03:	53                   	push   %ebx
  405e04:	a1 78 f0 41 00       	mov    0x41f078,%eax
  405e09:	ff d0                	call   *%eax
  405e0b:	83 f8 00             	cmp    $0x0,%eax
  405e0e:	0f 85 fe 60 00 00    	jne    0x40bf12
  405e14:	83 d8 43             	sbb    $0x43,%eax
  405e17:	13 05 8f 31 42 00    	adc    0x42318f,%eax
  405e1d:	6a 0f                	push   $0xf
  405e1f:	ff 0c 24             	decl   (%esp)
  405e22:	8d 1d 95 15 a7 98    	lea    0x98a71595,%ebx
  405e28:	81 eb 21 e3 64 98    	sub    $0x9864e321,%ebx
  405e2e:	53                   	push   %ebx
  405e2f:	8d 0d 83 15 a7 98    	lea    0x98a71583,%ecx
  405e35:	81 e9 21 e3 64 98    	sub    $0x9864e321,%ecx
  405e3b:	51                   	push   %ecx
  405e3c:	a1 78 f0 41 00       	mov    0x41f078,%eax
  405e41:	ff d0                	call   *%eax
  405e43:	85 c0                	test   %eax,%eax
  405e45:	0f 85 c7 60 00 00    	jne    0x40bf12
  405e4b:	82 df a8             	sbb    $0xa8,%bh
  405e4e:	6a 0f                	push   $0xf
  405e50:	ff 0c 24             	decl   (%esp)
  405e53:	8d 05 95 15 a7 98    	lea    0x98a71595,%eax
  405e59:	2d 21 e3 64 98       	sub    $0x9864e321,%eax
  405e5e:	50                   	push   %eax
  405e5f:	8d 35 83 15 a7 98    	lea    0x98a71583,%esi
  405e65:	81 ee 21 e3 64 98    	sub    $0x9864e321,%esi
  405e6b:	56                   	push   %esi
  405e6c:	a1 78 f0 41 00       	mov    0x41f078,%eax
  405e71:	ff d0                	call   *%eax
  405e73:	85 c0                	test   %eax,%eax
  405e75:	0f 85 97 60 00 00    	jne    0x40bf12
  405e7b:	09 35 f9 30 42 00    	or     %esi,0x4230f9
  405e81:	8d 15 b2 15 a7 98    	lea    0x98a715b2,%edx
  405e87:	81 ea 21 e3 64 98    	sub    $0x9864e321,%edx
  405e8d:	52                   	push   %edx
  405e8e:	8d 0d a3 15 a7 98    	lea    0x98a715a3,%ecx
  405e94:	81 e9 21 e3 64 98    	sub    $0x9864e321,%ecx
  405e9a:	51                   	push   %ecx
  405e9b:	a1 84 f0 41 00       	mov    0x41f084,%eax
  405ea0:	ff d0                	call   *%eax
  405ea2:	83 0d 44 31 42 00 4d 	orl    $0x4d,0x423144
  405ea9:	01 f3                	add    %esi,%ebx
  405eab:	8d 05 b2 15 a7 98    	lea    0x98a715b2,%eax
  405eb1:	2d 21 e3 64 98       	sub    $0x9864e321,%eax
  405eb6:	50                   	push   %eax
  405eb7:	8d 3d a3 15 a7 98    	lea    0x98a715a3,%edi
  405ebd:	81 ef 21 e3 64 98    	sub    $0x9864e321,%edi
  405ec3:	57                   	push   %edi
  405ec4:	a1 84 f0 41 00       	mov    0x41f084,%eax
  405ec9:	ff d0                	call   *%eax
  405ecb:	1c a2                	sbb    $0xa2,%al
  405ecd:	b9 01 00 00 00       	mov    $0x1,%ecx
  405ed2:	83 c1 d4             	add    $0xffffffd4,%ecx
  405ed5:	13 35 66 31 42 00    	adc    0x423166,%esi
  405edb:	2e e9 6f 5b 00 00    	cs jmp 0x40ba50
  405ee1:	0b 3d a7 30 42 00    	or     0x4230a7,%edi
  405ee7:	09 0d a0 31 42 00    	or     %ecx,0x4231a0
  405eed:	31 1d cf 31 42 00    	xor    %ebx,0x4231cf
  405ef3:	83 df b3             	sbb    $0xffffffb3,%edi
  405ef6:	ba 01 00 00 00       	mov    $0x1,%edx
  405efb:	01 f2                	add    %esi,%edx
	...
  405f09:	00 83 f6 81 8d 05    	add    %al,0x58d81f6(%ebx)
  405f0f:	b2 15                	mov    $0x15,%dl
  405f11:	a7                   	cmpsl  %es:(%edi),%ds:(%esi)
  405f12:	98                   	cwtl
  405f13:	2d 21 e3 64 98       	sub    $0x9864e321,%eax
  405f18:	50                   	push   %eax
  405f19:	8d 0d a3 15 a7 98    	lea    0x98a715a3,%ecx
  405f1f:	81 e9 21 e3 64 98    	sub    $0x9864e321,%ecx
  405f25:	51                   	push   %ecx
  405f26:	a1 84 f0 41 00       	mov    0x41f084,%eax
  405f2b:	ff d0                	call   *%eax
  405f2d:	c7 05 d0 30 42 00 0e 	movl   $0xe,0x4230d0
  405f34:	00 00 00 
  405f37:	8d 15 b2 15 a7 98    	lea    0x98a715b2,%edx
  405f3d:	81 ea 21 e3 64 98    	sub    $0x9864e321,%edx
  405f43:	52                   	push   %edx
  405f44:	8d 05 a3 15 a7 98    	lea    0x98a715a3,%eax
  405f4a:	2d 21 e3 64 98       	sub    $0x9864e321,%eax
  405f4f:	50                   	push   %eax
  405f50:	a1 84 f0 41 00       	mov    0x41f084,%eax
  405f55:	ff d0                	call   *%eax
  405f57:	12 25 63 31 42 00    	adc    0x423163,%ah
  405f5d:	83 35 a4 30 42 00 5e 	xorl   $0x5e,0x4230a4
  405f64:	12 1d 29 30 42 00    	adc    0x423029,%bl
  405f6a:	6a 0f                	push   $0xf
  405f6c:	ff 0c 24             	decl   (%esp)
  405f6f:	8d 35 95 15 a7 98    	lea    0x98a71595,%esi
  405f75:	81 ee 21 e3 64 98    	sub    $0x9864e321,%esi
  405f7b:	56                   	push   %esi
  405f7c:	8d 05 83 15 a7 98    	lea    0x98a71583,%eax
  405f82:	2d 21 e3 64 98       	sub    $0x9864e321,%eax
  405f87:	50                   	push   %eax
  405f88:	a1 78 f0 41 00       	mov    0x41f078,%eax
  405f8d:	ff d0                	call   *%eax
  405f8f:	83 f8 00             	cmp    $0x0,%eax
  405f92:	0f 85 7a 5f 00 00    	jne    0x40bf12
  405f98:	29 de                	sub    %ebx,%esi
  405f9a:	11 3d ad 30 42 00    	adc    %edi,0x4230ad
  405fa0:	83 1d e1 30 42 00 34 	sbbl   $0x34,0x4230e1
  405fa7:	6a 0f                	push   $0xf
  405fa9:	ff 0c 24             	decl   (%esp)
  405fac:	8d 35 95 15 a7 98    	lea    0x98a71595,%esi
  405fb2:	81 ee 21 e3 64 98    	sub    $0x9864e321,%esi
  405fb8:	56                   	push   %esi
  405fb9:	8d 0d 83 15 a7 98    	lea    0x98a71583,%ecx
  405fbf:	81 e9 21 e3 64 98    	sub    $0x9864e321,%ecx
  405fc5:	51                   	push   %ecx
  405fc6:	a1 78 f0 41 00       	mov    0x41f078,%eax
  405fcb:	ff d0                	call   *%eax
  405fcd:	85 c0                	test   %eax,%eax
  405fcf:	0f 85 3d 5f 00 00    	jne    0x40bf12
  405fd5:	21 05 62 31 42 00    	and    %eax,0x423162
  405fdb:	0b 35 b8 31 42 00    	or     0x4231b8,%esi
  405fe1:	31 05 4a 30 42 00    	xor    %eax,0x42304a
  405fe7:	8d 15 b2 15 a7 98    	lea    0x98a715b2,%edx
  405fed:	81 ea 21 e3 64 98    	sub    $0x9864e321,%edx
  405ff3:	52                   	push   %edx
  405ff4:	8d 3d a3 15 a7 98    	lea    0x98a715a3,%edi
  405ffa:	81 ef 21 e3 64 98    	sub    $0x9864e321,%edi
  406000:	57                   	push   %edi
  406001:	a1 84 f0 41 00       	mov    0x41f084,%eax
  406006:	ff d0                	call   *%eax
  406008:	09 1d de 30 42 00    	or     %ebx,0x4230de
  40600e:	11 fe                	adc    %edi,%esi
  406010:	83 c6 52             	add    $0x52,%esi
  406013:	6a 0f                	push   $0xf
  406015:	ff 0c 24             	decl   (%esp)
  406018:	8d 15 95 15 a7 98    	lea    0x98a71595,%edx
  40601e:	81 ea 21 e3 64 98    	sub    $0x9864e321,%edx
  406024:	52                   	push   %edx
  406025:	8d 05 83 15 a7 98    	lea    0x98a71583,%eax
  40602b:	2d 21 e3 64 98       	sub    $0x9864e321,%eax
  406030:	50                   	push   %eax
  406031:	a1 78 f0 41 00       	mov    0x41f078,%eax
  406036:	ff d0                	call   *%eax
  406038:	85 c0                	test   %eax,%eax
  40603a:	0f 85 d2 5e 00 00    	jne    0x40bf12
  406040:	11 35 b8 31 42 00    	adc    %esi,0x4231b8
  406046:	ba 01 00 00 00       	mov    $0x1,%edx
  40604b:	01 da                	add    %ebx,%edx
  40604d:	01 d0                	add    %edx,%eax
  40604f:	31 d7                	xor    %edx,%edi
  406051:	6a 0f                	push   $0xf
  406053:	ff 0c 24             	decl   (%esp)
  406056:	8d 15 95 15 a7 98    	lea    0x98a71595,%edx
  40605c:	81 ea 21 e3 64 98    	sub    $0x9864e321,%edx
  406062:	52                   	push   %edx
  406063:	8d 35 83 15 a7 98    	lea    0x98a71583,%esi
  406069:	81 ee 21 e3 64 98    	sub    $0x9864e321,%esi
  40606f:	56                   	push   %esi
  406070:	a1 78 f0 41 00       	mov    0x41f078,%eax
  406075:	ff d0                	call   *%eax
  406077:	83 f8 00             	cmp    $0x0,%eax
  40607a:	0f 85 92 5e 00 00    	jne    0x40bf12
  406080:	83 25 78 31 42 00 5a 	andl   $0x5a,0x423178
  406087:	8d 05 b2 15 a7 98    	lea    0x98a715b2,%eax
  40608d:	2d 21 e3 64 98       	sub    $0x9864e321,%eax
  406092:	50                   	push   %eax
  406093:	8d 05 a3 15 a7 98    	lea    0x98a715a3,%eax
  406099:	2d 21 e3 64 98       	sub    $0x9864e321,%eax
  40609e:	50                   	push   %eax
  40609f:	a1 84 f0 41 00       	mov    0x41f084,%eax
  4060a4:	ff d0                	call   *%eax
  4060a6:	2a 25 74 30 42 00    	sub    0x423074,%ah
  4060ac:	6a 0f                	push   $0xf
  4060ae:	ff 0c 24             	decl   (%esp)
  4060b1:	8d 0d 95 15 a7 98    	lea    0x98a71595,%ecx
  4060b7:	81 e9 21 e3 64 98    	sub    $0x9864e321,%ecx
  4060bd:	51                   	push   %ecx
  4060be:	8d 1d 83 15 a7 98    	lea    0x98a71583,%ebx
  4060c4:	81 eb 21 e3 64 98    	sub    $0x9864e321,%ebx
  4060ca:	53                   	push   %ebx
  4060cb:	a1 78 f0 41 00       	mov    0x41f078,%eax
  4060d0:	ff d0                	call   *%eax
  4060d2:	83 f8 00             	cmp    $0x0,%eax
  4060d5:	0f 85 37 5e 00 00    	jne    0x40bf12
  4060db:	83 c7 5f             	add    $0x5f,%edi
  4060de:	6a 0f                	push   $0xf
  4060e0:	ff 0c 24             	decl   (%esp)
  4060e3:	8d 3d 95 15 a7 98    	lea    0x98a71595,%edi
  4060e9:	81 ef 21 e3 64 98    	sub    $0x9864e321,%edi
  4060ef:	57                   	push   %edi
  4060f0:	8d 35 83 15 a7 98    	lea    0x98a71583,%esi
  4060f6:	81 ee 21 e3 64 98    	sub    $0x9864e321,%esi
  4060fc:	56                   	push   %esi
  4060fd:	a1 78 f0 41 00       	mov    0x41f078,%eax
  406102:	ff d0                	call   *%eax
  406104:	83 f8 00             	cmp    $0x0,%eax
  406107:	0f 85 05 5e 00 00    	jne    0x40bf12
  40610d:	13 05 3a 31 42 00    	adc    0x42313a,%eax
  406113:	81 25 cb 31 42 00 a5 	andl   $0xa5,0x4231cb
  40611a:	00 00 00 
  40611d:	01 fe                	add    %edi,%esi
  40611f:	b9 01 00 00 00       	mov    $0x1,%ecx
  406124:	83 c1 2d             	add    $0x2d,%ecx
  406127:	ba 01 00 00 00       	mov    $0x1,%edx
  40612c:	01 f2                	add    %esi,%edx
  40612e:	8d 1d b2 15 a7 98    	lea    0x98a715b2,%ebx
  406134:	81 eb 21 e3 64 98    	sub    $0x9864e321,%ebx
  40613a:	53                   	push   %ebx
  40613b:	8d 3d a3 15 a7 98    	lea    0x98a715a3,%edi
  406141:	81 ef 21 e3 64 98    	sub    $0x9864e321,%edi
  406147:	57                   	push   %edi
  406148:	a1 84 f0 41 00       	mov    0x41f084,%eax
  40614d:	ff d0                	call   *%eax
  40614f:	2e e9 fb 58 00 00    	cs jmp 0x40ba50
  406155:	b9 01 00 00 00       	mov    $0x1,%ecx
  40615a:	83 c1 cb             	add    $0xffffffcb,%ecx
  40615d:	82 dc 2b             	sbb    $0x2b,%ah
  406160:	81 15 25 30 42 00 90 	adcl   $0x90,0x423025
  406167:	00 00 00 
  40616a:	29 df                	sub    %ebx,%edi
  40616c:	00 00                	add    %al,(%eax)
  40616e:	00 6a 0f             	add    %ch,0xf(%edx)
  406171:	ff 0c 24             	decl   (%esp)
  406174:	8d 1d 95 15 a7 98    	lea    0x98a71595,%ebx
  40617a:	81 eb 21 e3 64 98    	sub    $0x9864e321,%ebx
  406180:	53                   	push   %ebx
  406181:	8d 15 83 15 a7 98    	lea    0x98a71583,%edx
  406187:	81 ea 21 e3 64 98    	sub    $0x9864e321,%edx
  40618d:	52                   	push   %edx
