
sample9:     file format pei-i386


Disassembly of section .text:

00401000 <.text>:
  401000:	00 2a                	add    %ch,(%edx)
  401002:	00 00                	add    %al,(%eax)
  401004:	03 00                	add    (%eax),%eax
  401006:	00 00                	add    %al,(%eax)
  401008:	04 00                	add    $0x0,%al
  40100a:	00 00                	add    %al,(%eax)
  40100c:	00 0f                	add    %cl,(%edi)
  40100e:	00 00                	add    %al,(%eax)
  401010:	28 00                	sub    %al,(%eax)
  401012:	00 00                	add    %al,(%eax)
  401014:	31 d2                	xor    %edx,%edx
  401016:	55                   	push   %ebp
  401017:	8d 0d 2b 01 00 00    	lea    0x12b,%ecx
  40101d:	89 e5                	mov    %esp,%ebp
  40101f:	6a 00                	push   $0x0
  401021:	8d 65 c4             	lea    -0x3c(%ebp),%esp
  401024:	66 81 fd 00 fe       	cmp    $0xfe00,%bp
  401029:	0f 82 81 a9 00 00    	jb     0x40b9b0
  40102f:	b8 01 00 00 00       	mov    $0x1,%eax
  401034:	13 05 d3 30 42 00    	adc    0x4230d3,%eax
  40103a:	8d 3d 83 17 a7 98    	lea    0x98a71783,%edi
  401040:	81 ef 21 e3 64 98    	sub    $0x9864e321,%edi
  401046:	57                   	push   %edi
  401047:	6a 01                	push   $0x1
  401049:	ff 0c 24             	decl   (%esp)
  40104c:	68 01 00 10 00       	push   $0x100001
  401051:	ff 0c 24             	decl   (%esp)
  401054:	a1 e8 f0 41 00       	mov    0x41f0e8,%eax
  401059:	ff d0                	call   *%eax
  40105b:	83 f8 00             	cmp    $0x0,%eax
  40105e:	0f 85 4c a9 00 00    	jne    0x40b9b0
  401064:	82 2d 18 30 42 00 99 	subb   $0x99,0x423018
  40106b:	8d 35 83 17 a7 98    	lea    0x98a71783,%esi
  401071:	81 ee 21 e3 64 98    	sub    $0x9864e321,%esi
  401077:	56                   	push   %esi
  401078:	6a 01                	push   $0x1
  40107a:	ff 0c 24             	decl   (%esp)
  40107d:	68 01 00 10 00       	push   $0x100001
  401082:	ff 0c 24             	decl   (%esp)
  401085:	a1 e8 f0 41 00       	mov    0x41f0e8,%eax
  40108a:	ff d0                	call   *%eax
  40108c:	83 f8 00             	cmp    $0x0,%eax
  40108f:	0f 85 1b a9 00 00    	jne    0x40b9b0
  401095:	bb 01 00 00 00       	mov    $0x1,%ebx
  40109a:	83 c3 07             	add    $0x7,%ebx
  40109d:	b9 01 00 00 00       	mov    $0x1,%ecx
  4010a2:	83 c1 43             	add    $0x43,%ecx
  4010a5:	bf 01 00 00 00       	mov    $0x1,%edi
  4010aa:	13 3d 49 31 42 00    	adc    0x423149,%edi
  4010b0:	13 3d 4f 31 42 00    	adc    0x42314f,%edi
  4010b6:	8d 1d 83 17 a7 98    	lea    0x98a71783,%ebx
  4010bc:	81 eb 21 e3 64 98    	sub    $0x9864e321,%ebx
  4010c2:	53                   	push   %ebx
  4010c3:	6a 01                	push   $0x1
  4010c5:	ff 0c 24             	decl   (%esp)
  4010c8:	68 01 00 10 00       	push   $0x100001
  4010cd:	ff 0c 24             	decl   (%esp)
  4010d0:	a1 e8 f0 41 00       	mov    0x41f0e8,%eax
  4010d5:	ff d0                	call   *%eax
  4010d7:	83 f8 00             	cmp    $0x0,%eax
  4010da:	0f 85 d0 a8 00 00    	jne    0x40b9b0
  4010e0:	8d 35 9b 17 a7 98    	lea    0x98a7179b,%esi
  4010e6:	81 ee 21 e3 64 98    	sub    $0x9864e321,%esi
  4010ec:	56                   	push   %esi
  4010ed:	8d 1d 90 17 a7 98    	lea    0x98a71790,%ebx
  4010f3:	81 eb 21 e3 64 98    	sub    $0x9864e321,%ebx
  4010f9:	53                   	push   %ebx
  4010fa:	a1 10 f1 41 00       	mov    0x41f110,%eax
  4010ff:	ff d0                	call   *%eax
  401101:	ba 01 00 00 00       	mov    $0x1,%edx
  401106:	83 c2 59             	add    $0x59,%edx
  401109:	8d 05 9b 17 a7 98    	lea    0x98a7179b,%eax
  40110f:	2d 21 e3 64 98       	sub    $0x9864e321,%eax
  401114:	50                   	push   %eax
  401115:	8d 3d 90 17 a7 98    	lea    0x98a71790,%edi
  40111b:	81 ef 21 e3 64 98    	sub    $0x9864e321,%edi
  401121:	57                   	push   %edi
  401122:	a1 10 f1 41 00       	mov    0x41f110,%eax
  401127:	ff d0                	call   *%eax
  401129:	21 3d e9 31 42 00    	and    %edi,0x4231e9
  40112f:	83 c7 ab             	add    $0xffffffab,%edi
  401132:	b5 01                	mov    $0x1,%ch
  401134:	82 c5 69             	add    $0x69,%ch
  401137:	29 1d 1e 30 42 00    	sub    %ebx,0x42301e
  40113d:	8d 3d 83 17 a7 98    	lea    0x98a71783,%edi
  401143:	81 ef 21 e3 64 98    	sub    $0x9864e321,%edi
  401149:	57                   	push   %edi
  40114a:	6a 01                	push   $0x1
  40114c:	ff 0c 24             	decl   (%esp)
  40114f:	68 01 00 10 00       	push   $0x100001
  401154:	ff 0c 24             	decl   (%esp)
  401157:	a1 e8 f0 41 00       	mov    0x41f0e8,%eax
  40115c:	ff d0                	call   *%eax
  40115e:	85 c0                	test   %eax,%eax
  401160:	0f 85 4a a8 00 00    	jne    0x40b9b0
  401166:	10 fb                	adc    %bh,%bl
  401168:	83 25 41 31 42 00 35 	andl   $0x35,0x423141
  40116f:	c7 05 81 30 42 00 1f 	movl   $0x1f,0x423081
  401176:	00 00 00 
  401179:	b9 01 00 00 00       	mov    $0x1,%ecx
  40117e:	13 0d bc 31 42 00    	adc    0x4231bc,%ecx
  401184:	ba 01 00 00 00       	mov    $0x1,%edx
  401189:	01 da                	add    %ebx,%edx
  40118b:	8d 0d 83 17 a7 98    	lea    0x98a71783,%ecx
  401191:	81 e9 21 e3 64 98    	sub    $0x9864e321,%ecx
  401197:	51                   	push   %ecx
  401198:	6a 01                	push   $0x1
  40119a:	ff 0c 24             	decl   (%esp)
  40119d:	68 01 00 10 00       	push   $0x100001
  4011a2:	ff 0c 24             	decl   (%esp)
  4011a5:	a1 e8 f0 41 00       	mov    0x41f0e8,%eax
  4011aa:	ff d0                	call   *%eax
  4011ac:	85 c0                	test   %eax,%eax
  4011ae:	0f 85 fc a7 00 00    	jne    0x40b9b0
  4011b4:	29 3d 9e 30 42 00    	sub    %edi,0x42309e
  4011ba:	b9 01 00 00 00       	mov    $0x1,%ecx
  4011bf:	13 0d 10 31 42 00    	adc    0x423110,%ecx
  4011c5:	ba 01 00 00 00       	mov    $0x1,%edx
  4011ca:	13 15 e0 30 42 00    	adc    0x4230e0,%edx
  4011d0:	be 01 00 00 00       	mov    $0x1,%esi
  4011d5:	01 d6                	add    %edx,%esi
  4011d7:	8d 35 9b 17 a7 98    	lea    0x98a7179b,%esi
  4011dd:	81 ee 21 e3 64 98    	sub    $0x9864e321,%esi
  4011e3:	56                   	push   %esi
  4011e4:	8d 05 90 17 a7 98    	lea    0x98a71790,%eax
  4011ea:	2d 21 e3 64 98       	sub    $0x9864e321,%eax
  4011ef:	50                   	push   %eax
  4011f0:	a1 10 f1 41 00       	mov    0x41f110,%eax
  4011f5:	ff d0                	call   *%eax
  4011f7:	8d 3d 9b 17 a7 98    	lea    0x98a7179b,%edi
  4011fd:	81 ef 21 e3 64 98    	sub    $0x9864e321,%edi
  401203:	57                   	push   %edi
  401204:	8d 05 90 17 a7 98    	lea    0x98a71790,%eax
  40120a:	2d 21 e3 64 98       	sub    $0x9864e321,%eax
  40120f:	50                   	push   %eax
  401210:	a1 10 f1 41 00       	mov    0x41f110,%eax
  401215:	ff d0                	call   *%eax
  401217:	09 3d 49 30 42 00    	or     %edi,0x423049
  40121d:	21 3d 75 31 42 00    	and    %edi,0x423175
  401223:	8d 35 9b 17 a7 98    	lea    0x98a7179b,%esi
  401229:	81 ee 21 e3 64 98    	sub    $0x9864e321,%esi
  40122f:	56                   	push   %esi
  401230:	8d 0d 90 17 a7 98    	lea    0x98a71790,%ecx
  401236:	81 e9 21 e3 64 98    	sub    $0x9864e321,%ecx
  40123c:	51                   	push   %ecx
  40123d:	a1 10 f1 41 00       	mov    0x41f110,%eax
  401242:	ff d0                	call   *%eax
  401244:	11 35 61 31 42 00    	adc    %esi,0x423161
  40124a:	11 1d 0d 30 42 00    	adc    %ebx,0x42300d
  401250:	8d 0d 83 17 a7 98    	lea    0x98a71783,%ecx
  401256:	81 e9 21 e3 64 98    	sub    $0x9864e321,%ecx
  40125c:	51                   	push   %ecx
  40125d:	6a 01                	push   $0x1
  40125f:	ff 0c 24             	decl   (%esp)
  401262:	68 01 00 10 00       	push   $0x100001
  401267:	ff 0c 24             	decl   (%esp)
  40126a:	a1 e8 f0 41 00       	mov    0x41f0e8,%eax
  40126f:	ff d0                	call   *%eax
  401271:	83 f8 00             	cmp    $0x0,%eax
  401274:	0f 85 36 a7 00 00    	jne    0x40b9b0
  40127a:	01 35 23 31 42 00    	add    %esi,0x423123
  401280:	09 05 9d 31 42 00    	or     %eax,0x42319d
  401286:	b9 01 00 00 00       	mov    $0x1,%ecx
  40128b:	01 f1                	add    %esi,%ecx
  40128d:	8d 3d 9b 17 a7 98    	lea    0x98a7179b,%edi
  401293:	81 ef 21 e3 64 98    	sub    $0x9864e321,%edi
  401299:	57                   	push   %edi
  40129a:	8d 05 90 17 a7 98    	lea    0x98a71790,%eax
  4012a0:	2d 21 e3 64 98       	sub    $0x9864e321,%eax
  4012a5:	50                   	push   %eax
  4012a6:	a1 10 f1 41 00       	mov    0x41f110,%eax
  4012ab:	ff d0                	call   *%eax
  4012ad:	b9 01 00 00 00       	mov    $0x1,%ecx
  4012b2:	13 0d 5c 30 42 00    	adc    0x42305c,%ecx
  4012b8:	2e e9 1c a2 00 00    	cs jmp 0x40b4da
  4012be:	83 e1 23             	and    $0x23,%ecx
  4012c1:	00 25 4e 31 42 00    	add    %ah,0x42314e
  4012c7:	83 d8 3a             	sbb    $0x3a,%eax
  4012ca:	ba 01 00 00 00       	mov    $0x1,%edx
  4012cf:	83 c2 d2             	add    $0xffffffd2,%edx
	...
  4012de:	00 00                	add    %al,(%eax)
  4012e0:	00 8d 05 9b 17 a7    	add    %cl,-0x58e864fb(%ebp)
  4012e6:	98                   	cwtl
  4012e7:	2d 21 e3 64 98       	sub    $0x9864e321,%eax
  4012ec:	50                   	push   %eax
  4012ed:	8d 0d 90 17 a7 98    	lea    0x98a71790,%ecx
  4012f3:	81 e9 21 e3 64 98    	sub    $0x9864e321,%ecx
  4012f9:	51                   	push   %ecx
  4012fa:	a1 10 f1 41 00       	mov    0x41f110,%eax
  4012ff:	ff d0                	call   *%eax
  401301:	29 05 25 30 42 00    	sub    %eax,0x423025
  401307:	8d 35 9b 17 a7 98    	lea    0x98a7179b,%esi
  40130d:	81 ee 21 e3 64 98    	sub    $0x9864e321,%esi
  401313:	56                   	push   %esi
  401314:	8d 3d 90 17 a7 98    	lea    0x98a71790,%edi
  40131a:	81 ef 21 e3 64 98    	sub    $0x9864e321,%edi
  401320:	57                   	push   %edi
  401321:	a1 10 f1 41 00       	mov    0x41f110,%eax
  401326:	ff d0                	call   *%eax
  401328:	83 25 08 31 42 00 77 	andl   $0x77,0x423108
  40132f:	01 1d 86 30 42 00    	add    %ebx,0x423086
  401335:	81 15 e6 31 42 00 d0 	adcl   $0xd0,0x4231e6
  40133c:	00 00 00 
  40133f:	ba 01 00 00 00       	mov    $0x1,%edx
  401344:	13 15 79 30 42 00    	adc    0x423079,%edx
  40134a:	11 3d 51 31 42 00    	adc    %edi,0x423151
  401350:	8d 35 83 17 a7 98    	lea    0x98a71783,%esi
  401356:	81 ee 21 e3 64 98    	sub    $0x9864e321,%esi
  40135c:	56                   	push   %esi
  40135d:	6a 01                	push   $0x1
  40135f:	ff 0c 24             	decl   (%esp)
  401362:	68 01 00 10 00       	push   $0x100001
  401367:	ff 0c 24             	decl   (%esp)
  40136a:	a1 e8 f0 41 00       	mov    0x41f0e8,%eax
  40136f:	ff d0                	call   *%eax
  401371:	83 f8 00             	cmp    $0x0,%eax
  401374:	0f 85 36 a6 00 00    	jne    0x40b9b0
  40137a:	8d 1d 83 17 a7 98    	lea    0x98a71783,%ebx
  401380:	81 eb 21 e3 64 98    	sub    $0x9864e321,%ebx
  401386:	53                   	push   %ebx
  401387:	6a 01                	push   $0x1
  401389:	ff 0c 24             	decl   (%esp)
  40138c:	68 01 00 10 00       	push   $0x100001
  401391:	ff 0c 24             	decl   (%esp)
  401394:	a1 e8 f0 41 00       	mov    0x41f0e8,%eax
  401399:	ff d0                	call   *%eax
  40139b:	85 c0                	test   %eax,%eax
  40139d:	0f 85 0d a6 00 00    	jne    0x40b9b0
  4013a3:	83 1d 7b 31 42 00 46 	sbbl   $0x46,0x42317b
  4013aa:	8d 1d 83 17 a7 98    	lea    0x98a71783,%ebx
  4013b0:	81 eb 21 e3 64 98    	sub    $0x9864e321,%ebx
  4013b6:	53                   	push   %ebx
  4013b7:	6a 01                	push   $0x1
  4013b9:	ff 0c 24             	decl   (%esp)
  4013bc:	68 01 00 10 00       	push   $0x100001
  4013c1:	ff 0c 24             	decl   (%esp)
  4013c4:	a1 e8 f0 41 00       	mov    0x41f0e8,%eax
  4013c9:	ff d0                	call   *%eax
  4013cb:	85 c0                	test   %eax,%eax
  4013cd:	0f 85 dd a5 00 00    	jne    0x40b9b0
  4013d3:	21 3d f9 31 42 00    	and    %edi,0x4231f9
  4013d9:	31 3d f5 31 42 00    	xor    %edi,0x4231f5
  4013df:	83 15 a6 31 42 00 3d 	adcl   $0x3d,0x4231a6
  4013e6:	8d 35 83 17 a7 98    	lea    0x98a71783,%esi
  4013ec:	81 ee 21 e3 64 98    	sub    $0x9864e321,%esi
  4013f2:	56                   	push   %esi
  4013f3:	6a 01                	push   $0x1
  4013f5:	ff 0c 24             	decl   (%esp)
  4013f8:	68 01 00 10 00       	push   $0x100001
  4013fd:	ff 0c 24             	decl   (%esp)
  401400:	a1 e8 f0 41 00       	mov    0x41f0e8,%eax
  401405:	ff d0                	call   *%eax
  401407:	85 c0                	test   %eax,%eax
  401409:	0f 85 a1 a5 00 00    	jne    0x40b9b0
  40140f:	83 c3 20             	add    $0x20,%ebx
  401412:	21 1d 97 31 42 00    	and    %ebx,0x423197
  401418:	01 05 c4 30 42 00    	add    %eax,0x4230c4
  40141e:	19 f8                	sbb    %edi,%eax
  401420:	83 eb b6             	sub    $0xffffffb6,%ebx
  401423:	8d 35 9b 17 a7 98    	lea    0x98a7179b,%esi
  401429:	81 ee 21 e3 64 98    	sub    $0x9864e321,%esi
  40142f:	56                   	push   %esi
  401430:	8d 05 90 17 a7 98    	lea    0x98a71790,%eax
  401436:	2d 21 e3 64 98       	sub    $0x9864e321,%eax
  40143b:	50                   	push   %eax
  40143c:	a1 10 f1 41 00       	mov    0x41f110,%eax
  401441:	ff d0                	call   *%eax
  401443:	13 35 da 31 42 00    	adc    0x4231da,%esi
  401449:	8d 05 9b 17 a7 98    	lea    0x98a7179b,%eax
  40144f:	2d 21 e3 64 98       	sub    $0x9864e321,%eax
  401454:	50                   	push   %eax
  401455:	8d 35 90 17 a7 98    	lea    0x98a71790,%esi
  40145b:	81 ee 21 e3 64 98    	sub    $0x9864e321,%esi
  401461:	56                   	push   %esi
  401462:	a1 10 f1 41 00       	mov    0x41f110,%eax
  401467:	ff d0                	call   *%eax
  401469:	18 25 aa 31 42 00    	sbb    %ah,0x4231aa
  40146f:	ba 01 00 00 00       	mov    $0x1,%edx
  401474:	01 c2                	add    %eax,%edx
  401476:	83 cb 08             	or     $0x8,%ebx
  401479:	83 15 99 31 42 00 7d 	adcl   $0x7d,0x423199
  401480:	09 15 68 31 42 00    	or     %edx,0x423168
  401486:	8d 0d 9b 17 a7 98    	lea    0x98a7179b,%ecx
  40148c:	81 e9 21 e3 64 98    	sub    $0x9864e321,%ecx
  401492:	51                   	push   %ecx
  401493:	8d 35 90 17 a7 98    	lea    0x98a71790,%esi
  401499:	81 ee 21 e3 64 98    	sub    $0x9864e321,%esi
  40149f:	56                   	push   %esi
  4014a0:	a1 10 f1 41 00       	mov    0x41f110,%eax
  4014a5:	ff d0                	call   *%eax
  4014a7:	8d 1d 9b 17 a7 98    	lea    0x98a7179b,%ebx
  4014ad:	81 eb 21 e3 64 98    	sub    $0x9864e321,%ebx
  4014b3:	53                   	push   %ebx
  4014b4:	8d 05 90 17 a7 98    	lea    0x98a71790,%eax
  4014ba:	2d 21 e3 64 98       	sub    $0x9864e321,%eax
  4014bf:	50                   	push   %eax
  4014c0:	a1 10 f1 41 00       	mov    0x41f110,%eax
  4014c5:	ff d0                	call   *%eax
  4014c7:	8d 35 83 17 a7 98    	lea    0x98a71783,%esi
  4014cd:	81 ee 21 e3 64 98    	sub    $0x9864e321,%esi
  4014d3:	56                   	push   %esi
  4014d4:	6a 01                	push   $0x1
  4014d6:	ff 0c 24             	decl   (%esp)
  4014d9:	68 01 00 10 00       	push   $0x100001
  4014de:	ff 0c 24             	decl   (%esp)
  4014e1:	a1 e8 f0 41 00       	mov    0x41f0e8,%eax
  4014e6:	ff d0                	call   *%eax
  4014e8:	85 c0                	test   %eax,%eax
  4014ea:	0f 85 c0 a4 00 00    	jne    0x40b9b0
  4014f0:	13 35 07 31 42 00    	adc    0x423107,%esi
  4014f6:	13 35 84 31 42 00    	adc    0x423184,%esi
  4014fc:	8d 05 83 17 a7 98    	lea    0x98a71783,%eax
  401502:	2d 21 e3 64 98       	sub    $0x9864e321,%eax
  401507:	50                   	push   %eax
  401508:	6a 01                	push   $0x1
  40150a:	ff 0c 24             	decl   (%esp)
  40150d:	68 01 00 10 00       	push   $0x100001
  401512:	ff 0c 24             	decl   (%esp)
  401515:	a1 e8 f0 41 00       	mov    0x41f0e8,%eax
  40151a:	ff d0                	call   *%eax
  40151c:	85 c0                	test   %eax,%eax
  40151e:	0f 85 8c a4 00 00    	jne    0x40b9b0
  401524:	ba 01 00 00 00       	mov    $0x1,%edx
  401529:	01 fa                	add    %edi,%edx
  40152b:	2e e9 a9 9f 00 00    	cs jmp 0x40b4da
  401531:	31 3d a5 30 42 00    	xor    %edi,0x4230a5
  401537:	82 2d 5e 31 42 00 76 	subb   $0x76,0x42315e
	...
  40154a:	00 00                	add    %al,(%eax)
  40154c:	8d 1d 9b 17 a7 98    	lea    0x98a7179b,%ebx
  401552:	81 eb 21 e3 64 98    	sub    $0x9864e321,%ebx
  401558:	53                   	push   %ebx
  401559:	8d 3d 90 17 a7 98    	lea    0x98a71790,%edi
  40155f:	81 ef 21 e3 64 98    	sub    $0x9864e321,%edi
  401565:	57                   	push   %edi
  401566:	a1 10 f1 41 00       	mov    0x41f110,%eax
  40156b:	ff d0                	call   *%eax
  40156d:	13 05 a4 31 42 00    	adc    0x4231a4,%eax
  401573:	8d 1d 83 17 a7 98    	lea    0x98a71783,%ebx
  401579:	81 eb 21 e3 64 98    	sub    $0x9864e321,%ebx
  40157f:	53                   	push   %ebx
  401580:	6a 01                	push   $0x1
  401582:	ff 0c 24             	decl   (%esp)
  401585:	68 01 00 10 00       	push   $0x100001
  40158a:	ff 0c 24             	decl   (%esp)
  40158d:	a1 e8 f0 41 00       	mov    0x41f0e8,%eax
  401592:	ff d0                	call   *%eax
  401594:	85 c0                	test   %eax,%eax
  401596:	0f 85 14 a4 00 00    	jne    0x40b9b0
  40159c:	13 05 4e 30 42 00    	adc    0x42304e,%eax
  4015a2:	8d 15 9b 17 a7 98    	lea    0x98a7179b,%edx
  4015a8:	81 ea 21 e3 64 98    	sub    $0x9864e321,%edx
  4015ae:	52                   	push   %edx
  4015af:	8d 0d 90 17 a7 98    	lea    0x98a71790,%ecx
  4015b5:	81 e9 21 e3 64 98    	sub    $0x9864e321,%ecx
  4015bb:	51                   	push   %ecx
  4015bc:	a1 10 f1 41 00       	mov    0x41f110,%eax
  4015c1:	ff d0                	call   *%eax
  4015c3:	09 1d 07 31 42 00    	or     %ebx,0x423107
  4015c9:	2b 3d b8 30 42 00    	sub    0x4230b8,%edi
  4015cf:	8d 05 9b 17 a7 98    	lea    0x98a7179b,%eax
  4015d5:	2d 21 e3 64 98       	sub    $0x9864e321,%eax
  4015da:	50                   	push   %eax
  4015db:	8d 15 90 17 a7 98    	lea    0x98a71790,%edx
  4015e1:	81 ea 21 e3 64 98    	sub    $0x9864e321,%edx
  4015e7:	52                   	push   %edx
  4015e8:	a1 10 f1 41 00       	mov    0x41f110,%eax
  4015ed:	ff d0                	call   *%eax
  4015ef:	8d 1d 83 17 a7 98    	lea    0x98a71783,%ebx
  4015f5:	81 eb 21 e3 64 98    	sub    $0x9864e321,%ebx
  4015fb:	53                   	push   %ebx
  4015fc:	6a 01                	push   $0x1
  4015fe:	ff 0c 24             	decl   (%esp)
  401601:	68 01 00 10 00       	push   $0x100001
  401606:	ff 0c 24             	decl   (%esp)
  401609:	a1 e8 f0 41 00       	mov    0x41f0e8,%eax
  40160e:	ff d0                	call   *%eax
  401610:	83 f8 00             	cmp    $0x0,%eax
  401613:	0f 85 97 a3 00 00    	jne    0x40b9b0
  401619:	81 15 41 31 42 00 e7 	adcl   $0xe7,0x423141
  401620:	00 00 00 
  401623:	8d 35 83 17 a7 98    	lea    0x98a71783,%esi
  401629:	81 ee 21 e3 64 98    	sub    $0x9864e321,%esi
  40162f:	56                   	push   %esi
  401630:	6a 01                	push   $0x1
  401632:	ff 0c 24             	decl   (%esp)
  401635:	68 01 00 10 00       	push   $0x100001
  40163a:	ff 0c 24             	decl   (%esp)
  40163d:	a1 e8 f0 41 00       	mov    0x41f0e8,%eax
  401642:	ff d0                	call   *%eax
  401644:	85 c0                	test   %eax,%eax
  401646:	0f 85 64 a3 00 00    	jne    0x40b9b0
  40164c:	13 1d ec 31 42 00    	adc    0x4231ec,%ebx
  401652:	81 1d e2 30 42 00 fd 	sbbl   $0xfd,0x4230e2
  401659:	00 00 00 
  40165c:	81 15 ee 31 42 00 82 	adcl   $0x82,0x4231ee
  401663:	00 00 00 
  401666:	ba 01 00 00 00       	mov    $0x1,%edx
  40166b:	01 f2                	add    %esi,%edx
  40166d:	b9 01 00 00 00       	mov    $0x1,%ecx
  401672:	13 0d 39 30 42 00    	adc    0x423039,%ecx
  401678:	8d 05 9b 17 a7 98    	lea    0x98a7179b,%eax
  40167e:	2d 21 e3 64 98       	sub    $0x9864e321,%eax
  401683:	50                   	push   %eax
  401684:	8d 3d 90 17 a7 98    	lea    0x98a71790,%edi
  40168a:	81 ef 21 e3 64 98    	sub    $0x9864e321,%edi
  401690:	57                   	push   %edi
  401691:	a1 10 f1 41 00       	mov    0x41f110,%eax
  401696:	ff d0                	call   *%eax
  401698:	b9 01 00 00 00       	mov    $0x1,%ecx
  40169d:	13 0d 7b 30 42 00    	adc    0x42307b,%ecx
  4016a3:	01 ce                	add    %ecx,%esi
  4016a5:	19 c9                	sbb    %ecx,%ecx
  4016a7:	83 ef 4f             	sub    $0x4f,%edi
  4016aa:	83 cf 42             	or     $0x42,%edi
  4016ad:	8d 35 83 17 a7 98    	lea    0x98a71783,%esi
  4016b3:	81 ee 21 e3 64 98    	sub    $0x9864e321,%esi
  4016b9:	56                   	push   %esi
  4016ba:	6a 01                	push   $0x1
  4016bc:	ff 0c 24             	decl   (%esp)
  4016bf:	68 01 00 10 00       	push   $0x100001
  4016c4:	ff 0c 24             	decl   (%esp)
  4016c7:	a1 e8 f0 41 00       	mov    0x41f0e8,%eax
  4016cc:	ff d0                	call   *%eax
  4016ce:	85 c0                	test   %eax,%eax
  4016d0:	0f 85 da a2 00 00    	jne    0x40b9b0
  4016d6:	b2 01                	mov    $0x1,%dl
  4016d8:	00 fa                	add    %bh,%dl
  4016da:	8d 3d 9b 17 a7 98    	lea    0x98a7179b,%edi
  4016e0:	81 ef 21 e3 64 98    	sub    $0x9864e321,%edi
  4016e6:	57                   	push   %edi
  4016e7:	8d 15 90 17 a7 98    	lea    0x98a71790,%edx
  4016ed:	81 ea 21 e3 64 98    	sub    $0x9864e321,%edx
  4016f3:	52                   	push   %edx
  4016f4:	a1 10 f1 41 00       	mov    0x41f110,%eax
  4016f9:	ff d0                	call   *%eax
  4016fb:	ba 01 00 00 00       	mov    $0x1,%edx
  401700:	01 da                	add    %ebx,%edx
  401702:	13 3d f7 31 42 00    	adc    0x4231f7,%edi
  401708:	01 ff                	add    %edi,%edi
  40170a:	29 05 87 31 42 00    	sub    %eax,0x423187
  401710:	8d 35 83 17 a7 98    	lea    0x98a71783,%esi
  401716:	81 ee 21 e3 64 98    	sub    $0x9864e321,%esi
  40171c:	56                   	push   %esi
  40171d:	6a 01                	push   $0x1
  40171f:	ff 0c 24             	decl   (%esp)
  401722:	68 01 00 10 00       	push   $0x100001
  401727:	ff 0c 24             	decl   (%esp)
  40172a:	a1 e8 f0 41 00       	mov    0x41f0e8,%eax
  40172f:	ff d0                	call   *%eax
  401731:	83 f8 00             	cmp    $0x0,%eax
  401734:	0f 85 76 a2 00 00    	jne    0x40b9b0
  40173a:	c7 05 a1 31 42 00 9b 	movl   $0x9b,0x4231a1
  401741:	00 00 00 
  401744:	19 df                	sbb    %ebx,%edi
  401746:	01 05 d9 30 42 00    	add    %eax,0x4230d9
  40174c:	29 f8                	sub    %edi,%eax
  40174e:	01 c6                	add    %eax,%esi
  401750:	8d 0d 83 17 a7 98    	lea    0x98a71783,%ecx
  401756:	81 e9 21 e3 64 98    	sub    $0x9864e321,%ecx
  40175c:	51                   	push   %ecx
  40175d:	6a 01                	push   $0x1
  40175f:	ff 0c 24             	decl   (%esp)
  401762:	68 01 00 10 00       	push   $0x100001
  401767:	ff 0c 24             	decl   (%esp)
  40176a:	a1 e8 f0 41 00       	mov    0x41f0e8,%eax
  40176f:	ff d0                	call   *%eax
  401771:	83 f8 00             	cmp    $0x0,%eax
  401774:	0f 85 36 a2 00 00    	jne    0x40b9b0
  40177a:	11 05 1a 30 42 00    	adc    %eax,0x42301a
  401780:	8d 05 9b 17 a7 98    	lea    0x98a7179b,%eax
  401786:	2d 21 e3 64 98       	sub    $0x9864e321,%eax
  40178b:	50                   	push   %eax
  40178c:	8d 05 90 17 a7 98    	lea    0x98a71790,%eax
  401792:	2d 21 e3 64 98       	sub    $0x9864e321,%eax
  401797:	50                   	push   %eax
  401798:	a1 10 f1 41 00       	mov    0x41f110,%eax
  40179d:	ff d0                	call   *%eax
  40179f:	01 05 86 30 42 00    	add    %eax,0x423086
  4017a5:	13 35 c8 31 42 00    	adc    0x4231c8,%esi
  4017ab:	12 3d f0 30 42 00    	adc    0x4230f0,%bh
  4017b1:	2e e9 23 9d 00 00    	cs jmp 0x40b4da
	...
  4017c3:	81 25 1e 30 42 00 90 	andl   $0x90,0x42301e
  4017ca:	00 00 00 
  4017cd:	b9 01 00 00 00       	mov    $0x1,%ecx
  4017d2:	83 c1 2b             	add    $0x2b,%ecx
  4017d5:	ba 01 00 00 00       	mov    $0x1,%edx
  4017da:	13 15 62 31 42 00    	adc    0x423162,%edx
  4017e0:	8d 05 9b 17 a7 98    	lea    0x98a7179b,%eax
  4017e6:	2d 21 e3 64 98       	sub    $0x9864e321,%eax
  4017eb:	50                   	push   %eax
  4017ec:	8d 05 90 17 a7 98    	lea    0x98a71790,%eax
  4017f2:	2d 21 e3 64 98       	sub    $0x9864e321,%eax
  4017f7:	50                   	push   %eax
  4017f8:	a1 10 f1 41 00       	mov    0x41f110,%eax
  4017fd:	ff d0                	call   *%eax
  4017ff:	8d 15 83 17 a7 98    	lea    0x98a71783,%edx
  401805:	81 ea 21 e3 64 98    	sub    $0x9864e321,%edx
  40180b:	52                   	push   %edx
  40180c:	6a 01                	push   $0x1
  40180e:	ff 0c 24             	decl   (%esp)
  401811:	68 01 00 10 00       	push   $0x100001
  401816:	ff 0c 24             	decl   (%esp)
  401819:	a1 e8 f0 41 00       	mov    0x41f0e8,%eax
  40181e:	ff d0                	call   *%eax
  401820:	83 f8 00             	cmp    $0x0,%eax
  401823:	0f 85 87 a1 00 00    	jne    0x40b9b0
  401829:	13 35 55 30 42 00    	adc    0x423055,%esi
  40182f:	82 f7 43             	xor    $0x43,%bh
  401832:	01 35 52 30 42 00    	add    %esi,0x423052
  401838:	ba 01 00 00 00       	mov    $0x1,%edx
  40183d:	01 da                	add    %ebx,%edx
  40183f:	8d 3d 9b 17 a7 98    	lea    0x98a7179b,%edi
  401845:	81 ef 21 e3 64 98    	sub    $0x9864e321,%edi
  40184b:	57                   	push   %edi
  40184c:	8d 35 90 17 a7 98    	lea    0x98a71790,%esi
  401852:	81 ee 21 e3 64 98    	sub    $0x9864e321,%esi
  401858:	56                   	push   %esi
  401859:	a1 10 f1 41 00       	mov    0x41f110,%eax
  40185e:	ff d0                	call   *%eax
  401860:	83 15 39 30 42 00 2d 	adcl   $0x2d,0x423039
  401867:	b9 01 00 00 00       	mov    $0x1,%ecx
  40186c:	13 0d d2 31 42 00    	adc    0x4231d2,%ecx
  401872:	8d 35 9b 17 a7 98    	lea    0x98a7179b,%esi
  401878:	81 ee 21 e3 64 98    	sub    $0x9864e321,%esi
  40187e:	56                   	push   %esi
  40187f:	8d 35 90 17 a7 98    	lea    0x98a71790,%esi
  401885:	81 ee 21 e3 64 98    	sub    $0x9864e321,%esi
  40188b:	56                   	push   %esi
  40188c:	a1 10 f1 41 00       	mov    0x41f110,%eax
  401891:	ff d0                	call   *%eax
  401893:	ba 01 00 00 00       	mov    $0x1,%edx
  401898:	01 c2                	add    %eax,%edx
  40189a:	b9 01 00 00 00       	mov    $0x1,%ecx
  40189f:	01 c1                	add    %eax,%ecx
  4018a1:	8d 05 9b 17 a7 98    	lea    0x98a7179b,%eax
  4018a7:	2d 21 e3 64 98       	sub    $0x9864e321,%eax
  4018ac:	50                   	push   %eax
  4018ad:	8d 0d 90 17 a7 98    	lea    0x98a71790,%ecx
  4018b3:	81 e9 21 e3 64 98    	sub    $0x9864e321,%ecx
  4018b9:	51                   	push   %ecx
  4018ba:	a1 10 f1 41 00       	mov    0x41f110,%eax
  4018bf:	ff d0                	call   *%eax
  4018c1:	8d 05 83 17 a7 98    	lea    0x98a71783,%eax
  4018c7:	2d 21 e3 64 98       	sub    $0x9864e321,%eax
  4018cc:	50                   	push   %eax
  4018cd:	6a 01                	push   $0x1
  4018cf:	ff 0c 24             	decl   (%esp)
  4018d2:	68 01 00 10 00       	push   $0x100001
  4018d7:	ff 0c 24             	decl   (%esp)
  4018da:	a1 e8 f0 41 00       	mov    0x41f0e8,%eax
  4018df:	ff d0                	call   *%eax
  4018e1:	85 c0                	test   %eax,%eax
  4018e3:	0f 85 c7 a0 00 00    	jne    0x40b9b0
  4018e9:	13 1d e3 30 42 00    	adc    0x4230e3,%ebx
  4018ef:	8d 0d 9b 17 a7 98    	lea    0x98a7179b,%ecx
  4018f5:	81 e9 21 e3 64 98    	sub    $0x9864e321,%ecx
  4018fb:	51                   	push   %ecx
  4018fc:	8d 15 90 17 a7 98    	lea    0x98a71790,%edx
  401902:	81 ea 21 e3 64 98    	sub    $0x9864e321,%edx
  401908:	52                   	push   %edx
  401909:	a1 10 f1 41 00       	mov    0x41f110,%eax
  40190e:	ff d0                	call   *%eax
  401910:	8d 15 9b 17 a7 98    	lea    0x98a7179b,%edx
  401916:	81 ea 21 e3 64 98    	sub    $0x9864e321,%edx
  40191c:	52                   	push   %edx
  40191d:	8d 0d 90 17 a7 98    	lea    0x98a71790,%ecx
  401923:	81 e9 21 e3 64 98    	sub    $0x9864e321,%ecx
  401929:	51                   	push   %ecx
  40192a:	a1 10 f1 41 00       	mov    0x41f110,%eax
  40192f:	ff d0                	call   *%eax
  401931:	13 1d 13 30 42 00    	adc    0x423013,%ebx
  401937:	8d 35 83 17 a7 98    	lea    0x98a71783,%esi
  40193d:	81 ee 21 e3 64 98    	sub    $0x9864e321,%esi
  401943:	56                   	push   %esi
  401944:	6a 01                	push   $0x1
  401946:	ff 0c 24             	decl   (%esp)
  401949:	68 01 00 10 00       	push   $0x100001
  40194e:	ff 0c 24             	decl   (%esp)
  401951:	a1 e8 f0 41 00       	mov    0x41f0e8,%eax
  401956:	ff d0                	call   *%eax
  401958:	83 f8 00             	cmp    $0x0,%eax
  40195b:	0f 85 4f a0 00 00    	jne    0x40b9b0
  401961:	b9 01 00 00 00       	mov    $0x1,%ecx
  401966:	13 0d 28 31 42 00    	adc    0x423128,%ecx
  40196c:	01 35 8d 30 42 00    	add    %esi,0x42308d
  401972:	01 c0                	add    %eax,%eax
  401974:	8d 15 83 17 a7 98    	lea    0x98a71783,%edx
  40197a:	81 ea 21 e3 64 98    	sub    $0x9864e321,%edx
  401980:	52                   	push   %edx
  401981:	6a 01                	push   $0x1
  401983:	ff 0c 24             	decl   (%esp)
  401986:	68 01 00 10 00       	push   $0x100001
  40198b:	ff 0c 24             	decl   (%esp)
  40198e:	a1 e8 f0 41 00       	mov    0x41f0e8,%eax
  401993:	ff d0                	call   *%eax
  401995:	83 f8 00             	cmp    $0x0,%eax
  401998:	0f 85 12 a0 00 00    	jne    0x40b9b0
  40199e:	ba 01 00 00 00       	mov    $0x1,%edx
  4019a3:	13 15 53 30 42 00    	adc    0x423053,%edx
  4019a9:	31 d7                	xor    %edx,%edi
  4019ab:	00 35 65 31 42 00    	add    %dh,0x423165
  4019b1:	01 c0                	add    %eax,%eax
  4019b3:	19 3d 87 31 42 00    	sbb    %edi,0x423187
  4019b9:	8d 3d 9b 17 a7 98    	lea    0x98a7179b,%edi
  4019bf:	81 ef 21 e3 64 98    	sub    $0x9864e321,%edi
  4019c5:	57                   	push   %edi
  4019c6:	8d 0d 90 17 a7 98    	lea    0x98a71790,%ecx
  4019cc:	81 e9 21 e3 64 98    	sub    $0x9864e321,%ecx
  4019d2:	51                   	push   %ecx
  4019d3:	a1 10 f1 41 00       	mov    0x41f110,%eax
  4019d8:	ff d0                	call   *%eax
  4019da:	c7 05 f7 30 42 00 0f 	movl   $0xf,0x4230f7
  4019e1:	00 00 00 
  4019e4:	b9 01 00 00 00       	mov    $0x1,%ecx
  4019e9:	83 c1 c1             	add    $0xffffffc1,%ecx
  4019ec:	83 f6 a6             	xor    $0xffffffa6,%esi
  4019ef:	ba 01 00 00 00       	mov    $0x1,%edx
  4019f4:	01 ca                	add    %ecx,%edx
  4019f6:	2e e9 de 9a 00 00    	cs jmp 0x40b4da
  4019fc:	83 ca 5d             	or     $0x5d,%edx
	...
  401a0b:	00 31                	add    %dh,(%ecx)
  401a0d:	df b6 01 00 c6 31    	fbstp  0x31c60001(%esi)
  401a13:	05 7a 30 42 00       	add    $0x42307a,%eax
  401a18:	01 fb                	add    %edi,%ebx
  401a1a:	01 f7                	add    %esi,%edi
  401a1c:	8d 15 9b 17 a7 98    	lea    0x98a7179b,%edx
  401a22:	81 ea 21 e3 64 98    	sub    $0x9864e321,%edx
  401a28:	52                   	push   %edx
  401a29:	8d 1d 90 17 a7 98    	lea    0x98a71790,%ebx
  401a2f:	81 eb 21 e3 64 98    	sub    $0x9864e321,%ebx
  401a35:	53                   	push   %ebx
  401a36:	a1 10 f1 41 00       	mov    0x41f110,%eax
  401a3b:	ff d0                	call   *%eax
  401a3d:	83 ee 66             	sub    $0x66,%esi
  401a40:	13 05 3a 31 42 00    	adc    0x42313a,%eax
  401a46:	81 15 29 31 42 00 88 	adcl   $0x88,0x423129
  401a4d:	00 00 00 
  401a50:	31 de                	xor    %ebx,%esi
  401a52:	81 15 cb 30 42 00 b8 	adcl   $0xb8,0x4230cb
  401a59:	00 00 00 
  401a5c:	8d 1d 83 17 a7 98    	lea    0x98a71783,%ebx
  401a62:	81 eb 21 e3 64 98    	sub    $0x9864e321,%ebx
  401a68:	53                   	push   %ebx
  401a69:	6a 01                	push   $0x1
  401a6b:	ff 0c 24             	decl   (%esp)
  401a6e:	68 01 00 10 00       	push   $0x100001
  401a73:	ff 0c 24             	decl   (%esp)
  401a76:	a1 e8 f0 41 00       	mov    0x41f0e8,%eax
  401a7b:	ff d0                	call   *%eax
  401a7d:	85 c0                	test   %eax,%eax
  401a7f:	0f 85 2b 9f 00 00    	jne    0x40b9b0
  401a85:	13 35 5c 31 42 00    	adc    0x42315c,%esi
  401a8b:	83 15 dc 30 42 00 09 	adcl   $0x9,0x4230dc
  401a92:	8d 0d 83 17 a7 98    	lea    0x98a71783,%ecx
  401a98:	81 e9 21 e3 64 98    	sub    $0x9864e321,%ecx
  401a9e:	51                   	push   %ecx
  401a9f:	6a 01                	push   $0x1
  401aa1:	ff 0c 24             	decl   (%esp)
  401aa4:	68 01 00 10 00       	push   $0x100001
  401aa9:	ff 0c 24             	decl   (%esp)
  401aac:	a1 e8 f0 41 00       	mov    0x41f0e8,%eax
  401ab1:	ff d0                	call   *%eax
  401ab3:	83 f8 00             	cmp    $0x0,%eax
  401ab6:	0f 85 f4 9e 00 00    	jne    0x40b9b0
  401abc:	31 1d 20 31 42 00    	xor    %ebx,0x423120
  401ac2:	83 e8 a7             	sub    $0xffffffa7,%eax
  401ac5:	8d 15 9b 17 a7 98    	lea    0x98a7179b,%edx
  401acb:	81 ea 21 e3 64 98    	sub    $0x9864e321,%edx
  401ad1:	52                   	push   %edx
  401ad2:	8d 35 90 17 a7 98    	lea    0x98a71790,%esi
  401ad8:	81 ee 21 e3 64 98    	sub    $0x9864e321,%esi
  401ade:	56                   	push   %esi
  401adf:	a1 10 f1 41 00       	mov    0x41f110,%eax
  401ae4:	ff d0                	call   *%eax
  401ae6:	8d 15 9b 17 a7 98    	lea    0x98a7179b,%edx
  401aec:	81 ea 21 e3 64 98    	sub    $0x9864e321,%edx
  401af2:	52                   	push   %edx
  401af3:	8d 05 90 17 a7 98    	lea    0x98a71790,%eax
  401af9:	2d 21 e3 64 98       	sub    $0x9864e321,%eax
  401afe:	50                   	push   %eax
  401aff:	a1 10 f1 41 00       	mov    0x41f110,%eax
  401b04:	ff d0                	call   *%eax
  401b06:	8d 35 9b 17 a7 98    	lea    0x98a7179b,%esi
  401b0c:	81 ee 21 e3 64 98    	sub    $0x9864e321,%esi
  401b12:	56                   	push   %esi
  401b13:	8d 15 90 17 a7 98    	lea    0x98a71790,%edx
  401b19:	81 ea 21 e3 64 98    	sub    $0x9864e321,%edx
  401b1f:	52                   	push   %edx
  401b20:	a1 10 f1 41 00       	mov    0x41f110,%eax
  401b25:	ff d0                	call   *%eax
  401b27:	c7 05 16 30 42 00 4b 	movl   $0x4b,0x423016
  401b2e:	00 00 00 
  401b31:	8d 05 9b 17 a7 98    	lea    0x98a7179b,%eax
  401b37:	2d 21 e3 64 98       	sub    $0x9864e321,%eax
  401b3c:	50                   	push   %eax
  401b3d:	8d 0d 90 17 a7 98    	lea    0x98a71790,%ecx
  401b43:	81 e9 21 e3 64 98    	sub    $0x9864e321,%ecx
  401b49:	51                   	push   %ecx
  401b4a:	a1 10 f1 41 00       	mov    0x41f110,%eax
  401b4f:	ff d0                	call   *%eax
  401b51:	8d 0d 9b 17 a7 98    	lea    0x98a7179b,%ecx
  401b57:	81 e9 21 e3 64 98    	sub    $0x9864e321,%ecx
  401b5d:	51                   	push   %ecx
  401b5e:	8d 15 90 17 a7 98    	lea    0x98a71790,%edx
  401b64:	81 ea 21 e3 64 98    	sub    $0x9864e321,%edx
  401b6a:	52                   	push   %edx
  401b6b:	a1 10 f1 41 00       	mov    0x41f110,%eax
  401b70:	ff d0                	call   *%eax
  401b72:	ba 01 00 00 00       	mov    $0x1,%edx
  401b77:	13 15 14 31 42 00    	adc    0x423114,%edx
  401b7d:	01 f7                	add    %esi,%edi
  401b7f:	8d 1d 9b 17 a7 98    	lea    0x98a7179b,%ebx
  401b85:	81 eb 21 e3 64 98    	sub    $0x9864e321,%ebx
  401b8b:	53                   	push   %ebx
  401b8c:	8d 3d 90 17 a7 98    	lea    0x98a71790,%edi
  401b92:	81 ef 21 e3 64 98    	sub    $0x9864e321,%edi
  401b98:	57                   	push   %edi
  401b99:	a1 10 f1 41 00       	mov    0x41f110,%eax
  401b9e:	ff d0                	call   *%eax
  401ba0:	29 c0                	sub    %eax,%eax
  401ba2:	83 ef 56             	sub    $0x56,%edi
  401ba5:	01 05 2e 30 42 00    	add    %eax,0x42302e
  401bab:	8d 15 83 17 a7 98    	lea    0x98a71783,%edx
  401bb1:	81 ea 21 e3 64 98    	sub    $0x9864e321,%edx
  401bb7:	52                   	push   %edx
  401bb8:	6a 01                	push   $0x1
  401bba:	ff 0c 24             	decl   (%esp)
  401bbd:	68 01 00 10 00       	push   $0x100001
  401bc2:	ff 0c 24             	decl   (%esp)
  401bc5:	a1 e8 f0 41 00       	mov    0x41f0e8,%eax
  401bca:	ff d0                	call   *%eax
  401bcc:	83 f8 00             	cmp    $0x0,%eax
  401bcf:	0f 85 db 9d 00 00    	jne    0x40b9b0
  401bd5:	81 15 f0 31 42 00 ae 	adcl   $0xae,0x4231f0
  401bdc:	00 00 00 
  401bdf:	8d 15 83 17 a7 98    	lea    0x98a71783,%edx
  401be5:	81 ea 21 e3 64 98    	sub    $0x9864e321,%edx
  401beb:	52                   	push   %edx
  401bec:	6a 01                	push   $0x1
  401bee:	ff 0c 24             	decl   (%esp)
  401bf1:	68 01 00 10 00       	push   $0x100001
  401bf6:	ff 0c 24             	decl   (%esp)
  401bf9:	a1 e8 f0 41 00       	mov    0x41f0e8,%eax
  401bfe:	ff d0                	call   *%eax
  401c00:	83 f8 00             	cmp    $0x0,%eax
  401c03:	0f 85 a7 9d 00 00    	jne    0x40b9b0
  401c09:	b9 01 00 00 00       	mov    $0x1,%ecx
  401c0e:	01 d9                	add    %ebx,%ecx
  401c10:	83 f1 e9             	xor    $0xffffffe9,%ecx
  401c13:	81 1d d2 31 42 00 e4 	sbbl   $0xe4,0x4231d2
  401c1a:	00 00 00 
  401c1d:	2e e9 b7 98 00 00    	cs jmp 0x40b4da
  401c23:	ba 01 00 00 00       	mov    $0x1,%edx
  401c28:	01 c2                	add    %eax,%edx
  401c2a:	83 d1 f5             	adc    $0xfffffff5,%ecx
  401c2d:	13 0d a4 30 42 00    	adc    0x4230a4,%ecx
  401c33:	81 1d 63 30 42 00 e0 	sbbl   $0xe0,0x423063
  401c3a:	00 00 00 
  401c3d:	00 00                	add    %al,(%eax)
  401c3f:	8d 1d 9b 17 a7 98    	lea    0x98a7179b,%ebx
  401c45:	81 eb 21 e3 64 98    	sub    $0x9864e321,%ebx
  401c4b:	53                   	push   %ebx
  401c4c:	8d 15 90 17 a7 98    	lea    0x98a71790,%edx
  401c52:	81 ea 21 e3 64 98    	sub    $0x9864e321,%edx
  401c58:	52                   	push   %edx
  401c59:	a1 10 f1 41 00       	mov    0x41f110,%eax
  401c5e:	ff d0                	call   *%eax
  401c60:	8d 05 83 17 a7 98    	lea    0x98a71783,%eax
  401c66:	2d 21 e3 64 98       	sub    $0x9864e321,%eax
  401c6b:	50                   	push   %eax
  401c6c:	6a 01                	push   $0x1
  401c6e:	ff 0c 24             	decl   (%esp)
  401c71:	68 01 00 10 00       	push   $0x100001
  401c76:	ff 0c 24             	decl   (%esp)
  401c79:	a1 e8 f0 41 00       	mov    0x41f0e8,%eax
  401c7e:	ff d0                	call   *%eax
  401c80:	85 c0                	test   %eax,%eax
  401c82:	0f 85 28 9d 00 00    	jne    0x40b9b0
  401c88:	01 1d 93 30 42 00    	add    %ebx,0x423093
  401c8e:	11 35 c7 30 42 00    	adc    %esi,0x4230c7
  401c94:	01 c0                	add    %eax,%eax
  401c96:	8d 3d 83 17 a7 98    	lea    0x98a71783,%edi
  401c9c:	81 ef 21 e3 64 98    	sub    $0x9864e321,%edi
  401ca2:	57                   	push   %edi
  401ca3:	6a 01                	push   $0x1
  401ca5:	ff 0c 24             	decl   (%esp)
  401ca8:	68 01 00 10 00       	push   $0x100001
  401cad:	ff 0c 24             	decl   (%esp)
  401cb0:	a1 e8 f0 41 00       	mov    0x41f0e8,%eax
  401cb5:	ff d0                	call   *%eax
  401cb7:	85 c0                	test   %eax,%eax
  401cb9:	0f 85 f1 9c 00 00    	jne    0x40b9b0
  401cbf:	01 05 0f 31 42 00    	add    %eax,0x42310f
  401cc5:	20 05 ff 31 42 00    	and    %al,0x4231ff
  401ccb:	83 de c0             	sbb    $0xffffffc0,%esi
  401cce:	19 c7                	sbb    %eax,%edi
  401cd0:	8d 0d 9b 17 a7 98    	lea    0x98a7179b,%ecx
  401cd6:	81 e9 21 e3 64 98    	sub    $0x9864e321,%ecx
  401cdc:	51                   	push   %ecx
  401cdd:	8d 15 90 17 a7 98    	lea    0x98a71790,%edx
  401ce3:	81 ea 21 e3 64 98    	sub    $0x9864e321,%edx
  401ce9:	52                   	push   %edx
  401cea:	a1 10 f1 41 00       	mov    0x41f110,%eax
  401cef:	ff d0                	call   *%eax
  401cf1:	8d 05 9b 17 a7 98    	lea    0x98a7179b,%eax
  401cf7:	2d 21 e3 64 98       	sub    $0x9864e321,%eax
  401cfc:	50                   	push   %eax
  401cfd:	8d 1d 90 17 a7 98    	lea    0x98a71790,%ebx
  401d03:	81 eb 21 e3 64 98    	sub    $0x9864e321,%ebx
  401d09:	53                   	push   %ebx
  401d0a:	a1 10 f1 41 00       	mov    0x41f110,%eax
  401d0f:	ff d0                	call   *%eax
  401d11:	00 db                	add    %bl,%bl
  401d13:	83 15 b7 31 42 00 31 	adcl   $0x31,0x4231b7
  401d1a:	b9 01 00 00 00       	mov    $0x1,%ecx
  401d1f:	13 0d ee 30 42 00    	adc    0x4230ee,%ecx
  401d25:	29 f8                	sub    %edi,%eax
  401d27:	c7 05 fc 31 42 00 f2 	movl   $0xf2,0x4231fc
  401d2e:	00 00 00 
  401d31:	8d 15 83 17 a7 98    	lea    0x98a71783,%edx
  401d37:	81 ea 21 e3 64 98    	sub    $0x9864e321,%edx
  401d3d:	52                   	push   %edx
  401d3e:	6a 01                	push   $0x1
  401d40:	ff 0c 24             	decl   (%esp)
  401d43:	68 01 00 10 00       	push   $0x100001
  401d48:	ff 0c 24             	decl   (%esp)
  401d4b:	a1 e8 f0 41 00       	mov    0x41f0e8,%eax
  401d50:	ff d0                	call   *%eax
  401d52:	83 f8 00             	cmp    $0x0,%eax
  401d55:	0f 85 55 9c 00 00    	jne    0x40b9b0
  401d5b:	83 35 73 30 42 00 10 	xorl   $0x10,0x423073
  401d62:	09 35 e3 30 42 00    	or     %esi,0x4230e3
  401d68:	29 f8                	sub    %edi,%eax
  401d6a:	8d 3d 83 17 a7 98    	lea    0x98a71783,%edi
  401d70:	81 ef 21 e3 64 98    	sub    $0x9864e321,%edi
  401d76:	57                   	push   %edi
  401d77:	6a 01                	push   $0x1
  401d79:	ff 0c 24             	decl   (%esp)
  401d7c:	68 01 00 10 00       	push   $0x100001
  401d81:	ff 0c 24             	decl   (%esp)
  401d84:	a1 e8 f0 41 00       	mov    0x41f0e8,%eax
  401d89:	ff d0                	call   *%eax
  401d8b:	83 f8 00             	cmp    $0x0,%eax
  401d8e:	0f 85 1c 9c 00 00    	jne    0x40b9b0
  401d94:	21 35 d1 31 42 00    	and    %esi,0x4231d1
  401d9a:	31 fb                	xor    %edi,%ebx
  401d9c:	8d 35 83 17 a7 98    	lea    0x98a71783,%esi
  401da2:	81 ee 21 e3 64 98    	sub    $0x9864e321,%esi
  401da8:	56                   	push   %esi
  401da9:	6a 01                	push   $0x1
  401dab:	ff 0c 24             	decl   (%esp)
  401dae:	68 01 00 10 00       	push   $0x100001
  401db3:	ff 0c 24             	decl   (%esp)
  401db6:	a1 e8 f0 41 00       	mov    0x41f0e8,%eax
  401dbb:	ff d0                	call   *%eax
  401dbd:	83 f8 00             	cmp    $0x0,%eax
  401dc0:	0f 85 ea 9b 00 00    	jne    0x40b9b0
  401dc6:	21 05 bd 30 42 00    	and    %eax,0x4230bd
  401dcc:	01 35 61 31 42 00    	add    %esi,0x423161
  401dd2:	19 3d 96 31 42 00    	sbb    %edi,0x423196
  401dd8:	8d 3d 9b 17 a7 98    	lea    0x98a7179b,%edi
  401dde:	81 ef 21 e3 64 98    	sub    $0x9864e321,%edi
  401de4:	57                   	push   %edi
  401de5:	8d 15 90 17 a7 98    	lea    0x98a71790,%edx
  401deb:	81 ea 21 e3 64 98    	sub    $0x9864e321,%edx
  401df1:	52                   	push   %edx
  401df2:	a1 10 f1 41 00       	mov    0x41f110,%eax
  401df7:	ff d0                	call   *%eax
  401df9:	00 3d 6d 31 42 00    	add    %bh,0x42316d
  401dff:	19 f7                	sbb    %esi,%edi
  401e01:	83 25 ba 30 42 00 4f 	andl   $0x4f,0x4230ba
  401e08:	8d 35 9b 17 a7 98    	lea    0x98a7179b,%esi
  401e0e:	81 ee 21 e3 64 98    	sub    $0x9864e321,%esi
  401e14:	56                   	push   %esi
  401e15:	8d 0d 90 17 a7 98    	lea    0x98a71790,%ecx
  401e1b:	81 e9 21 e3 64 98    	sub    $0x9864e321,%ecx
  401e21:	51                   	push   %ecx
  401e22:	a1 10 f1 41 00       	mov    0x41f110,%eax
  401e27:	ff d0                	call   *%eax
  401e29:	01 c7                	add    %eax,%edi
  401e2b:	13 35 2a 31 42 00    	adc    0x42312a,%esi
  401e31:	28 25 50 31 42 00    	sub    %ah,0x423150
  401e37:	13 05 83 31 42 00    	adc    0x423183,%eax
  401e3d:	8d 1d 83 17 a7 98    	lea    0x98a71783,%ebx
  401e43:	81 eb 21 e3 64 98    	sub    $0x9864e321,%ebx
  401e49:	53                   	push   %ebx
  401e4a:	6a 01                	push   $0x1
  401e4c:	ff 0c 24             	decl   (%esp)
  401e4f:	68 01 00 10 00       	push   $0x100001
  401e54:	ff 0c 24             	decl   (%esp)
  401e57:	a1 e8 f0 41 00       	mov    0x41f0e8,%eax
  401e5c:	ff d0                	call   *%eax
  401e5e:	83 f8 00             	cmp    $0x0,%eax
  401e61:	0f 85 49 9b 00 00    	jne    0x40b9b0
  401e67:	19 de                	sbb    %ebx,%esi
  401e69:	2e e9 6b 96 00 00    	cs jmp 0x40b4da
  401e6f:	b9 01 00 00 00       	mov    $0x1,%ecx
  401e74:	13 0d 28 31 42 00    	adc    0x423128,%ecx
  401e7a:	31 f8                	xor    %edi,%eax
  401e7c:	19 05 df 31 42 00    	sbb    %eax,0x4231df
  401e82:	83 c8 45             	or     $0x45,%eax
  401e85:	00 00                	add    %al,(%eax)
  401e87:	00 00                	add    %al,(%eax)
  401e89:	00 00                	add    %al,(%eax)
  401e8b:	00 83 25 36 31 42    	add    %al,0x42313625(%ebx)
  401e91:	00 62 12             	add    %ah,0x12(%edx)
  401e94:	1d 68 31 42 00       	sbb    $0x423168,%eax
  401e99:	83 f7 ee             	xor    $0xffffffee,%edi
  401e9c:	83 f3 52             	xor    $0x52,%ebx
  401e9f:	c7 05 6f 30 42 00 57 	movl   $0x57,0x42306f
  401ea6:	00 00 00 
  401ea9:	8d 05 83 17 a7 98    	lea    0x98a71783,%eax
  401eaf:	2d 21 e3 64 98       	sub    $0x9864e321,%eax
  401eb4:	50                   	push   %eax
  401eb5:	6a 01                	push   $0x1
  401eb7:	ff 0c 24             	decl   (%esp)
  401eba:	68 01 00 10 00       	push   $0x100001
  401ebf:	ff 0c 24             	decl   (%esp)
  401ec2:	a1 e8 f0 41 00       	mov    0x41f0e8,%eax
  401ec7:	ff d0                	call   *%eax
  401ec9:	83 f8 00             	cmp    $0x0,%eax
  401ecc:	0f 85 de 9a 00 00    	jne    0x40b9b0
  401ed2:	8d 35 9b 17 a7 98    	lea    0x98a7179b,%esi
  401ed8:	81 ee 21 e3 64 98    	sub    $0x9864e321,%esi
  401ede:	56                   	push   %esi
  401edf:	8d 05 90 17 a7 98    	lea    0x98a71790,%eax
  401ee5:	2d 21 e3 64 98       	sub    $0x9864e321,%eax
  401eea:	50                   	push   %eax
  401eeb:	a1 10 f1 41 00       	mov    0x41f110,%eax
  401ef0:	ff d0                	call   *%eax
  401ef2:	31 3d ea 30 42 00    	xor    %edi,0x4230ea
  401ef8:	8d 1d 83 17 a7 98    	lea    0x98a71783,%ebx
  401efe:	81 eb 21 e3 64 98    	sub    $0x9864e321,%ebx
  401f04:	53                   	push   %ebx
  401f05:	6a 01                	push   $0x1
  401f07:	ff 0c 24             	decl   (%esp)
  401f0a:	68 01 00 10 00       	push   $0x100001
  401f0f:	ff 0c 24             	decl   (%esp)
  401f12:	a1 e8 f0 41 00       	mov    0x41f0e8,%eax
  401f17:	ff d0                	call   *%eax
  401f19:	85 c0                	test   %eax,%eax
  401f1b:	0f 85 8f 9a 00 00    	jne    0x40b9b0
  401f21:	13 35 7d 31 42 00    	adc    0x42317d,%esi
  401f27:	13 3d 8e 31 42 00    	adc    0x42318e,%edi
  401f2d:	01 f6                	add    %esi,%esi
  401f2f:	8d 05 9b 17 a7 98    	lea    0x98a7179b,%eax
  401f35:	2d 21 e3 64 98       	sub    $0x9864e321,%eax
  401f3a:	50                   	push   %eax
  401f3b:	8d 1d 90 17 a7 98    	lea    0x98a71790,%ebx
  401f41:	81 eb 21 e3 64 98    	sub    $0x9864e321,%ebx
  401f47:	53                   	push   %ebx
  401f48:	a1 10 f1 41 00       	mov    0x41f110,%eax
  401f4d:	ff d0                	call   *%eax
  401f4f:	8d 1d 9b 17 a7 98    	lea    0x98a7179b,%ebx
  401f55:	81 eb 21 e3 64 98    	sub    $0x9864e321,%ebx
  401f5b:	53                   	push   %ebx
  401f5c:	8d 0d 90 17 a7 98    	lea    0x98a71790,%ecx
  401f62:	81 e9 21 e3 64 98    	sub    $0x9864e321,%ecx
  401f68:	51                   	push   %ecx
  401f69:	a1 10 f1 41 00       	mov    0x41f110,%eax
  401f6e:	ff d0                	call   *%eax
  401f70:	8d 35 9b 17 a7 98    	lea    0x98a7179b,%esi
  401f76:	81 ee 21 e3 64 98    	sub    $0x9864e321,%esi
  401f7c:	56                   	push   %esi
  401f7d:	8d 3d 90 17 a7 98    	lea    0x98a71790,%edi
  401f83:	81 ef 21 e3 64 98    	sub    $0x9864e321,%edi
  401f89:	57                   	push   %edi
  401f8a:	a1 10 f1 41 00       	mov    0x41f110,%eax
  401f8f:	ff d0                	call   *%eax
  401f91:	21 3d 42 31 42 00    	and    %edi,0x423142
  401f97:	b9 01 00 00 00       	mov    $0x1,%ecx
  401f9c:	01 f1                	add    %esi,%ecx
  401f9e:	81 1d e1 31 42 00 a9 	sbbl   $0xa9,0x4231e1
  401fa5:	00 00 00 
  401fa8:	8d 0d 9b 17 a7 98    	lea    0x98a7179b,%ecx
  401fae:	81 e9 21 e3 64 98    	sub    $0x9864e321,%ecx
  401fb4:	51                   	push   %ecx
  401fb5:	8d 05 90 17 a7 98    	lea    0x98a71790,%eax
  401fbb:	2d 21 e3 64 98       	sub    $0x9864e321,%eax
  401fc0:	50                   	push   %eax
  401fc1:	a1 10 f1 41 00       	mov    0x41f110,%eax
  401fc6:	ff d0                	call   *%eax
  401fc8:	19 c6                	sbb    %eax,%esi
  401fca:	01 3d 3f 31 42 00    	add    %edi,0x42313f
  401fd0:	81 15 f9 31 42 00 af 	adcl   $0xaf,0x4231f9
  401fd7:	00 00 00 
  401fda:	82 2d 3c 31 42 00 33 	subb   $0x33,0x42313c
  401fe1:	8d 05 83 17 a7 98    	lea    0x98a71783,%eax
  401fe7:	2d 21 e3 64 98       	sub    $0x9864e321,%eax
  401fec:	50                   	push   %eax
  401fed:	6a 01                	push   $0x1
  401fef:	ff 0c 24             	decl   (%esp)
  401ff2:	68 01 00 10 00       	push   $0x100001
  401ff7:	ff 0c 24             	decl   (%esp)
  401ffa:	a1 e8 f0 41 00       	mov    0x41f0e8,%eax
  401fff:	ff d0                	call   *%eax
  402001:	83 f8 00             	cmp    $0x0,%eax
  402004:	0f 85 a6 99 00 00    	jne    0x40b9b0
  40200a:	00 e0                	add    %ah,%al
  40200c:	8d 0d 9b 17 a7 98    	lea    0x98a7179b,%ecx
  402012:	81 e9 21 e3 64 98    	sub    $0x9864e321,%ecx
  402018:	51                   	push   %ecx
  402019:	8d 35 90 17 a7 98    	lea    0x98a71790,%esi
  40201f:	81 ee 21 e3 64 98    	sub    $0x9864e321,%esi
  402025:	56                   	push   %esi
  402026:	a1 10 f1 41 00       	mov    0x41f110,%eax
  40202b:	ff d0                	call   *%eax
  40202d:	01 05 59 31 42 00    	add    %eax,0x423159
  402033:	81 15 e7 31 42 00 fd 	adcl   $0xfd,0x4231e7
  40203a:	00 00 00 
  40203d:	81 35 13 31 42 00 c8 	xorl   $0xc8,0x423113
  402044:	00 00 00 
  402047:	8d 05 9b 17 a7 98    	lea    0x98a7179b,%eax
  40204d:	2d 21 e3 64 98       	sub    $0x9864e321,%eax
  402052:	50                   	push   %eax
  402053:	8d 35 90 17 a7 98    	lea    0x98a71790,%esi
  402059:	81 ee 21 e3 64 98    	sub    $0x9864e321,%esi
  40205f:	56                   	push   %esi
  402060:	a1 10 f1 41 00       	mov    0x41f110,%eax
  402065:	ff d0                	call   *%eax
  402067:	8d 35 83 17 a7 98    	lea    0x98a71783,%esi
  40206d:	81 ee 21 e3 64 98    	sub    $0x9864e321,%esi
  402073:	56                   	push   %esi
  402074:	6a 01                	push   $0x1
  402076:	ff 0c 24             	decl   (%esp)
  402079:	68 01 00 10 00       	push   $0x100001
  40207e:	ff 0c 24             	decl   (%esp)
  402081:	a1 e8 f0 41 00       	mov    0x41f0e8,%eax
  402086:	ff d0                	call   *%eax
  402088:	83 f8 00             	cmp    $0x0,%eax
  40208b:	0f 85 1f 99 00 00    	jne    0x40b9b0
  402091:	b9 01 00 00 00       	mov    $0x1,%ecx
  402096:	83 c1 06             	add    $0x6,%ecx
  402099:	8d 15 9b 17 a7 98    	lea    0x98a7179b,%edx
  40209f:	81 ea 21 e3 64 98    	sub    $0x9864e321,%edx
  4020a5:	52                   	push   %edx
  4020a6:	8d 35 90 17 a7 98    	lea    0x98a71790,%esi
  4020ac:	81 ee 21 e3 64 98    	sub    $0x9864e321,%esi
  4020b2:	56                   	push   %esi
  4020b3:	a1 10 f1 41 00       	mov    0x41f110,%eax
  4020b8:	ff d0                	call   *%eax
  4020ba:	c7 05 7e 31 42 00 c9 	movl   $0xc9,0x42317e
  4020c1:	00 00 00 
  4020c4:	01 df                	add    %ebx,%edi
  4020c6:	83 f0 24             	xor    $0x24,%eax
  4020c9:	2e e9 0b 94 00 00    	cs jmp 0x40b4da
  4020cf:	00 00                	add    %al,(%eax)
  4020d1:	00 00                	add    %al,(%eax)
  4020d3:	31 c7                	xor    %eax,%edi
  4020d5:	c7 05 99 30 42 00 f1 	movl   $0xf1,0x423099
  4020dc:	00 00 00 
  4020df:	01 3d 9b 31 42 00    	add    %edi,0x42319b
  4020e5:	8d 35 9b 17 a7 98    	lea    0x98a7179b,%esi
  4020eb:	81 ee 21 e3 64 98    	sub    $0x9864e321,%esi
  4020f1:	56                   	push   %esi
  4020f2:	8d 0d 90 17 a7 98    	lea    0x98a71790,%ecx
  4020f8:	81 e9 21 e3 64 98    	sub    $0x9864e321,%ecx
  4020fe:	51                   	push   %ecx
  4020ff:	a1 10 f1 41 00       	mov    0x41f110,%eax
  402104:	ff d0                	call   *%eax
  402106:	31 f0                	xor    %esi,%eax
  402108:	31 35 de 30 42 00    	xor    %esi,0x4230de
  40210e:	83 f3 a5             	xor    $0xffffffa5,%ebx
  402111:	8d 15 83 17 a7 98    	lea    0x98a71783,%edx
  402117:	81 ea 21 e3 64 98    	sub    $0x9864e321,%edx
  40211d:	52                   	push   %edx
  40211e:	6a 01                	push   $0x1
  402120:	ff 0c 24             	decl   (%esp)
  402123:	68 01 00 10 00       	push   $0x100001
  402128:	ff 0c 24             	decl   (%esp)
  40212b:	a1 e8 f0 41 00       	mov    0x41f0e8,%eax
  402130:	ff d0                	call   *%eax
  402132:	85 c0                	test   %eax,%eax
  402134:	0f 85 76 98 00 00    	jne    0x40b9b0
  40213a:	8d 35 9b 17 a7 98    	lea    0x98a7179b,%esi
  402140:	81 ee 21 e3 64 98    	sub    $0x9864e321,%esi
  402146:	56                   	push   %esi
  402147:	8d 3d 90 17 a7 98    	lea    0x98a71790,%edi
  40214d:	81 ef 21 e3 64 98    	sub    $0x9864e321,%edi
  402153:	57                   	push   %edi
  402154:	a1 10 f1 41 00       	mov    0x41f110,%eax
  402159:	ff d0                	call   *%eax
  40215b:	20 25 6b 31 42 00    	and    %ah,0x42316b
  402161:	8d 15 83 17 a7 98    	lea    0x98a71783,%edx
  402167:	81 ea 21 e3 64 98    	sub    $0x9864e321,%edx
  40216d:	52                   	push   %edx
  40216e:	6a 01                	push   $0x1
  402170:	ff 0c 24             	decl   (%esp)
  402173:	68 01 00 10 00       	push   $0x100001
  402178:	ff 0c 24             	decl   (%esp)
  40217b:	a1 e8 f0 41 00       	mov    0x41f0e8,%eax
  402180:	ff d0                	call   *%eax
  402182:	85 c0                	test   %eax,%eax
  402184:	0f 85 26 98 00 00    	jne    0x40b9b0
  40218a:	83 35 27 31 42 00 12 	xorl   $0x12,0x423127
  402191:	09 05 24 31 42 00    	or     %eax,0x423124
  402197:	8d 35 9b 17 a7 98    	lea    0x98a7179b,%esi
  40219d:	81 ee 21 e3 64 98    	sub    $0x9864e321,%esi
  4021a3:	56                   	push   %esi
  4021a4:	8d 15 90 17 a7 98    	lea    0x98a71790,%edx
  4021aa:	81 ea 21 e3 64 98    	sub    $0x9864e321,%edx
  4021b0:	52                   	push   %edx
  4021b1:	a1 10 f1 41 00       	mov    0x41f110,%eax
  4021b6:	ff d0                	call   *%eax
  4021b8:	83 15 26 30 42 00 0f 	adcl   $0xf,0x423026
  4021bf:	83 f7 cf             	xor    $0xffffffcf,%edi
  4021c2:	13 35 a9 30 42 00    	adc    0x4230a9,%esi
  4021c8:	81 35 43 30 42 00 e1 	xorl   $0xe1,0x423043
  4021cf:	00 00 00 
  4021d2:	b9 01 00 00 00       	mov    $0x1,%ecx
  4021d7:	83 c1 0a             	add    $0xa,%ecx
  4021da:	8d 0d 83 17 a7 98    	lea    0x98a71783,%ecx
  4021e0:	81 e9 21 e3 64 98    	sub    $0x9864e321,%ecx
  4021e6:	51                   	push   %ecx
  4021e7:	6a 01                	push   $0x1
  4021e9:	ff 0c 24             	decl   (%esp)
  4021ec:	68 01 00 10 00       	push   $0x100001
  4021f1:	ff 0c 24             	decl   (%esp)
  4021f4:	a1 e8 f0 41 00       	mov    0x41f0e8,%eax
  4021f9:	ff d0                	call   *%eax
  4021fb:	83 f8 00             	cmp    $0x0,%eax
  4021fe:	0f 85 ac 97 00 00    	jne    0x40b9b0
  402204:	0b 35 a6 31 42 00    	or     0x4231a6,%esi
  40220a:	19 05 ee 31 42 00    	sbb    %eax,0x4231ee
  402210:	83 25 88 30 42 00 6f 	andl   $0x6f,0x423088
  402217:	8d 3d 9b 17 a7 98    	lea    0x98a7179b,%edi
  40221d:	81 ef 21 e3 64 98    	sub    $0x9864e321,%edi
  402223:	57                   	push   %edi
  402224:	8d 3d 90 17 a7 98    	lea    0x98a71790,%edi
  40222a:	81 ef 21 e3 64 98    	sub    $0x9864e321,%edi
  402230:	57                   	push   %edi
  402231:	a1 10 f1 41 00       	mov    0x41f110,%eax
  402236:	ff d0                	call   *%eax
  402238:	b5 01                	mov    $0x1,%ch
  40223a:	00 dd                	add    %bl,%ch
  40223c:	8d 35 9b 17 a7 98    	lea    0x98a7179b,%esi
  402242:	81 ee 21 e3 64 98    	sub    $0x9864e321,%esi
  402248:	56                   	push   %esi
  402249:	8d 3d 90 17 a7 98    	lea    0x98a71790,%edi
  40224f:	81 ef 21 e3 64 98    	sub    $0x9864e321,%edi
  402255:	57                   	push   %edi
  402256:	a1 10 f1 41 00       	mov    0x41f110,%eax
  40225b:	ff d0                	call   *%eax
  40225d:	13 35 54 30 42 00    	adc    0x423054,%esi
  402263:	8d 35 83 17 a7 98    	lea    0x98a71783,%esi
  402269:	81 ee 21 e3 64 98    	sub    $0x9864e321,%esi
  40226f:	56                   	push   %esi
  402270:	6a 01                	push   $0x1
  402272:	ff 0c 24             	decl   (%esp)
  402275:	68 01 00 10 00       	push   $0x100001
  40227a:	ff 0c 24             	decl   (%esp)
  40227d:	a1 e8 f0 41 00       	mov    0x41f0e8,%eax
  402282:	ff d0                	call   *%eax
  402284:	85 c0                	test   %eax,%eax
  402286:	0f 85 24 97 00 00    	jne    0x40b9b0
  40228c:	83 15 d7 30 42 00 61 	adcl   $0x61,0x4230d7
  402293:	31 df                	xor    %ebx,%edi
  402295:	8d 0d 9b 17 a7 98    	lea    0x98a7179b,%ecx
  40229b:	81 e9 21 e3 64 98    	sub    $0x9864e321,%ecx
  4022a1:	51                   	push   %ecx
  4022a2:	8d 1d 90 17 a7 98    	lea    0x98a71790,%ebx
  4022a8:	81 eb 21 e3 64 98    	sub    $0x9864e321,%ebx
  4022ae:	53                   	push   %ebx
  4022af:	a1 10 f1 41 00       	mov    0x41f110,%eax
  4022b4:	ff d0                	call   *%eax
  4022b6:	31 c7                	xor    %eax,%edi
  4022b8:	c7 05 1b 31 42 00 1c 	movl   $0x1c,0x42311b
  4022bf:	00 00 00 
  4022c2:	83 e7 24             	and    $0x24,%edi
  4022c5:	21 1d bf 31 42 00    	and    %ebx,0x4231bf
  4022cb:	8d 1d 83 17 a7 98    	lea    0x98a71783,%ebx
  4022d1:	81 eb 21 e3 64 98    	sub    $0x9864e321,%ebx
  4022d7:	53                   	push   %ebx
  4022d8:	6a 01                	push   $0x1
  4022da:	ff 0c 24             	decl   (%esp)
  4022dd:	68 01 00 10 00       	push   $0x100001
  4022e2:	ff 0c 24             	decl   (%esp)
  4022e5:	a1 e8 f0 41 00       	mov    0x41f0e8,%eax
  4022ea:	ff d0                	call   *%eax
  4022ec:	83 f8 00             	cmp    $0x0,%eax
  4022ef:	0f 85 bb 96 00 00    	jne    0x40b9b0
  4022f5:	13 05 f3 31 42 00    	adc    0x4231f3,%eax
  4022fb:	19 c7                	sbb    %eax,%edi
  4022fd:	83 df d4             	sbb    $0xffffffd4,%edi
  402300:	09 05 67 30 42 00    	or     %eax,0x423067
  402306:	2e e9 ce 91 00 00    	cs jmp 0x40b4da
  40230c:	19 1d de 31 42 00    	sbb    %ebx,0x4231de
  402312:	01 05 cb 30 42 00    	add    %eax,0x4230cb
  402318:	ba 01 00 00 00       	mov    $0x1,%edx
  40231d:	13 15 8c 30 42 00    	adc    0x42308c,%edx
  402323:	13 05 55 30 42 00    	adc    0x423055,%eax
  402329:	00 00                	add    %al,(%eax)
  40232b:	00 00                	add    %al,(%eax)
  40232d:	00 00                	add    %al,(%eax)
  40232f:	00 83 1d 55 31 42    	add    %al,0x4231551d(%ebx)
  402335:	00 6e 83             	add    %ch,-0x7d(%esi)
  402338:	e3 e1                	jecxz  0x40231b
  40233a:	b9 01 00 00 00       	mov    $0x1,%ecx
  40233f:	01 f1                	add    %esi,%ecx
  402341:	29 cf                	sub    %ecx,%edi
  402343:	8d 15 9b 17 a7 98    	lea    0x98a7179b,%edx
  402349:	81 ea 21 e3 64 98    	sub    $0x9864e321,%edx
  40234f:	52                   	push   %edx
  402350:	8d 0d 90 17 a7 98    	lea    0x98a71790,%ecx
  402356:	81 e9 21 e3 64 98    	sub    $0x9864e321,%ecx
  40235c:	51                   	push   %ecx
  40235d:	a1 10 f1 41 00       	mov    0x41f110,%eax
  402362:	ff d0                	call   *%eax
  402364:	8d 05 9b 17 a7 98    	lea    0x98a7179b,%eax
  40236a:	2d 21 e3 64 98       	sub    $0x9864e321,%eax
  40236f:	50                   	push   %eax
  402370:	8d 05 90 17 a7 98    	lea    0x98a71790,%eax
  402376:	2d 21 e3 64 98       	sub    $0x9864e321,%eax
  40237b:	50                   	push   %eax
  40237c:	a1 10 f1 41 00       	mov    0x41f110,%eax
  402381:	ff d0                	call   *%eax
  402383:	82 2d 6e 30 42 00 ab 	subb   $0xab,0x42306e
  40238a:	83 c7 5d             	add    $0x5d,%edi
  40238d:	83 c8 8b             	or     $0xffffff8b,%eax
  402390:	83 15 9b 31 42 00 26 	adcl   $0x26,0x42319b
  402397:	8d 0d 9b 17 a7 98    	lea    0x98a7179b,%ecx
  40239d:	81 e9 21 e3 64 98    	sub    $0x9864e321,%ecx
  4023a3:	51                   	push   %ecx
  4023a4:	8d 35 90 17 a7 98    	lea    0x98a71790,%esi
  4023aa:	81 ee 21 e3 64 98    	sub    $0x9864e321,%esi
  4023b0:	56                   	push   %esi
  4023b1:	a1 10 f1 41 00       	mov    0x41f110,%eax
  4023b6:	ff d0                	call   *%eax
  4023b8:	01 1d 83 30 42 00    	add    %ebx,0x423083
  4023be:	01 35 3f 31 42 00    	add    %esi,0x42313f
  4023c4:	8d 0d 9b 17 a7 98    	lea    0x98a7179b,%ecx
  4023ca:	81 e9 21 e3 64 98    	sub    $0x9864e321,%ecx
  4023d0:	51                   	push   %ecx
  4023d1:	8d 35 90 17 a7 98    	lea    0x98a71790,%esi
  4023d7:	81 ee 21 e3 64 98    	sub    $0x9864e321,%esi
  4023dd:	56                   	push   %esi
  4023de:	a1 10 f1 41 00       	mov    0x41f110,%eax
  4023e3:	ff d0                	call   *%eax
  4023e5:	8d 05 9b 17 a7 98    	lea    0x98a7179b,%eax
  4023eb:	2d 21 e3 64 98       	sub    $0x9864e321,%eax
  4023f0:	50                   	push   %eax
  4023f1:	8d 15 90 17 a7 98    	lea    0x98a71790,%edx
  4023f7:	81 ea 21 e3 64 98    	sub    $0x9864e321,%edx
  4023fd:	52                   	push   %edx
  4023fe:	a1 10 f1 41 00       	mov    0x41f110,%eax
  402403:	ff d0                	call   *%eax
  402405:	29 db                	sub    %ebx,%ebx
  402407:	0b 1d f5 31 42 00    	or     0x4231f5,%ebx
  40240d:	8d 15 9b 17 a7 98    	lea    0x98a7179b,%edx
  402413:	81 ea 21 e3 64 98    	sub    $0x9864e321,%edx
  402419:	52                   	push   %edx
  40241a:	8d 05 90 17 a7 98    	lea    0x98a71790,%eax
  402420:	2d 21 e3 64 98       	sub    $0x9864e321,%eax
  402425:	50                   	push   %eax
  402426:	a1 10 f1 41 00       	mov    0x41f110,%eax
  40242b:	ff d0                	call   *%eax
  40242d:	31 35 65 31 42 00    	xor    %esi,0x423165
  402433:	82 2d 46 31 42 00 c0 	subb   $0xc0,0x423146
  40243a:	ba 01 00 00 00       	mov    $0x1,%edx
  40243f:	13 15 89 31 42 00    	adc    0x423189,%edx
  402445:	19 05 18 31 42 00    	sbb    %eax,0x423118
  40244b:	8d 05 9b 17 a7 98    	lea    0x98a7179b,%eax
  402451:	2d 21 e3 64 98       	sub    $0x9864e321,%eax
  402456:	50                   	push   %eax
  402457:	8d 05 90 17 a7 98    	lea    0x98a71790,%eax
  40245d:	2d 21 e3 64 98       	sub    $0x9864e321,%eax
  402462:	50                   	push   %eax
  402463:	a1 10 f1 41 00       	mov    0x41f110,%eax
  402468:	ff d0                	call   *%eax
  40246a:	83 15 c4 31 42 00 71 	adcl   $0x71,0x4231c4
  402471:	8d 1d 83 17 a7 98    	lea    0x98a71783,%ebx
  402477:	81 eb 21 e3 64 98    	sub    $0x9864e321,%ebx
  40247d:	53                   	push   %ebx
  40247e:	6a 01                	push   $0x1
  402480:	ff 0c 24             	decl   (%esp)
  402483:	68 01 00 10 00       	push   $0x100001
  402488:	ff 0c 24             	decl   (%esp)
  40248b:	a1 e8 f0 41 00       	mov    0x41f0e8,%eax
  402490:	ff d0                	call   *%eax
  402492:	85 c0                	test   %eax,%eax
  402494:	0f 85 16 95 00 00    	jne    0x40b9b0
  40249a:	29 f0                	sub    %esi,%eax
  40249c:	13 05 6b 30 42 00    	adc    0x42306b,%eax
  4024a2:	81 35 a2 30 42 00 d1 	xorl   $0xd1,0x4230a2
  4024a9:	00 00 00 
  4024ac:	83 d3 1a             	adc    $0x1a,%ebx
  4024af:	ba 01 00 00 00       	mov    $0x1,%edx
  4024b4:	83 c2 a4             	add    $0xffffffa4,%edx
  4024b7:	8d 05 9b 17 a7 98    	lea    0x98a7179b,%eax
  4024bd:	2d 21 e3 64 98       	sub    $0x9864e321,%eax
  4024c2:	50                   	push   %eax
  4024c3:	8d 1d 90 17 a7 98    	lea    0x98a71790,%ebx
  4024c9:	81 eb 21 e3 64 98    	sub    $0x9864e321,%ebx
  4024cf:	53                   	push   %ebx
  4024d0:	a1 10 f1 41 00       	mov    0x41f110,%eax
  4024d5:	ff d0                	call   *%eax
  4024d7:	83 15 e3 31 42 00 70 	adcl   $0x70,0x4231e3
  4024de:	b9 01 00 00 00       	mov    $0x1,%ecx
  4024e3:	01 f1                	add    %esi,%ecx
  4024e5:	21 3d b1 30 42 00    	and    %edi,0x4230b1
  4024eb:	8d 35 83 17 a7 98    	lea    0x98a71783,%esi
  4024f1:	81 ee 21 e3 64 98    	sub    $0x9864e321,%esi
  4024f7:	56                   	push   %esi
  4024f8:	6a 01                	push   $0x1
  4024fa:	ff 0c 24             	decl   (%esp)
  4024fd:	68 01 00 10 00       	push   $0x100001
  402502:	ff 0c 24             	decl   (%esp)
  402505:	a1 e8 f0 41 00       	mov    0x41f0e8,%eax
  40250a:	ff d0                	call   *%eax
  40250c:	85 c0                	test   %eax,%eax
  40250e:	0f 85 9c 94 00 00    	jne    0x40b9b0
  402514:	8d 15 9b 17 a7 98    	lea    0x98a7179b,%edx
  40251a:	81 ea 21 e3 64 98    	sub    $0x9864e321,%edx
  402520:	52                   	push   %edx
  402521:	8d 1d 90 17 a7 98    	lea    0x98a71790,%ebx
  402527:	81 eb 21 e3 64 98    	sub    $0x9864e321,%ebx
  40252d:	53                   	push   %ebx
  40252e:	a1 10 f1 41 00       	mov    0x41f110,%eax
  402533:	ff d0                	call   *%eax
  402535:	13 35 eb 30 42 00    	adc    0x4230eb,%esi
  40253b:	8d 3d 83 17 a7 98    	lea    0x98a71783,%edi
  402541:	81 ef 21 e3 64 98    	sub    $0x9864e321,%edi
  402547:	57                   	push   %edi
  402548:	6a 01                	push   $0x1
  40254a:	ff 0c 24             	decl   (%esp)
  40254d:	68 01 00 10 00       	push   $0x100001
  402552:	ff 0c 24             	decl   (%esp)
  402555:	a1 e8 f0 41 00       	mov    0x41f0e8,%eax
  40255a:	ff d0                	call   *%eax
  40255c:	85 c0                	test   %eax,%eax
  40255e:	0f 85 4c 94 00 00    	jne    0x40b9b0
  402564:	81 15 7b 31 42 00 92 	adcl   $0x92,0x42317b
  40256b:	00 00 00 
  40256e:	31 f6                	xor    %esi,%esi
  402570:	83 eb b5             	sub    $0xffffffb5,%ebx
  402573:	13 3d b1 30 42 00    	adc    0x4230b1,%edi
  402579:	2e e9 5b 8f 00 00    	cs jmp 0x40b4da
  40257f:	c7 05 71 30 42 00 d3 	movl   $0xd3,0x423071
  402586:	00 00 00 
  402589:	ba 01 00 00 00       	mov    $0x1,%edx
  40258e:	13 15 9f 30 42 00    	adc    0x42309f,%edx
  402594:	01 fb                	add    %edi,%ebx
  402596:	83 da b5             	sbb    $0xffffffb5,%edx
	...
  4025a1:	00 00                	add    %al,(%eax)
  4025a3:	11 1d a0 30 42 00    	adc    %ebx,0x4230a0
  4025a9:	01 05 1f 31 42 00    	add    %eax,0x42311f
  4025af:	13 1d 2d 31 42 00    	adc    0x42312d,%ebx
  4025b5:	13 3d 35 31 42 00    	adc    0x423135,%edi
  4025bb:	b9 01 00 00 00       	mov    $0x1,%ecx
  4025c0:	01 d9                	add    %ebx,%ecx
  4025c2:	8d 15 9b 17 a7 98    	lea    0x98a7179b,%edx
  4025c8:	81 ea 21 e3 64 98    	sub    $0x9864e321,%edx
  4025ce:	52                   	push   %edx
  4025cf:	8d 15 90 17 a7 98    	lea    0x98a71790,%edx
  4025d5:	81 ea 21 e3 64 98    	sub    $0x9864e321,%edx
  4025db:	52                   	push   %edx
  4025dc:	a1 10 f1 41 00       	mov    0x41f110,%eax
  4025e1:	ff d0                	call   *%eax
  4025e3:	8d 3d 83 17 a7 98    	lea    0x98a71783,%edi
  4025e9:	81 ef 21 e3 64 98    	sub    $0x9864e321,%edi
  4025ef:	57                   	push   %edi
  4025f0:	6a 01                	push   $0x1
  4025f2:	ff 0c 24             	decl   (%esp)
  4025f5:	68 01 00 10 00       	push   $0x100001
  4025fa:	ff 0c 24             	decl   (%esp)
  4025fd:	a1 e8 f0 41 00       	mov    0x41f0e8,%eax
  402602:	ff d0                	call   *%eax
  402604:	85 c0                	test   %eax,%eax
  402606:	0f 85 a4 93 00 00    	jne    0x40b9b0
  40260c:	31 c3                	xor    %eax,%ebx
  40260e:	83 e7 1e             	and    $0x1e,%edi
  402611:	01 35 c4 30 42 00    	add    %esi,0x4230c4
  402617:	b9 01 00 00 00       	mov    $0x1,%ecx
  40261c:	13 0d 73 31 42 00    	adc    0x423173,%ecx
  402622:	8d 15 9b 17 a7 98    	lea    0x98a7179b,%edx
  402628:	81 ea 21 e3 64 98    	sub    $0x9864e321,%edx
  40262e:	52                   	push   %edx
  40262f:	8d 0d 90 17 a7 98    	lea    0x98a71790,%ecx
  402635:	81 e9 21 e3 64 98    	sub    $0x9864e321,%ecx
  40263b:	51                   	push   %ecx
  40263c:	a1 10 f1 41 00       	mov    0x41f110,%eax
  402641:	ff d0                	call   *%eax
  402643:	13 35 d0 31 42 00    	adc    0x4231d0,%esi
  402649:	b9 01 00 00 00       	mov    $0x1,%ecx
  40264e:	83 c1 ce             	add    $0xffffffce,%ecx
  402651:	13 0d 51 31 42 00    	adc    0x423151,%ecx
  402657:	01 1d 8e 30 42 00    	add    %ebx,0x42308e
  40265d:	81 25 37 31 42 00 8d 	andl   $0x8d,0x423137
  402664:	00 00 00 
  402667:	8d 0d 83 17 a7 98    	lea    0x98a71783,%ecx
  40266d:	81 e9 21 e3 64 98    	sub    $0x9864e321,%ecx
  402673:	51                   	push   %ecx
  402674:	6a 01                	push   $0x1
  402676:	ff 0c 24             	decl   (%esp)
  402679:	68 01 00 10 00       	push   $0x100001
  40267e:	ff 0c 24             	decl   (%esp)
  402681:	a1 e8 f0 41 00       	mov    0x41f0e8,%eax
  402686:	ff d0                	call   *%eax
  402688:	85 c0                	test   %eax,%eax
  40268a:	0f 85 20 93 00 00    	jne    0x40b9b0
  402690:	ba 01 00 00 00       	mov    $0x1,%edx
  402695:	13 15 e2 30 42 00    	adc    0x4230e2,%edx
  40269b:	21 35 d1 30 42 00    	and    %esi,0x4230d1
  4026a1:	8d 35 9b 17 a7 98    	lea    0x98a7179b,%esi
  4026a7:	81 ee 21 e3 64 98    	sub    $0x9864e321,%esi
  4026ad:	56                   	push   %esi
  4026ae:	8d 15 90 17 a7 98    	lea    0x98a71790,%edx
  4026b4:	81 ea 21 e3 64 98    	sub    $0x9864e321,%edx
  4026ba:	52                   	push   %edx
  4026bb:	a1 10 f1 41 00       	mov    0x41f110,%eax
  4026c0:	ff d0                	call   *%eax
  4026c2:	81 15 b6 31 42 00 df 	adcl   $0xdf,0x4231b6
  4026c9:	00 00 00 
  4026cc:	83 1d b8 31 42 00 21 	sbbl   $0x21,0x4231b8
  4026d3:	19 f8                	sbb    %edi,%eax
  4026d5:	81 0d 45 31 42 00 fd 	orl    $0xfd,0x423145
  4026dc:	00 00 00 
  4026df:	8d 15 83 17 a7 98    	lea    0x98a71783,%edx
  4026e5:	81 ea 21 e3 64 98    	sub    $0x9864e321,%edx
  4026eb:	52                   	push   %edx
  4026ec:	6a 01                	push   $0x1
  4026ee:	ff 0c 24             	decl   (%esp)
  4026f1:	68 01 00 10 00       	push   $0x100001
  4026f6:	ff 0c 24             	decl   (%esp)
  4026f9:	a1 e8 f0 41 00       	mov    0x41f0e8,%eax
  4026fe:	ff d0                	call   *%eax
  402700:	83 f8 00             	cmp    $0x0,%eax
  402703:	0f 85 a7 92 00 00    	jne    0x40b9b0
  402709:	2b 05 71 31 42 00    	sub    0x423171,%eax
  40270f:	14 56                	adc    $0x56,%al
  402711:	13 35 30 30 42 00    	adc    0x423030,%esi
  402717:	01 c6                	add    %eax,%esi
  402719:	81 15 75 30 42 00 de 	adcl   $0xde,0x423075
  402720:	00 00 00 
  402723:	8d 3d 83 17 a7 98    	lea    0x98a71783,%edi
  402729:	81 ef 21 e3 64 98    	sub    $0x9864e321,%edi
  40272f:	57                   	push   %edi
  402730:	6a 01                	push   $0x1
  402732:	ff 0c 24             	decl   (%esp)
  402735:	68 01 00 10 00       	push   $0x100001
  40273a:	ff 0c 24             	decl   (%esp)
  40273d:	a1 e8 f0 41 00       	mov    0x41f0e8,%eax
  402742:	ff d0                	call   *%eax
  402744:	85 c0                	test   %eax,%eax
  402746:	0f 85 64 92 00 00    	jne    0x40b9b0
  40274c:	01 3d 30 30 42 00    	add    %edi,0x423030
  402752:	31 c6                	xor    %eax,%esi
  402754:	8d 3d 9b 17 a7 98    	lea    0x98a7179b,%edi
  40275a:	81 ef 21 e3 64 98    	sub    $0x9864e321,%edi
  402760:	57                   	push   %edi
  402761:	8d 05 90 17 a7 98    	lea    0x98a71790,%eax
  402767:	2d 21 e3 64 98       	sub    $0x9864e321,%eax
  40276c:	50                   	push   %eax
  40276d:	a1 10 f1 41 00       	mov    0x41f110,%eax
  402772:	ff d0                	call   *%eax
  402774:	8d 15 9b 17 a7 98    	lea    0x98a7179b,%edx
  40277a:	81 ea 21 e3 64 98    	sub    $0x9864e321,%edx
  402780:	52                   	push   %edx
  402781:	8d 05 90 17 a7 98    	lea    0x98a71790,%eax
  402787:	2d 21 e3 64 98       	sub    $0x9864e321,%eax
  40278c:	50                   	push   %eax
  40278d:	a1 10 f1 41 00       	mov    0x41f110,%eax
  402792:	ff d0                	call   *%eax
  402794:	0a 3d e4 31 42 00    	or     0x4231e4,%bh
  40279a:	13 1d de 31 42 00    	adc    0x4231de,%ebx
  4027a0:	19 05 fc 30 42 00    	sbb    %eax,0x4230fc
  4027a6:	01 05 69 31 42 00    	add    %eax,0x423169
  4027ac:	82 c3 98             	add    $0x98,%bl
  4027af:	8d 3d 83 17 a7 98    	lea    0x98a71783,%edi
  4027b5:	81 ef 21 e3 64 98    	sub    $0x9864e321,%edi
  4027bb:	57                   	push   %edi
  4027bc:	6a 01                	push   $0x1
  4027be:	ff 0c 24             	decl   (%esp)
  4027c1:	68 01 00 10 00       	push   $0x100001
  4027c6:	ff 0c 24             	decl   (%esp)
  4027c9:	a1 e8 f0 41 00       	mov    0x41f0e8,%eax
  4027ce:	ff d0                	call   *%eax
  4027d0:	83 f8 00             	cmp    $0x0,%eax
  4027d3:	0f 85 d7 91 00 00    	jne    0x40b9b0
  4027d9:	ba 01 00 00 00       	mov    $0x1,%edx
  4027de:	83 c2 a0             	add    $0xffffffa0,%edx
  4027e1:	11 de                	adc    %ebx,%esi
  4027e3:	83 c0 8a             	add    $0xffffff8a,%eax
  4027e6:	2e e9 ee 8c 00 00    	cs jmp 0x40b4da
  4027ec:	c7 05 77 31 42 00 fc 	movl   $0xfc,0x423177
  4027f3:	00 00 00 
  4027f6:	19 35 7b 30 42 00    	sbb    %esi,0x42307b
  4027fc:	29 1d b6 30 42 00    	sub    %ebx,0x4230b6
  402802:	81 1d 2d 30 42 00 a7 	sbbl   $0xa7,0x42302d
  402809:	00 00 00 
  40280c:	83 eb f6             	sub    $0xfffffff6,%ebx
	...
  40281b:	00 01                	add    %al,(%ecx)
  40281d:	fb                   	sti
  40281e:	8d 15 83 17 a7 98    	lea    0x98a71783,%edx
  402824:	81 ea 21 e3 64 98    	sub    $0x9864e321,%edx
  40282a:	52                   	push   %edx
  40282b:	6a 01                	push   $0x1
  40282d:	ff 0c 24             	decl   (%esp)
  402830:	68 01 00 10 00       	push   $0x100001
  402835:	ff 0c 24             	decl   (%esp)
  402838:	a1 e8 f0 41 00       	mov    0x41f0e8,%eax
  40283d:	ff d0                	call   *%eax
  40283f:	85 c0                	test   %eax,%eax
  402841:	0f 85 69 91 00 00    	jne    0x40b9b0
  402847:	09 3d ac 30 42 00    	or     %edi,0x4230ac
  40284d:	8d 05 83 17 a7 98    	lea    0x98a71783,%eax
  402853:	2d 21 e3 64 98       	sub    $0x9864e321,%eax
  402858:	50                   	push   %eax
  402859:	6a 01                	push   $0x1
  40285b:	ff 0c 24             	decl   (%esp)
  40285e:	68 01 00 10 00       	push   $0x100001
  402863:	ff 0c 24             	decl   (%esp)
  402866:	a1 e8 f0 41 00       	mov    0x41f0e8,%eax
  40286b:	ff d0                	call   *%eax
  40286d:	85 c0                	test   %eax,%eax
  40286f:	0f 85 3b 91 00 00    	jne    0x40b9b0
  402875:	81 1d 65 31 42 00 aa 	sbbl   $0xaa,0x423165
  40287c:	00 00 00 
  40287f:	21 1d d4 31 42 00    	and    %ebx,0x4231d4
  402885:	8d 3d 83 17 a7 98    	lea    0x98a71783,%edi
  40288b:	81 ef 21 e3 64 98    	sub    $0x9864e321,%edi
  402891:	57                   	push   %edi
  402892:	6a 01                	push   $0x1
  402894:	ff 0c 24             	decl   (%esp)
  402897:	68 01 00 10 00       	push   $0x100001
  40289c:	ff 0c 24             	decl   (%esp)
  40289f:	a1 e8 f0 41 00       	mov    0x41f0e8,%eax
  4028a4:	ff d0                	call   *%eax
  4028a6:	85 c0                	test   %eax,%eax
  4028a8:	0f 85 02 91 00 00    	jne    0x40b9b0
  4028ae:	81 0d f8 30 42 00 f3 	orl    $0xf3,0x4230f8
  4028b5:	00 00 00 
  4028b8:	83 c7 90             	add    $0xffffff90,%edi
  4028bb:	83 ce 21             	or     $0x21,%esi
  4028be:	83 c0 c4             	add    $0xffffffc4,%eax
  4028c1:	09 35 b6 31 42 00    	or     %esi,0x4231b6
  4028c7:	8d 05 9b 17 a7 98    	lea    0x98a7179b,%eax
  4028cd:	2d 21 e3 64 98       	sub    $0x9864e321,%eax
  4028d2:	50                   	push   %eax
  4028d3:	8d 15 90 17 a7 98    	lea    0x98a71790,%edx
  4028d9:	81 ea 21 e3 64 98    	sub    $0x9864e321,%edx
  4028df:	52                   	push   %edx
  4028e0:	a1 10 f1 41 00       	mov    0x41f110,%eax
  4028e5:	ff d0                	call   *%eax
  4028e7:	83 0d 05 30 42 00 65 	orl    $0x65,0x423005
  4028ee:	29 ff                	sub    %edi,%edi
  4028f0:	8d 3d 9b 17 a7 98    	lea    0x98a7179b,%edi
  4028f6:	81 ef 21 e3 64 98    	sub    $0x9864e321,%edi
  4028fc:	57                   	push   %edi
  4028fd:	8d 3d 90 17 a7 98    	lea    0x98a71790,%edi
  402903:	81 ef 21 e3 64 98    	sub    $0x9864e321,%edi
  402909:	57                   	push   %edi
  40290a:	a1 10 f1 41 00       	mov    0x41f110,%eax
  40290f:	ff d0                	call   *%eax
  402911:	ba 01 00 00 00       	mov    $0x1,%edx
  402916:	83 c2 5f             	add    $0x5f,%edx
  402919:	19 d3                	sbb    %edx,%ebx
  40291b:	8d 05 83 17 a7 98    	lea    0x98a71783,%eax
  402921:	2d 21 e3 64 98       	sub    $0x9864e321,%eax
  402926:	50                   	push   %eax
  402927:	6a 01                	push   $0x1
  402929:	ff 0c 24             	decl   (%esp)
  40292c:	68 01 00 10 00       	push   $0x100001
  402931:	ff 0c 24             	decl   (%esp)
  402934:	a1 e8 f0 41 00       	mov    0x41f0e8,%eax
  402939:	ff d0                	call   *%eax
  40293b:	85 c0                	test   %eax,%eax
  40293d:	0f 85 6d 90 00 00    	jne    0x40b9b0
  402943:	81 1d 69 30 42 00 fc 	sbbl   $0xfc,0x423069
  40294a:	00 00 00 
  40294d:	8d 05 83 17 a7 98    	lea    0x98a71783,%eax
  402953:	2d 21 e3 64 98       	sub    $0x9864e321,%eax
  402958:	50                   	push   %eax
  402959:	6a 01                	push   $0x1
  40295b:	ff 0c 24             	decl   (%esp)
  40295e:	68 01 00 10 00       	push   $0x100001
  402963:	ff 0c 24             	decl   (%esp)
  402966:	a1 e8 f0 41 00       	mov    0x41f0e8,%eax
  40296b:	ff d0                	call   *%eax
  40296d:	83 f8 00             	cmp    $0x0,%eax
  402970:	0f 85 3a 90 00 00    	jne    0x40b9b0
  402976:	83 c6 f2             	add    $0xfffffff2,%esi
  402979:	b2 01                	mov    $0x1,%dl
  40297b:	82 c2 66             	add    $0x66,%dl
  40297e:	b9 01 00 00 00       	mov    $0x1,%ecx
  402983:	83 c1 36             	add    $0x36,%ecx
  402986:	81 15 41 30 42 00 d4 	adcl   $0xd4,0x423041
  40298d:	00 00 00 
  402990:	01 cb                	add    %ecx,%ebx
  402992:	8d 35 9b 17 a7 98    	lea    0x98a7179b,%esi
  402998:	81 ee 21 e3 64 98    	sub    $0x9864e321,%esi
  40299e:	56                   	push   %esi
  40299f:	8d 3d 90 17 a7 98    	lea    0x98a71790,%edi
  4029a5:	81 ef 21 e3 64 98    	sub    $0x9864e321,%edi
  4029ab:	57                   	push   %edi
  4029ac:	a1 10 f1 41 00       	mov    0x41f110,%eax
  4029b1:	ff d0                	call   *%eax
  4029b3:	8d 0d 9b 17 a7 98    	lea    0x98a7179b,%ecx
  4029b9:	81 e9 21 e3 64 98    	sub    $0x9864e321,%ecx
  4029bf:	51                   	push   %ecx
  4029c0:	8d 0d 90 17 a7 98    	lea    0x98a71790,%ecx
  4029c6:	81 e9 21 e3 64 98    	sub    $0x9864e321,%ecx
  4029cc:	51                   	push   %ecx
  4029cd:	a1 10 f1 41 00       	mov    0x41f110,%eax
  4029d2:	ff d0                	call   *%eax
  4029d4:	83 15 b1 30 42 00 36 	adcl   $0x36,0x4230b1
  4029db:	24 af                	and    $0xaf,%al
  4029dd:	8d 0d 9b 17 a7 98    	lea    0x98a7179b,%ecx
  4029e3:	81 e9 21 e3 64 98    	sub    $0x9864e321,%ecx
  4029e9:	51                   	push   %ecx
  4029ea:	8d 3d 90 17 a7 98    	lea    0x98a71790,%edi
  4029f0:	81 ef 21 e3 64 98    	sub    $0x9864e321,%edi
  4029f6:	57                   	push   %edi
  4029f7:	a1 10 f1 41 00       	mov    0x41f110,%eax
  4029fc:	ff d0                	call   *%eax
  4029fe:	11 c6                	adc    %eax,%esi
  402a00:	c7 05 24 31 42 00 cd 	movl   $0xcd,0x423124
  402a07:	00 00 00 
  402a0a:	83 35 79 31 42 00 57 	xorl   $0x57,0x423179
  402a11:	8d 35 9b 17 a7 98    	lea    0x98a7179b,%esi
  402a17:	81 ee 21 e3 64 98    	sub    $0x9864e321,%esi
  402a1d:	56                   	push   %esi
  402a1e:	8d 3d 90 17 a7 98    	lea    0x98a71790,%edi
  402a24:	81 ef 21 e3 64 98    	sub    $0x9864e321,%edi
  402a2a:	57                   	push   %edi
  402a2b:	a1 10 f1 41 00       	mov    0x41f110,%eax
  402a30:	ff d0                	call   *%eax
  402a32:	8d 3d 9b 17 a7 98    	lea    0x98a7179b,%edi
  402a38:	81 ef 21 e3 64 98    	sub    $0x9864e321,%edi
  402a3e:	57                   	push   %edi
  402a3f:	8d 1d 90 17 a7 98    	lea    0x98a71790,%ebx
  402a45:	81 eb 21 e3 64 98    	sub    $0x9864e321,%ebx
  402a4b:	53                   	push   %ebx
  402a4c:	a1 10 f1 41 00       	mov    0x41f110,%eax
  402a51:	ff d0                	call   *%eax
  402a53:	19 de                	sbb    %ebx,%esi
  402a55:	b6 01                	mov    $0x1,%dh
  402a57:	82 c6 d8             	add    $0xd8,%dh
  402a5a:	b9 01 00 00 00       	mov    $0x1,%ecx
  402a5f:	13 0d 0f 30 42 00    	adc    0x42300f,%ecx
  402a65:	83 c0 65             	add    $0x65,%eax
  402a68:	82 2d bd 31 42 00 94 	subb   $0x94,0x4231bd
  402a6f:	2e e9 65 8a 00 00    	cs jmp 0x40b4da
  402a75:	01 15 e6 30 42 00    	add    %edx,0x4230e6
  402a7b:	13 15 43 31 42 00    	adc    0x423143,%edx
  402a81:	01 15 00 31 42 00    	add    %edx,0x423100
  402a87:	11 c1                	adc    %eax,%ecx
	...
  402a95:	00 00                	add    %al,(%eax)
  402a97:	01 c6                	add    %eax,%esi
  402a99:	81 0d 20 30 42 00 a8 	orl    $0xa8,0x423020
  402aa0:	00 00 00 
  402aa3:	8d 3d 83 17 a7 98    	lea    0x98a71783,%edi
  402aa9:	81 ef 21 e3 64 98    	sub    $0x9864e321,%edi
  402aaf:	57                   	push   %edi
  402ab0:	6a 01                	push   $0x1
  402ab2:	ff 0c 24             	decl   (%esp)
  402ab5:	68 01 00 10 00       	push   $0x100001
  402aba:	ff 0c 24             	decl   (%esp)
  402abd:	a1 e8 f0 41 00       	mov    0x41f0e8,%eax
  402ac2:	ff d0                	call   *%eax
  402ac4:	83 f8 00             	cmp    $0x0,%eax
  402ac7:	0f 85 e3 8e 00 00    	jne    0x40b9b0
  402acd:	31 1d ef 30 42 00    	xor    %ebx,0x4230ef
  402ad3:	01 1d b5 31 42 00    	add    %ebx,0x4231b5
  402ad9:	b9 01 00 00 00       	mov    $0x1,%ecx
  402ade:	83 c1 f4             	add    $0xfffffff4,%ecx
  402ae1:	ba 01 00 00 00       	mov    $0x1,%edx
  402ae6:	83 c2 d3             	add    $0xffffffd3,%edx
  402ae9:	21 3d 1c 31 42 00    	and    %edi,0x42311c
  402aef:	8d 3d 9b 17 a7 98    	lea    0x98a7179b,%edi
  402af5:	81 ef 21 e3 64 98    	sub    $0x9864e321,%edi
  402afb:	57                   	push   %edi
  402afc:	8d 0d 90 17 a7 98    	lea    0x98a71790,%ecx
  402b02:	81 e9 21 e3 64 98    	sub    $0x9864e321,%ecx
  402b08:	51                   	push   %ecx
  402b09:	a1 10 f1 41 00       	mov    0x41f110,%eax
  402b0e:	ff d0                	call   *%eax
  402b10:	8d 0d 9b 17 a7 98    	lea    0x98a7179b,%ecx
  402b16:	81 e9 21 e3 64 98    	sub    $0x9864e321,%ecx
  402b1c:	51                   	push   %ecx
  402b1d:	8d 15 90 17 a7 98    	lea    0x98a71790,%edx
  402b23:	81 ea 21 e3 64 98    	sub    $0x9864e321,%edx
  402b29:	52                   	push   %edx
  402b2a:	a1 10 f1 41 00       	mov    0x41f110,%eax
  402b2f:	ff d0                	call   *%eax
  402b31:	83 d6 45             	adc    $0x45,%esi
  402b34:	11 db                	adc    %ebx,%ebx
  402b36:	8d 15 83 17 a7 98    	lea    0x98a71783,%edx
  402b3c:	81 ea 21 e3 64 98    	sub    $0x9864e321,%edx
  402b42:	52                   	push   %edx
  402b43:	6a 01                	push   $0x1
  402b45:	ff 0c 24             	decl   (%esp)
  402b48:	68 01 00 10 00       	push   $0x100001
  402b4d:	ff 0c 24             	decl   (%esp)
  402b50:	a1 e8 f0 41 00       	mov    0x41f0e8,%eax
  402b55:	ff d0                	call   *%eax
  402b57:	83 f8 00             	cmp    $0x0,%eax
  402b5a:	0f 85 50 8e 00 00    	jne    0x40b9b0
  402b60:	8d 1d 83 17 a7 98    	lea    0x98a71783,%ebx
  402b66:	81 eb 21 e3 64 98    	sub    $0x9864e321,%ebx
  402b6c:	53                   	push   %ebx
  402b6d:	6a 01                	push   $0x1
  402b6f:	ff 0c 24             	decl   (%esp)
  402b72:	68 01 00 10 00       	push   $0x100001
  402b77:	ff 0c 24             	decl   (%esp)
  402b7a:	a1 e8 f0 41 00       	mov    0x41f0e8,%eax
  402b7f:	ff d0                	call   *%eax
  402b81:	83 f8 00             	cmp    $0x0,%eax
  402b84:	0f 85 26 8e 00 00    	jne    0x40b9b0
  402b8a:	81 15 14 30 42 00 c1 	adcl   $0xc1,0x423014
  402b91:	00 00 00 
  402b94:	b6 01                	mov    $0x1,%dh
  402b96:	82 c6 fb             	add    $0xfb,%dh
  402b99:	81 25 9f 30 42 00 f2 	andl   $0xf2,0x42309f
  402ba0:	00 00 00 
  402ba3:	8d 05 83 17 a7 98    	lea    0x98a71783,%eax
  402ba9:	2d 21 e3 64 98       	sub    $0x9864e321,%eax
  402bae:	50                   	push   %eax
  402baf:	6a 01                	push   $0x1
  402bb1:	ff 0c 24             	decl   (%esp)
  402bb4:	68 01 00 10 00       	push   $0x100001
  402bb9:	ff 0c 24             	decl   (%esp)
  402bbc:	a1 e8 f0 41 00       	mov    0x41f0e8,%eax
  402bc1:	ff d0                	call   *%eax
  402bc3:	83 f8 00             	cmp    $0x0,%eax
  402bc6:	0f 85 e4 8d 00 00    	jne    0x40b9b0
  402bcc:	81 35 48 30 42 00 db 	xorl   $0xdb,0x423048
  402bd3:	00 00 00 
  402bd6:	01 35 e7 30 42 00    	add    %esi,0x4230e7
  402bdc:	13 3d 79 30 42 00    	adc    0x423079,%edi
  402be2:	8d 05 9b 17 a7 98    	lea    0x98a7179b,%eax
  402be8:	2d 21 e3 64 98       	sub    $0x9864e321,%eax
  402bed:	50                   	push   %eax
  402bee:	8d 1d 90 17 a7 98    	lea    0x98a71790,%ebx
  402bf4:	81 eb 21 e3 64 98    	sub    $0x9864e321,%ebx
  402bfa:	53                   	push   %ebx
  402bfb:	a1 10 f1 41 00       	mov    0x41f110,%eax
  402c00:	ff d0                	call   *%eax
  402c02:	11 f0                	adc    %esi,%eax
  402c04:	13 05 c2 31 42 00    	adc    0x4231c2,%eax
  402c0a:	11 05 10 31 42 00    	adc    %eax,0x423110
  402c10:	81 25 ba 30 42 00 8d 	andl   $0x8d,0x4230ba
  402c17:	00 00 00 
  402c1a:	ba 01 00 00 00       	mov    $0x1,%edx
  402c1f:	13 15 b1 31 42 00    	adc    0x4231b1,%edx
  402c25:	8d 3d 83 17 a7 98    	lea    0x98a71783,%edi
  402c2b:	81 ef 21 e3 64 98    	sub    $0x9864e321,%edi
  402c31:	57                   	push   %edi
  402c32:	6a 01                	push   $0x1
  402c34:	ff 0c 24             	decl   (%esp)
  402c37:	68 01 00 10 00       	push   $0x100001
  402c3c:	ff 0c 24             	decl   (%esp)
  402c3f:	a1 e8 f0 41 00       	mov    0x41f0e8,%eax
  402c44:	ff d0                	call   *%eax
  402c46:	85 c0                	test   %eax,%eax
  402c48:	0f 85 62 8d 00 00    	jne    0x40b9b0
  402c4e:	b9 01 00 00 00       	mov    $0x1,%ecx
  402c53:	13 0d fb 31 42 00    	adc    0x4231fb,%ecx
  402c59:	81 35 7e 30 42 00 ab 	xorl   $0xab,0x42307e
  402c60:	00 00 00 
  402c63:	83 1d 4e 31 42 00 39 	sbbl   $0x39,0x42314e
  402c6a:	8d 0d 83 17 a7 98    	lea    0x98a71783,%ecx
  402c70:	81 e9 21 e3 64 98    	sub    $0x9864e321,%ecx
  402c76:	51                   	push   %ecx
  402c77:	6a 01                	push   $0x1
  402c79:	ff 0c 24             	decl   (%esp)
  402c7c:	68 01 00 10 00       	push   $0x100001
  402c81:	ff 0c 24             	decl   (%esp)
  402c84:	a1 e8 f0 41 00       	mov    0x41f0e8,%eax
  402c89:	ff d0                	call   *%eax
  402c8b:	85 c0                	test   %eax,%eax
  402c8d:	0f 85 1d 8d 00 00    	jne    0x40b9b0
  402c93:	13 05 df 30 42 00    	adc    0x4230df,%eax
  402c99:	ba 01 00 00 00       	mov    $0x1,%edx
  402c9e:	01 da                	add    %ebx,%edx
  402ca0:	8d 1d 9b 17 a7 98    	lea    0x98a7179b,%ebx
  402ca6:	81 eb 21 e3 64 98    	sub    $0x9864e321,%ebx
  402cac:	53                   	push   %ebx
  402cad:	8d 1d 90 17 a7 98    	lea    0x98a71790,%ebx
  402cb3:	81 eb 21 e3 64 98    	sub    $0x9864e321,%ebx
  402cb9:	53                   	push   %ebx
  402cba:	a1 10 f1 41 00       	mov    0x41f110,%eax
  402cbf:	ff d0                	call   *%eax
  402cc1:	81 25 f7 30 42 00 8a 	andl   $0x8a,0x4230f7
  402cc8:	00 00 00 
  402ccb:	01 05 71 30 42 00    	add    %eax,0x423071
  402cd1:	0a 1d e6 30 42 00    	or     0x4230e6,%bl
  402cd7:	30 05 69 30 42 00    	xor    %al,0x423069
  402cdd:	8d 1d 83 17 a7 98    	lea    0x98a71783,%ebx
  402ce3:	81 eb 21 e3 64 98    	sub    $0x9864e321,%ebx
  402ce9:	53                   	push   %ebx
  402cea:	6a 01                	push   $0x1
  402cec:	ff 0c 24             	decl   (%esp)
  402cef:	68 01 00 10 00       	push   $0x100001
  402cf4:	ff 0c 24             	decl   (%esp)
  402cf7:	a1 e8 f0 41 00       	mov    0x41f0e8,%eax
  402cfc:	ff d0                	call   *%eax
  402cfe:	83 f8 00             	cmp    $0x0,%eax
  402d01:	0f 85 a9 8c 00 00    	jne    0x40b9b0
  402d07:	13 1d 16 31 42 00    	adc    0x423116,%ebx
  402d0d:	0a 05 77 30 42 00    	or     0x423077,%al
  402d13:	31 35 27 30 42 00    	xor    %esi,0x423027
  402d19:	01 1d fd 30 42 00    	add    %ebx,0x4230fd
  402d1f:	11 35 27 30 42 00    	adc    %esi,0x423027
  402d25:	2e e9 af 87 00 00    	cs jmp 0x40b4da
  402d2b:	81 15 e5 30 42 00 97 	adcl   $0x97,0x4230e5
  402d32:	00 00 00 
  402d35:	01 df                	add    %ebx,%edi
  402d37:	00 83 15 a1 30 42    	add    %al,0x4230a115(%ebx)
  402d3d:	00 39                	add    %bh,(%ecx)
  402d3f:	b9 01 00 00 00       	mov    $0x1,%ecx
  402d44:	01 f9                	add    %edi,%ecx
  402d46:	01 c9                	add    %ecx,%ecx
  402d48:	ba 01 00 00 00       	mov    $0x1,%edx
  402d4d:	83 c2 a4             	add    $0xffffffa4,%edx
  402d50:	19 05 3c 31 42 00    	sbb    %eax,0x42313c
  402d56:	8d 0d 9b 17 a7 98    	lea    0x98a7179b,%ecx
  402d5c:	81 e9 21 e3 64 98    	sub    $0x9864e321,%ecx
  402d62:	51                   	push   %ecx
  402d63:	8d 3d 90 17 a7 98    	lea    0x98a71790,%edi
  402d69:	81 ef 21 e3 64 98    	sub    $0x9864e321,%edi
  402d6f:	57                   	push   %edi
  402d70:	a1 10 f1 41 00       	mov    0x41f110,%eax
  402d75:	ff d0                	call   *%eax
  402d77:	8d 15 83 17 a7 98    	lea    0x98a71783,%edx
  402d7d:	81 ea 21 e3 64 98    	sub    $0x9864e321,%edx
  402d83:	52                   	push   %edx
  402d84:	6a 01                	push   $0x1
  402d86:	ff 0c 24             	decl   (%esp)
  402d89:	68 01 00 10 00       	push   $0x100001
  402d8e:	ff 0c 24             	decl   (%esp)
  402d91:	a1 e8 f0 41 00       	mov    0x41f0e8,%eax
  402d96:	ff d0                	call   *%eax
  402d98:	85 c0                	test   %eax,%eax
  402d9a:	0f 85 10 8c 00 00    	jne    0x40b9b0
  402da0:	2b 35 97 30 42 00    	sub    0x423097,%esi
  402da6:	19 3d 29 30 42 00    	sbb    %edi,0x423029
  402dac:	18 c7                	sbb    %al,%bh
  402dae:	b9 01 00 00 00       	mov    $0x1,%ecx
  402db3:	13 0d ec 30 42 00    	adc    0x4230ec,%ecx
  402db9:	0a 05 ca 31 42 00    	or     0x4231ca,%al
  402dbf:	8d 0d 83 17 a7 98    	lea    0x98a71783,%ecx
  402dc5:	81 e9 21 e3 64 98    	sub    $0x9864e321,%ecx
  402dcb:	51                   	push   %ecx
  402dcc:	6a 01                	push   $0x1
  402dce:	ff 0c 24             	decl   (%esp)
  402dd1:	68 01 00 10 00       	push   $0x100001
  402dd6:	ff 0c 24             	decl   (%esp)
  402dd9:	a1 e8 f0 41 00       	mov    0x41f0e8,%eax
  402dde:	ff d0                	call   *%eax
  402de0:	85 c0                	test   %eax,%eax
  402de2:	0f 85 c8 8b 00 00    	jne    0x40b9b0
  402de8:	c7 05 9a 30 42 00 7e 	movl   $0x7e,0x42309a
  402def:	00 00 00 
  402df2:	ba 01 00 00 00       	mov    $0x1,%edx
  402df7:	01 fa                	add    %edi,%edx
  402df9:	82 d4 17             	adc    $0x17,%ah
  402dfc:	83 35 23 31 42 00 4b 	xorl   $0x4b,0x423123
  402e03:	81 1d 9a 31 42 00 e9 	sbbl   $0xe9,0x42319a
  402e0a:	00 00 00 
  402e0d:	8d 05 9b 17 a7 98    	lea    0x98a7179b,%eax
  402e13:	2d 21 e3 64 98       	sub    $0x9864e321,%eax
  402e18:	50                   	push   %eax
  402e19:	8d 1d 90 17 a7 98    	lea    0x98a71790,%ebx
  402e1f:	81 eb 21 e3 64 98    	sub    $0x9864e321,%ebx
  402e25:	53                   	push   %ebx
  402e26:	a1 10 f1 41 00       	mov    0x41f110,%eax
  402e2b:	ff d0                	call   *%eax
  402e2d:	83 15 fe 31 42 00 13 	adcl   $0x13,0x4231fe
  402e34:	82 2d 9b 30 42 00 60 	subb   $0x60,0x42309b
  402e3b:	01 fe                	add    %edi,%esi
  402e3d:	ba 01 00 00 00       	mov    $0x1,%edx
  402e42:	83 c2 21             	add    $0x21,%edx
  402e45:	b9 01 00 00 00       	mov    $0x1,%ecx
  402e4a:	01 d9                	add    %ebx,%ecx
  402e4c:	8d 05 83 17 a7 98    	lea    0x98a71783,%eax
  402e52:	2d 21 e3 64 98       	sub    $0x9864e321,%eax
  402e57:	50                   	push   %eax
  402e58:	6a 01                	push   $0x1
  402e5a:	ff 0c 24             	decl   (%esp)
  402e5d:	68 01 00 10 00       	push   $0x100001
  402e62:	ff 0c 24             	decl   (%esp)
  402e65:	a1 e8 f0 41 00       	mov    0x41f0e8,%eax
  402e6a:	ff d0                	call   *%eax
  402e6c:	85 c0                	test   %eax,%eax
  402e6e:	0f 85 3c 8b 00 00    	jne    0x40b9b0
  402e74:	13 1d e6 31 42 00    	adc    0x4231e6,%ebx
  402e7a:	29 c6                	sub    %eax,%esi
  402e7c:	2b 3d 47 30 42 00    	sub    0x423047,%edi
  402e82:	8d 1d 9b 17 a7 98    	lea    0x98a7179b,%ebx
  402e88:	81 eb 21 e3 64 98    	sub    $0x9864e321,%ebx
  402e8e:	53                   	push   %ebx
  402e8f:	8d 3d 90 17 a7 98    	lea    0x98a71790,%edi
  402e95:	81 ef 21 e3 64 98    	sub    $0x9864e321,%edi
  402e9b:	57                   	push   %edi
  402e9c:	a1 10 f1 41 00       	mov    0x41f110,%eax
  402ea1:	ff d0                	call   *%eax
  402ea3:	ba 01 00 00 00       	mov    $0x1,%edx
  402ea8:	83 c2 23             	add    $0x23,%edx
  402eab:	01 1d 50 30 42 00    	add    %ebx,0x423050
  402eb1:	81 15 5c 31 42 00 9b 	adcl   $0x9b,0x42315c
  402eb8:	00 00 00 
  402ebb:	19 05 35 31 42 00    	sbb    %eax,0x423135
  402ec1:	8d 05 83 17 a7 98    	lea    0x98a71783,%eax
  402ec7:	2d 21 e3 64 98       	sub    $0x9864e321,%eax
  402ecc:	50                   	push   %eax
  402ecd:	6a 01                	push   $0x1
  402ecf:	ff 0c 24             	decl   (%esp)
  402ed2:	68 01 00 10 00       	push   $0x100001
  402ed7:	ff 0c 24             	decl   (%esp)
  402eda:	a1 e8 f0 41 00       	mov    0x41f0e8,%eax
  402edf:	ff d0                	call   *%eax
  402ee1:	83 f8 00             	cmp    $0x0,%eax
  402ee4:	0f 85 c6 8a 00 00    	jne    0x40b9b0
  402eea:	ba 01 00 00 00       	mov    $0x1,%edx
  402eef:	01 da                	add    %ebx,%edx
  402ef1:	83 1d 20 31 42 00 19 	sbbl   $0x19,0x423120
  402ef8:	8d 35 9b 17 a7 98    	lea    0x98a7179b,%esi
  402efe:	81 ee 21 e3 64 98    	sub    $0x9864e321,%esi
  402f04:	56                   	push   %esi
  402f05:	8d 1d 90 17 a7 98    	lea    0x98a71790,%ebx
  402f0b:	81 eb 21 e3 64 98    	sub    $0x9864e321,%ebx
  402f11:	53                   	push   %ebx
  402f12:	a1 10 f1 41 00       	mov    0x41f110,%eax
  402f17:	ff d0                	call   *%eax
  402f19:	2b 05 f2 30 42 00    	sub    0x4230f2,%eax
  402f1f:	11 05 e0 30 42 00    	adc    %eax,0x4230e0
  402f25:	0b 35 2c 31 42 00    	or     0x42312c,%esi
  402f2b:	19 3d 46 30 42 00    	sbb    %edi,0x423046
  402f31:	83 e7 3d             	and    $0x3d,%edi
  402f34:	8d 1d 9b 17 a7 98    	lea    0x98a7179b,%ebx
  402f3a:	81 eb 21 e3 64 98    	sub    $0x9864e321,%ebx
  402f40:	53                   	push   %ebx
  402f41:	8d 0d 90 17 a7 98    	lea    0x98a71790,%ecx
  402f47:	81 e9 21 e3 64 98    	sub    $0x9864e321,%ecx
  402f4d:	51                   	push   %ecx
  402f4e:	a1 10 f1 41 00       	mov    0x41f110,%eax
  402f53:	ff d0                	call   *%eax
  402f55:	81 15 f7 30 42 00 8d 	adcl   $0x8d,0x4230f7
  402f5c:	00 00 00 
  402f5f:	0a 3d 89 30 42 00    	or     0x423089,%bh
  402f65:	21 3d ca 31 42 00    	and    %edi,0x4231ca
  402f6b:	8d 05 9b 17 a7 98    	lea    0x98a7179b,%eax
  402f71:	2d 21 e3 64 98       	sub    $0x9864e321,%eax
  402f76:	50                   	push   %eax
  402f77:	8d 3d 90 17 a7 98    	lea    0x98a71790,%edi
  402f7d:	81 ef 21 e3 64 98    	sub    $0x9864e321,%edi
  402f83:	57                   	push   %edi
  402f84:	a1 10 f1 41 00       	mov    0x41f110,%eax
  402f89:	ff d0                	call   *%eax
  402f8b:	13 1d 3c 31 42 00    	adc    0x42313c,%ebx
  402f91:	13 35 c9 31 42 00    	adc    0x4231c9,%esi
  402f97:	b9 01 00 00 00       	mov    $0x1,%ecx
  402f9c:	01 f1                	add    %esi,%ecx
  402f9e:	01 3d aa 30 42 00    	add    %edi,0x4230aa
  402fa4:	c7 05 a1 30 42 00 cf 	movl   $0xcf,0x4230a1
  402fab:	00 00 00 
  402fae:	2e e9 26 85 00 00    	cs jmp 0x40b4da
  402fb4:	11 3d 78 30 42 00    	adc    %edi,0x423078
  402fba:	13 3d 1d 31 42 00    	adc    0x42311d,%edi
  402fc0:	0b 05 cb 31 42 00    	or     0x4231cb,%eax
	...
  402fd2:	00 00                	add    %al,(%eax)
  402fd4:	00 83 de 3b 12 25    	add    %al,0x25123bde(%ebx)
  402fda:	e0 30                	loopne 0x40300c
  402fdc:	42                   	inc    %edx
  402fdd:	00 01                	add    %al,(%ecx)
  402fdf:	c6 83 35 22 30 42 00 	movb   $0x0,0x42302235(%ebx)
  402fe6:	7b 8d                	jnp    0x402f75
  402fe8:	15 83 17 a7 98       	adc    $0x98a71783,%eax
  402fed:	81 ea 21 e3 64 98    	sub    $0x9864e321,%edx
  402ff3:	52                   	push   %edx
  402ff4:	6a 01                	push   $0x1
  402ff6:	ff 0c 24             	decl   (%esp)
  402ff9:	68 01 00 10 00       	push   $0x100001
  402ffe:	ff 0c 24             	decl   (%esp)
  403001:	a1 e8 f0 41 00       	mov    0x41f0e8,%eax
  403006:	ff d0                	call   *%eax
  403008:	83 f8 00             	cmp    $0x0,%eax
  40300b:	0f 85 9f 89 00 00    	jne    0x40b9b0
  403011:	8d 0d 9b 17 a7 98    	lea    0x98a7179b,%ecx
  403017:	81 e9 21 e3 64 98    	sub    $0x9864e321,%ecx
  40301d:	51                   	push   %ecx
  40301e:	8d 05 90 17 a7 98    	lea    0x98a71790,%eax
  403024:	2d 21 e3 64 98       	sub    $0x9864e321,%eax
  403029:	50                   	push   %eax
  40302a:	a1 10 f1 41 00       	mov    0x41f110,%eax
  40302f:	ff d0                	call   *%eax
  403031:	19 c3                	sbb    %eax,%ebx
  403033:	c7 05 ff 31 42 00 d5 	movl   $0xd5,0x4231ff
  40303a:	00 00 00 
  40303d:	01 05 15 30 42 00    	add    %eax,0x423015
  403043:	83 d7 12             	adc    $0x12,%edi
  403046:	8d 3d 83 17 a7 98    	lea    0x98a71783,%edi
  40304c:	81 ef 21 e3 64 98    	sub    $0x9864e321,%edi
  403052:	57                   	push   %edi
  403053:	6a 01                	push   $0x1
  403055:	ff 0c 24             	decl   (%esp)
  403058:	68 01 00 10 00       	push   $0x100001
  40305d:	ff 0c 24             	decl   (%esp)
  403060:	a1 e8 f0 41 00       	mov    0x41f0e8,%eax
  403065:	ff d0                	call   *%eax
  403067:	85 c0                	test   %eax,%eax
  403069:	0f 85 41 89 00 00    	jne    0x40b9b0
  40306f:	01 f8                	add    %edi,%eax
  403071:	19 35 f8 30 42 00    	sbb    %esi,0x4230f8
  403077:	83 eb 46             	sub    $0x46,%ebx
  40307a:	ba 01 00 00 00       	mov    $0x1,%edx
  40307f:	83 c2 a6             	add    $0xffffffa6,%edx
  403082:	13 3d 74 30 42 00    	adc    0x423074,%edi
  403088:	8d 3d 9b 17 a7 98    	lea    0x98a7179b,%edi
  40308e:	81 ef 21 e3 64 98    	sub    $0x9864e321,%edi
  403094:	57                   	push   %edi
  403095:	8d 15 90 17 a7 98    	lea    0x98a71790,%edx
  40309b:	81 ea 21 e3 64 98    	sub    $0x9864e321,%edx
  4030a1:	52                   	push   %edx
  4030a2:	a1 10 f1 41 00       	mov    0x41f110,%eax
  4030a7:	ff d0                	call   *%eax
  4030a9:	83 15 b9 31 42 00 60 	adcl   $0x60,0x4231b9
  4030b0:	8d 35 9b 17 a7 98    	lea    0x98a7179b,%esi
  4030b6:	81 ee 21 e3 64 98    	sub    $0x9864e321,%esi
  4030bc:	56                   	push   %esi
  4030bd:	8d 05 90 17 a7 98    	lea    0x98a71790,%eax
  4030c3:	2d 21 e3 64 98       	sub    $0x9864e321,%eax
  4030c8:	50                   	push   %eax
  4030c9:	a1 10 f1 41 00       	mov    0x41f110,%eax
  4030ce:	ff d0                	call   *%eax
  4030d0:	13 1d 9f 30 42 00    	adc    0x42309f,%ebx
  4030d6:	21 05 3c 31 42 00    	and    %eax,0x42313c
  4030dc:	83 0d c0 31 42 00 22 	orl    $0x22,0x4231c0
  4030e3:	8d 0d 9b 17 a7 98    	lea    0x98a7179b,%ecx
  4030e9:	81 e9 21 e3 64 98    	sub    $0x9864e321,%ecx
  4030ef:	51                   	push   %ecx
  4030f0:	8d 05 90 17 a7 98    	lea    0x98a71790,%eax
  4030f6:	2d 21 e3 64 98       	sub    $0x9864e321,%eax
  4030fb:	50                   	push   %eax
  4030fc:	a1 10 f1 41 00       	mov    0x41f110,%eax
  403101:	ff d0                	call   *%eax
  403103:	2b 05 98 30 42 00    	sub    0x423098,%eax
  403109:	19 f7                	sbb    %esi,%edi
  40310b:	29 1d 74 31 42 00    	sub    %ebx,0x423174
  403111:	8d 3d 9b 17 a7 98    	lea    0x98a7179b,%edi
  403117:	81 ef 21 e3 64 98    	sub    $0x9864e321,%edi
  40311d:	57                   	push   %edi
  40311e:	8d 35 90 17 a7 98    	lea    0x98a71790,%esi
  403124:	81 ee 21 e3 64 98    	sub    $0x9864e321,%esi
  40312a:	56                   	push   %esi
  40312b:	a1 10 f1 41 00       	mov    0x41f110,%eax
  403130:	ff d0                	call   *%eax
  403132:	83 c0 96             	add    $0xffffff96,%eax
  403135:	8d 35 83 17 a7 98    	lea    0x98a71783,%esi
  40313b:	81 ee 21 e3 64 98    	sub    $0x9864e321,%esi
  403141:	56                   	push   %esi
  403142:	6a 01                	push   $0x1
  403144:	ff 0c 24             	decl   (%esp)
  403147:	68 01 00 10 00       	push   $0x100001
  40314c:	ff 0c 24             	decl   (%esp)
  40314f:	a1 e8 f0 41 00       	mov    0x41f0e8,%eax
  403154:	ff d0                	call   *%eax
  403156:	83 f8 00             	cmp    $0x0,%eax
  403159:	0f 85 51 88 00 00    	jne    0x40b9b0
  40315f:	11 05 be 30 42 00    	adc    %eax,0x4230be
  403165:	01 c0                	add    %eax,%eax
  403167:	81 1d 78 30 42 00 92 	sbbl   $0x92,0x423078
  40316e:	00 00 00 
  403171:	13 05 65 30 42 00    	adc    0x423065,%eax
  403177:	8d 15 9b 17 a7 98    	lea    0x98a7179b,%edx
  40317d:	81 ea 21 e3 64 98    	sub    $0x9864e321,%edx
  403183:	52                   	push   %edx
  403184:	8d 3d 90 17 a7 98    	lea    0x98a71790,%edi
  40318a:	81 ef 21 e3 64 98    	sub    $0x9864e321,%edi
  403190:	57                   	push   %edi
  403191:	a1 10 f1 41 00       	mov    0x41f110,%eax
  403196:	ff d0                	call   *%eax
  403198:	83 15 f9 31 42 00 5d 	adcl   $0x5d,0x4231f9
  40319f:	8d 1d 83 17 a7 98    	lea    0x98a71783,%ebx
  4031a5:	81 eb 21 e3 64 98    	sub    $0x9864e321,%ebx
  4031ab:	53                   	push   %ebx
  4031ac:	6a 01                	push   $0x1
  4031ae:	ff 0c 24             	decl   (%esp)
  4031b1:	68 01 00 10 00       	push   $0x100001
  4031b6:	ff 0c 24             	decl   (%esp)
  4031b9:	a1 e8 f0 41 00       	mov    0x41f0e8,%eax
  4031be:	ff d0                	call   *%eax
  4031c0:	83 f8 00             	cmp    $0x0,%eax
  4031c3:	0f 85 e7 87 00 00    	jne    0x40b9b0
  4031c9:	19 35 be 31 42 00    	sbb    %esi,0x4231be
  4031cf:	8d 3d 9b 17 a7 98    	lea    0x98a7179b,%edi
  4031d5:	81 ef 21 e3 64 98    	sub    $0x9864e321,%edi
  4031db:	57                   	push   %edi
  4031dc:	8d 05 90 17 a7 98    	lea    0x98a71790,%eax
  4031e2:	2d 21 e3 64 98       	sub    $0x9864e321,%eax
  4031e7:	50                   	push   %eax
  4031e8:	a1 10 f1 41 00       	mov    0x41f110,%eax
  4031ed:	ff d0                	call   *%eax
  4031ef:	83 15 eb 31 42 00 14 	adcl   $0x14,0x4231eb
  4031f6:	c7 05 f2 30 42 00 80 	movl   $0x80,0x4230f2
  4031fd:	00 00 00 
  403200:	13 1d 3f 30 42 00    	adc    0x42303f,%ebx
  403206:	81 0d 31 31 42 00 8d 	orl    $0x8d,0x423131
  40320d:	00 00 00 
  403210:	81 15 dc 30 42 00 8d 	adcl   $0x8d,0x4230dc
  403217:	00 00 00 
  40321a:	2e e9 ba 82 00 00    	cs jmp 0x40b4da
  403220:	83 c0 93             	add    $0xffffff93,%eax
  403223:	01 fb                	add    %edi,%ebx
  403225:	c7 05 73 30 42 00 3f 	movl   $0x3f,0x423073
  40322c:	00 00 00 
	...
  403237:	00 00                	add    %al,(%eax)
  403239:	00 ba 01 00 00 00    	add    %bh,0x1(%edx)
  40323f:	01 da                	add    %ebx,%edx
  403241:	2b 35 ad 30 42 00    	sub    0x4230ad,%esi
  403247:	01 c3                	add    %eax,%ebx
  403249:	83 c3 e4             	add    $0xffffffe4,%ebx
  40324c:	13 15 28 30 42 00    	adc    0x423028,%edx
  403252:	8d 0d 9b 17 a7 98    	lea    0x98a7179b,%ecx
  403258:	81 e9 21 e3 64 98    	sub    $0x9864e321,%ecx
  40325e:	51                   	push   %ecx
  40325f:	8d 05 90 17 a7 98    	lea    0x98a71790,%eax
  403265:	2d 21 e3 64 98       	sub    $0x9864e321,%eax
  40326a:	50                   	push   %eax
  40326b:	a1 10 f1 41 00       	mov    0x41f110,%eax
  403270:	ff d0                	call   *%eax
  403272:	31 d8                	xor    %ebx,%eax
  403274:	83 15 6d 30 42 00 1c 	adcl   $0x1c,0x42306d
  40327b:	8d 3d 83 17 a7 98    	lea    0x98a71783,%edi
  403281:	81 ef 21 e3 64 98    	sub    $0x9864e321,%edi
  403287:	57                   	push   %edi
  403288:	6a 01                	push   $0x1
  40328a:	ff 0c 24             	decl   (%esp)
  40328d:	68 01 00 10 00       	push   $0x100001
  403292:	ff 0c 24             	decl   (%esp)
  403295:	a1 e8 f0 41 00       	mov    0x41f0e8,%eax
  40329a:	ff d0                	call   *%eax
  40329c:	85 c0                	test   %eax,%eax
  40329e:	0f 85 0c 87 00 00    	jne    0x40b9b0
  4032a4:	29 df                	sub    %ebx,%edi
  4032a6:	83 d0 dd             	adc    $0xffffffdd,%eax
  4032a9:	01 c3                	add    %eax,%ebx
  4032ab:	83 35 84 30 42 00 34 	xorl   $0x34,0x423084
  4032b2:	8d 15 9b 17 a7 98    	lea    0x98a7179b,%edx
  4032b8:	81 ea 21 e3 64 98    	sub    $0x9864e321,%edx
  4032be:	52                   	push   %edx
  4032bf:	8d 35 90 17 a7 98    	lea    0x98a71790,%esi
  4032c5:	81 ee 21 e3 64 98    	sub    $0x9864e321,%esi
  4032cb:	56                   	push   %esi
  4032cc:	a1 10 f1 41 00       	mov    0x41f110,%eax
  4032d1:	ff d0                	call   *%eax
  4032d3:	8d 0d 9b 17 a7 98    	lea    0x98a7179b,%ecx
  4032d9:	81 e9 21 e3 64 98    	sub    $0x9864e321,%ecx
  4032df:	51                   	push   %ecx
  4032e0:	8d 0d 90 17 a7 98    	lea    0x98a71790,%ecx
  4032e6:	81 e9 21 e3 64 98    	sub    $0x9864e321,%ecx
  4032ec:	51                   	push   %ecx
  4032ed:	a1 10 f1 41 00       	mov    0x41f110,%eax
  4032f2:	ff d0                	call   *%eax
  4032f4:	ba 01 00 00 00       	mov    $0x1,%edx
  4032f9:	01 c2                	add    %eax,%edx
  4032fb:	2a 1d ee 30 42 00    	sub    0x4230ee,%bl
  403301:	83 ce 12             	or     $0x12,%esi
  403304:	83 c6 fc             	add    $0xfffffffc,%esi
  403307:	8d 0d 83 17 a7 98    	lea    0x98a71783,%ecx
  40330d:	81 e9 21 e3 64 98    	sub    $0x9864e321,%ecx
  403313:	51                   	push   %ecx
  403314:	6a 01                	push   $0x1
  403316:	ff 0c 24             	decl   (%esp)
  403319:	68 01 00 10 00       	push   $0x100001
  40331e:	ff 0c 24             	decl   (%esp)
  403321:	a1 e8 f0 41 00       	mov    0x41f0e8,%eax
  403326:	ff d0                	call   *%eax
  403328:	85 c0                	test   %eax,%eax
  40332a:	0f 85 80 86 00 00    	jne    0x40b9b0
  403330:	82 2d e9 30 42 00 e9 	subb   $0xe9,0x4230e9
  403337:	ba 01 00 00 00       	mov    $0x1,%edx
  40333c:	83 c2 97             	add    $0xffffff97,%edx
  40333f:	8d 3d 9b 17 a7 98    	lea    0x98a7179b,%edi
  403345:	81 ef 21 e3 64 98    	sub    $0x9864e321,%edi
  40334b:	57                   	push   %edi
  40334c:	8d 3d 90 17 a7 98    	lea    0x98a71790,%edi
  403352:	81 ef 21 e3 64 98    	sub    $0x9864e321,%edi
  403358:	57                   	push   %edi
  403359:	a1 10 f1 41 00       	mov    0x41f110,%eax
  40335e:	ff d0                	call   *%eax
  403360:	ba 01 00 00 00       	mov    $0x1,%edx
  403365:	13 15 08 31 42 00    	adc    0x423108,%edx
  40336b:	29 c2                	sub    %eax,%edx
  40336d:	08 15 1b 30 42 00    	or     %dl,0x42301b
  403373:	b1 01                	mov    $0x1,%cl
  403375:	00 f1                	add    %dh,%cl
  403377:	8d 15 9b 17 a7 98    	lea    0x98a7179b,%edx
  40337d:	81 ea 21 e3 64 98    	sub    $0x9864e321,%edx
  403383:	52                   	push   %edx
  403384:	8d 0d 90 17 a7 98    	lea    0x98a71790,%ecx
  40338a:	81 e9 21 e3 64 98    	sub    $0x9864e321,%ecx
  403390:	51                   	push   %ecx
  403391:	a1 10 f1 41 00       	mov    0x41f110,%eax
  403396:	ff d0                	call   *%eax
  403398:	21 3d ef 31 42 00    	and    %edi,0x4231ef
  40339e:	81 1d 63 31 42 00 bc 	sbbl   $0xbc,0x423163
  4033a5:	00 00 00 
  4033a8:	83 df 80             	sbb    $0xffffff80,%edi
  4033ab:	8d 05 9b 17 a7 98    	lea    0x98a7179b,%eax
  4033b1:	2d 21 e3 64 98       	sub    $0x9864e321,%eax
  4033b6:	50                   	push   %eax
  4033b7:	8d 05 90 17 a7 98    	lea    0x98a71790,%eax
  4033bd:	2d 21 e3 64 98       	sub    $0x9864e321,%eax
  4033c2:	50                   	push   %eax
  4033c3:	a1 10 f1 41 00       	mov    0x41f110,%eax
  4033c8:	ff d0                	call   *%eax
  4033ca:	ba 01 00 00 00       	mov    $0x1,%edx
  4033cf:	83 c2 86             	add    $0xffffff86,%edx
  4033d2:	01 ff                	add    %edi,%edi
  4033d4:	81 15 2c 31 42 00 b9 	adcl   $0xb9,0x42312c
  4033db:	00 00 00 
  4033de:	11 1d 05 31 42 00    	adc    %ebx,0x423105
  4033e4:	81 1d fd 30 42 00 f6 	sbbl   $0xf6,0x4230fd
  4033eb:	00 00 00 
  4033ee:	8d 15 9b 17 a7 98    	lea    0x98a7179b,%edx
  4033f4:	81 ea 21 e3 64 98    	sub    $0x9864e321,%edx
  4033fa:	52                   	push   %edx
  4033fb:	8d 35 90 17 a7 98    	lea    0x98a71790,%esi
  403401:	81 ee 21 e3 64 98    	sub    $0x9864e321,%esi
  403407:	56                   	push   %esi
  403408:	a1 10 f1 41 00       	mov    0x41f110,%eax
  40340d:	ff d0                	call   *%eax
  40340f:	83 df c9             	sbb    $0xffffffc9,%edi
  403412:	12 05 69 30 42 00    	adc    0x423069,%al
  403418:	83 25 5b 31 42 00 01 	andl   $0x1,0x42315b
  40341f:	c7 05 ed 31 42 00 87 	movl   $0x87,0x4231ed
  403426:	00 00 00 
  403429:	8d 35 83 17 a7 98    	lea    0x98a71783,%esi
  40342f:	81 ee 21 e3 64 98    	sub    $0x9864e321,%esi
  403435:	56                   	push   %esi
  403436:	6a 01                	push   $0x1
  403438:	ff 0c 24             	decl   (%esp)
  40343b:	68 01 00 10 00       	push   $0x100001
  403440:	ff 0c 24             	decl   (%esp)
  403443:	a1 e8 f0 41 00       	mov    0x41f0e8,%eax
  403448:	ff d0                	call   *%eax
  40344a:	83 f8 00             	cmp    $0x0,%eax
  40344d:	0f 85 5d 85 00 00    	jne    0x40b9b0
  403453:	10 ff                	adc    %bh,%bh
  403455:	13 05 9b 30 42 00    	adc    0x42309b,%eax
  40345b:	83 25 3c 30 42 00 2e 	andl   $0x2e,0x42303c
  403462:	83 c0 eb             	add    $0xffffffeb,%eax
  403465:	83 1d 2a 30 42 00 76 	sbbl   $0x76,0x42302a
  40346c:	2e e9 68 80 00 00    	cs jmp 0x40b4da
  403472:	01 f0                	add    %esi,%eax
  403474:	12 05 82 30 42 00    	adc    0x423082,%al
  40347a:	01 fb                	add    %edi,%ebx
  40347c:	10 c0                	adc    %al,%al
  40347e:	00 00                	add    %al,(%eax)
  403480:	00 00                	add    %al,(%eax)
  403482:	00 8d 35 9b 17 a7    	add    %cl,-0x58e864cb(%ebp)
  403488:	98                   	cwtl
  403489:	81 ee 21 e3 64 98    	sub    $0x9864e321,%esi
  40348f:	56                   	push   %esi
  403490:	8d 15 90 17 a7 98    	lea    0x98a71790,%edx
  403496:	81 ea 21 e3 64 98    	sub    $0x9864e321,%edx
  40349c:	52                   	push   %edx
  40349d:	a1 10 f1 41 00       	mov    0x41f110,%eax
  4034a2:	ff d0                	call   *%eax
  4034a4:	01 35 c5 31 42 00    	add    %esi,0x4231c5
  4034aa:	8d 3d 83 17 a7 98    	lea    0x98a71783,%edi
  4034b0:	81 ef 21 e3 64 98    	sub    $0x9864e321,%edi
  4034b6:	57                   	push   %edi
  4034b7:	6a 01                	push   $0x1
  4034b9:	ff 0c 24             	decl   (%esp)
  4034bc:	68 01 00 10 00       	push   $0x100001
  4034c1:	ff 0c 24             	decl   (%esp)
  4034c4:	a1 e8 f0 41 00       	mov    0x41f0e8,%eax
  4034c9:	ff d0                	call   *%eax
  4034cb:	85 c0                	test   %eax,%eax
  4034cd:	0f 85 dd 84 00 00    	jne    0x40b9b0
  4034d3:	b9 01 00 00 00       	mov    $0x1,%ecx
  4034d8:	13 0d 1b 31 42 00    	adc    0x42311b,%ecx
  4034de:	8d 05 9b 17 a7 98    	lea    0x98a7179b,%eax
  4034e4:	2d 21 e3 64 98       	sub    $0x9864e321,%eax
  4034e9:	50                   	push   %eax
  4034ea:	8d 0d 90 17 a7 98    	lea    0x98a71790,%ecx
  4034f0:	81 e9 21 e3 64 98    	sub    $0x9864e321,%ecx
  4034f6:	51                   	push   %ecx
  4034f7:	a1 10 f1 41 00       	mov    0x41f110,%eax
  4034fc:	ff d0                	call   *%eax
  4034fe:	13 05 bc 30 42 00    	adc    0x4230bc,%eax
  403504:	81 1d ea 30 42 00 fb 	sbbl   $0xfb,0x4230ea
  40350b:	00 00 00 
  40350e:	8d 35 9b 17 a7 98    	lea    0x98a7179b,%esi
  403514:	81 ee 21 e3 64 98    	sub    $0x9864e321,%esi
  40351a:	56                   	push   %esi
  40351b:	8d 05 90 17 a7 98    	lea    0x98a71790,%eax
  403521:	2d 21 e3 64 98       	sub    $0x9864e321,%eax
  403526:	50                   	push   %eax
  403527:	a1 10 f1 41 00       	mov    0x41f110,%eax
  40352c:	ff d0                	call   *%eax
  40352e:	ba 01 00 00 00       	mov    $0x1,%edx
  403533:	01 f2                	add    %esi,%edx
  403535:	12 15 75 31 42 00    	adc    0x423175,%dl
  40353b:	19 05 ee 30 42 00    	sbb    %eax,0x4230ee
  403541:	31 15 11 31 42 00    	xor    %edx,0x423111
  403547:	8d 1d 83 17 a7 98    	lea    0x98a71783,%ebx
  40354d:	81 eb 21 e3 64 98    	sub    $0x9864e321,%ebx
  403553:	53                   	push   %ebx
  403554:	6a 01                	push   $0x1
  403556:	ff 0c 24             	decl   (%esp)
  403559:	68 01 00 10 00       	push   $0x100001
  40355e:	ff 0c 24             	decl   (%esp)
  403561:	a1 e8 f0 41 00       	mov    0x41f0e8,%eax
  403566:	ff d0                	call   *%eax
  403568:	83 f8 00             	cmp    $0x0,%eax
  40356b:	0f 85 3f 84 00 00    	jne    0x40b9b0
  403571:	11 3d cb 31 42 00    	adc    %edi,0x4231cb
  403577:	01 f7                	add    %esi,%edi
  403579:	01 ff                	add    %edi,%edi
  40357b:	0b 05 ca 31 42 00    	or     0x4231ca,%eax
  403581:	81 15 56 30 42 00 82 	adcl   $0x82,0x423056
  403588:	00 00 00 
  40358b:	8d 15 83 17 a7 98    	lea    0x98a71783,%edx
  403591:	81 ea 21 e3 64 98    	sub    $0x9864e321,%edx
  403597:	52                   	push   %edx
  403598:	6a 01                	push   $0x1
  40359a:	ff 0c 24             	decl   (%esp)
  40359d:	68 01 00 10 00       	push   $0x100001
  4035a2:	ff 0c 24             	decl   (%esp)
  4035a5:	a1 e8 f0 41 00       	mov    0x41f0e8,%eax
  4035aa:	ff d0                	call   *%eax
  4035ac:	83 f8 00             	cmp    $0x0,%eax
  4035af:	0f 85 fb 83 00 00    	jne    0x40b9b0
  4035b5:	01 1d 64 30 42 00    	add    %ebx,0x423064
  4035bb:	b1 01                	mov    $0x1,%cl
  4035bd:	00 f9                	add    %bh,%cl
  4035bf:	09 1d 66 30 42 00    	or     %ebx,0x423066
  4035c5:	8d 35 83 17 a7 98    	lea    0x98a71783,%esi
  4035cb:	81 ee 21 e3 64 98    	sub    $0x9864e321,%esi
  4035d1:	56                   	push   %esi
  4035d2:	6a 01                	push   $0x1
  4035d4:	ff 0c 24             	decl   (%esp)
  4035d7:	68 01 00 10 00       	push   $0x100001
  4035dc:	ff 0c 24             	decl   (%esp)
  4035df:	a1 e8 f0 41 00       	mov    0x41f0e8,%eax
  4035e4:	ff d0                	call   *%eax
  4035e6:	85 c0                	test   %eax,%eax
  4035e8:	0f 85 c2 83 00 00    	jne    0x40b9b0
  4035ee:	83 e7 cc             	and    $0xffffffcc,%edi
  4035f1:	31 05 cb 30 42 00    	xor    %eax,0x4230cb
  4035f7:	09 1d e2 30 42 00    	or     %ebx,0x4230e2
  4035fd:	31 f6                	xor    %esi,%esi
  4035ff:	19 3d 36 30 42 00    	sbb    %edi,0x423036
  403605:	8d 15 83 17 a7 98    	lea    0x98a71783,%edx
  40360b:	81 ea 21 e3 64 98    	sub    $0x9864e321,%edx
  403611:	52                   	push   %edx
  403612:	6a 01                	push   $0x1
  403614:	ff 0c 24             	decl   (%esp)
  403617:	68 01 00 10 00       	push   $0x100001
  40361c:	ff 0c 24             	decl   (%esp)
  40361f:	a1 e8 f0 41 00       	mov    0x41f0e8,%eax
  403624:	ff d0                	call   *%eax
  403626:	85 c0                	test   %eax,%eax
  403628:	0f 85 82 83 00 00    	jne    0x40b9b0
  40362e:	83 15 34 30 42 00 24 	adcl   $0x24,0x423034
  403635:	0b 35 8a 30 42 00    	or     0x42308a,%esi
  40363b:	0a 3d d6 30 42 00    	or     0x4230d6,%bh
  403641:	01 fb                	add    %edi,%ebx
  403643:	ba 01 00 00 00       	mov    $0x1,%edx
  403648:	13 15 2c 30 42 00    	adc    0x42302c,%edx
  40364e:	8d 1d 9b 17 a7 98    	lea    0x98a7179b,%ebx
  403654:	81 eb 21 e3 64 98    	sub    $0x9864e321,%ebx
  40365a:	53                   	push   %ebx
  40365b:	8d 15 90 17 a7 98    	lea    0x98a71790,%edx
  403661:	81 ea 21 e3 64 98    	sub    $0x9864e321,%edx
  403667:	52                   	push   %edx
  403668:	a1 10 f1 41 00       	mov    0x41f110,%eax
  40366d:	ff d0                	call   *%eax
  40366f:	82 ef 1b             	sub    $0x1b,%bh
  403672:	18 f8                	sbb    %bh,%al
  403674:	01 f7                	add    %esi,%edi
  403676:	c7 05 4c 30 42 00 fc 	movl   $0xfc,0x42304c
  40367d:	00 00 00 
  403680:	30 3d 51 30 42 00    	xor    %bh,0x423051
  403686:	8d 0d 9b 17 a7 98    	lea    0x98a7179b,%ecx
  40368c:	81 e9 21 e3 64 98    	sub    $0x9864e321,%ecx
  403692:	51                   	push   %ecx
  403693:	8d 05 90 17 a7 98    	lea    0x98a71790,%eax
  403699:	2d 21 e3 64 98       	sub    $0x9864e321,%eax
  40369e:	50                   	push   %eax
  40369f:	a1 10 f1 41 00       	mov    0x41f110,%eax
  4036a4:	ff d0                	call   *%eax
  4036a6:	00 25 a7 31 42 00    	add    %ah,0x4231a7
  4036ac:	08 05 b3 30 42 00    	or     %al,0x4230b3
  4036b2:	b9 01 00 00 00       	mov    $0x1,%ecx
  4036b7:	83 c1 37             	add    $0x37,%ecx
  4036ba:	2b 05 2e 30 42 00    	sub    0x42302e,%eax
  4036c0:	2e e9 14 7e 00 00    	cs jmp 0x40b4da
  4036c6:	29 de                	sub    %ebx,%esi
  4036c8:	81 0d bf 30 42 00 d9 	orl    $0xd9,0x4230bf
  4036cf:	00 00 00 
  4036d2:	ba 01 00 00 00       	mov    $0x1,%edx
  4036d7:	01 ca                	add    %ecx,%edx
  4036d9:	81 25 16 30 42 00 be 	andl   $0xbe,0x423016
  4036e0:	00 00 00 
  4036e3:	81 1d 72 30 42 00 84 	sbbl   $0x84,0x423072
  4036ea:	00 00 00 
	...
  4036f5:	00 00                	add    %al,(%eax)
  4036f7:	00 ba 01 00 00 00    	add    %bh,0x1(%edx)
  4036fd:	83 c2 8b             	add    $0xffffff8b,%edx
  403700:	83 d2 53             	adc    $0x53,%edx
  403703:	83 c7 86             	add    $0xffffff86,%edi
  403706:	01 c6                	add    %eax,%esi
  403708:	29 d7                	sub    %edx,%edi
  40370a:	8d 35 83 17 a7 98    	lea    0x98a71783,%esi
  403710:	81 ee 21 e3 64 98    	sub    $0x9864e321,%esi
  403716:	56                   	push   %esi
  403717:	6a 01                	push   $0x1
  403719:	ff 0c 24             	decl   (%esp)
  40371c:	68 01 00 10 00       	push   $0x100001
  403721:	ff 0c 24             	decl   (%esp)
  403724:	a1 e8 f0 41 00       	mov    0x41f0e8,%eax
  403729:	ff d0                	call   *%eax
  40372b:	85 c0                	test   %eax,%eax
  40372d:	0f 85 7d 82 00 00    	jne    0x40b9b0
  403733:	83 ce 2e             	or     $0x2e,%esi
  403736:	83 df 41             	sbb    $0x41,%edi
  403739:	04 86                	add    $0x86,%al
  40373b:	8d 0d 9b 17 a7 98    	lea    0x98a7179b,%ecx
  403741:	81 e9 21 e3 64 98    	sub    $0x9864e321,%ecx
  403747:	51                   	push   %ecx
  403748:	8d 05 90 17 a7 98    	lea    0x98a71790,%eax
  40374e:	2d 21 e3 64 98       	sub    $0x9864e321,%eax
  403753:	50                   	push   %eax
  403754:	a1 10 f1 41 00       	mov    0x41f110,%eax
  403759:	ff d0                	call   *%eax
  40375b:	83 f7 b5             	xor    $0xffffffb5,%edi
  40375e:	8d 35 83 17 a7 98    	lea    0x98a71783,%esi
  403764:	81 ee 21 e3 64 98    	sub    $0x9864e321,%esi
  40376a:	56                   	push   %esi
  40376b:	6a 01                	push   $0x1
  40376d:	ff 0c 24             	decl   (%esp)
  403770:	68 01 00 10 00       	push   $0x100001
  403775:	ff 0c 24             	decl   (%esp)
  403778:	a1 e8 f0 41 00       	mov    0x41f0e8,%eax
  40377d:	ff d0                	call   *%eax
  40377f:	83 f8 00             	cmp    $0x0,%eax
  403782:	0f 85 28 82 00 00    	jne    0x40b9b0
  403788:	8d 1d 9b 17 a7 98    	lea    0x98a7179b,%ebx
  40378e:	81 eb 21 e3 64 98    	sub    $0x9864e321,%ebx
  403794:	53                   	push   %ebx
  403795:	8d 05 90 17 a7 98    	lea    0x98a71790,%eax
  40379b:	2d 21 e3 64 98       	sub    $0x9864e321,%eax
  4037a0:	50                   	push   %eax
  4037a1:	a1 10 f1 41 00       	mov    0x41f110,%eax
  4037a6:	ff d0                	call   *%eax
  4037a8:	8d 05 83 17 a7 98    	lea    0x98a71783,%eax
  4037ae:	2d 21 e3 64 98       	sub    $0x9864e321,%eax
  4037b3:	50                   	push   %eax
  4037b4:	6a 01                	push   $0x1
  4037b6:	ff 0c 24             	decl   (%esp)
  4037b9:	68 01 00 10 00       	push   $0x100001
  4037be:	ff 0c 24             	decl   (%esp)
  4037c1:	a1 e8 f0 41 00       	mov    0x41f0e8,%eax
  4037c6:	ff d0                	call   *%eax
  4037c8:	83 f8 00             	cmp    $0x0,%eax
  4037cb:	0f 85 df 81 00 00    	jne    0x40b9b0
  4037d1:	19 c3                	sbb    %eax,%ebx
  4037d3:	82 2d a6 30 42 00 6f 	subb   $0x6f,0x4230a6
  4037da:	8d 15 9b 17 a7 98    	lea    0x98a7179b,%edx
  4037e0:	81 ea 21 e3 64 98    	sub    $0x9864e321,%edx
  4037e6:	52                   	push   %edx
  4037e7:	8d 3d 90 17 a7 98    	lea    0x98a71790,%edi
  4037ed:	81 ef 21 e3 64 98    	sub    $0x9864e321,%edi
  4037f3:	57                   	push   %edi
  4037f4:	a1 10 f1 41 00       	mov    0x41f110,%eax
  4037f9:	ff d0                	call   *%eax
  4037fb:	19 f0                	sbb    %esi,%eax
  4037fd:	8d 1d 83 17 a7 98    	lea    0x98a71783,%ebx
  403803:	81 eb 21 e3 64 98    	sub    $0x9864e321,%ebx
  403809:	53                   	push   %ebx
  40380a:	6a 01                	push   $0x1
  40380c:	ff 0c 24             	decl   (%esp)
  40380f:	68 01 00 10 00       	push   $0x100001
  403814:	ff 0c 24             	decl   (%esp)
  403817:	a1 e8 f0 41 00       	mov    0x41f0e8,%eax
  40381c:	ff d0                	call   *%eax
  40381e:	83 f8 00             	cmp    $0x0,%eax
  403821:	0f 85 89 81 00 00    	jne    0x40b9b0
  403827:	09 35 d9 30 42 00    	or     %esi,0x4230d9
  40382d:	8d 3d 9b 17 a7 98    	lea    0x98a7179b,%edi
  403833:	81 ef 21 e3 64 98    	sub    $0x9864e321,%edi
  403839:	57                   	push   %edi
  40383a:	8d 35 90 17 a7 98    	lea    0x98a71790,%esi
  403840:	81 ee 21 e3 64 98    	sub    $0x9864e321,%esi
  403846:	56                   	push   %esi
  403847:	a1 10 f1 41 00       	mov    0x41f110,%eax
  40384c:	ff d0                	call   *%eax
  40384e:	12 05 ca 31 42 00    	adc    0x4231ca,%al
  403854:	8d 15 83 17 a7 98    	lea    0x98a71783,%edx
  40385a:	81 ea 21 e3 64 98    	sub    $0x9864e321,%edx
  403860:	52                   	push   %edx
  403861:	6a 01                	push   $0x1
  403863:	ff 0c 24             	decl   (%esp)
  403866:	68 01 00 10 00       	push   $0x100001
  40386b:	ff 0c 24             	decl   (%esp)
  40386e:	a1 e8 f0 41 00       	mov    0x41f0e8,%eax
  403873:	ff d0                	call   *%eax
  403875:	85 c0                	test   %eax,%eax
  403877:	0f 85 33 81 00 00    	jne    0x40b9b0
  40387d:	81 15 c4 30 42 00 f4 	adcl   $0xf4,0x4230c4
  403884:	00 00 00 
  403887:	12 3d 2d 30 42 00    	adc    0x42302d,%bh
  40388d:	21 35 b3 31 42 00    	and    %esi,0x4231b3
  403893:	c7 05 c3 31 42 00 e9 	movl   $0xe9,0x4231c3
  40389a:	00 00 00 
  40389d:	8d 0d 9b 17 a7 98    	lea    0x98a7179b,%ecx
  4038a3:	81 e9 21 e3 64 98    	sub    $0x9864e321,%ecx
  4038a9:	51                   	push   %ecx
  4038aa:	8d 05 90 17 a7 98    	lea    0x98a71790,%eax
  4038b0:	2d 21 e3 64 98       	sub    $0x9864e321,%eax
  4038b5:	50                   	push   %eax
  4038b6:	a1 10 f1 41 00       	mov    0x41f110,%eax
  4038bb:	ff d0                	call   *%eax
  4038bd:	83 eb 5a             	sub    $0x5a,%ebx
  4038c0:	31 1d 3b 31 42 00    	xor    %ebx,0x42313b
  4038c6:	09 3d 92 30 42 00    	or     %edi,0x423092
  4038cc:	8d 0d 9b 17 a7 98    	lea    0x98a7179b,%ecx
  4038d2:	81 e9 21 e3 64 98    	sub    $0x9864e321,%ecx
  4038d8:	51                   	push   %ecx
  4038d9:	8d 3d 90 17 a7 98    	lea    0x98a71790,%edi
  4038df:	81 ef 21 e3 64 98    	sub    $0x9864e321,%edi
  4038e5:	57                   	push   %edi
  4038e6:	a1 10 f1 41 00       	mov    0x41f110,%eax
  4038eb:	ff d0                	call   *%eax
  4038ed:	81 15 b9 31 42 00 fc 	adcl   $0xfc,0x4231b9
  4038f4:	00 00 00 
  4038f7:	b9 01 00 00 00       	mov    $0x1,%ecx
  4038fc:	13 0d d2 30 42 00    	adc    0x4230d2,%ecx
  403902:	83 f7 53             	xor    $0x53,%edi
  403905:	21 35 e3 31 42 00    	and    %esi,0x4231e3
  40390b:	2e e9 c9 7b 00 00    	cs jmp 0x40b4da
  403911:	01 1d cf 30 42 00    	add    %ebx,0x4230cf
  403917:	2c 8e                	sub    $0x8e,%al
  403919:	00 00                	add    %al,(%eax)
  40391b:	21 05 a5 31 42 00    	and    %eax,0x4231a5
  403921:	13 35 1d 31 42 00    	adc    0x42311d,%esi
  403927:	83 eb a3             	sub    $0xffffffa3,%ebx
  40392a:	81 25 2d 31 42 00 a6 	andl   $0xa6,0x42312d
  403931:	00 00 00 
  403934:	81 35 96 31 42 00 e0 	xorl   $0xe0,0x423196
  40393b:	00 00 00 
  40393e:	8d 05 9b 17 a7 98    	lea    0x98a7179b,%eax
  403944:	2d 21 e3 64 98       	sub    $0x9864e321,%eax
  403949:	50                   	push   %eax
  40394a:	8d 15 90 17 a7 98    	lea    0x98a71790,%edx
  403950:	81 ea 21 e3 64 98    	sub    $0x9864e321,%edx
  403956:	52                   	push   %edx
  403957:	a1 10 f1 41 00       	mov    0x41f110,%eax
  40395c:	ff d0                	call   *%eax
  40395e:	83 c7 b4             	add    $0xffffffb4,%edi
  403961:	c7 05 a2 30 42 00 cf 	movl   $0xcf,0x4230a2
  403968:	00 00 00 
  40396b:	8d 0d 9b 17 a7 98    	lea    0x98a7179b,%ecx
  403971:	81 e9 21 e3 64 98    	sub    $0x9864e321,%ecx
  403977:	51                   	push   %ecx
  403978:	8d 1d 90 17 a7 98    	lea    0x98a71790,%ebx
  40397e:	81 eb 21 e3 64 98    	sub    $0x9864e321,%ebx
  403984:	53                   	push   %ebx
  403985:	a1 10 f1 41 00       	mov    0x41f110,%eax
  40398a:	ff d0                	call   *%eax
  40398c:	ba 01 00 00 00       	mov    $0x1,%edx
  403991:	83 c2 2d             	add    $0x2d,%edx
  403994:	81 25 eb 30 42 00 e2 	andl   $0xe2,0x4230eb
  40399b:	00 00 00 
  40399e:	8d 05 9b 17 a7 98    	lea    0x98a7179b,%eax
  4039a4:	2d 21 e3 64 98       	sub    $0x9864e321,%eax
  4039a9:	50                   	push   %eax
  4039aa:	8d 3d 90 17 a7 98    	lea    0x98a71790,%edi
  4039b0:	81 ef 21 e3 64 98    	sub    $0x9864e321,%edi
  4039b6:	57                   	push   %edi
  4039b7:	a1 10 f1 41 00       	mov    0x41f110,%eax
  4039bc:	ff d0                	call   *%eax
  4039be:	ba 01 00 00 00       	mov    $0x1,%edx
  4039c3:	83 c2 cb             	add    $0xffffffcb,%edx
  4039c6:	83 25 9c 31 42 00 51 	andl   $0x51,0x42319c
  4039cd:	13 35 7f 31 42 00    	adc    0x42317f,%esi
  4039d3:	8d 0d 83 17 a7 98    	lea    0x98a71783,%ecx
  4039d9:	81 e9 21 e3 64 98    	sub    $0x9864e321,%ecx
  4039df:	51                   	push   %ecx
  4039e0:	6a 01                	push   $0x1
  4039e2:	ff 0c 24             	decl   (%esp)
  4039e5:	68 01 00 10 00       	push   $0x100001
  4039ea:	ff 0c 24             	decl   (%esp)
  4039ed:	a1 e8 f0 41 00       	mov    0x41f0e8,%eax
  4039f2:	ff d0                	call   *%eax
  4039f4:	85 c0                	test   %eax,%eax
  4039f6:	0f 85 b4 7f 00 00    	jne    0x40b9b0
  4039fc:	12 1d 34 31 42 00    	adc    0x423134,%bl
  403a02:	b9 01 00 00 00       	mov    $0x1,%ecx
  403a07:	01 c1                	add    %eax,%ecx
  403a09:	08 25 17 30 42 00    	or     %ah,0x423017
  403a0f:	8d 35 9b 17 a7 98    	lea    0x98a7179b,%esi
  403a15:	81 ee 21 e3 64 98    	sub    $0x9864e321,%esi
  403a1b:	56                   	push   %esi
  403a1c:	8d 3d 90 17 a7 98    	lea    0x98a71790,%edi
  403a22:	81 ef 21 e3 64 98    	sub    $0x9864e321,%edi
  403a28:	57                   	push   %edi
  403a29:	a1 10 f1 41 00       	mov    0x41f110,%eax
  403a2e:	ff d0                	call   *%eax
  403a30:	09 3d 0b 31 42 00    	or     %edi,0x42310b
  403a36:	ba 01 00 00 00       	mov    $0x1,%edx
  403a3b:	01 da                	add    %ebx,%edx
  403a3d:	8d 3d 9b 17 a7 98    	lea    0x98a7179b,%edi
  403a43:	81 ef 21 e3 64 98    	sub    $0x9864e321,%edi
  403a49:	57                   	push   %edi
  403a4a:	8d 05 90 17 a7 98    	lea    0x98a71790,%eax
  403a50:	2d 21 e3 64 98       	sub    $0x9864e321,%eax
  403a55:	50                   	push   %eax
  403a56:	a1 10 f1 41 00       	mov    0x41f110,%eax
  403a5b:	ff d0                	call   *%eax
  403a5d:	81 15 fc 30 42 00 ba 	adcl   $0xba,0x4230fc
  403a64:	00 00 00 
  403a67:	8d 15 83 17 a7 98    	lea    0x98a71783,%edx
  403a6d:	81 ea 21 e3 64 98    	sub    $0x9864e321,%edx
  403a73:	52                   	push   %edx
  403a74:	6a 01                	push   $0x1
  403a76:	ff 0c 24             	decl   (%esp)
  403a79:	68 01 00 10 00       	push   $0x100001
  403a7e:	ff 0c 24             	decl   (%esp)
  403a81:	a1 e8 f0 41 00       	mov    0x41f0e8,%eax
  403a86:	ff d0                	call   *%eax
  403a88:	85 c0                	test   %eax,%eax
  403a8a:	0f 85 20 7f 00 00    	jne    0x40b9b0
  403a90:	31 f7                	xor    %esi,%edi
  403a92:	83 d0 29             	adc    $0x29,%eax
  403a95:	8d 0d 9b 17 a7 98    	lea    0x98a7179b,%ecx
  403a9b:	81 e9 21 e3 64 98    	sub    $0x9864e321,%ecx
  403aa1:	51                   	push   %ecx
  403aa2:	8d 0d 90 17 a7 98    	lea    0x98a71790,%ecx
  403aa8:	81 e9 21 e3 64 98    	sub    $0x9864e321,%ecx
  403aae:	51                   	push   %ecx
  403aaf:	a1 10 f1 41 00       	mov    0x41f110,%eax
  403ab4:	ff d0                	call   *%eax
  403ab6:	19 35 8b 31 42 00    	sbb    %esi,0x42318b
  403abc:	8d 0d 83 17 a7 98    	lea    0x98a71783,%ecx
  403ac2:	81 e9 21 e3 64 98    	sub    $0x9864e321,%ecx
  403ac8:	51                   	push   %ecx
  403ac9:	6a 01                	push   $0x1
  403acb:	ff 0c 24             	decl   (%esp)
  403ace:	68 01 00 10 00       	push   $0x100001
  403ad3:	ff 0c 24             	decl   (%esp)
  403ad6:	a1 e8 f0 41 00       	mov    0x41f0e8,%eax
  403adb:	ff d0                	call   *%eax
  403add:	83 f8 00             	cmp    $0x0,%eax
  403ae0:	0f 85 ca 7e 00 00    	jne    0x40b9b0
  403ae6:	01 3d 9c 31 42 00    	add    %edi,0x42319c
  403aec:	01 f6                	add    %esi,%esi
  403aee:	b2 01                	mov    $0x1,%dl
  403af0:	00 e2                	add    %ah,%dl
  403af2:	8d 15 83 17 a7 98    	lea    0x98a71783,%edx
  403af8:	81 ea 21 e3 64 98    	sub    $0x9864e321,%edx
  403afe:	52                   	push   %edx
  403aff:	6a 01                	push   $0x1
  403b01:	ff 0c 24             	decl   (%esp)
  403b04:	68 01 00 10 00       	push   $0x100001
  403b09:	ff 0c 24             	decl   (%esp)
  403b0c:	a1 e8 f0 41 00       	mov    0x41f0e8,%eax
  403b11:	ff d0                	call   *%eax
  403b13:	83 f8 00             	cmp    $0x0,%eax
  403b16:	0f 85 94 7e 00 00    	jne    0x40b9b0
  403b1c:	c7 05 6a 31 42 00 40 	movl   $0x40,0x42316a
  403b23:	00 00 00 
  403b26:	2b 3d 13 31 42 00    	sub    0x423113,%edi
  403b2c:	19 fe                	sbb    %edi,%esi
  403b2e:	13 05 ff 30 42 00    	adc    0x4230ff,%eax
  403b34:	2e e9 a0 79 00 00    	cs jmp 0x40b4da
  403b3a:	01 35 f5 31 42 00    	add    %esi,0x4231f5
  403b40:	29 3d ef 31 42 00    	sub    %edi,0x4231ef
	...
  403b52:	01 1d bf 31 42 00    	add    %ebx,0x4231bf
  403b58:	29 1d 26 31 42 00    	sub    %ebx,0x423126
  403b5e:	ba 01 00 00 00       	mov    $0x1,%edx
  403b63:	13 15 13 30 42 00    	adc    0x423013,%edx
  403b69:	82 f4 34             	xor    $0x34,%ah
  403b6c:	8d 05 9b 17 a7 98    	lea    0x98a7179b,%eax
  403b72:	2d 21 e3 64 98       	sub    $0x9864e321,%eax
  403b77:	50                   	push   %eax
  403b78:	8d 0d 90 17 a7 98    	lea    0x98a71790,%ecx
  403b7e:	81 e9 21 e3 64 98    	sub    $0x9864e321,%ecx
  403b84:	51                   	push   %ecx
  403b85:	a1 10 f1 41 00       	mov    0x41f110,%eax
  403b8a:	ff d0                	call   *%eax
  403b8c:	2b 05 0a 31 42 00    	sub    0x42310a,%eax
  403b92:	19 f0                	sbb    %esi,%eax
  403b94:	b5 01                	mov    $0x1,%ch
  403b96:	82 c5 41             	add    $0x41,%ch
  403b99:	83 e8 27             	sub    $0x27,%eax
  403b9c:	83 35 a3 30 42 00 0e 	xorl   $0xe,0x4230a3
  403ba3:	8d 1d 83 17 a7 98    	lea    0x98a71783,%ebx
  403ba9:	81 eb 21 e3 64 98    	sub    $0x9864e321,%ebx
  403baf:	53                   	push   %ebx
  403bb0:	6a 01                	push   $0x1
  403bb2:	ff 0c 24             	decl   (%esp)
  403bb5:	68 01 00 10 00       	push   $0x100001
  403bba:	ff 0c 24             	decl   (%esp)
  403bbd:	a1 e8 f0 41 00       	mov    0x41f0e8,%eax
  403bc2:	ff d0                	call   *%eax
  403bc4:	83 f8 00             	cmp    $0x0,%eax
  403bc7:	0f 85 e3 7d 00 00    	jne    0x40b9b0
  403bcd:	8d 05 9b 17 a7 98    	lea    0x98a7179b,%eax
  403bd3:	2d 21 e3 64 98       	sub    $0x9864e321,%eax
  403bd8:	50                   	push   %eax
  403bd9:	8d 05 90 17 a7 98    	lea    0x98a71790,%eax
  403bdf:	2d 21 e3 64 98       	sub    $0x9864e321,%eax
  403be4:	50                   	push   %eax
  403be5:	a1 10 f1 41 00       	mov    0x41f110,%eax
  403bea:	ff d0                	call   *%eax
  403bec:	83 ee 03             	sub    $0x3,%esi
  403bef:	b9 01 00 00 00       	mov    $0x1,%ecx
  403bf4:	01 d9                	add    %ebx,%ecx
  403bf6:	8d 15 83 17 a7 98    	lea    0x98a71783,%edx
  403bfc:	81 ea 21 e3 64 98    	sub    $0x9864e321,%edx
  403c02:	52                   	push   %edx
  403c03:	6a 01                	push   $0x1
  403c05:	ff 0c 24             	decl   (%esp)
  403c08:	68 01 00 10 00       	push   $0x100001
  403c0d:	ff 0c 24             	decl   (%esp)
  403c10:	a1 e8 f0 41 00       	mov    0x41f0e8,%eax
  403c15:	ff d0                	call   *%eax
  403c17:	83 f8 00             	cmp    $0x0,%eax
  403c1a:	0f 85 90 7d 00 00    	jne    0x40b9b0
  403c20:	0b 05 3f 30 42 00    	or     0x42303f,%eax
  403c26:	83 25 0b 30 42 00 7d 	andl   $0x7d,0x42300b
  403c2d:	31 1d 2b 30 42 00    	xor    %ebx,0x42302b
  403c33:	8d 15 9b 17 a7 98    	lea    0x98a7179b,%edx
  403c39:	81 ea 21 e3 64 98    	sub    $0x9864e321,%edx
  403c3f:	52                   	push   %edx
  403c40:	8d 1d 90 17 a7 98    	lea    0x98a71790,%ebx
  403c46:	81 eb 21 e3 64 98    	sub    $0x9864e321,%ebx
  403c4c:	53                   	push   %ebx
  403c4d:	a1 10 f1 41 00       	mov    0x41f110,%eax
  403c52:	ff d0                	call   *%eax
  403c54:	8d 1d 83 17 a7 98    	lea    0x98a71783,%ebx
  403c5a:	81 eb 21 e3 64 98    	sub    $0x9864e321,%ebx
  403c60:	53                   	push   %ebx
  403c61:	6a 01                	push   $0x1
  403c63:	ff 0c 24             	decl   (%esp)
  403c66:	68 01 00 10 00       	push   $0x100001
  403c6b:	ff 0c 24             	decl   (%esp)
  403c6e:	a1 e8 f0 41 00       	mov    0x41f0e8,%eax
  403c73:	ff d0                	call   *%eax
  403c75:	83 f8 00             	cmp    $0x0,%eax
  403c78:	0f 85 32 7d 00 00    	jne    0x40b9b0
  403c7e:	31 f3                	xor    %esi,%ebx
  403c80:	8d 35 9b 17 a7 98    	lea    0x98a7179b,%esi
  403c86:	81 ee 21 e3 64 98    	sub    $0x9864e321,%esi
  403c8c:	56                   	push   %esi
  403c8d:	8d 35 90 17 a7 98    	lea    0x98a71790,%esi
  403c93:	81 ee 21 e3 64 98    	sub    $0x9864e321,%esi
  403c99:	56                   	push   %esi
  403c9a:	a1 10 f1 41 00       	mov    0x41f110,%eax
  403c9f:	ff d0                	call   *%eax
  403ca1:	31 05 2f 31 42 00    	xor    %eax,0x42312f
  403ca7:	01 c6                	add    %eax,%esi
  403ca9:	8d 1d 83 17 a7 98    	lea    0x98a71783,%ebx
  403caf:	81 eb 21 e3 64 98    	sub    $0x9864e321,%ebx
  403cb5:	53                   	push   %ebx
  403cb6:	6a 01                	push   $0x1
  403cb8:	ff 0c 24             	decl   (%esp)
  403cbb:	68 01 00 10 00       	push   $0x100001
  403cc0:	ff 0c 24             	decl   (%esp)
  403cc3:	a1 e8 f0 41 00       	mov    0x41f0e8,%eax
  403cc8:	ff d0                	call   *%eax
  403cca:	85 c0                	test   %eax,%eax
  403ccc:	0f 85 de 7c 00 00    	jne    0x40b9b0
  403cd2:	13 1d 22 30 42 00    	adc    0x423022,%ebx
  403cd8:	19 c3                	sbb    %eax,%ebx
  403cda:	8d 15 83 17 a7 98    	lea    0x98a71783,%edx
  403ce0:	81 ea 21 e3 64 98    	sub    $0x9864e321,%edx
  403ce6:	52                   	push   %edx
  403ce7:	6a 01                	push   $0x1
  403ce9:	ff 0c 24             	decl   (%esp)
  403cec:	68 01 00 10 00       	push   $0x100001
  403cf1:	ff 0c 24             	decl   (%esp)
  403cf4:	a1 e8 f0 41 00       	mov    0x41f0e8,%eax
  403cf9:	ff d0                	call   *%eax
  403cfb:	85 c0                	test   %eax,%eax
  403cfd:	0f 85 ad 7c 00 00    	jne    0x40b9b0
  403d03:	8d 1d 83 17 a7 98    	lea    0x98a71783,%ebx
  403d09:	81 eb 21 e3 64 98    	sub    $0x9864e321,%ebx
  403d0f:	53                   	push   %ebx
  403d10:	6a 01                	push   $0x1
  403d12:	ff 0c 24             	decl   (%esp)
  403d15:	68 01 00 10 00       	push   $0x100001
  403d1a:	ff 0c 24             	decl   (%esp)
  403d1d:	a1 e8 f0 41 00       	mov    0x41f0e8,%eax
  403d22:	ff d0                	call   *%eax
  403d24:	83 f8 00             	cmp    $0x0,%eax
  403d27:	0f 85 83 7c 00 00    	jne    0x40b9b0
  403d2d:	b9 01 00 00 00       	mov    $0x1,%ecx
  403d32:	83 c1 23             	add    $0x23,%ecx
  403d35:	82 2d 57 30 42 00 93 	subb   $0x93,0x423057
  403d3c:	11 cf                	adc    %ecx,%edi
  403d3e:	8d 35 83 17 a7 98    	lea    0x98a71783,%esi
  403d44:	81 ee 21 e3 64 98    	sub    $0x9864e321,%esi
  403d4a:	56                   	push   %esi
  403d4b:	6a 01                	push   $0x1
  403d4d:	ff 0c 24             	decl   (%esp)
  403d50:	68 01 00 10 00       	push   $0x100001
  403d55:	ff 0c 24             	decl   (%esp)
  403d58:	a1 e8 f0 41 00       	mov    0x41f0e8,%eax
  403d5d:	ff d0                	call   *%eax
  403d5f:	83 f8 00             	cmp    $0x0,%eax
  403d62:	0f 85 48 7c 00 00    	jne    0x40b9b0
  403d68:	b9 01 00 00 00       	mov    $0x1,%ecx
  403d6d:	13 0d 59 31 42 00    	adc    0x423159,%ecx
  403d73:	8d 35 9b 17 a7 98    	lea    0x98a7179b,%esi
  403d79:	81 ee 21 e3 64 98    	sub    $0x9864e321,%esi
  403d7f:	56                   	push   %esi
  403d80:	8d 35 90 17 a7 98    	lea    0x98a71790,%esi
  403d86:	81 ee 21 e3 64 98    	sub    $0x9864e321,%esi
  403d8c:	56                   	push   %esi
  403d8d:	a1 10 f1 41 00       	mov    0x41f110,%eax
  403d92:	ff d0                	call   *%eax
  403d94:	c7 05 0c 30 42 00 e0 	movl   $0xe0,0x42300c
  403d9b:	00 00 00 
  403d9e:	ba 01 00 00 00       	mov    $0x1,%edx
  403da3:	01 f2                	add    %esi,%edx
  403da5:	b9 01 00 00 00       	mov    $0x1,%ecx
  403daa:	01 f1                	add    %esi,%ecx
  403dac:	13 05 d2 30 42 00    	adc    0x4230d2,%eax
  403db2:	13 35 87 30 42 00    	adc    0x423087,%esi
  403db8:	2e e9 1c 77 00 00    	cs jmp 0x40b4da
  403dbe:	83 0d bf 31 42 00 6b 	orl    $0x6b,0x4231bf
  403dc5:	29 f9                	sub    %edi,%ecx
  403dc7:	13 05 38 30 42 00    	adc    0x423038,%eax
  403dcd:	01 15 99 31 42 00    	add    %edx,0x423199
  403dd3:	13 35 a3 31 42 00    	adc    0x4231a3,%esi
	...
  403de1:	00 dc                	add    %bl,%ah
  403de3:	ba 01 00 00 00       	mov    $0x1,%edx
  403de8:	01 da                	add    %ebx,%edx
  403dea:	31 f0                	xor    %esi,%eax
  403dec:	8d 0d 83 17 a7 98    	lea    0x98a71783,%ecx
  403df2:	81 e9 21 e3 64 98    	sub    $0x9864e321,%ecx
  403df8:	51                   	push   %ecx
  403df9:	6a 01                	push   $0x1
  403dfb:	ff 0c 24             	decl   (%esp)
  403dfe:	68 01 00 10 00       	push   $0x100001
  403e03:	ff 0c 24             	decl   (%esp)
  403e06:	a1 e8 f0 41 00       	mov    0x41f0e8,%eax
  403e0b:	ff d0                	call   *%eax
  403e0d:	83 f8 00             	cmp    $0x0,%eax
  403e10:	0f 85 9a 7b 00 00    	jne    0x40b9b0
  403e16:	83 0d 2a 31 42 00 6d 	orl    $0x6d,0x42312a
  403e1d:	8d 15 83 17 a7 98    	lea    0x98a71783,%edx
  403e23:	81 ea 21 e3 64 98    	sub    $0x9864e321,%edx
  403e29:	52                   	push   %edx
  403e2a:	6a 01                	push   $0x1
  403e2c:	ff 0c 24             	decl   (%esp)
  403e2f:	68 01 00 10 00       	push   $0x100001
  403e34:	ff 0c 24             	decl   (%esp)
  403e37:	a1 e8 f0 41 00       	mov    0x41f0e8,%eax
  403e3c:	ff d0                	call   *%eax
  403e3e:	85 c0                	test   %eax,%eax
  403e40:	0f 85 6a 7b 00 00    	jne    0x40b9b0
  403e46:	83 1d a1 31 42 00 01 	sbbl   $0x1,0x4231a1
  403e4d:	8d 15 9b 17 a7 98    	lea    0x98a7179b,%edx
  403e53:	81 ea 21 e3 64 98    	sub    $0x9864e321,%edx
  403e59:	52                   	push   %edx
  403e5a:	8d 1d 90 17 a7 98    	lea    0x98a71790,%ebx
  403e60:	81 eb 21 e3 64 98    	sub    $0x9864e321,%ebx
  403e66:	53                   	push   %ebx
  403e67:	a1 10 f1 41 00       	mov    0x41f110,%eax
  403e6c:	ff d0                	call   *%eax
  403e6e:	b9 01 00 00 00       	mov    $0x1,%ecx
  403e73:	83 c1 72             	add    $0x72,%ecx
  403e76:	8d 3d 83 17 a7 98    	lea    0x98a71783,%edi
  403e7c:	81 ef 21 e3 64 98    	sub    $0x9864e321,%edi
  403e82:	57                   	push   %edi
  403e83:	6a 01                	push   $0x1
  403e85:	ff 0c 24             	decl   (%esp)
  403e88:	68 01 00 10 00       	push   $0x100001
  403e8d:	ff 0c 24             	decl   (%esp)
  403e90:	a1 e8 f0 41 00       	mov    0x41f0e8,%eax
  403e95:	ff d0                	call   *%eax
  403e97:	83 f8 00             	cmp    $0x0,%eax
  403e9a:	0f 85 10 7b 00 00    	jne    0x40b9b0
  403ea0:	31 c7                	xor    %eax,%edi
  403ea2:	31 c3                	xor    %eax,%ebx
  403ea4:	81 1d e2 30 42 00 b1 	sbbl   $0xb1,0x4230e2
  403eab:	00 00 00 
  403eae:	13 1d c5 31 42 00    	adc    0x4231c5,%ebx
  403eb4:	b9 01 00 00 00       	mov    $0x1,%ecx
  403eb9:	01 c1                	add    %eax,%ecx
  403ebb:	8d 0d 9b 17 a7 98    	lea    0x98a7179b,%ecx
  403ec1:	81 e9 21 e3 64 98    	sub    $0x9864e321,%ecx
  403ec7:	51                   	push   %ecx
  403ec8:	8d 3d 90 17 a7 98    	lea    0x98a71790,%edi
  403ece:	81 ef 21 e3 64 98    	sub    $0x9864e321,%edi
  403ed4:	57                   	push   %edi
  403ed5:	a1 10 f1 41 00       	mov    0x41f110,%eax
  403eda:	ff d0                	call   *%eax
  403edc:	83 0d 41 31 42 00 4c 	orl    $0x4c,0x423141
  403ee3:	c7 05 ea 30 42 00 c2 	movl   $0xc2,0x4230ea
  403eea:	00 00 00 
  403eed:	83 15 35 30 42 00 7b 	adcl   $0x7b,0x423035
  403ef4:	01 fb                	add    %edi,%ebx
  403ef6:	8d 3d 9b 17 a7 98    	lea    0x98a7179b,%edi
  403efc:	81 ef 21 e3 64 98    	sub    $0x9864e321,%edi
  403f02:	57                   	push   %edi
  403f03:	8d 3d 90 17 a7 98    	lea    0x98a71790,%edi
  403f09:	81 ef 21 e3 64 98    	sub    $0x9864e321,%edi
  403f0f:	57                   	push   %edi
  403f10:	a1 10 f1 41 00       	mov    0x41f110,%eax
  403f15:	ff d0                	call   *%eax
  403f17:	83 15 33 31 42 00 3a 	adcl   $0x3a,0x423133
  403f1e:	11 ff                	adc    %edi,%edi
  403f20:	81 25 e5 30 42 00 b2 	andl   $0xb2,0x4230e5
  403f27:	00 00 00 
  403f2a:	31 05 d2 31 42 00    	xor    %eax,0x4231d2
  403f30:	8d 3d 9b 17 a7 98    	lea    0x98a7179b,%edi
  403f36:	81 ef 21 e3 64 98    	sub    $0x9864e321,%edi
  403f3c:	57                   	push   %edi
  403f3d:	8d 3d 90 17 a7 98    	lea    0x98a71790,%edi
  403f43:	81 ef 21 e3 64 98    	sub    $0x9864e321,%edi
  403f49:	57                   	push   %edi
  403f4a:	a1 10 f1 41 00       	mov    0x41f110,%eax
  403f4f:	ff d0                	call   *%eax
  403f51:	ba 01 00 00 00       	mov    $0x1,%edx
  403f56:	01 f2                	add    %esi,%edx
  403f58:	8d 0d 83 17 a7 98    	lea    0x98a71783,%ecx
  403f5e:	81 e9 21 e3 64 98    	sub    $0x9864e321,%ecx
  403f64:	51                   	push   %ecx
  403f65:	6a 01                	push   $0x1
  403f67:	ff 0c 24             	decl   (%esp)
  403f6a:	68 01 00 10 00       	push   $0x100001
  403f6f:	ff 0c 24             	decl   (%esp)
  403f72:	a1 e8 f0 41 00       	mov    0x41f0e8,%eax
  403f77:	ff d0                	call   *%eax
  403f79:	83 f8 00             	cmp    $0x0,%eax
  403f7c:	0f 85 2e 7a 00 00    	jne    0x40b9b0
  403f82:	8d 15 83 17 a7 98    	lea    0x98a71783,%edx
  403f88:	81 ea 21 e3 64 98    	sub    $0x9864e321,%edx
  403f8e:	52                   	push   %edx
  403f8f:	6a 01                	push   $0x1
  403f91:	ff 0c 24             	decl   (%esp)
  403f94:	68 01 00 10 00       	push   $0x100001
  403f99:	ff 0c 24             	decl   (%esp)
  403f9c:	a1 e8 f0 41 00       	mov    0x41f0e8,%eax
  403fa1:	ff d0                	call   *%eax
  403fa3:	83 f8 00             	cmp    $0x0,%eax
  403fa6:	0f 85 04 7a 00 00    	jne    0x40b9b0
  403fac:	ba 01 00 00 00       	mov    $0x1,%edx
  403fb1:	13 15 82 30 42 00    	adc    0x423082,%edx
  403fb7:	8d 15 9b 17 a7 98    	lea    0x98a7179b,%edx
  403fbd:	81 ea 21 e3 64 98    	sub    $0x9864e321,%edx
  403fc3:	52                   	push   %edx
  403fc4:	8d 1d 90 17 a7 98    	lea    0x98a71790,%ebx
  403fca:	81 eb 21 e3 64 98    	sub    $0x9864e321,%ebx
  403fd0:	53                   	push   %ebx
  403fd1:	a1 10 f1 41 00       	mov    0x41f110,%eax
  403fd6:	ff d0                	call   *%eax
  403fd8:	83 f6 da             	xor    $0xffffffda,%esi
  403fdb:	b9 01 00 00 00       	mov    $0x1,%ecx
  403fe0:	01 f9                	add    %edi,%ecx
  403fe2:	c7 05 0e 30 42 00 25 	movl   $0x25,0x42300e
  403fe9:	00 00 00 
  403fec:	8d 1d 9b 17 a7 98    	lea    0x98a7179b,%ebx
  403ff2:	81 eb 21 e3 64 98    	sub    $0x9864e321,%ebx
  403ff8:	53                   	push   %ebx
  403ff9:	8d 35 90 17 a7 98    	lea    0x98a71790,%esi
  403fff:	81 ee 21 e3 64 98    	sub    $0x9864e321,%esi
  404005:	56                   	push   %esi
  404006:	a1 10 f1 41 00       	mov    0x41f110,%eax
  40400b:	ff d0                	call   *%eax
  40400d:	b9 01 00 00 00       	mov    $0x1,%ecx
  404012:	13 0d d7 31 42 00    	adc    0x4231d7,%ecx
  404018:	19 fb                	sbb    %edi,%ebx
  40401a:	83 e1 b7             	and    $0xffffffb7,%ecx
  40401d:	31 1d 0e 31 42 00    	xor    %ebx,0x42310e
  404023:	2e e9 b1 74 00 00    	cs jmp 0x40b4da
  404029:	81 15 bf 31 42 00 ce 	adcl   $0xce,0x4231bf
  404030:	00 00 00 
  404033:	00 00                	add    %al,(%eax)
  404035:	00 83 0d 5a 30 42    	add    %al,0x42305a0d(%ebx)
  40403b:	00 7c 01 c3          	add    %bh,-0x3d(%ecx,%eax,1)
  40403f:	13 3d 89 31 42 00    	adc    0x423189,%edi
  404045:	83 c6 33             	add    $0x33,%esi
  404048:	01 de                	add    %ebx,%esi
  40404a:	8d 0d 9b 17 a7 98    	lea    0x98a7179b,%ecx
  404050:	81 e9 21 e3 64 98    	sub    $0x9864e321,%ecx
  404056:	51                   	push   %ecx
  404057:	8d 3d 90 17 a7 98    	lea    0x98a71790,%edi
  40405d:	81 ef 21 e3 64 98    	sub    $0x9864e321,%edi
  404063:	57                   	push   %edi
  404064:	a1 10 f1 41 00       	mov    0x41f110,%eax
  404069:	ff d0                	call   *%eax
  40406b:	01 fb                	add    %edi,%ebx
  40406d:	01 05 43 30 42 00    	add    %eax,0x423043
  404073:	83 d3 f4             	adc    $0xfffffff4,%ebx
  404076:	11 3d 5c 30 42 00    	adc    %edi,0x42305c
  40407c:	b9 01 00 00 00       	mov    $0x1,%ecx
  404081:	13 0d 21 30 42 00    	adc    0x423021,%ecx
  404087:	8d 05 9b 17 a7 98    	lea    0x98a7179b,%eax
  40408d:	2d 21 e3 64 98       	sub    $0x9864e321,%eax
  404092:	50                   	push   %eax
  404093:	8d 05 90 17 a7 98    	lea    0x98a71790,%eax
  404099:	2d 21 e3 64 98       	sub    $0x9864e321,%eax
  40409e:	50                   	push   %eax
  40409f:	a1 10 f1 41 00       	mov    0x41f110,%eax
  4040a4:	ff d0                	call   *%eax
  4040a6:	83 c0 c6             	add    $0xffffffc6,%eax
  4040a9:	13 05 e8 30 42 00    	adc    0x4230e8,%eax
  4040af:	82 2d 3e 30 42 00 df 	subb   $0xdf,0x42303e
  4040b6:	83 eb 66             	sub    $0x66,%ebx
  4040b9:	8d 05 9b 17 a7 98    	lea    0x98a7179b,%eax
  4040bf:	2d 21 e3 64 98       	sub    $0x9864e321,%eax
  4040c4:	50                   	push   %eax
  4040c5:	8d 05 90 17 a7 98    	lea    0x98a71790,%eax
  4040cb:	2d 21 e3 64 98       	sub    $0x9864e321,%eax
  4040d0:	50                   	push   %eax
  4040d1:	a1 10 f1 41 00       	mov    0x41f110,%eax
  4040d6:	ff d0                	call   *%eax
  4040d8:	13 3d b4 31 42 00    	adc    0x4231b4,%edi
  4040de:	8d 05 9b 17 a7 98    	lea    0x98a7179b,%eax
  4040e4:	2d 21 e3 64 98       	sub    $0x9864e321,%eax
  4040e9:	50                   	push   %eax
  4040ea:	8d 15 90 17 a7 98    	lea    0x98a71790,%edx
  4040f0:	81 ea 21 e3 64 98    	sub    $0x9864e321,%edx
  4040f6:	52                   	push   %edx
  4040f7:	a1 10 f1 41 00       	mov    0x41f110,%eax
  4040fc:	ff d0                	call   *%eax
  4040fe:	b9 01 00 00 00       	mov    $0x1,%ecx
  404103:	13 0d 37 31 42 00    	adc    0x423137,%ecx
  404109:	2a 05 93 31 42 00    	sub    0x423193,%al
  40410f:	13 0d 46 30 42 00    	adc    0x423046,%ecx
  404115:	83 f1 18             	xor    $0x18,%ecx
  404118:	01 35 0d 30 42 00    	add    %esi,0x42300d
  40411e:	8d 05 9b 17 a7 98    	lea    0x98a7179b,%eax
  404124:	2d 21 e3 64 98       	sub    $0x9864e321,%eax
  404129:	50                   	push   %eax
  40412a:	8d 1d 90 17 a7 98    	lea    0x98a71790,%ebx
  404130:	81 eb 21 e3 64 98    	sub    $0x9864e321,%ebx
  404136:	53                   	push   %ebx
  404137:	a1 10 f1 41 00       	mov    0x41f110,%eax
  40413c:	ff d0                	call   *%eax
  40413e:	8d 1d 83 17 a7 98    	lea    0x98a71783,%ebx
  404144:	81 eb 21 e3 64 98    	sub    $0x9864e321,%ebx
  40414a:	53                   	push   %ebx
  40414b:	6a 01                	push   $0x1
  40414d:	ff 0c 24             	decl   (%esp)
  404150:	68 01 00 10 00       	push   $0x100001
  404155:	ff 0c 24             	decl   (%esp)
  404158:	a1 e8 f0 41 00       	mov    0x41f0e8,%eax
  40415d:	ff d0                	call   *%eax
  40415f:	85 c0                	test   %eax,%eax
  404161:	0f 85 49 78 00 00    	jne    0x40b9b0
  404167:	ba 01 00 00 00       	mov    $0x1,%edx
  40416c:	13 15 a7 31 42 00    	adc    0x4231a7,%edx
  404172:	12 25 3f 31 42 00    	adc    0x42313f,%ah
  404178:	8d 1d 83 17 a7 98    	lea    0x98a71783,%ebx
  40417e:	81 eb 21 e3 64 98    	sub    $0x9864e321,%ebx
  404184:	53                   	push   %ebx
  404185:	6a 01                	push   $0x1
  404187:	ff 0c 24             	decl   (%esp)
  40418a:	68 01 00 10 00       	push   $0x100001
  40418f:	ff 0c 24             	decl   (%esp)
  404192:	a1 e8 f0 41 00       	mov    0x41f0e8,%eax
  404197:	ff d0                	call   *%eax
  404199:	85 c0                	test   %eax,%eax
  40419b:	0f 85 0f 78 00 00    	jne    0x40b9b0
  4041a1:	01 05 75 30 42 00    	add    %eax,0x423075
  4041a7:	b2 01                	mov    $0x1,%dl
  4041a9:	82 c2 b9             	add    $0xb9,%dl
  4041ac:	8d 05 83 17 a7 98    	lea    0x98a71783,%eax
  4041b2:	2d 21 e3 64 98       	sub    $0x9864e321,%eax
  4041b7:	50                   	push   %eax
  4041b8:	6a 01                	push   $0x1
  4041ba:	ff 0c 24             	decl   (%esp)
  4041bd:	68 01 00 10 00       	push   $0x100001
  4041c2:	ff 0c 24             	decl   (%esp)
  4041c5:	a1 e8 f0 41 00       	mov    0x41f0e8,%eax
  4041ca:	ff d0                	call   *%eax
  4041cc:	85 c0                	test   %eax,%eax
  4041ce:	0f 85 dc 77 00 00    	jne    0x40b9b0
  4041d4:	83 c8 51             	or     $0x51,%eax
  4041d7:	19 05 79 30 42 00    	sbb    %eax,0x423079
  4041dd:	b9 01 00 00 00       	mov    $0x1,%ecx
  4041e2:	01 c1                	add    %eax,%ecx
  4041e4:	c7 05 09 30 42 00 32 	movl   $0x32,0x423009
  4041eb:	00 00 00 
  4041ee:	83 0d be 30 42 00 2e 	orl    $0x2e,0x4230be
  4041f5:	8d 35 83 17 a7 98    	lea    0x98a71783,%esi
  4041fb:	81 ee 21 e3 64 98    	sub    $0x9864e321,%esi
  404201:	56                   	push   %esi
  404202:	6a 01                	push   $0x1
  404204:	ff 0c 24             	decl   (%esp)
  404207:	68 01 00 10 00       	push   $0x100001
  40420c:	ff 0c 24             	decl   (%esp)
  40420f:	a1 e8 f0 41 00       	mov    0x41f0e8,%eax
  404214:	ff d0                	call   *%eax
  404216:	83 f8 00             	cmp    $0x0,%eax
  404219:	0f 85 91 77 00 00    	jne    0x40b9b0
  40421f:	21 35 7e 30 42 00    	and    %esi,0x42307e
  404225:	8d 15 9b 17 a7 98    	lea    0x98a7179b,%edx
  40422b:	81 ea 21 e3 64 98    	sub    $0x9864e321,%edx
  404231:	52                   	push   %edx
  404232:	8d 35 90 17 a7 98    	lea    0x98a71790,%esi
  404238:	81 ee 21 e3 64 98    	sub    $0x9864e321,%esi
  40423e:	56                   	push   %esi
  40423f:	a1 10 f1 41 00       	mov    0x41f110,%eax
  404244:	ff d0                	call   *%eax
  404246:	19 c0                	sbb    %eax,%eax
  404248:	8d 3d 83 17 a7 98    	lea    0x98a71783,%edi
  40424e:	81 ef 21 e3 64 98    	sub    $0x9864e321,%edi
  404254:	57                   	push   %edi
  404255:	6a 01                	push   $0x1
  404257:	ff 0c 24             	decl   (%esp)
  40425a:	68 01 00 10 00       	push   $0x100001
  40425f:	ff 0c 24             	decl   (%esp)
  404262:	a1 e8 f0 41 00       	mov    0x41f0e8,%eax
  404267:	ff d0                	call   *%eax
  404269:	83 f8 00             	cmp    $0x0,%eax
  40426c:	0f 85 3e 77 00 00    	jne    0x40b9b0
  404272:	21 35 c8 30 42 00    	and    %esi,0x4230c8
  404278:	b1 01                	mov    $0x1,%cl
  40427a:	00 e1                	add    %ah,%cl
  40427c:	8d 15 83 17 a7 98    	lea    0x98a71783,%edx
  404282:	81 ea 21 e3 64 98    	sub    $0x9864e321,%edx
  404288:	52                   	push   %edx
  404289:	6a 01                	push   $0x1
  40428b:	ff 0c 24             	decl   (%esp)
  40428e:	68 01 00 10 00       	push   $0x100001
  404293:	ff 0c 24             	decl   (%esp)
  404296:	a1 e8 f0 41 00       	mov    0x41f0e8,%eax
  40429b:	ff d0                	call   *%eax
  40429d:	85 c0                	test   %eax,%eax
  40429f:	0f 85 0b 77 00 00    	jne    0x40b9b0
  4042a5:	81 1d ae 30 42 00 a0 	sbbl   $0xa0,0x4230ae
  4042ac:	00 00 00 
  4042af:	20 1d 69 30 42 00    	and    %bl,0x423069
  4042b5:	29 35 35 31 42 00    	sub    %esi,0x423135
  4042bb:	82 2d 17 30 42 00 e6 	subb   $0xe6,0x423017
  4042c2:	ba 01 00 00 00       	mov    $0x1,%edx
  4042c7:	83 c2 9e             	add    $0xffffff9e,%edx
  4042ca:	2e e9 0a 72 00 00    	cs jmp 0x40b4da
  4042d0:	21 1d eb 30 42 00    	and    %ebx,0x4230eb
  4042d6:	11 c7                	adc    %eax,%edi
  4042d8:	b9 01 00 00 00       	mov    $0x1,%ecx
  4042dd:	13 0d 93 31 42 00    	adc    0x423193,%ecx
	...
  4042ef:	00 00                	add    %al,(%eax)
  4042f1:	8d 0d 83 17 a7 98    	lea    0x98a71783,%ecx
  4042f7:	81 e9 21 e3 64 98    	sub    $0x9864e321,%ecx
  4042fd:	51                   	push   %ecx
  4042fe:	6a 01                	push   $0x1
  404300:	ff 0c 24             	decl   (%esp)
  404303:	68 01 00 10 00       	push   $0x100001
  404308:	ff 0c 24             	decl   (%esp)
  40430b:	a1 e8 f0 41 00       	mov    0x41f0e8,%eax
  404310:	ff d0                	call   *%eax
  404312:	83 f8 00             	cmp    $0x0,%eax
  404315:	0f 85 95 76 00 00    	jne    0x40b9b0
  40431b:	09 35 23 30 42 00    	or     %esi,0x423023
  404321:	0b 1d 3b 30 42 00    	or     0x42303b,%ebx
  404327:	83 d0 05             	adc    $0x5,%eax
  40432a:	82 2d 9f 31 42 00 97 	subb   $0x97,0x42319f
  404331:	8d 0d 83 17 a7 98    	lea    0x98a71783,%ecx
  404337:	81 e9 21 e3 64 98    	sub    $0x9864e321,%ecx
  40433d:	51                   	push   %ecx
  40433e:	6a 01                	push   $0x1
  404340:	ff 0c 24             	decl   (%esp)
  404343:	68 01 00 10 00       	push   $0x100001
  404348:	ff 0c 24             	decl   (%esp)
  40434b:	a1 e8 f0 41 00       	mov    0x41f0e8,%eax
  404350:	ff d0                	call   *%eax
  404352:	83 f8 00             	cmp    $0x0,%eax
  404355:	0f 85 55 76 00 00    	jne    0x40b9b0
  40435b:	b6 01                	mov    $0x1,%dh
  40435d:	00 c6                	add    %al,%dh
  40435f:	82 2d f3 30 42 00 26 	subb   $0x26,0x4230f3
  404366:	83 25 25 30 42 00 26 	andl   $0x26,0x423025
  40436d:	21 35 a7 31 42 00    	and    %esi,0x4231a7
  404373:	31 fb                	xor    %edi,%ebx
  404375:	8d 15 9b 17 a7 98    	lea    0x98a7179b,%edx
  40437b:	81 ea 21 e3 64 98    	sub    $0x9864e321,%edx
  404381:	52                   	push   %edx
  404382:	8d 3d 90 17 a7 98    	lea    0x98a71790,%edi
  404388:	81 ef 21 e3 64 98    	sub    $0x9864e321,%edi
  40438e:	57                   	push   %edi
  40438f:	a1 10 f1 41 00       	mov    0x41f110,%eax
  404394:	ff d0                	call   *%eax
  404396:	83 0d ec 31 42 00 65 	orl    $0x65,0x4231ec
  40439d:	b2 01                	mov    $0x1,%dl
  40439f:	00 fa                	add    %bh,%dl
  4043a1:	8d 0d 83 17 a7 98    	lea    0x98a71783,%ecx
  4043a7:	81 e9 21 e3 64 98    	sub    $0x9864e321,%ecx
  4043ad:	51                   	push   %ecx
  4043ae:	6a 01                	push   $0x1
  4043b0:	ff 0c 24             	decl   (%esp)
  4043b3:	68 01 00 10 00       	push   $0x100001
  4043b8:	ff 0c 24             	decl   (%esp)
  4043bb:	a1 e8 f0 41 00       	mov    0x41f0e8,%eax
  4043c0:	ff d0                	call   *%eax
  4043c2:	85 c0                	test   %eax,%eax
  4043c4:	0f 85 e6 75 00 00    	jne    0x40b9b0
  4043ca:	2b 05 66 31 42 00    	sub    0x423166,%eax
  4043d0:	11 db                	adc    %ebx,%ebx
  4043d2:	83 cb 82             	or     $0xffffff82,%ebx
  4043d5:	01 35 fd 30 42 00    	add    %esi,0x4230fd
  4043db:	8d 15 9b 17 a7 98    	lea    0x98a7179b,%edx
  4043e1:	81 ea 21 e3 64 98    	sub    $0x9864e321,%edx
  4043e7:	52                   	push   %edx
  4043e8:	8d 05 90 17 a7 98    	lea    0x98a71790,%eax
  4043ee:	2d 21 e3 64 98       	sub    $0x9864e321,%eax
  4043f3:	50                   	push   %eax
  4043f4:	a1 10 f1 41 00       	mov    0x41f110,%eax
  4043f9:	ff d0                	call   *%eax
  4043fb:	11 de                	adc    %ebx,%esi
  4043fd:	29 1d 82 31 42 00    	sub    %ebx,0x423182
  404403:	01 1d 1c 31 42 00    	add    %ebx,0x42311c
  404409:	83 f3 ac             	xor    $0xffffffac,%ebx
  40440c:	83 35 d9 30 42 00 5f 	xorl   $0x5f,0x4230d9
  404413:	8d 05 83 17 a7 98    	lea    0x98a71783,%eax
  404419:	2d 21 e3 64 98       	sub    $0x9864e321,%eax
  40441e:	50                   	push   %eax
  40441f:	6a 01                	push   $0x1
  404421:	ff 0c 24             	decl   (%esp)
  404424:	68 01 00 10 00       	push   $0x100001
  404429:	ff 0c 24             	decl   (%esp)
  40442c:	a1 e8 f0 41 00       	mov    0x41f0e8,%eax
  404431:	ff d0                	call   *%eax
  404433:	85 c0                	test   %eax,%eax
  404435:	0f 85 75 75 00 00    	jne    0x40b9b0
  40443b:	8d 0d 83 17 a7 98    	lea    0x98a71783,%ecx
  404441:	81 e9 21 e3 64 98    	sub    $0x9864e321,%ecx
  404447:	51                   	push   %ecx
  404448:	6a 01                	push   $0x1
  40444a:	ff 0c 24             	decl   (%esp)
  40444d:	68 01 00 10 00       	push   $0x100001
  404452:	ff 0c 24             	decl   (%esp)
  404455:	a1 e8 f0 41 00       	mov    0x41f0e8,%eax
  40445a:	ff d0                	call   *%eax
  40445c:	83 f8 00             	cmp    $0x0,%eax
  40445f:	0f 85 4b 75 00 00    	jne    0x40b9b0
  404465:	11 35 d5 30 42 00    	adc    %esi,0x4230d5
  40446b:	01 1d 6e 30 42 00    	add    %ebx,0x42306e
  404471:	82 ec 61             	sub    $0x61,%ah
  404474:	8d 0d 9b 17 a7 98    	lea    0x98a7179b,%ecx
  40447a:	81 e9 21 e3 64 98    	sub    $0x9864e321,%ecx
  404480:	51                   	push   %ecx
  404481:	8d 05 90 17 a7 98    	lea    0x98a71790,%eax
  404487:	2d 21 e3 64 98       	sub    $0x9864e321,%eax
  40448c:	50                   	push   %eax
  40448d:	a1 10 f1 41 00       	mov    0x41f110,%eax
  404492:	ff d0                	call   *%eax
  404494:	0b 35 ec 30 42 00    	or     0x4230ec,%esi
  40449a:	ba 01 00 00 00       	mov    $0x1,%edx
  40449f:	83 c2 6b             	add    $0x6b,%edx
  4044a2:	83 ca 13             	or     $0x13,%edx
  4044a5:	01 c7                	add    %eax,%edi
  4044a7:	8d 0d 9b 17 a7 98    	lea    0x98a7179b,%ecx
  4044ad:	81 e9 21 e3 64 98    	sub    $0x9864e321,%ecx
  4044b3:	51                   	push   %ecx
  4044b4:	8d 0d 90 17 a7 98    	lea    0x98a71790,%ecx
  4044ba:	81 e9 21 e3 64 98    	sub    $0x9864e321,%ecx
  4044c0:	51                   	push   %ecx
  4044c1:	a1 10 f1 41 00       	mov    0x41f110,%eax
  4044c6:	ff d0                	call   *%eax
  4044c8:	8d 3d 9b 17 a7 98    	lea    0x98a7179b,%edi
  4044ce:	81 ef 21 e3 64 98    	sub    $0x9864e321,%edi
  4044d4:	57                   	push   %edi
  4044d5:	8d 1d 90 17 a7 98    	lea    0x98a71790,%ebx
  4044db:	81 eb 21 e3 64 98    	sub    $0x9864e321,%ebx
  4044e1:	53                   	push   %ebx
  4044e2:	a1 10 f1 41 00       	mov    0x41f110,%eax
  4044e7:	ff d0                	call   *%eax
  4044e9:	b2 01                	mov    $0x1,%dl
  4044eb:	82 c2 3f             	add    $0x3f,%dl
  4044ee:	83 0d c8 30 42 00 1b 	orl    $0x1b,0x4230c8
  4044f5:	83 ea 35             	sub    $0x35,%edx
  4044f8:	13 1d 30 30 42 00    	adc    0x423030,%ebx
  4044fe:	2e e9 d6 6f 00 00    	cs jmp 0x40b4da
  404504:	b9 01 00 00 00       	mov    $0x1,%ecx
  404509:	83 c1 30             	add    $0x30,%ecx
  40450c:	31 d8                	xor    %ebx,%eax
	...
  40451a:	00 00                	add    %al,(%eax)
  40451c:	8d 3d 9b 17 a7 98    	lea    0x98a7179b,%edi
  404522:	81 ef 21 e3 64 98    	sub    $0x9864e321,%edi
  404528:	57                   	push   %edi
  404529:	8d 05 90 17 a7 98    	lea    0x98a71790,%eax
  40452f:	2d 21 e3 64 98       	sub    $0x9864e321,%eax
  404534:	50                   	push   %eax
  404535:	a1 10 f1 41 00       	mov    0x41f110,%eax
  40453a:	ff d0                	call   *%eax
  40453c:	31 c0                	xor    %eax,%eax
  40453e:	83 15 0b 30 42 00 1c 	adcl   $0x1c,0x42300b
  404545:	8d 35 83 17 a7 98    	lea    0x98a71783,%esi
  40454b:	81 ee 21 e3 64 98    	sub    $0x9864e321,%esi
  404551:	56                   	push   %esi
  404552:	6a 01                	push   $0x1
  404554:	ff 0c 24             	decl   (%esp)
  404557:	68 01 00 10 00       	push   $0x100001
  40455c:	ff 0c 24             	decl   (%esp)
  40455f:	a1 e8 f0 41 00       	mov    0x41f0e8,%eax
  404564:	ff d0                	call   *%eax
  404566:	83 f8 00             	cmp    $0x0,%eax
  404569:	0f 85 41 74 00 00    	jne    0x40b9b0
  40456f:	ba 01 00 00 00       	mov    $0x1,%edx
  404574:	13 15 1c 30 42 00    	adc    0x42301c,%edx
  40457a:	8d 35 9b 17 a7 98    	lea    0x98a7179b,%esi
  404580:	81 ee 21 e3 64 98    	sub    $0x9864e321,%esi
  404586:	56                   	push   %esi
  404587:	8d 3d 90 17 a7 98    	lea    0x98a71790,%edi
  40458d:	81 ef 21 e3 64 98    	sub    $0x9864e321,%edi
  404593:	57                   	push   %edi
  404594:	a1 10 f1 41 00       	mov    0x41f110,%eax
  404599:	ff d0                	call   *%eax
  40459b:	8d 3d 83 17 a7 98    	lea    0x98a71783,%edi
  4045a1:	81 ef 21 e3 64 98    	sub    $0x9864e321,%edi
  4045a7:	57                   	push   %edi
  4045a8:	6a 01                	push   $0x1
  4045aa:	ff 0c 24             	decl   (%esp)
  4045ad:	68 01 00 10 00       	push   $0x100001
  4045b2:	ff 0c 24             	decl   (%esp)
  4045b5:	a1 e8 f0 41 00       	mov    0x41f0e8,%eax
  4045ba:	ff d0                	call   *%eax
  4045bc:	85 c0                	test   %eax,%eax
  4045be:	0f 85 ec 73 00 00    	jne    0x40b9b0
  4045c4:	01 df                	add    %ebx,%edi
  4045c6:	13 35 ec 31 42 00    	adc    0x4231ec,%esi
  4045cc:	18 1d d3 30 42 00    	sbb    %bl,0x4230d3
  4045d2:	ba 01 00 00 00       	mov    $0x1,%edx
  4045d7:	01 c2                	add    %eax,%edx
  4045d9:	8d 3d 9b 17 a7 98    	lea    0x98a7179b,%edi
  4045df:	81 ef 21 e3 64 98    	sub    $0x9864e321,%edi
  4045e5:	57                   	push   %edi
  4045e6:	8d 3d 90 17 a7 98    	lea    0x98a71790,%edi
  4045ec:	81 ef 21 e3 64 98    	sub    $0x9864e321,%edi
  4045f2:	57                   	push   %edi
  4045f3:	a1 10 f1 41 00       	mov    0x41f110,%eax
  4045f8:	ff d0                	call   *%eax
  4045fa:	b9 01 00 00 00       	mov    $0x1,%ecx
  4045ff:	01 d9                	add    %ebx,%ecx
  404601:	09 0d be 30 42 00    	or     %ecx,0x4230be
  404607:	29 c9                	sub    %ecx,%ecx
  404609:	81 35 a6 30 42 00 ca 	xorl   $0xca,0x4230a6
  404610:	00 00 00 
  404613:	8d 0d 83 17 a7 98    	lea    0x98a71783,%ecx
  404619:	81 e9 21 e3 64 98    	sub    $0x9864e321,%ecx
  40461f:	51                   	push   %ecx
  404620:	6a 01                	push   $0x1
  404622:	ff 0c 24             	decl   (%esp)
  404625:	68 01 00 10 00       	push   $0x100001
  40462a:	ff 0c 24             	decl   (%esp)
  40462d:	a1 e8 f0 41 00       	mov    0x41f0e8,%eax
  404632:	ff d0                	call   *%eax
  404634:	85 c0                	test   %eax,%eax
  404636:	0f 85 74 73 00 00    	jne    0x40b9b0
  40463c:	8d 0d 9b 17 a7 98    	lea    0x98a7179b,%ecx
  404642:	81 e9 21 e3 64 98    	sub    $0x9864e321,%ecx
  404648:	51                   	push   %ecx
  404649:	8d 1d 90 17 a7 98    	lea    0x98a71790,%ebx
  40464f:	81 eb 21 e3 64 98    	sub    $0x9864e321,%ebx
  404655:	53                   	push   %ebx
  404656:	a1 10 f1 41 00       	mov    0x41f110,%eax
  40465b:	ff d0                	call   *%eax
  40465d:	21 35 e4 31 42 00    	and    %esi,0x4231e4
  404663:	31 de                	xor    %ebx,%esi
  404665:	29 f8                	sub    %edi,%eax
  404667:	12 25 b4 30 42 00    	adc    0x4230b4,%ah
  40466d:	19 db                	sbb    %ebx,%ebx
  40466f:	8d 15 9b 17 a7 98    	lea    0x98a7179b,%edx
  404675:	81 ea 21 e3 64 98    	sub    $0x9864e321,%edx
  40467b:	52                   	push   %edx
  40467c:	8d 3d 90 17 a7 98    	lea    0x98a71790,%edi
  404682:	81 ef 21 e3 64 98    	sub    $0x9864e321,%edi
  404688:	57                   	push   %edi
  404689:	a1 10 f1 41 00       	mov    0x41f110,%eax
  40468e:	ff d0                	call   *%eax
  404690:	01 f7                	add    %esi,%edi
  404692:	8d 3d 83 17 a7 98    	lea    0x98a71783,%edi
  404698:	81 ef 21 e3 64 98    	sub    $0x9864e321,%edi
  40469e:	57                   	push   %edi
  40469f:	6a 01                	push   $0x1
  4046a1:	ff 0c 24             	decl   (%esp)
  4046a4:	68 01 00 10 00       	push   $0x100001
  4046a9:	ff 0c 24             	decl   (%esp)
  4046ac:	a1 e8 f0 41 00       	mov    0x41f0e8,%eax
  4046b1:	ff d0                	call   *%eax
  4046b3:	83 f8 00             	cmp    $0x0,%eax
  4046b6:	0f 85 f4 72 00 00    	jne    0x40b9b0
  4046bc:	2b 05 f9 31 42 00    	sub    0x4231f9,%eax
  4046c2:	ba 01 00 00 00       	mov    $0x1,%edx
  4046c7:	13 15 48 31 42 00    	adc    0x423148,%edx
  4046cd:	82 ec 98             	sub    $0x98,%ah
  4046d0:	8d 3d 9b 17 a7 98    	lea    0x98a7179b,%edi
  4046d6:	81 ef 21 e3 64 98    	sub    $0x9864e321,%edi
  4046dc:	57                   	push   %edi
  4046dd:	8d 3d 90 17 a7 98    	lea    0x98a71790,%edi
  4046e3:	81 ef 21 e3 64 98    	sub    $0x9864e321,%edi
  4046e9:	57                   	push   %edi
  4046ea:	a1 10 f1 41 00       	mov    0x41f110,%eax
  4046ef:	ff d0                	call   *%eax
  4046f1:	11 05 b4 30 42 00    	adc    %eax,0x4230b4
  4046f7:	81 0d 46 31 42 00 de 	orl    $0xde,0x423146
  4046fe:	00 00 00 
  404701:	2e e9 d3 6d 00 00    	cs jmp 0x40b4da
  404707:	01 35 8b 31 42 00    	add    %esi,0x42318b
  40470d:	01 3d 66 30 42 00    	add    %edi,0x423066
  404713:	ba 01 00 00 00       	mov    $0x1,%edx
  404718:	83 c2 3d             	add    $0x3d,%edx
  40471b:	2b 05 2c 31 42 00    	sub    0x42312c,%eax
  404721:	00 00                	add    %al,(%eax)
  404723:	00 00                	add    %al,(%eax)
  404725:	00 00                	add    %al,(%eax)
  404727:	29 1d a6 30 42 00    	sub    %ebx,0x4230a6
  40472d:	09 1d e0 31 42 00    	or     %ebx,0x4231e0
  404733:	b9 01 00 00 00       	mov    $0x1,%ecx
  404738:	83 c1 49             	add    $0x49,%ecx
  40473b:	c7 05 d4 30 42 00 55 	movl   $0x55,0x4230d4
  404742:	00 00 00 
  404745:	82 d5 b6             	adc    $0xb6,%ch
  404748:	8d 0d 9b 17 a7 98    	lea    0x98a7179b,%ecx
  40474e:	81 e9 21 e3 64 98    	sub    $0x9864e321,%ecx
  404754:	51                   	push   %ecx
  404755:	8d 3d 90 17 a7 98    	lea    0x98a71790,%edi
  40475b:	81 ef 21 e3 64 98    	sub    $0x9864e321,%edi
  404761:	57                   	push   %edi
  404762:	a1 10 f1 41 00       	mov    0x41f110,%eax
  404767:	ff d0                	call   *%eax
  404769:	8d 35 83 17 a7 98    	lea    0x98a71783,%esi
  40476f:	81 ee 21 e3 64 98    	sub    $0x9864e321,%esi
  404775:	56                   	push   %esi
  404776:	6a 01                	push   $0x1
  404778:	ff 0c 24             	decl   (%esp)
  40477b:	68 01 00 10 00       	push   $0x100001
  404780:	ff 0c 24             	decl   (%esp)
  404783:	a1 e8 f0 41 00       	mov    0x41f0e8,%eax
  404788:	ff d0                	call   *%eax
  40478a:	85 c0                	test   %eax,%eax
  40478c:	0f 85 1e 72 00 00    	jne    0x40b9b0
  404792:	01 de                	add    %ebx,%esi
  404794:	8d 3d 83 17 a7 98    	lea    0x98a71783,%edi
  40479a:	81 ef 21 e3 64 98    	sub    $0x9864e321,%edi
  4047a0:	57                   	push   %edi
  4047a1:	6a 01                	push   $0x1
  4047a3:	ff 0c 24             	decl   (%esp)
  4047a6:	68 01 00 10 00       	push   $0x100001
  4047ab:	ff 0c 24             	decl   (%esp)
  4047ae:	a1 e8 f0 41 00       	mov    0x41f0e8,%eax
  4047b3:	ff d0                	call   *%eax
  4047b5:	83 f8 00             	cmp    $0x0,%eax
  4047b8:	0f 85 f2 71 00 00    	jne    0x40b9b0
  4047be:	c7 05 1e 30 42 00 8f 	movl   $0x8f,0x42301e
  4047c5:	00 00 00 
  4047c8:	c7 05 e3 31 42 00 22 	movl   $0x22,0x4231e3
  4047cf:	00 00 00 
  4047d2:	8d 0d 83 17 a7 98    	lea    0x98a71783,%ecx
  4047d8:	81 e9 21 e3 64 98    	sub    $0x9864e321,%ecx
  4047de:	51                   	push   %ecx
  4047df:	6a 01                	push   $0x1
  4047e1:	ff 0c 24             	decl   (%esp)
  4047e4:	68 01 00 10 00       	push   $0x100001
  4047e9:	ff 0c 24             	decl   (%esp)
  4047ec:	a1 e8 f0 41 00       	mov    0x41f0e8,%eax
  4047f1:	ff d0                	call   *%eax
  4047f3:	85 c0                	test   %eax,%eax
  4047f5:	0f 85 b5 71 00 00    	jne    0x40b9b0
  4047fb:	0b 1d 28 31 42 00    	or     0x423128,%ebx
  404801:	ba 01 00 00 00       	mov    $0x1,%edx
  404806:	01 c2                	add    %eax,%edx
  404808:	b1 01                	mov    $0x1,%cl
  40480a:	82 c1 0f             	add    $0xf,%cl
  40480d:	8d 05 83 17 a7 98    	lea    0x98a71783,%eax
  404813:	2d 21 e3 64 98       	sub    $0x9864e321,%eax
  404818:	50                   	push   %eax
  404819:	6a 01                	push   $0x1
  40481b:	ff 0c 24             	decl   (%esp)
  40481e:	68 01 00 10 00       	push   $0x100001
  404823:	ff 0c 24             	decl   (%esp)
  404826:	a1 e8 f0 41 00       	mov    0x41f0e8,%eax
  40482b:	ff d0                	call   *%eax
  40482d:	83 f8 00             	cmp    $0x0,%eax
  404830:	0f 85 7a 71 00 00    	jne    0x40b9b0
  404836:	83 15 94 30 42 00 37 	adcl   $0x37,0x423094
  40483d:	8d 1d 83 17 a7 98    	lea    0x98a71783,%ebx
  404843:	81 eb 21 e3 64 98    	sub    $0x9864e321,%ebx
  404849:	53                   	push   %ebx
  40484a:	6a 01                	push   $0x1
  40484c:	ff 0c 24             	decl   (%esp)
  40484f:	68 01 00 10 00       	push   $0x100001
  404854:	ff 0c 24             	decl   (%esp)
  404857:	a1 e8 f0 41 00       	mov    0x41f0e8,%eax
  40485c:	ff d0                	call   *%eax
  40485e:	85 c0                	test   %eax,%eax
  404860:	0f 85 4a 71 00 00    	jne    0x40b9b0
  404866:	8d 0d 83 17 a7 98    	lea    0x98a71783,%ecx
  40486c:	81 e9 21 e3 64 98    	sub    $0x9864e321,%ecx
  404872:	51                   	push   %ecx
  404873:	6a 01                	push   $0x1
  404875:	ff 0c 24             	decl   (%esp)
  404878:	68 01 00 10 00       	push   $0x100001
  40487d:	ff 0c 24             	decl   (%esp)
  404880:	a1 e8 f0 41 00       	mov    0x41f0e8,%eax
  404885:	ff d0                	call   *%eax
  404887:	83 f8 00             	cmp    $0x0,%eax
  40488a:	0f 85 20 71 00 00    	jne    0x40b9b0
  404890:	00 3d b6 31 42 00    	add    %bh,0x4231b6
  404896:	83 35 31 31 42 00 6f 	xorl   $0x6f,0x423131
  40489d:	01 3d 71 30 42 00    	add    %edi,0x423071
  4048a3:	ba 01 00 00 00       	mov    $0x1,%edx
  4048a8:	83 c2 5f             	add    $0x5f,%edx
  4048ab:	29 3d ae 31 42 00    	sub    %edi,0x4231ae
  4048b1:	8d 35 9b 17 a7 98    	lea    0x98a7179b,%esi
  4048b7:	81 ee 21 e3 64 98    	sub    $0x9864e321,%esi
  4048bd:	56                   	push   %esi
  4048be:	8d 15 90 17 a7 98    	lea    0x98a71790,%edx
  4048c4:	81 ea 21 e3 64 98    	sub    $0x9864e321,%edx
  4048ca:	52                   	push   %edx
  4048cb:	a1 10 f1 41 00       	mov    0x41f110,%eax
  4048d0:	ff d0                	call   *%eax
  4048d2:	8d 3d 9b 17 a7 98    	lea    0x98a7179b,%edi
  4048d8:	81 ef 21 e3 64 98    	sub    $0x9864e321,%edi
  4048de:	57                   	push   %edi
  4048df:	8d 1d 90 17 a7 98    	lea    0x98a71790,%ebx
  4048e5:	81 eb 21 e3 64 98    	sub    $0x9864e321,%ebx
  4048eb:	53                   	push   %ebx
  4048ec:	a1 10 f1 41 00       	mov    0x41f110,%eax
  4048f1:	ff d0                	call   *%eax
  4048f3:	31 1d 6e 30 42 00    	xor    %ebx,0x42306e
  4048f9:	28 db                	sub    %bl,%bl
  4048fb:	11 fb                	adc    %edi,%ebx
  4048fd:	31 1d ca 30 42 00    	xor    %ebx,0x4230ca
  404903:	b9 01 00 00 00       	mov    $0x1,%ecx
  404908:	83 c1 be             	add    $0xffffffbe,%ecx
  40490b:	8d 15 83 17 a7 98    	lea    0x98a71783,%edx
  404911:	81 ea 21 e3 64 98    	sub    $0x9864e321,%edx
  404917:	52                   	push   %edx
  404918:	6a 01                	push   $0x1
  40491a:	ff 0c 24             	decl   (%esp)
  40491d:	68 01 00 10 00       	push   $0x100001
  404922:	ff 0c 24             	decl   (%esp)
  404925:	a1 e8 f0 41 00       	mov    0x41f0e8,%eax
  40492a:	ff d0                	call   *%eax
  40492c:	83 f8 00             	cmp    $0x0,%eax
  40492f:	0f 85 7b 70 00 00    	jne    0x40b9b0
  404935:	83 f6 94             	xor    $0xffffff94,%esi
  404938:	ba 01 00 00 00       	mov    $0x1,%edx
  40493d:	01 f2                	add    %esi,%edx
  40493f:	31 1d 25 30 42 00    	xor    %ebx,0x423025
  404945:	8d 0d 83 17 a7 98    	lea    0x98a71783,%ecx
  40494b:	81 e9 21 e3 64 98    	sub    $0x9864e321,%ecx
  404951:	51                   	push   %ecx
  404952:	6a 01                	push   $0x1
  404954:	ff 0c 24             	decl   (%esp)
  404957:	68 01 00 10 00       	push   $0x100001
  40495c:	ff 0c 24             	decl   (%esp)
  40495f:	a1 e8 f0 41 00       	mov    0x41f0e8,%eax
  404964:	ff d0                	call   *%eax
  404966:	85 c0                	test   %eax,%eax
  404968:	0f 85 42 70 00 00    	jne    0x40b9b0
  40496e:	8d 15 83 17 a7 98    	lea    0x98a71783,%edx
  404974:	81 ea 21 e3 64 98    	sub    $0x9864e321,%edx
  40497a:	52                   	push   %edx
  40497b:	6a 01                	push   $0x1
  40497d:	ff 0c 24             	decl   (%esp)
  404980:	68 01 00 10 00       	push   $0x100001
  404985:	ff 0c 24             	decl   (%esp)
  404988:	a1 e8 f0 41 00       	mov    0x41f0e8,%eax
  40498d:	ff d0                	call   *%eax
  40498f:	85 c0                	test   %eax,%eax
  404991:	0f 85 19 70 00 00    	jne    0x40b9b0
  404997:	30 05 6a 30 42 00    	xor    %al,0x42306a
  40499d:	2e e9 37 6b 00 00    	cs jmp 0x40b4da
  4049a3:	b9 01 00 00 00       	mov    $0x1,%ecx
  4049a8:	83 c1 ea             	add    $0xffffffea,%ecx
  4049ab:	81 35 d3 30 42 00 d5 	xorl   $0xd5,0x4230d3
  4049b2:	00 00 00 
	...
  4049c1:	00 00                	add    %al,(%eax)
  4049c3:	00 83 c6 fe 29 3d    	add    %al,0x3d29fec6(%ebx)
  4049c9:	86 31                	xchg   %dh,(%ecx)
  4049cb:	42                   	inc    %edx
  4049cc:	00 8d 3d 83 17 a7    	add    %cl,-0x58e87cc3(%ebp)
  4049d2:	98                   	cwtl
  4049d3:	81 ef 21 e3 64 98    	sub    $0x9864e321,%edi
  4049d9:	57                   	push   %edi
  4049da:	6a 01                	push   $0x1
  4049dc:	ff 0c 24             	decl   (%esp)
  4049df:	68 01 00 10 00       	push   $0x100001
  4049e4:	ff 0c 24             	decl   (%esp)
  4049e7:	a1 e8 f0 41 00       	mov    0x41f0e8,%eax
  4049ec:	ff d0                	call   *%eax
  4049ee:	85 c0                	test   %eax,%eax
  4049f0:	0f 85 ba 6f 00 00    	jne    0x40b9b0
  4049f6:	13 35 fb 30 42 00    	adc    0x4230fb,%esi
  4049fc:	8d 3d 83 17 a7 98    	lea    0x98a71783,%edi
  404a02:	81 ef 21 e3 64 98    	sub    $0x9864e321,%edi
  404a08:	57                   	push   %edi
  404a09:	6a 01                	push   $0x1
  404a0b:	ff 0c 24             	decl   (%esp)
  404a0e:	68 01 00 10 00       	push   $0x100001
  404a13:	ff 0c 24             	decl   (%esp)
  404a16:	a1 e8 f0 41 00       	mov    0x41f0e8,%eax
  404a1b:	ff d0                	call   *%eax
  404a1d:	85 c0                	test   %eax,%eax
  404a1f:	0f 85 8b 6f 00 00    	jne    0x40b9b0
  404a25:	82 2d 68 30 42 00 63 	subb   $0x63,0x423068
  404a2c:	8d 1d 83 17 a7 98    	lea    0x98a71783,%ebx
  404a32:	81 eb 21 e3 64 98    	sub    $0x9864e321,%ebx
  404a38:	53                   	push   %ebx
  404a39:	6a 01                	push   $0x1
  404a3b:	ff 0c 24             	decl   (%esp)
  404a3e:	68 01 00 10 00       	push   $0x100001
  404a43:	ff 0c 24             	decl   (%esp)
  404a46:	a1 e8 f0 41 00       	mov    0x41f0e8,%eax
  404a4b:	ff d0                	call   *%eax
  404a4d:	83 f8 00             	cmp    $0x0,%eax
  404a50:	0f 85 5a 6f 00 00    	jne    0x40b9b0
  404a56:	8d 35 83 17 a7 98    	lea    0x98a71783,%esi
  404a5c:	81 ee 21 e3 64 98    	sub    $0x9864e321,%esi
  404a62:	56                   	push   %esi
  404a63:	6a 01                	push   $0x1
  404a65:	ff 0c 24             	decl   (%esp)
  404a68:	68 01 00 10 00       	push   $0x100001
  404a6d:	ff 0c 24             	decl   (%esp)
  404a70:	a1 e8 f0 41 00       	mov    0x41f0e8,%eax
  404a75:	ff d0                	call   *%eax
  404a77:	85 c0                	test   %eax,%eax
  404a79:	0f 85 31 6f 00 00    	jne    0x40b9b0
  404a7f:	01 05 0a 30 42 00    	add    %eax,0x42300a
  404a85:	83 db 29             	sbb    $0x29,%ebx
  404a88:	b9 01 00 00 00       	mov    $0x1,%ecx
  404a8d:	13 0d 49 30 42 00    	adc    0x423049,%ecx
  404a93:	19 ce                	sbb    %ecx,%esi
  404a95:	8d 1d 9b 17 a7 98    	lea    0x98a7179b,%ebx
  404a9b:	81 eb 21 e3 64 98    	sub    $0x9864e321,%ebx
  404aa1:	53                   	push   %ebx
  404aa2:	8d 05 90 17 a7 98    	lea    0x98a71790,%eax
  404aa8:	2d 21 e3 64 98       	sub    $0x9864e321,%eax
  404aad:	50                   	push   %eax
  404aae:	a1 10 f1 41 00       	mov    0x41f110,%eax
  404ab3:	ff d0                	call   *%eax
  404ab5:	8d 1d 83 17 a7 98    	lea    0x98a71783,%ebx
  404abb:	81 eb 21 e3 64 98    	sub    $0x9864e321,%ebx
  404ac1:	53                   	push   %ebx
  404ac2:	6a 01                	push   $0x1
  404ac4:	ff 0c 24             	decl   (%esp)
  404ac7:	68 01 00 10 00       	push   $0x100001
  404acc:	ff 0c 24             	decl   (%esp)
  404acf:	a1 e8 f0 41 00       	mov    0x41f0e8,%eax
  404ad4:	ff d0                	call   *%eax
  404ad6:	83 f8 00             	cmp    $0x0,%eax
  404ad9:	0f 85 d1 6e 00 00    	jne    0x40b9b0
  404adf:	8d 35 83 17 a7 98    	lea    0x98a71783,%esi
  404ae5:	81 ee 21 e3 64 98    	sub    $0x9864e321,%esi
  404aeb:	56                   	push   %esi
  404aec:	6a 01                	push   $0x1
  404aee:	ff 0c 24             	decl   (%esp)
  404af1:	68 01 00 10 00       	push   $0x100001
  404af6:	ff 0c 24             	decl   (%esp)
  404af9:	a1 e8 f0 41 00       	mov    0x41f0e8,%eax
  404afe:	ff d0                	call   *%eax
  404b00:	83 f8 00             	cmp    $0x0,%eax
  404b03:	0f 85 a7 6e 00 00    	jne    0x40b9b0
  404b09:	8d 15 9b 17 a7 98    	lea    0x98a7179b,%edx
  404b0f:	81 ea 21 e3 64 98    	sub    $0x9864e321,%edx
  404b15:	52                   	push   %edx
  404b16:	8d 05 90 17 a7 98    	lea    0x98a71790,%eax
  404b1c:	2d 21 e3 64 98       	sub    $0x9864e321,%eax
  404b21:	50                   	push   %eax
  404b22:	a1 10 f1 41 00       	mov    0x41f110,%eax
  404b27:	ff d0                	call   *%eax
  404b29:	21 35 73 30 42 00    	and    %esi,0x423073
  404b2f:	01 c0                	add    %eax,%eax
  404b31:	8d 3d 83 17 a7 98    	lea    0x98a71783,%edi
  404b37:	81 ef 21 e3 64 98    	sub    $0x9864e321,%edi
  404b3d:	57                   	push   %edi
  404b3e:	6a 01                	push   $0x1
  404b40:	ff 0c 24             	decl   (%esp)
  404b43:	68 01 00 10 00       	push   $0x100001
  404b48:	ff 0c 24             	decl   (%esp)
  404b4b:	a1 e8 f0 41 00       	mov    0x41f0e8,%eax
  404b50:	ff d0                	call   *%eax
  404b52:	83 f8 00             	cmp    $0x0,%eax
  404b55:	0f 85 55 6e 00 00    	jne    0x40b9b0
  404b5b:	8d 1d 83 17 a7 98    	lea    0x98a71783,%ebx
  404b61:	81 eb 21 e3 64 98    	sub    $0x9864e321,%ebx
  404b67:	53                   	push   %ebx
  404b68:	6a 01                	push   $0x1
  404b6a:	ff 0c 24             	decl   (%esp)
  404b6d:	68 01 00 10 00       	push   $0x100001
  404b72:	ff 0c 24             	decl   (%esp)
  404b75:	a1 e8 f0 41 00       	mov    0x41f0e8,%eax
  404b7a:	ff d0                	call   *%eax
  404b7c:	85 c0                	test   %eax,%eax
  404b7e:	0f 85 2c 6e 00 00    	jne    0x40b9b0
  404b84:	11 1d 81 30 42 00    	adc    %ebx,0x423081
  404b8a:	31 df                	xor    %ebx,%edi
  404b8c:	2e e9 48 69 00 00    	cs jmp 0x40b4da
  404b92:	83 f6 f0             	xor    $0xfffffff0,%esi
  404b95:	31 35 f0 30 42 00    	xor    %esi,0x4230f0
	...
  404ba3:	13 1d c9 31 42 00    	adc    0x4231c9,%ebx
  404ba9:	13 05 5e 31 42 00    	adc    0x42315e,%eax
  404baf:	ba 01 00 00 00       	mov    $0x1,%edx
  404bb4:	83 c2 af             	add    $0xffffffaf,%edx
  404bb7:	c7 05 f7 31 42 00 ba 	movl   $0xba,0x4231f7
  404bbe:	00 00 00 
  404bc1:	8d 0d 9b 17 a7 98    	lea    0x98a7179b,%ecx
  404bc7:	81 e9 21 e3 64 98    	sub    $0x9864e321,%ecx
  404bcd:	51                   	push   %ecx
  404bce:	8d 15 90 17 a7 98    	lea    0x98a71790,%edx
  404bd4:	81 ea 21 e3 64 98    	sub    $0x9864e321,%edx
  404bda:	52                   	push   %edx
  404bdb:	a1 10 f1 41 00       	mov    0x41f110,%eax
  404be0:	ff d0                	call   *%eax
  404be2:	81 1d 0f 30 42 00 b4 	sbbl   $0xb4,0x42300f
  404be9:	00 00 00 
  404bec:	13 35 2b 31 42 00    	adc    0x42312b,%esi
  404bf2:	13 1d 53 31 42 00    	adc    0x423153,%ebx
  404bf8:	13 1d 25 30 42 00    	adc    0x423025,%ebx
  404bfe:	8d 0d 9b 17 a7 98    	lea    0x98a7179b,%ecx
  404c04:	81 e9 21 e3 64 98    	sub    $0x9864e321,%ecx
  404c0a:	51                   	push   %ecx
  404c0b:	8d 35 90 17 a7 98    	lea    0x98a71790,%esi
  404c11:	81 ee 21 e3 64 98    	sub    $0x9864e321,%esi
  404c17:	56                   	push   %esi
  404c18:	a1 10 f1 41 00       	mov    0x41f110,%eax
  404c1d:	ff d0                	call   *%eax
  404c1f:	b9 01 00 00 00       	mov    $0x1,%ecx
  404c24:	01 c1                	add    %eax,%ecx
  404c26:	01 f8                	add    %edi,%eax
  404c28:	31 cb                	xor    %ecx,%ebx
  404c2a:	13 3d 69 31 42 00    	adc    0x423169,%edi
  404c30:	ba 01 00 00 00       	mov    $0x1,%edx
  404c35:	13 15 06 30 42 00    	adc    0x423006,%edx
  404c3b:	8d 3d 9b 17 a7 98    	lea    0x98a7179b,%edi
  404c41:	81 ef 21 e3 64 98    	sub    $0x9864e321,%edi
  404c47:	57                   	push   %edi
  404c48:	8d 35 90 17 a7 98    	lea    0x98a71790,%esi
  404c4e:	81 ee 21 e3 64 98    	sub    $0x9864e321,%esi
  404c54:	56                   	push   %esi
  404c55:	a1 10 f1 41 00       	mov    0x41f110,%eax
  404c5a:	ff d0                	call   *%eax
  404c5c:	34 e7                	xor    $0xe7,%al
  404c5e:	13 1d 14 31 42 00    	adc    0x423114,%ebx
  404c64:	83 0d 3c 30 42 00 2f 	orl    $0x2f,0x42303c
  404c6b:	8d 05 83 17 a7 98    	lea    0x98a71783,%eax
  404c71:	2d 21 e3 64 98       	sub    $0x9864e321,%eax
  404c76:	50                   	push   %eax
  404c77:	6a 01                	push   $0x1
  404c79:	ff 0c 24             	decl   (%esp)
  404c7c:	68 01 00 10 00       	push   $0x100001
  404c81:	ff 0c 24             	decl   (%esp)
  404c84:	a1 e8 f0 41 00       	mov    0x41f0e8,%eax
  404c89:	ff d0                	call   *%eax
  404c8b:	83 f8 00             	cmp    $0x0,%eax
  404c8e:	0f 85 1c 6d 00 00    	jne    0x40b9b0
  404c94:	b9 01 00 00 00       	mov    $0x1,%ecx
  404c99:	83 c1 18             	add    $0x18,%ecx
  404c9c:	31 ff                	xor    %edi,%edi
  404c9e:	ba 01 00 00 00       	mov    $0x1,%edx
  404ca3:	01 f2                	add    %esi,%edx
  404ca5:	83 e3 bd             	and    $0xffffffbd,%ebx
  404ca8:	8d 05 83 17 a7 98    	lea    0x98a71783,%eax
  404cae:	2d 21 e3 64 98       	sub    $0x9864e321,%eax
  404cb3:	50                   	push   %eax
  404cb4:	6a 01                	push   $0x1
  404cb6:	ff 0c 24             	decl   (%esp)
  404cb9:	68 01 00 10 00       	push   $0x100001
  404cbe:	ff 0c 24             	decl   (%esp)
  404cc1:	a1 e8 f0 41 00       	mov    0x41f0e8,%eax
  404cc6:	ff d0                	call   *%eax
  404cc8:	85 c0                	test   %eax,%eax
  404cca:	0f 85 e0 6c 00 00    	jne    0x40b9b0
  404cd0:	83 cb 14             	or     $0x14,%ebx
  404cd3:	82 2d a0 31 42 00 79 	subb   $0x79,0x4231a0
  404cda:	29 df                	sub    %ebx,%edi
  404cdc:	8d 35 83 17 a7 98    	lea    0x98a71783,%esi
  404ce2:	81 ee 21 e3 64 98    	sub    $0x9864e321,%esi
  404ce8:	56                   	push   %esi
  404ce9:	6a 01                	push   $0x1
  404ceb:	ff 0c 24             	decl   (%esp)
  404cee:	68 01 00 10 00       	push   $0x100001
  404cf3:	ff 0c 24             	decl   (%esp)
  404cf6:	a1 e8 f0 41 00       	mov    0x41f0e8,%eax
  404cfb:	ff d0                	call   *%eax
  404cfd:	85 c0                	test   %eax,%eax
  404cff:	0f 85 ab 6c 00 00    	jne    0x40b9b0
  404d05:	81 0d 0c 30 42 00 cd 	orl    $0xcd,0x42300c
  404d0c:	00 00 00 
  404d0f:	b9 01 00 00 00       	mov    $0x1,%ecx
  404d14:	13 0d 34 31 42 00    	adc    0x423134,%ecx
  404d1a:	21 3d 02 31 42 00    	and    %edi,0x423102
  404d20:	8d 05 9b 17 a7 98    	lea    0x98a7179b,%eax
  404d26:	2d 21 e3 64 98       	sub    $0x9864e321,%eax
  404d2b:	50                   	push   %eax
  404d2c:	8d 15 90 17 a7 98    	lea    0x98a71790,%edx
  404d32:	81 ea 21 e3 64 98    	sub    $0x9864e321,%edx
  404d38:	52                   	push   %edx
  404d39:	a1 10 f1 41 00       	mov    0x41f110,%eax
  404d3e:	ff d0                	call   *%eax
  404d40:	83 1d 71 31 42 00 55 	sbbl   $0x55,0x423171
  404d47:	13 3d d7 31 42 00    	adc    0x4231d7,%edi
  404d4d:	83 15 8f 31 42 00 1e 	adcl   $0x1e,0x42318f
  404d54:	8d 15 9b 17 a7 98    	lea    0x98a7179b,%edx
  404d5a:	81 ea 21 e3 64 98    	sub    $0x9864e321,%edx
  404d60:	52                   	push   %edx
  404d61:	8d 35 90 17 a7 98    	lea    0x98a71790,%esi
  404d67:	81 ee 21 e3 64 98    	sub    $0x9864e321,%esi
  404d6d:	56                   	push   %esi
  404d6e:	a1 10 f1 41 00       	mov    0x41f110,%eax
  404d73:	ff d0                	call   *%eax
  404d75:	83 c3 80             	add    $0xffffff80,%ebx
  404d78:	29 05 77 30 42 00    	sub    %eax,0x423077
  404d7e:	8d 35 9b 17 a7 98    	lea    0x98a7179b,%esi
  404d84:	81 ee 21 e3 64 98    	sub    $0x9864e321,%esi
  404d8a:	56                   	push   %esi
  404d8b:	8d 0d 90 17 a7 98    	lea    0x98a71790,%ecx
  404d91:	81 e9 21 e3 64 98    	sub    $0x9864e321,%ecx
  404d97:	51                   	push   %ecx
  404d98:	a1 10 f1 41 00       	mov    0x41f110,%eax
  404d9d:	ff d0                	call   *%eax
  404d9f:	81 35 57 31 42 00 dd 	xorl   $0xdd,0x423157
  404da6:	00 00 00 
  404da9:	31 ff                	xor    %edi,%edi
  404dab:	83 ee e2             	sub    $0xffffffe2,%esi
  404dae:	b9 01 00 00 00       	mov    $0x1,%ecx
  404db3:	83 c1 cf             	add    $0xffffffcf,%ecx
  404db6:	ba 01 00 00 00       	mov    $0x1,%edx
  404dbb:	01 ca                	add    %ecx,%edx
  404dbd:	8d 3d 83 17 a7 98    	lea    0x98a71783,%edi
  404dc3:	81 ef 21 e3 64 98    	sub    $0x9864e321,%edi
  404dc9:	57                   	push   %edi
  404dca:	6a 01                	push   $0x1
  404dcc:	ff 0c 24             	decl   (%esp)
  404dcf:	68 01 00 10 00       	push   $0x100001
  404dd4:	ff 0c 24             	decl   (%esp)
  404dd7:	a1 e8 f0 41 00       	mov    0x41f0e8,%eax
  404ddc:	ff d0                	call   *%eax
  404dde:	85 c0                	test   %eax,%eax
  404de0:	0f 85 ca 6b 00 00    	jne    0x40b9b0
  404de6:	20 05 bb 30 42 00    	and    %al,0x4230bb
  404dec:	83 0d c8 30 42 00 1a 	orl    $0x1a,0x4230c8
  404df3:	0b 35 ad 30 42 00    	or     0x4230ad,%esi
  404df9:	8d 05 9b 17 a7 98    	lea    0x98a7179b,%eax
  404dff:	2d 21 e3 64 98       	sub    $0x9864e321,%eax
  404e04:	50                   	push   %eax
  404e05:	8d 15 90 17 a7 98    	lea    0x98a71790,%edx
  404e0b:	81 ea 21 e3 64 98    	sub    $0x9864e321,%edx
  404e11:	52                   	push   %edx
  404e12:	a1 10 f1 41 00       	mov    0x41f110,%eax
  404e17:	ff d0                	call   *%eax
  404e19:	81 1d 0f 31 42 00 bf 	sbbl   $0xbf,0x42310f
  404e20:	00 00 00 
  404e23:	01 35 44 31 42 00    	add    %esi,0x423144
  404e29:	8d 0d 9b 17 a7 98    	lea    0x98a7179b,%ecx
  404e2f:	81 e9 21 e3 64 98    	sub    $0x9864e321,%ecx
  404e35:	51                   	push   %ecx
  404e36:	8d 05 90 17 a7 98    	lea    0x98a71790,%eax
  404e3c:	2d 21 e3 64 98       	sub    $0x9864e321,%eax
  404e41:	50                   	push   %eax
  404e42:	a1 10 f1 41 00       	mov    0x41f110,%eax
  404e47:	ff d0                	call   *%eax
  404e49:	01 df                	add    %ebx,%edi
  404e4b:	81 25 97 31 42 00 f9 	andl   $0xf9,0x423197
  404e52:	00 00 00 
  404e55:	ba 01 00 00 00       	mov    $0x1,%edx
  404e5a:	01 fa                	add    %edi,%edx
  404e5c:	b9 01 00 00 00       	mov    $0x1,%ecx
  404e61:	13 0d 47 30 42 00    	adc    0x423047,%ecx
  404e67:	2e e9 6d 66 00 00    	cs jmp 0x40b4da
  404e6d:	12 05 70 30 42 00    	adc    0x423070,%al
  404e73:	29 c0                	sub    %eax,%eax
  404e75:	13 35 9a 30 42 00    	adc    0x42309a,%esi
  404e7b:	13 1d 99 31 42 00    	adc    0x423199,%ebx
  404e81:	01 15 7b 30 42 00    	add    %edx,0x42307b
  404e87:	00 00                	add    %al,(%eax)
  404e89:	00 00                	add    %al,(%eax)
  404e8b:	00 2b                	add    %ch,(%ebx)
  404e8d:	1d 74 31 42 00       	sbb    $0x423174,%eax
  404e92:	29 35 41 31 42 00    	sub    %esi,0x423141
  404e98:	83 d0 1a             	adc    $0x1a,%eax
  404e9b:	0a 25 cb 30 42 00    	or     0x4230cb,%ah
  404ea1:	13 05 3d 30 42 00    	adc    0x42303d,%eax
  404ea7:	8d 35 9b 17 a7 98    	lea    0x98a7179b,%esi
  404ead:	81 ee 21 e3 64 98    	sub    $0x9864e321,%esi
  404eb3:	56                   	push   %esi
  404eb4:	8d 0d 90 17 a7 98    	lea    0x98a71790,%ecx
  404eba:	81 e9 21 e3 64 98    	sub    $0x9864e321,%ecx
  404ec0:	51                   	push   %ecx
  404ec1:	a1 10 f1 41 00       	mov    0x41f110,%eax
  404ec6:	ff d0                	call   *%eax
  404ec8:	83 c3 f7             	add    $0xfffffff7,%ebx
  404ecb:	83 15 81 30 42 00 5a 	adcl   $0x5a,0x423081
  404ed2:	83 eb c7             	sub    $0xffffffc7,%ebx
  404ed5:	8d 15 9b 17 a7 98    	lea    0x98a7179b,%edx
  404edb:	81 ea 21 e3 64 98    	sub    $0x9864e321,%edx
  404ee1:	52                   	push   %edx
  404ee2:	8d 15 90 17 a7 98    	lea    0x98a71790,%edx
  404ee8:	81 ea 21 e3 64 98    	sub    $0x9864e321,%edx
  404eee:	52                   	push   %edx
  404eef:	a1 10 f1 41 00       	mov    0x41f110,%eax
  404ef4:	ff d0                	call   *%eax
  404ef6:	29 1d ac 31 42 00    	sub    %ebx,0x4231ac
  404efc:	8d 35 9b 17 a7 98    	lea    0x98a7179b,%esi
  404f02:	81 ee 21 e3 64 98    	sub    $0x9864e321,%esi
  404f08:	56                   	push   %esi
  404f09:	8d 1d 90 17 a7 98    	lea    0x98a71790,%ebx
  404f0f:	81 eb 21 e3 64 98    	sub    $0x9864e321,%ebx
  404f15:	53                   	push   %ebx
  404f16:	a1 10 f1 41 00       	mov    0x41f110,%eax
  404f1b:	ff d0                	call   *%eax
  404f1d:	09 05 99 31 42 00    	or     %eax,0x423199
  404f23:	81 25 a6 31 42 00 e4 	andl   $0xe4,0x4231a6
  404f2a:	00 00 00 
  404f2d:	2b 3d 25 31 42 00    	sub    0x423125,%edi
  404f33:	13 05 ad 30 42 00    	adc    0x4230ad,%eax
  404f39:	ba 01 00 00 00       	mov    $0x1,%edx
  404f3e:	13 15 20 31 42 00    	adc    0x423120,%edx
  404f44:	8d 05 83 17 a7 98    	lea    0x98a71783,%eax
  404f4a:	2d 21 e3 64 98       	sub    $0x9864e321,%eax
  404f4f:	50                   	push   %eax
  404f50:	6a 01                	push   $0x1
  404f52:	ff 0c 24             	decl   (%esp)
  404f55:	68 01 00 10 00       	push   $0x100001
  404f5a:	ff 0c 24             	decl   (%esp)
  404f5d:	a1 e8 f0 41 00       	mov    0x41f0e8,%eax
  404f62:	ff d0                	call   *%eax
  404f64:	85 c0                	test   %eax,%eax
  404f66:	0f 85 44 6a 00 00    	jne    0x40b9b0
  404f6c:	01 05 3c 30 42 00    	add    %eax,0x42303c
  404f72:	13 35 eb 30 42 00    	adc    0x4230eb,%esi
  404f78:	b9 01 00 00 00       	mov    $0x1,%ecx
  404f7d:	83 c1 c2             	add    $0xffffffc2,%ecx
  404f80:	81 15 28 30 42 00 bf 	adcl   $0xbf,0x423028
  404f87:	00 00 00 
  404f8a:	8d 05 9b 17 a7 98    	lea    0x98a7179b,%eax
  404f90:	2d 21 e3 64 98       	sub    $0x9864e321,%eax
  404f95:	50                   	push   %eax
  404f96:	8d 1d 90 17 a7 98    	lea    0x98a71790,%ebx
  404f9c:	81 eb 21 e3 64 98    	sub    $0x9864e321,%ebx
  404fa2:	53                   	push   %ebx
  404fa3:	a1 10 f1 41 00       	mov    0x41f110,%eax
  404fa8:	ff d0                	call   *%eax
  404faa:	8d 3d 9b 17 a7 98    	lea    0x98a7179b,%edi
  404fb0:	81 ef 21 e3 64 98    	sub    $0x9864e321,%edi
  404fb6:	57                   	push   %edi
  404fb7:	8d 35 90 17 a7 98    	lea    0x98a71790,%esi
  404fbd:	81 ee 21 e3 64 98    	sub    $0x9864e321,%esi
  404fc3:	56                   	push   %esi
  404fc4:	a1 10 f1 41 00       	mov    0x41f110,%eax
  404fc9:	ff d0                	call   *%eax
  404fcb:	83 c7 15             	add    $0x15,%edi
  404fce:	19 c0                	sbb    %eax,%eax
  404fd0:	81 15 2c 31 42 00 b1 	adcl   $0xb1,0x42312c
  404fd7:	00 00 00 
  404fda:	8d 35 83 17 a7 98    	lea    0x98a71783,%esi
  404fe0:	81 ee 21 e3 64 98    	sub    $0x9864e321,%esi
  404fe6:	56                   	push   %esi
  404fe7:	6a 01                	push   $0x1
  404fe9:	ff 0c 24             	decl   (%esp)
  404fec:	68 01 00 10 00       	push   $0x100001
  404ff1:	ff 0c 24             	decl   (%esp)
  404ff4:	a1 e8 f0 41 00       	mov    0x41f0e8,%eax
  404ff9:	ff d0                	call   *%eax
  404ffb:	85 c0                	test   %eax,%eax
  404ffd:	0f 85 ad 69 00 00    	jne    0x40b9b0
  405003:	01 db                	add    %ebx,%ebx
  405005:	2b 3d a2 31 42 00    	sub    0x4231a2,%edi
  40500b:	8d 15 9b 17 a7 98    	lea    0x98a7179b,%edx
  405011:	81 ea 21 e3 64 98    	sub    $0x9864e321,%edx
  405017:	52                   	push   %edx
  405018:	8d 0d 90 17 a7 98    	lea    0x98a71790,%ecx
  40501e:	81 e9 21 e3 64 98    	sub    $0x9864e321,%ecx
  405024:	51                   	push   %ecx
  405025:	a1 10 f1 41 00       	mov    0x41f110,%eax
  40502a:	ff d0                	call   *%eax
  40502c:	11 f8                	adc    %edi,%eax
  40502e:	29 df                	sub    %ebx,%edi
  405030:	8d 3d 83 17 a7 98    	lea    0x98a71783,%edi
  405036:	81 ef 21 e3 64 98    	sub    $0x9864e321,%edi
  40503c:	57                   	push   %edi
  40503d:	6a 01                	push   $0x1
  40503f:	ff 0c 24             	decl   (%esp)
  405042:	68 01 00 10 00       	push   $0x100001
  405047:	ff 0c 24             	decl   (%esp)
  40504a:	a1 e8 f0 41 00       	mov    0x41f0e8,%eax
  40504f:	ff d0                	call   *%eax
  405051:	85 c0                	test   %eax,%eax
  405053:	0f 85 57 69 00 00    	jne    0x40b9b0
  405059:	8d 15 9b 17 a7 98    	lea    0x98a7179b,%edx
  40505f:	81 ea 21 e3 64 98    	sub    $0x9864e321,%edx
  405065:	52                   	push   %edx
  405066:	8d 35 90 17 a7 98    	lea    0x98a71790,%esi
  40506c:	81 ee 21 e3 64 98    	sub    $0x9864e321,%esi
  405072:	56                   	push   %esi
  405073:	a1 10 f1 41 00       	mov    0x41f110,%eax
  405078:	ff d0                	call   *%eax
  40507a:	11 db                	adc    %ebx,%ebx
  40507c:	83 d8 23             	sbb    $0x23,%eax
  40507f:	83 de b8             	sbb    $0xffffffb8,%esi
  405082:	01 f0                	add    %esi,%eax
  405084:	81 0d ac 31 42 00 87 	orl    $0x87,0x4231ac
  40508b:	00 00 00 
  40508e:	8d 15 9b 17 a7 98    	lea    0x98a7179b,%edx
  405094:	81 ea 21 e3 64 98    	sub    $0x9864e321,%edx
  40509a:	52                   	push   %edx
  40509b:	8d 15 90 17 a7 98    	lea    0x98a71790,%edx
  4050a1:	81 ea 21 e3 64 98    	sub    $0x9864e321,%edx
  4050a7:	52                   	push   %edx
  4050a8:	a1 10 f1 41 00       	mov    0x41f110,%eax
  4050ad:	ff d0                	call   *%eax
  4050af:	83 0d 5e 31 42 00 4d 	orl    $0x4d,0x42315e
  4050b6:	13 35 88 31 42 00    	adc    0x423188,%esi
  4050bc:	2e e9 18 64 00 00    	cs jmp 0x40b4da
  4050c2:	b9 01 00 00 00       	mov    $0x1,%ecx
  4050c7:	01 d9                	add    %ebx,%ecx
  4050c9:	09 0d 7c 31 42 00    	or     %ecx,0x42317c
  4050cf:	ba 01 00 00 00       	mov    $0x1,%edx
  4050d4:	83 c2 ba             	add    $0xffffffba,%edx
	...
  4050e3:	11 f8                	adc    %edi,%eax
  4050e5:	81 25 2a 30 42 00 c0 	andl   $0xc0,0x42302a
  4050ec:	00 00 00 
  4050ef:	00 05 8a 31 42 00    	add    %al,0x42318a
  4050f5:	8d 3d 83 17 a7 98    	lea    0x98a71783,%edi
  4050fb:	81 ef 21 e3 64 98    	sub    $0x9864e321,%edi
  405101:	57                   	push   %edi
  405102:	6a 01                	push   $0x1
  405104:	ff 0c 24             	decl   (%esp)
  405107:	68 01 00 10 00       	push   $0x100001
  40510c:	ff 0c 24             	decl   (%esp)
  40510f:	a1 e8 f0 41 00       	mov    0x41f0e8,%eax
  405114:	ff d0                	call   *%eax
  405116:	83 f8 00             	cmp    $0x0,%eax
  405119:	0f 85 91 68 00 00    	jne    0x40b9b0
  40511f:	12 05 ed 30 42 00    	adc    0x4230ed,%al
  405125:	11 de                	adc    %ebx,%esi
  405127:	11 3d 6f 30 42 00    	adc    %edi,0x42306f
  40512d:	12 1d 2e 31 42 00    	adc    0x42312e,%bl
  405133:	8d 35 9b 17 a7 98    	lea    0x98a7179b,%esi
  405139:	81 ee 21 e3 64 98    	sub    $0x9864e321,%esi
  40513f:	56                   	push   %esi
  405140:	8d 3d 90 17 a7 98    	lea    0x98a71790,%edi
  405146:	81 ef 21 e3 64 98    	sub    $0x9864e321,%edi
  40514c:	57                   	push   %edi
  40514d:	a1 10 f1 41 00       	mov    0x41f110,%eax
  405152:	ff d0                	call   *%eax
  405154:	8d 15 9b 17 a7 98    	lea    0x98a7179b,%edx
  40515a:	81 ea 21 e3 64 98    	sub    $0x9864e321,%edx
  405160:	52                   	push   %edx
  405161:	8d 3d 90 17 a7 98    	lea    0x98a71790,%edi
  405167:	81 ef 21 e3 64 98    	sub    $0x9864e321,%edi
  40516d:	57                   	push   %edi
  40516e:	a1 10 f1 41 00       	mov    0x41f110,%eax
  405173:	ff d0                	call   *%eax
  405175:	81 15 73 31 42 00 de 	adcl   $0xde,0x423173
  40517c:	00 00 00 
  40517f:	b9 01 00 00 00       	mov    $0x1,%ecx
  405184:	13 0d 3a 30 42 00    	adc    0x42303a,%ecx
  40518a:	83 15 95 31 42 00 37 	adcl   $0x37,0x423195
  405191:	19 c1                	sbb    %eax,%ecx
  405193:	83 d6 7d             	adc    $0x7d,%esi
  405196:	8d 35 9b 17 a7 98    	lea    0x98a7179b,%esi
  40519c:	81 ee 21 e3 64 98    	sub    $0x9864e321,%esi
  4051a2:	56                   	push   %esi
  4051a3:	8d 35 90 17 a7 98    	lea    0x98a71790,%esi
  4051a9:	81 ee 21 e3 64 98    	sub    $0x9864e321,%esi
  4051af:	56                   	push   %esi
  4051b0:	a1 10 f1 41 00       	mov    0x41f110,%eax
  4051b5:	ff d0                	call   *%eax
  4051b7:	19 f6                	sbb    %esi,%esi
  4051b9:	8d 0d 83 17 a7 98    	lea    0x98a71783,%ecx
  4051bf:	81 e9 21 e3 64 98    	sub    $0x9864e321,%ecx
  4051c5:	51                   	push   %ecx
  4051c6:	6a 01                	push   $0x1
  4051c8:	ff 0c 24             	decl   (%esp)
  4051cb:	68 01 00 10 00       	push   $0x100001
  4051d0:	ff 0c 24             	decl   (%esp)
  4051d3:	a1 e8 f0 41 00       	mov    0x41f0e8,%eax
  4051d8:	ff d0                	call   *%eax
  4051da:	83 f8 00             	cmp    $0x0,%eax
  4051dd:	0f 85 cd 67 00 00    	jne    0x40b9b0
  4051e3:	09 35 e5 31 42 00    	or     %esi,0x4231e5
  4051e9:	8d 3d 9b 17 a7 98    	lea    0x98a7179b,%edi
  4051ef:	81 ef 21 e3 64 98    	sub    $0x9864e321,%edi
  4051f5:	57                   	push   %edi
  4051f6:	8d 05 90 17 a7 98    	lea    0x98a71790,%eax
  4051fc:	2d 21 e3 64 98       	sub    $0x9864e321,%eax
  405201:	50                   	push   %eax
  405202:	a1 10 f1 41 00       	mov    0x41f110,%eax
  405207:	ff d0                	call   *%eax
  405209:	00 3d 3b 30 42 00    	add    %bh,0x42303b
  40520f:	13 35 47 31 42 00    	adc    0x423147,%esi
  405215:	83 ce df             	or     $0xffffffdf,%esi
  405218:	8d 05 9b 17 a7 98    	lea    0x98a7179b,%eax
  40521e:	2d 21 e3 64 98       	sub    $0x9864e321,%eax
  405223:	50                   	push   %eax
  405224:	8d 1d 90 17 a7 98    	lea    0x98a71790,%ebx
  40522a:	81 eb 21 e3 64 98    	sub    $0x9864e321,%ebx
  405230:	53                   	push   %ebx
  405231:	a1 10 f1 41 00       	mov    0x41f110,%eax
  405236:	ff d0                	call   *%eax
  405238:	30 c3                	xor    %al,%bl
  40523a:	8d 05 9b 17 a7 98    	lea    0x98a7179b,%eax
  405240:	2d 21 e3 64 98       	sub    $0x9864e321,%eax
  405245:	50                   	push   %eax
  405246:	8d 35 90 17 a7 98    	lea    0x98a71790,%esi
  40524c:	81 ee 21 e3 64 98    	sub    $0x9864e321,%esi
  405252:	56                   	push   %esi
  405253:	a1 10 f1 41 00       	mov    0x41f110,%eax
  405258:	ff d0                	call   *%eax
  40525a:	01 35 8c 30 42 00    	add    %esi,0x42308c
  405260:	83 25 83 30 42 00 5a 	andl   $0x5a,0x423083
  405267:	8d 35 83 17 a7 98    	lea    0x98a71783,%esi
  40526d:	81 ee 21 e3 64 98    	sub    $0x9864e321,%esi
  405273:	56                   	push   %esi
  405274:	6a 01                	push   $0x1
  405276:	ff 0c 24             	decl   (%esp)
  405279:	68 01 00 10 00       	push   $0x100001
  40527e:	ff 0c 24             	decl   (%esp)
  405281:	a1 e8 f0 41 00       	mov    0x41f0e8,%eax
  405286:	ff d0                	call   *%eax
  405288:	85 c0                	test   %eax,%eax
  40528a:	0f 85 20 67 00 00    	jne    0x40b9b0
  405290:	12 3d 9e 31 42 00    	adc    0x42319e,%bh
  405296:	ba 01 00 00 00       	mov    $0x1,%edx
  40529b:	01 f2                	add    %esi,%edx
  40529d:	8d 1d 83 17 a7 98    	lea    0x98a71783,%ebx
  4052a3:	81 eb 21 e3 64 98    	sub    $0x9864e321,%ebx
  4052a9:	53                   	push   %ebx
  4052aa:	6a 01                	push   $0x1
  4052ac:	ff 0c 24             	decl   (%esp)
  4052af:	68 01 00 10 00       	push   $0x100001
  4052b4:	ff 0c 24             	decl   (%esp)
  4052b7:	a1 e8 f0 41 00       	mov    0x41f0e8,%eax
  4052bc:	ff d0                	call   *%eax
  4052be:	85 c0                	test   %eax,%eax
  4052c0:	0f 85 ea 66 00 00    	jne    0x40b9b0
  4052c6:	29 35 06 30 42 00    	sub    %esi,0x423006
  4052cc:	83 35 55 30 42 00 66 	xorl   $0x66,0x423055
  4052d3:	8d 15 83 17 a7 98    	lea    0x98a71783,%edx
  4052d9:	81 ea 21 e3 64 98    	sub    $0x9864e321,%edx
  4052df:	52                   	push   %edx
  4052e0:	6a 01                	push   $0x1
  4052e2:	ff 0c 24             	decl   (%esp)
  4052e5:	68 01 00 10 00       	push   $0x100001
  4052ea:	ff 0c 24             	decl   (%esp)
  4052ed:	a1 e8 f0 41 00       	mov    0x41f0e8,%eax
  4052f2:	ff d0                	call   *%eax
  4052f4:	85 c0                	test   %eax,%eax
  4052f6:	0f 85 b4 66 00 00    	jne    0x40b9b0
  4052fc:	2e e9 d8 61 00 00    	cs jmp 0x40b4da
  405302:	82 2d 79 30 42 00 01 	subb   $0x1,0x423079
  405309:	83 cf 06             	or     $0x6,%edi
  40530c:	b1 01                	mov    $0x1,%cl
  40530e:	00 c1                	add    %al,%cl
  405310:	13 0d 99 30 42 00    	adc    0x423099,%ecx
  405316:	0b 35 84 31 42 00    	or     0x423184,%esi
	...
  405324:	00 00                	add    %al,(%eax)
  405326:	83 d7 45             	adc    $0x45,%edi
  405329:	83 15 b4 31 42 00 42 	adcl   $0x42,0x4231b4
  405330:	83 ee 33             	sub    $0x33,%esi
  405333:	01 35 23 31 42 00    	add    %esi,0x423123
  405339:	0b 35 e1 31 42 00    	or     0x4231e1,%esi
  40533f:	8d 05 83 17 a7 98    	lea    0x98a71783,%eax
  405345:	2d 21 e3 64 98       	sub    $0x9864e321,%eax
  40534a:	50                   	push   %eax
  40534b:	6a 01                	push   $0x1
  40534d:	ff 0c 24             	decl   (%esp)
  405350:	68 01 00 10 00       	push   $0x100001
  405355:	ff 0c 24             	decl   (%esp)
  405358:	a1 e8 f0 41 00       	mov    0x41f0e8,%eax
  40535d:	ff d0                	call   *%eax
  40535f:	83 f8 00             	cmp    $0x0,%eax
  405362:	0f 85 48 66 00 00    	jne    0x40b9b0
  405368:	ba 01 00 00 00       	mov    $0x1,%edx
  40536d:	83 c2 f7             	add    $0xfffffff7,%edx
  405370:	8d 15 83 17 a7 98    	lea    0x98a71783,%edx
  405376:	81 ea 21 e3 64 98    	sub    $0x9864e321,%edx
  40537c:	52                   	push   %edx
  40537d:	6a 01                	push   $0x1
  40537f:	ff 0c 24             	decl   (%esp)
  405382:	68 01 00 10 00       	push   $0x100001
  405387:	ff 0c 24             	decl   (%esp)
  40538a:	a1 e8 f0 41 00       	mov    0x41f0e8,%eax
  40538f:	ff d0                	call   *%eax
  405391:	83 f8 00             	cmp    $0x0,%eax
  405394:	0f 85 16 66 00 00    	jne    0x40b9b0
  40539a:	ba 01 00 00 00       	mov    $0x1,%edx
  40539f:	01 f2                	add    %esi,%edx
  4053a1:	b9 01 00 00 00       	mov    $0x1,%ecx
  4053a6:	01 d1                	add    %edx,%ecx
  4053a8:	83 f6 34             	xor    $0x34,%esi
  4053ab:	8d 35 83 17 a7 98    	lea    0x98a71783,%esi
  4053b1:	81 ee 21 e3 64 98    	sub    $0x9864e321,%esi
  4053b7:	56                   	push   %esi
  4053b8:	6a 01                	push   $0x1
  4053ba:	ff 0c 24             	decl   (%esp)
  4053bd:	68 01 00 10 00       	push   $0x100001
  4053c2:	ff 0c 24             	decl   (%esp)
  4053c5:	a1 e8 f0 41 00       	mov    0x41f0e8,%eax
  4053ca:	ff d0                	call   *%eax
  4053cc:	83 f8 00             	cmp    $0x0,%eax
  4053cf:	0f 85 db 65 00 00    	jne    0x40b9b0
  4053d5:	83 c7 a1             	add    $0xffffffa1,%edi
  4053d8:	ba 01 00 00 00       	mov    $0x1,%edx
  4053dd:	83 c2 5a             	add    $0x5a,%edx
  4053e0:	8d 3d 83 17 a7 98    	lea    0x98a71783,%edi
  4053e6:	81 ef 21 e3 64 98    	sub    $0x9864e321,%edi
  4053ec:	57                   	push   %edi
  4053ed:	6a 01                	push   $0x1
  4053ef:	ff 0c 24             	decl   (%esp)
  4053f2:	68 01 00 10 00       	push   $0x100001
  4053f7:	ff 0c 24             	decl   (%esp)
  4053fa:	a1 e8 f0 41 00       	mov    0x41f0e8,%eax
  4053ff:	ff d0                	call   *%eax
  405401:	85 c0                	test   %eax,%eax
  405403:	0f 85 a7 65 00 00    	jne    0x40b9b0
  405409:	13 1d 21 31 42 00    	adc    0x423121,%ebx
  40540f:	8d 35 83 17 a7 98    	lea    0x98a71783,%esi
  405415:	81 ee 21 e3 64 98    	sub    $0x9864e321,%esi
  40541b:	56                   	push   %esi
  40541c:	6a 01                	push   $0x1
  40541e:	ff 0c 24             	decl   (%esp)
  405421:	68 01 00 10 00       	push   $0x100001
  405426:	ff 0c 24             	decl   (%esp)
  405429:	a1 e8 f0 41 00       	mov    0x41f0e8,%eax
  40542e:	ff d0                	call   *%eax
  405430:	85 c0                	test   %eax,%eax
  405432:	0f 85 78 65 00 00    	jne    0x40b9b0
  405438:	b1 01                	mov    $0x1,%cl
  40543a:	00 e1                	add    %ah,%cl
  40543c:	83 15 fe 31 42 00 53 	adcl   $0x53,0x4231fe
  405443:	8d 1d 83 17 a7 98    	lea    0x98a71783,%ebx
  405449:	81 eb 21 e3 64 98    	sub    $0x9864e321,%ebx
  40544f:	53                   	push   %ebx
  405450:	6a 01                	push   $0x1
  405452:	ff 0c 24             	decl   (%esp)
  405455:	68 01 00 10 00       	push   $0x100001
  40545a:	ff 0c 24             	decl   (%esp)
  40545d:	a1 e8 f0 41 00       	mov    0x41f0e8,%eax
  405462:	ff d0                	call   *%eax
  405464:	83 f8 00             	cmp    $0x0,%eax
  405467:	0f 85 43 65 00 00    	jne    0x40b9b0
  40546d:	83 c8 ba             	or     $0xffffffba,%eax
  405470:	12 25 c5 30 42 00    	adc    0x4230c5,%ah
  405476:	01 df                	add    %ebx,%edi
  405478:	81 25 cd 31 42 00 c9 	andl   $0xc9,0x4231cd
  40547f:	00 00 00 
  405482:	ba 01 00 00 00       	mov    $0x1,%edx
  405487:	83 c2 b1             	add    $0xffffffb1,%edx
  40548a:	8d 3d 9b 17 a7 98    	lea    0x98a7179b,%edi
  405490:	81 ef 21 e3 64 98    	sub    $0x9864e321,%edi
  405496:	57                   	push   %edi
  405497:	8d 35 90 17 a7 98    	lea    0x98a71790,%esi
  40549d:	81 ee 21 e3 64 98    	sub    $0x9864e321,%esi
  4054a3:	56                   	push   %esi
  4054a4:	a1 10 f1 41 00       	mov    0x41f110,%eax
  4054a9:	ff d0                	call   *%eax
  4054ab:	13 05 65 30 42 00    	adc    0x423065,%eax
  4054b1:	c7 05 64 30 42 00 6e 	movl   $0x6e,0x423064
  4054b8:	00 00 00 
  4054bb:	b9 01 00 00 00       	mov    $0x1,%ecx
  4054c0:	01 f1                	add    %esi,%ecx
  4054c2:	8d 3d 9b 17 a7 98    	lea    0x98a7179b,%edi
  4054c8:	81 ef 21 e3 64 98    	sub    $0x9864e321,%edi
  4054ce:	57                   	push   %edi
  4054cf:	8d 15 90 17 a7 98    	lea    0x98a71790,%edx
  4054d5:	81 ea 21 e3 64 98    	sub    $0x9864e321,%edx
  4054db:	52                   	push   %edx
  4054dc:	a1 10 f1 41 00       	mov    0x41f110,%eax
  4054e1:	ff d0                	call   *%eax
  4054e3:	8d 0d 83 17 a7 98    	lea    0x98a71783,%ecx
  4054e9:	81 e9 21 e3 64 98    	sub    $0x9864e321,%ecx
  4054ef:	51                   	push   %ecx
  4054f0:	6a 01                	push   $0x1
  4054f2:	ff 0c 24             	decl   (%esp)
  4054f5:	68 01 00 10 00       	push   $0x100001
  4054fa:	ff 0c 24             	decl   (%esp)
  4054fd:	a1 e8 f0 41 00       	mov    0x41f0e8,%eax
  405502:	ff d0                	call   *%eax
  405504:	83 f8 00             	cmp    $0x0,%eax
  405507:	0f 85 a3 64 00 00    	jne    0x40b9b0
  40550d:	83 cb 6a             	or     $0x6a,%ebx
  405510:	ba 01 00 00 00       	mov    $0x1,%edx
  405515:	13 15 4c 30 42 00    	adc    0x42304c,%edx
  40551b:	83 35 10 30 42 00 4c 	xorl   $0x4c,0x423010
  405522:	11 05 b9 30 42 00    	adc    %eax,0x4230b9
  405528:	83 15 49 30 42 00 71 	adcl   $0x71,0x423049
  40552f:	8d 1d 9b 17 a7 98    	lea    0x98a7179b,%ebx
  405535:	81 eb 21 e3 64 98    	sub    $0x9864e321,%ebx
  40553b:	53                   	push   %ebx
  40553c:	8d 1d 90 17 a7 98    	lea    0x98a71790,%ebx
  405542:	81 eb 21 e3 64 98    	sub    $0x9864e321,%ebx
  405548:	53                   	push   %ebx
  405549:	a1 10 f1 41 00       	mov    0x41f110,%eax
  40554e:	ff d0                	call   *%eax
  405550:	83 0d 83 30 42 00 30 	orl    $0x30,0x423083
  405557:	21 3d 96 30 42 00    	and    %edi,0x423096
  40555d:	b1 01                	mov    $0x1,%cl
  40555f:	82 c1 82             	add    $0x82,%cl
  405562:	2b 05 d7 30 42 00    	sub    0x4230d7,%eax
  405568:	8d 1d 83 17 a7 98    	lea    0x98a71783,%ebx
  40556e:	81 eb 21 e3 64 98    	sub    $0x9864e321,%ebx
  405574:	53                   	push   %ebx
  405575:	6a 01                	push   $0x1
  405577:	ff 0c 24             	decl   (%esp)
  40557a:	68 01 00 10 00       	push   $0x100001
  40557f:	ff 0c 24             	decl   (%esp)
  405582:	a1 e8 f0 41 00       	mov    0x41f0e8,%eax
  405587:	ff d0                	call   *%eax
  405589:	83 f8 00             	cmp    $0x0,%eax
  40558c:	0f 85 1e 64 00 00    	jne    0x40b9b0
  405592:	b9 01 00 00 00       	mov    $0x1,%ecx
  405597:	01 f9                	add    %edi,%ecx
  405599:	ba 01 00 00 00       	mov    $0x1,%edx
  40559e:	01 fa                	add    %edi,%edx
  4055a0:	2e e9 34 5f 00 00    	cs jmp 0x40b4da
  4055a6:	0b 1d 79 30 42 00    	or     0x423079,%ebx
  4055ac:	82 d6 a4             	adc    $0xa4,%dh
	...
  4055b7:	00 00                	add    %al,(%eax)
  4055b9:	31 3d ba 31 42 00    	xor    %edi,0x4231ba
  4055bf:	83 35 e6 31 42 00 02 	xorl   $0x2,0x4231e6
  4055c6:	83 e6 88             	and    $0xffffff88,%esi
  4055c9:	b9 01 00 00 00       	mov    $0x1,%ecx
  4055ce:	01 c1                	add    %eax,%ecx
  4055d0:	8d 05 83 17 a7 98    	lea    0x98a71783,%eax
  4055d6:	2d 21 e3 64 98       	sub    $0x9864e321,%eax
  4055db:	50                   	push   %eax
  4055dc:	6a 01                	push   $0x1
  4055de:	ff 0c 24             	decl   (%esp)
  4055e1:	68 01 00 10 00       	push   $0x100001
  4055e6:	ff 0c 24             	decl   (%esp)
  4055e9:	a1 e8 f0 41 00       	mov    0x41f0e8,%eax
  4055ee:	ff d0                	call   *%eax
  4055f0:	85 c0                	test   %eax,%eax
  4055f2:	0f 85 b8 63 00 00    	jne    0x40b9b0
  4055f8:	31 c7                	xor    %eax,%edi
  4055fa:	13 1d 88 31 42 00    	adc    0x423188,%ebx
  405600:	b9 01 00 00 00       	mov    $0x1,%ecx
  405605:	83 c1 bc             	add    $0xffffffbc,%ecx
  405608:	8d 05 83 17 a7 98    	lea    0x98a71783,%eax
  40560e:	2d 21 e3 64 98       	sub    $0x9864e321,%eax
  405613:	50                   	push   %eax
  405614:	6a 01                	push   $0x1
  405616:	ff 0c 24             	decl   (%esp)
  405619:	68 01 00 10 00       	push   $0x100001
  40561e:	ff 0c 24             	decl   (%esp)
  405621:	a1 e8 f0 41 00       	mov    0x41f0e8,%eax
  405626:	ff d0                	call   *%eax
  405628:	85 c0                	test   %eax,%eax
  40562a:	0f 85 80 63 00 00    	jne    0x40b9b0
  405630:	ba 01 00 00 00       	mov    $0x1,%edx
  405635:	01 c2                	add    %eax,%edx
  405637:	83 35 37 31 42 00 2f 	xorl   $0x2f,0x423137
  40563e:	21 05 2b 31 42 00    	and    %eax,0x42312b
  405644:	19 15 78 30 42 00    	sbb    %edx,0x423078
  40564a:	8d 35 83 17 a7 98    	lea    0x98a71783,%esi
  405650:	81 ee 21 e3 64 98    	sub    $0x9864e321,%esi
  405656:	56                   	push   %esi
  405657:	6a 01                	push   $0x1
  405659:	ff 0c 24             	decl   (%esp)
  40565c:	68 01 00 10 00       	push   $0x100001
  405661:	ff 0c 24             	decl   (%esp)
  405664:	a1 e8 f0 41 00       	mov    0x41f0e8,%eax
  405669:	ff d0                	call   *%eax
  40566b:	83 f8 00             	cmp    $0x0,%eax
  40566e:	0f 85 3c 63 00 00    	jne    0x40b9b0
  405674:	82 2d 62 30 42 00 dc 	subb   $0xdc,0x423062
  40567b:	12 05 21 31 42 00    	adc    0x423121,%al
  405681:	8d 0d 9b 17 a7 98    	lea    0x98a7179b,%ecx
  405687:	81 e9 21 e3 64 98    	sub    $0x9864e321,%ecx
  40568d:	51                   	push   %ecx
  40568e:	8d 3d 90 17 a7 98    	lea    0x98a71790,%edi
  405694:	81 ef 21 e3 64 98    	sub    $0x9864e321,%edi
  40569a:	57                   	push   %edi
  40569b:	a1 10 f1 41 00       	mov    0x41f110,%eax
  4056a0:	ff d0                	call   *%eax
  4056a2:	13 35 ee 30 42 00    	adc    0x4230ee,%esi
  4056a8:	ba 01 00 00 00       	mov    $0x1,%edx
  4056ad:	13 15 fd 30 42 00    	adc    0x4230fd,%edx
  4056b3:	8d 1d 9b 17 a7 98    	lea    0x98a7179b,%ebx
  4056b9:	81 eb 21 e3 64 98    	sub    $0x9864e321,%ebx
  4056bf:	53                   	push   %ebx
  4056c0:	8d 3d 90 17 a7 98    	lea    0x98a71790,%edi
  4056c6:	81 ef 21 e3 64 98    	sub    $0x9864e321,%edi
  4056cc:	57                   	push   %edi
  4056cd:	a1 10 f1 41 00       	mov    0x41f110,%eax
  4056d2:	ff d0                	call   *%eax
  4056d4:	21 35 f1 30 42 00    	and    %esi,0x4230f1
  4056da:	01 1d 9b 31 42 00    	add    %ebx,0x42319b
  4056e0:	13 3d da 30 42 00    	adc    0x4230da,%edi
  4056e6:	8d 15 9b 17 a7 98    	lea    0x98a7179b,%edx
  4056ec:	81 ea 21 e3 64 98    	sub    $0x9864e321,%edx
  4056f2:	52                   	push   %edx
  4056f3:	8d 35 90 17 a7 98    	lea    0x98a71790,%esi
  4056f9:	81 ee 21 e3 64 98    	sub    $0x9864e321,%esi
  4056ff:	56                   	push   %esi
  405700:	a1 10 f1 41 00       	mov    0x41f110,%eax
  405705:	ff d0                	call   *%eax
  405707:	81 0d be 31 42 00 c2 	orl    $0xc2,0x4231be
  40570e:	00 00 00 
  405711:	81 15 5c 31 42 00 b0 	adcl   $0xb0,0x42315c
  405718:	00 00 00 
  40571b:	83 f3 d2             	xor    $0xffffffd2,%ebx
  40571e:	12 05 07 30 42 00    	adc    0x423007,%al
  405724:	13 05 9b 30 42 00    	adc    0x42309b,%eax
  40572a:	8d 35 9b 17 a7 98    	lea    0x98a7179b,%esi
  405730:	81 ee 21 e3 64 98    	sub    $0x9864e321,%esi
  405736:	56                   	push   %esi
  405737:	8d 3d 90 17 a7 98    	lea    0x98a71790,%edi
  40573d:	81 ef 21 e3 64 98    	sub    $0x9864e321,%edi
  405743:	57                   	push   %edi
  405744:	a1 10 f1 41 00       	mov    0x41f110,%eax
  405749:	ff d0                	call   *%eax
  40574b:	b2 01                	mov    $0x1,%dl
  40574d:	82 c2 51             	add    $0x51,%dl
  405750:	13 1d 43 30 42 00    	adc    0x423043,%ebx
  405756:	81 1d 68 31 42 00 cf 	sbbl   $0xcf,0x423168
  40575d:	00 00 00 
  405760:	8d 1d 9b 17 a7 98    	lea    0x98a7179b,%ebx
  405766:	81 eb 21 e3 64 98    	sub    $0x9864e321,%ebx
  40576c:	53                   	push   %ebx
  40576d:	8d 15 90 17 a7 98    	lea    0x98a71790,%edx
  405773:	81 ea 21 e3 64 98    	sub    $0x9864e321,%edx
  405779:	52                   	push   %edx
  40577a:	a1 10 f1 41 00       	mov    0x41f110,%eax
  40577f:	ff d0                	call   *%eax
  405781:	19 05 08 31 42 00    	sbb    %eax,0x423108
  405787:	8d 1d 83 17 a7 98    	lea    0x98a71783,%ebx
  40578d:	81 eb 21 e3 64 98    	sub    $0x9864e321,%ebx
  405793:	53                   	push   %ebx
  405794:	6a 01                	push   $0x1
  405796:	ff 0c 24             	decl   (%esp)
  405799:	68 01 00 10 00       	push   $0x100001
  40579e:	ff 0c 24             	decl   (%esp)
  4057a1:	a1 e8 f0 41 00       	mov    0x41f0e8,%eax
  4057a6:	ff d0                	call   *%eax
  4057a8:	85 c0                	test   %eax,%eax
  4057aa:	0f 85 00 62 00 00    	jne    0x40b9b0
  4057b0:	8d 05 83 17 a7 98    	lea    0x98a71783,%eax
  4057b6:	2d 21 e3 64 98       	sub    $0x9864e321,%eax
  4057bb:	50                   	push   %eax
  4057bc:	6a 01                	push   $0x1
  4057be:	ff 0c 24             	decl   (%esp)
  4057c1:	68 01 00 10 00       	push   $0x100001
  4057c6:	ff 0c 24             	decl   (%esp)
  4057c9:	a1 e8 f0 41 00       	mov    0x41f0e8,%eax
  4057ce:	ff d0                	call   *%eax
  4057d0:	85 c0                	test   %eax,%eax
  4057d2:	0f 85 d8 61 00 00    	jne    0x40b9b0
  4057d8:	2b 35 ab 31 42 00    	sub    0x4231ab,%esi
  4057de:	30 1d 85 30 42 00    	xor    %bl,0x423085
  4057e4:	2e e9 f0 5c 00 00    	cs jmp 0x40b4da
  4057ea:	81 15 18 30 42 00 81 	adcl   $0x81,0x423018
  4057f1:	00 00 00 
  4057f4:	b5 01                	mov    $0x1,%ch
  4057f6:	82 c5 a1             	add    $0xa1,%ch
  4057f9:	83 15 3f 30 42 00 0a 	adcl   $0xa,0x42303f
  405800:	29 c1                	sub    %eax,%ecx
	...
  40580a:	00 00                	add    %al,(%eax)
  40580c:	8d 3d 83 17 a7 98    	lea    0x98a71783,%edi
  405812:	81 ef 21 e3 64 98    	sub    $0x9864e321,%edi
  405818:	57                   	push   %edi
  405819:	6a 01                	push   $0x1
  40581b:	ff 0c 24             	decl   (%esp)
  40581e:	68 01 00 10 00       	push   $0x100001
  405823:	ff 0c 24             	decl   (%esp)
  405826:	a1 e8 f0 41 00       	mov    0x41f0e8,%eax
  40582b:	ff d0                	call   *%eax
  40582d:	85 c0                	test   %eax,%eax
  40582f:	0f 85 7b 61 00 00    	jne    0x40b9b0
  405835:	b9 01 00 00 00       	mov    $0x1,%ecx
  40583a:	83 c1 e7             	add    $0xffffffe7,%ecx
  40583d:	09 05 f1 31 42 00    	or     %eax,0x4231f1
  405843:	83 c1 9f             	add    $0xffffff9f,%ecx
  405846:	8d 35 83 17 a7 98    	lea    0x98a71783,%esi
  40584c:	81 ee 21 e3 64 98    	sub    $0x9864e321,%esi
  405852:	56                   	push   %esi
  405853:	6a 01                	push   $0x1
  405855:	ff 0c 24             	decl   (%esp)
  405858:	68 01 00 10 00       	push   $0x100001
  40585d:	ff 0c 24             	decl   (%esp)
  405860:	a1 e8 f0 41 00       	mov    0x41f0e8,%eax
  405865:	ff d0                	call   *%eax
  405867:	83 f8 00             	cmp    $0x0,%eax
  40586a:	0f 85 40 61 00 00    	jne    0x40b9b0
  405870:	83 d8 db             	sbb    $0xffffffdb,%eax
  405873:	ba 01 00 00 00       	mov    $0x1,%edx
  405878:	83 c2 1a             	add    $0x1a,%edx
  40587b:	b9 01 00 00 00       	mov    $0x1,%ecx
  405880:	83 c1 d5             	add    $0xffffffd5,%ecx
  405883:	81 25 f6 31 42 00 bf 	andl   $0xbf,0x4231f6
  40588a:	00 00 00 
  40588d:	11 cb                	adc    %ecx,%ebx
  40588f:	8d 0d 9b 17 a7 98    	lea    0x98a7179b,%ecx
  405895:	81 e9 21 e3 64 98    	sub    $0x9864e321,%ecx
  40589b:	51                   	push   %ecx
  40589c:	8d 35 90 17 a7 98    	lea    0x98a71790,%esi
  4058a2:	81 ee 21 e3 64 98    	sub    $0x9864e321,%esi
  4058a8:	56                   	push   %esi
  4058a9:	a1 10 f1 41 00       	mov    0x41f110,%eax
  4058ae:	ff d0                	call   *%eax
  4058b0:	8d 35 9b 17 a7 98    	lea    0x98a7179b,%esi
  4058b6:	81 ee 21 e3 64 98    	sub    $0x9864e321,%esi
  4058bc:	56                   	push   %esi
  4058bd:	8d 3d 90 17 a7 98    	lea    0x98a71790,%edi
  4058c3:	81 ef 21 e3 64 98    	sub    $0x9864e321,%edi
  4058c9:	57                   	push   %edi
  4058ca:	a1 10 f1 41 00       	mov    0x41f110,%eax
  4058cf:	ff d0                	call   *%eax
  4058d1:	8d 15 9b 17 a7 98    	lea    0x98a7179b,%edx
  4058d7:	81 ea 21 e3 64 98    	sub    $0x9864e321,%edx
  4058dd:	52                   	push   %edx
  4058de:	8d 15 90 17 a7 98    	lea    0x98a71790,%edx
  4058e4:	81 ea 21 e3 64 98    	sub    $0x9864e321,%edx
  4058ea:	52                   	push   %edx
  4058eb:	a1 10 f1 41 00       	mov    0x41f110,%eax
  4058f0:	ff d0                	call   *%eax
  4058f2:	c7 05 5f 30 42 00 f0 	movl   $0xf0,0x42305f
  4058f9:	00 00 00 
  4058fc:	83 f6 fb             	xor    $0xfffffffb,%esi
  4058ff:	13 3d 5f 30 42 00    	adc    0x42305f,%edi
  405905:	29 db                	sub    %ebx,%ebx
  405907:	82 2d 9d 30 42 00 37 	subb   $0x37,0x42309d
  40590e:	8d 35 83 17 a7 98    	lea    0x98a71783,%esi
  405914:	81 ee 21 e3 64 98    	sub    $0x9864e321,%esi
  40591a:	56                   	push   %esi
  40591b:	6a 01                	push   $0x1
  40591d:	ff 0c 24             	decl   (%esp)
  405920:	68 01 00 10 00       	push   $0x100001
  405925:	ff 0c 24             	decl   (%esp)
  405928:	a1 e8 f0 41 00       	mov    0x41f0e8,%eax
  40592d:	ff d0                	call   *%eax
  40592f:	85 c0                	test   %eax,%eax
  405931:	0f 85 79 60 00 00    	jne    0x40b9b0
  405937:	19 3d 5b 30 42 00    	sbb    %edi,0x42305b
  40593d:	8d 1d 9b 17 a7 98    	lea    0x98a7179b,%ebx
  405943:	81 eb 21 e3 64 98    	sub    $0x9864e321,%ebx
  405949:	53                   	push   %ebx
  40594a:	8d 1d 90 17 a7 98    	lea    0x98a71790,%ebx
  405950:	81 eb 21 e3 64 98    	sub    $0x9864e321,%ebx
  405956:	53                   	push   %ebx
  405957:	a1 10 f1 41 00       	mov    0x41f110,%eax
  40595c:	ff d0                	call   *%eax
  40595e:	2b 35 05 31 42 00    	sub    0x423105,%esi
  405964:	8d 1d 9b 17 a7 98    	lea    0x98a7179b,%ebx
  40596a:	81 eb 21 e3 64 98    	sub    $0x9864e321,%ebx
  405970:	53                   	push   %ebx
  405971:	8d 3d 90 17 a7 98    	lea    0x98a71790,%edi
  405977:	81 ef 21 e3 64 98    	sub    $0x9864e321,%edi
  40597d:	57                   	push   %edi
  40597e:	a1 10 f1 41 00       	mov    0x41f110,%eax
  405983:	ff d0                	call   *%eax
  405985:	8d 0d 9b 17 a7 98    	lea    0x98a7179b,%ecx
  40598b:	81 e9 21 e3 64 98    	sub    $0x9864e321,%ecx
  405991:	51                   	push   %ecx
  405992:	8d 15 90 17 a7 98    	lea    0x98a71790,%edx
  405998:	81 ea 21 e3 64 98    	sub    $0x9864e321,%edx
  40599e:	52                   	push   %edx
  40599f:	a1 10 f1 41 00       	mov    0x41f110,%eax
  4059a4:	ff d0                	call   *%eax
  4059a6:	83 1d 53 31 42 00 3a 	sbbl   $0x3a,0x423153
  4059ad:	19 c7                	sbb    %eax,%edi
  4059af:	0b 05 e8 31 42 00    	or     0x4231e8,%eax
  4059b5:	83 c7 c2             	add    $0xffffffc2,%edi
  4059b8:	13 35 63 30 42 00    	adc    0x423063,%esi
  4059be:	8d 05 83 17 a7 98    	lea    0x98a71783,%eax
  4059c4:	2d 21 e3 64 98       	sub    $0x9864e321,%eax
  4059c9:	50                   	push   %eax
  4059ca:	6a 01                	push   $0x1
  4059cc:	ff 0c 24             	decl   (%esp)
  4059cf:	68 01 00 10 00       	push   $0x100001
  4059d4:	ff 0c 24             	decl   (%esp)
  4059d7:	a1 e8 f0 41 00       	mov    0x41f0e8,%eax
  4059dc:	ff d0                	call   *%eax
  4059de:	85 c0                	test   %eax,%eax
  4059e0:	0f 85 ca 5f 00 00    	jne    0x40b9b0
  4059e6:	8d 35 83 17 a7 98    	lea    0x98a71783,%esi
  4059ec:	81 ee 21 e3 64 98    	sub    $0x9864e321,%esi
  4059f2:	56                   	push   %esi
  4059f3:	6a 01                	push   $0x1
  4059f5:	ff 0c 24             	decl   (%esp)
  4059f8:	68 01 00 10 00       	push   $0x100001
  4059fd:	ff 0c 24             	decl   (%esp)
  405a00:	a1 e8 f0 41 00       	mov    0x41f0e8,%eax
  405a05:	ff d0                	call   *%eax
  405a07:	85 c0                	test   %eax,%eax
  405a09:	0f 85 a1 5f 00 00    	jne    0x40b9b0
  405a0f:	13 3d ec 31 42 00    	adc    0x4231ec,%edi
  405a15:	8d 1d 9b 17 a7 98    	lea    0x98a7179b,%ebx
  405a1b:	81 eb 21 e3 64 98    	sub    $0x9864e321,%ebx
  405a21:	53                   	push   %ebx
  405a22:	8d 15 90 17 a7 98    	lea    0x98a71790,%edx
  405a28:	81 ea 21 e3 64 98    	sub    $0x9864e321,%edx
  405a2e:	52                   	push   %edx
  405a2f:	a1 10 f1 41 00       	mov    0x41f110,%eax
  405a34:	ff d0                	call   *%eax
  405a36:	2e e9 9e 5a 00 00    	cs jmp 0x40b4da
  405a3c:	b9 01 00 00 00       	mov    $0x1,%ecx
  405a41:	13 0d bf 30 42 00    	adc    0x4230bf,%ecx
	...
  405a53:	81 1d 46 31 42 00 b5 	sbbl   $0xb5,0x423146
  405a5a:	00 00 00 
  405a5d:	b9 01 00 00 00       	mov    $0x1,%ecx
  405a62:	01 f9                	add    %edi,%ecx
  405a64:	13 3d 7e 30 42 00    	adc    0x42307e,%edi
  405a6a:	21 35 ab 30 42 00    	and    %esi,0x4230ab
  405a70:	8d 1d 9b 17 a7 98    	lea    0x98a7179b,%ebx
  405a76:	81 eb 21 e3 64 98    	sub    $0x9864e321,%ebx
  405a7c:	53                   	push   %ebx
  405a7d:	8d 1d 90 17 a7 98    	lea    0x98a71790,%ebx
  405a83:	81 eb 21 e3 64 98    	sub    $0x9864e321,%ebx
  405a89:	53                   	push   %ebx
  405a8a:	a1 10 f1 41 00       	mov    0x41f110,%eax
  405a8f:	ff d0                	call   *%eax
  405a91:	83 15 ac 31 42 00 14 	adcl   $0x14,0x4231ac
  405a98:	01 db                	add    %ebx,%ebx
  405a9a:	8d 05 83 17 a7 98    	lea    0x98a71783,%eax
  405aa0:	2d 21 e3 64 98       	sub    $0x9864e321,%eax
  405aa5:	50                   	push   %eax
  405aa6:	6a 01                	push   $0x1
  405aa8:	ff 0c 24             	decl   (%esp)
  405aab:	68 01 00 10 00       	push   $0x100001
  405ab0:	ff 0c 24             	decl   (%esp)
  405ab3:	a1 e8 f0 41 00       	mov    0x41f0e8,%eax
  405ab8:	ff d0                	call   *%eax
  405aba:	85 c0                	test   %eax,%eax
  405abc:	0f 85 ee 5e 00 00    	jne    0x40b9b0
  405ac2:	19 3d 83 31 42 00    	sbb    %edi,0x423183
  405ac8:	01 3d cc 30 42 00    	add    %edi,0x4230cc
  405ace:	8d 0d 83 17 a7 98    	lea    0x98a71783,%ecx
  405ad4:	81 e9 21 e3 64 98    	sub    $0x9864e321,%ecx
  405ada:	51                   	push   %ecx
  405adb:	6a 01                	push   $0x1
  405add:	ff 0c 24             	decl   (%esp)
  405ae0:	68 01 00 10 00       	push   $0x100001
  405ae5:	ff 0c 24             	decl   (%esp)
  405ae8:	a1 e8 f0 41 00       	mov    0x41f0e8,%eax
  405aed:	ff d0                	call   *%eax
  405aef:	83 f8 00             	cmp    $0x0,%eax
  405af2:	0f 85 b8 5e 00 00    	jne    0x40b9b0
  405af8:	b9 01 00 00 00       	mov    $0x1,%ecx
  405afd:	83 c1 1c             	add    $0x1c,%ecx
  405b00:	28 d8                	sub    %bl,%al
  405b02:	82 2d f6 31 42 00 c5 	subb   $0xc5,0x4231f6
  405b09:	18 0d a5 31 42 00    	sbb    %cl,0x4231a5
  405b0f:	8d 15 9b 17 a7 98    	lea    0x98a7179b,%edx
  405b15:	81 ea 21 e3 64 98    	sub    $0x9864e321,%edx
  405b1b:	52                   	push   %edx
  405b1c:	8d 1d 90 17 a7 98    	lea    0x98a71790,%ebx
  405b22:	81 eb 21 e3 64 98    	sub    $0x9864e321,%ebx
  405b28:	53                   	push   %ebx
  405b29:	a1 10 f1 41 00       	mov    0x41f110,%eax
  405b2e:	ff d0                	call   *%eax
  405b30:	81 15 16 30 42 00 ad 	adcl   $0xad,0x423016
  405b37:	00 00 00 
  405b3a:	8d 0d 83 17 a7 98    	lea    0x98a71783,%ecx
  405b40:	81 e9 21 e3 64 98    	sub    $0x9864e321,%ecx
  405b46:	51                   	push   %ecx
  405b47:	6a 01                	push   $0x1
  405b49:	ff 0c 24             	decl   (%esp)
  405b4c:	68 01 00 10 00       	push   $0x100001
  405b51:	ff 0c 24             	decl   (%esp)
  405b54:	a1 e8 f0 41 00       	mov    0x41f0e8,%eax
  405b59:	ff d0                	call   *%eax
  405b5b:	85 c0                	test   %eax,%eax
  405b5d:	0f 85 4d 5e 00 00    	jne    0x40b9b0
  405b63:	01 f6                	add    %esi,%esi
  405b65:	8d 05 9b 17 a7 98    	lea    0x98a7179b,%eax
  405b6b:	2d 21 e3 64 98       	sub    $0x9864e321,%eax
  405b70:	50                   	push   %eax
  405b71:	8d 0d 90 17 a7 98    	lea    0x98a71790,%ecx
  405b77:	81 e9 21 e3 64 98    	sub    $0x9864e321,%ecx
  405b7d:	51                   	push   %ecx
  405b7e:	a1 10 f1 41 00       	mov    0x41f110,%eax
  405b83:	ff d0                	call   *%eax
  405b85:	83 35 9b 30 42 00 52 	xorl   $0x52,0x42309b
  405b8c:	82 e7 9a             	and    $0x9a,%bh
  405b8f:	2c a2                	sub    $0xa2,%al
  405b91:	8d 1d 9b 17 a7 98    	lea    0x98a7179b,%ebx
  405b97:	81 eb 21 e3 64 98    	sub    $0x9864e321,%ebx
  405b9d:	53                   	push   %ebx
  405b9e:	8d 15 90 17 a7 98    	lea    0x98a71790,%edx
  405ba4:	81 ea 21 e3 64 98    	sub    $0x9864e321,%edx
  405baa:	52                   	push   %edx
  405bab:	a1 10 f1 41 00       	mov    0x41f110,%eax
  405bb0:	ff d0                	call   *%eax
  405bb2:	83 c0 f5             	add    $0xfffffff5,%eax
  405bb5:	31 d8                	xor    %ebx,%eax
  405bb7:	ba 01 00 00 00       	mov    $0x1,%edx
  405bbc:	01 f2                	add    %esi,%edx
  405bbe:	81 15 b3 30 42 00 c8 	adcl   $0xc8,0x4230b3
  405bc5:	00 00 00 
  405bc8:	31 c0                	xor    %eax,%eax
  405bca:	8d 3d 9b 17 a7 98    	lea    0x98a7179b,%edi
  405bd0:	81 ef 21 e3 64 98    	sub    $0x9864e321,%edi
  405bd6:	57                   	push   %edi
  405bd7:	8d 05 90 17 a7 98    	lea    0x98a71790,%eax
  405bdd:	2d 21 e3 64 98       	sub    $0x9864e321,%eax
  405be2:	50                   	push   %eax
  405be3:	a1 10 f1 41 00       	mov    0x41f110,%eax
  405be8:	ff d0                	call   *%eax
  405bea:	29 05 48 31 42 00    	sub    %eax,0x423148
  405bf0:	83 e7 57             	and    $0x57,%edi
  405bf3:	2b 05 27 31 42 00    	sub    0x423127,%eax
  405bf9:	8d 0d 9b 17 a7 98    	lea    0x98a7179b,%ecx
  405bff:	81 e9 21 e3 64 98    	sub    $0x9864e321,%ecx
  405c05:	51                   	push   %ecx
  405c06:	8d 3d 90 17 a7 98    	lea    0x98a71790,%edi
  405c0c:	81 ef 21 e3 64 98    	sub    $0x9864e321,%edi
  405c12:	57                   	push   %edi
  405c13:	a1 10 f1 41 00       	mov    0x41f110,%eax
  405c18:	ff d0                	call   *%eax
  405c1a:	28 05 ff 31 42 00    	sub    %al,0x4231ff
  405c20:	b9 01 00 00 00       	mov    $0x1,%ecx
  405c25:	01 c1                	add    %eax,%ecx
  405c27:	01 ce                	add    %ecx,%esi
  405c29:	01 d8                	add    %ebx,%eax
  405c2b:	8d 1d 9b 17 a7 98    	lea    0x98a7179b,%ebx
  405c31:	81 eb 21 e3 64 98    	sub    $0x9864e321,%ebx
  405c37:	53                   	push   %ebx
  405c38:	8d 15 90 17 a7 98    	lea    0x98a71790,%edx
  405c3e:	81 ea 21 e3 64 98    	sub    $0x9864e321,%edx
  405c44:	52                   	push   %edx
  405c45:	a1 10 f1 41 00       	mov    0x41f110,%eax
  405c4a:	ff d0                	call   *%eax
  405c4c:	31 c7                	xor    %eax,%edi
  405c4e:	8d 15 83 17 a7 98    	lea    0x98a71783,%edx
  405c54:	81 ea 21 e3 64 98    	sub    $0x9864e321,%edx
  405c5a:	52                   	push   %edx
  405c5b:	6a 01                	push   $0x1
  405c5d:	ff 0c 24             	decl   (%esp)
  405c60:	68 01 00 10 00       	push   $0x100001
  405c65:	ff 0c 24             	decl   (%esp)
  405c68:	a1 e8 f0 41 00       	mov    0x41f0e8,%eax
  405c6d:	ff d0                	call   *%eax
  405c6f:	85 c0                	test   %eax,%eax
  405c71:	0f 85 39 5d 00 00    	jne    0x40b9b0
  405c77:	31 1d cd 31 42 00    	xor    %ebx,0x4231cd
  405c7d:	2e e9 57 58 00 00    	cs jmp 0x40b4da
  405c83:	00 01                	add    %al,(%ecx)
  405c85:	3d 0f 30 42 00       	cmp    $0x42300f,%eax
  405c8a:	13 3d 42 30 42 00    	adc    0x423042,%edi
  405c90:	01 1d 6f 30 42 00    	add    %ebx,0x42306f
  405c96:	2b 1d 24 31 42 00    	sub    0x423124,%ebx
  405c9c:	8d 05 9b 17 a7 98    	lea    0x98a7179b,%eax
  405ca2:	2d 21 e3 64 98       	sub    $0x9864e321,%eax
  405ca7:	50                   	push   %eax
  405ca8:	8d 3d 90 17 a7 98    	lea    0x98a71790,%edi
  405cae:	81 ef 21 e3 64 98    	sub    $0x9864e321,%edi
  405cb4:	57                   	push   %edi
  405cb5:	a1 10 f1 41 00       	mov    0x41f110,%eax
  405cba:	ff d0                	call   *%eax
  405cbc:	ba 01 00 00 00       	mov    $0x1,%edx
  405cc1:	83 c2 d4             	add    $0xffffffd4,%edx
  405cc4:	8d 15 83 17 a7 98    	lea    0x98a71783,%edx
  405cca:	81 ea 21 e3 64 98    	sub    $0x9864e321,%edx
  405cd0:	52                   	push   %edx
  405cd1:	6a 01                	push   $0x1
  405cd3:	ff 0c 24             	decl   (%esp)
  405cd6:	68 01 00 10 00       	push   $0x100001
  405cdb:	ff 0c 24             	decl   (%esp)
  405cde:	a1 e8 f0 41 00       	mov    0x41f0e8,%eax
  405ce3:	ff d0                	call   *%eax
  405ce5:	85 c0                	test   %eax,%eax
  405ce7:	0f 85 c3 5c 00 00    	jne    0x40b9b0
  405ced:	19 05 ac 31 42 00    	sbb    %eax,0x4231ac
  405cf3:	01 3d fb 30 42 00    	add    %edi,0x4230fb
  405cf9:	29 05 88 31 42 00    	sub    %eax,0x423188
  405cff:	82 df fd             	sbb    $0xfd,%bh
  405d02:	8d 1d 9b 17 a7 98    	lea    0x98a7179b,%ebx
  405d08:	81 eb 21 e3 64 98    	sub    $0x9864e321,%ebx
  405d0e:	53                   	push   %ebx
  405d0f:	8d 05 90 17 a7 98    	lea    0x98a71790,%eax
  405d15:	2d 21 e3 64 98       	sub    $0x9864e321,%eax
  405d1a:	50                   	push   %eax
  405d1b:	a1 10 f1 41 00       	mov    0x41f110,%eax
  405d20:	ff d0                	call   *%eax
  405d22:	01 d8                	add    %ebx,%eax
  405d24:	01 35 b1 30 42 00    	add    %esi,0x4230b1
  405d2a:	8d 0d 9b 17 a7 98    	lea    0x98a7179b,%ecx
  405d30:	81 e9 21 e3 64 98    	sub    $0x9864e321,%ecx
  405d36:	51                   	push   %ecx
  405d37:	8d 0d 90 17 a7 98    	lea    0x98a71790,%ecx
  405d3d:	81 e9 21 e3 64 98    	sub    $0x9864e321,%ecx
  405d43:	51                   	push   %ecx
  405d44:	a1 10 f1 41 00       	mov    0x41f110,%eax
  405d49:	ff d0                	call   *%eax
  405d4b:	8d 1d 83 17 a7 98    	lea    0x98a71783,%ebx
  405d51:	81 eb 21 e3 64 98    	sub    $0x9864e321,%ebx
  405d57:	53                   	push   %ebx
  405d58:	6a 01                	push   $0x1
  405d5a:	ff 0c 24             	decl   (%esp)
  405d5d:	68 01 00 10 00       	push   $0x100001
  405d62:	ff 0c 24             	decl   (%esp)
  405d65:	a1 e8 f0 41 00       	mov    0x41f0e8,%eax
  405d6a:	ff d0                	call   *%eax
  405d6c:	83 f8 00             	cmp    $0x0,%eax
  405d6f:	0f 85 3b 5c 00 00    	jne    0x40b9b0
  405d75:	01 de                	add    %ebx,%esi
  405d77:	12 1d b3 31 42 00    	adc    0x4231b3,%bl
  405d7d:	11 df                	adc    %ebx,%edi
  405d7f:	8d 1d 9b 17 a7 98    	lea    0x98a7179b,%ebx
  405d85:	81 eb 21 e3 64 98    	sub    $0x9864e321,%ebx
  405d8b:	53                   	push   %ebx
  405d8c:	8d 05 90 17 a7 98    	lea    0x98a71790,%eax
  405d92:	2d 21 e3 64 98       	sub    $0x9864e321,%eax
  405d97:	50                   	push   %eax
  405d98:	a1 10 f1 41 00       	mov    0x41f110,%eax
  405d9d:	ff d0                	call   *%eax
  405d9f:	00 1d ab 31 42 00    	add    %bl,0x4231ab
  405da5:	83 e7 e7             	and    $0xffffffe7,%edi
  405da8:	8d 15 9b 17 a7 98    	lea    0x98a7179b,%edx
  405dae:	81 ea 21 e3 64 98    	sub    $0x9864e321,%edx
  405db4:	52                   	push   %edx
  405db5:	8d 0d 90 17 a7 98    	lea    0x98a71790,%ecx
  405dbb:	81 e9 21 e3 64 98    	sub    $0x9864e321,%ecx
  405dc1:	51                   	push   %ecx
  405dc2:	a1 10 f1 41 00       	mov    0x41f110,%eax
  405dc7:	ff d0                	call   *%eax
  405dc9:	8d 15 9b 17 a7 98    	lea    0x98a7179b,%edx
  405dcf:	81 ea 21 e3 64 98    	sub    $0x9864e321,%edx
  405dd5:	52                   	push   %edx
  405dd6:	8d 3d 90 17 a7 98    	lea    0x98a71790,%edi
  405ddc:	81 ef 21 e3 64 98    	sub    $0x9864e321,%edi
  405de2:	57                   	push   %edi
  405de3:	a1 10 f1 41 00       	mov    0x41f110,%eax
  405de8:	ff d0                	call   *%eax
  405dea:	31 d8                	xor    %ebx,%eax
  405dec:	01 db                	add    %ebx,%ebx
  405dee:	c7 05 f3 31 42 00 36 	movl   $0x36,0x4231f3
  405df5:	00 00 00 
  405df8:	8d 35 9b 17 a7 98    	lea    0x98a7179b,%esi
  405dfe:	81 ee 21 e3 64 98    	sub    $0x9864e321,%esi
  405e04:	56                   	push   %esi
  405e05:	8d 15 90 17 a7 98    	lea    0x98a71790,%edx
  405e0b:	81 ea 21 e3 64 98    	sub    $0x9864e321,%edx
  405e11:	52                   	push   %edx
  405e12:	a1 10 f1 41 00       	mov    0x41f110,%eax
  405e17:	ff d0                	call   *%eax
  405e19:	01 db                	add    %ebx,%ebx
  405e1b:	8d 1d 83 17 a7 98    	lea    0x98a71783,%ebx
  405e21:	81 eb 21 e3 64 98    	sub    $0x9864e321,%ebx
  405e27:	53                   	push   %ebx
  405e28:	6a 01                	push   $0x1
  405e2a:	ff 0c 24             	decl   (%esp)
  405e2d:	68 01 00 10 00       	push   $0x100001
  405e32:	ff 0c 24             	decl   (%esp)
  405e35:	a1 e8 f0 41 00       	mov    0x41f0e8,%eax
  405e3a:	ff d0                	call   *%eax
  405e3c:	85 c0                	test   %eax,%eax
  405e3e:	0f 85 6c 5b 00 00    	jne    0x40b9b0
  405e44:	2e e9 90 56 00 00    	cs jmp 0x40b4da
  405e4a:	0b 3d f6 30 42 00    	or     0x4230f6,%edi
  405e50:	83 d8 1e             	sbb    $0x1e,%eax
	...
  405e63:	8d 1d 9b 17 a7 98    	lea    0x98a7179b,%ebx
  405e69:	81 eb 21 e3 64 98    	sub    $0x9864e321,%ebx
  405e6f:	53                   	push   %ebx
  405e70:	8d 15 90 17 a7 98    	lea    0x98a71790,%edx
  405e76:	81 ea 21 e3 64 98    	sub    $0x9864e321,%edx
  405e7c:	52                   	push   %edx
  405e7d:	a1 10 f1 41 00       	mov    0x41f110,%eax
  405e82:	ff d0                	call   *%eax
  405e84:	83 c3 04             	add    $0x4,%ebx
  405e87:	83 c6 79             	add    $0x79,%esi
  405e8a:	8d 35 83 17 a7 98    	lea    0x98a71783,%esi
  405e90:	81 ee 21 e3 64 98    	sub    $0x9864e321,%esi
  405e96:	56                   	push   %esi
  405e97:	6a 01                	push   $0x1
  405e99:	ff 0c 24             	decl   (%esp)
  405e9c:	68 01 00 10 00       	push   $0x100001
  405ea1:	ff 0c 24             	decl   (%esp)
  405ea4:	a1 e8 f0 41 00       	mov    0x41f0e8,%eax
  405ea9:	ff d0                	call   *%eax
  405eab:	83 f8 00             	cmp    $0x0,%eax
  405eae:	0f 85 fc 5a 00 00    	jne    0x40b9b0
  405eb4:	13 35 94 30 42 00    	adc    0x423094,%esi
  405eba:	0a 05 25 30 42 00    	or     0x423025,%al
  405ec0:	c7 05 46 31 42 00 ff 	movl   $0xff,0x423146
  405ec7:	00 00 00 
  405eca:	8d 0d 9b 17 a7 98    	lea    0x98a7179b,%ecx
  405ed0:	81 e9 21 e3 64 98    	sub    $0x9864e321,%ecx
  405ed6:	51                   	push   %ecx
  405ed7:	8d 0d 90 17 a7 98    	lea    0x98a71790,%ecx
  405edd:	81 e9 21 e3 64 98    	sub    $0x9864e321,%ecx
  405ee3:	51                   	push   %ecx
  405ee4:	a1 10 f1 41 00       	mov    0x41f110,%eax
  405ee9:	ff d0                	call   *%eax
  405eeb:	b1 01                	mov    $0x1,%cl
  405eed:	00 d9                	add    %bl,%cl
  405eef:	12 0d 07 31 42 00    	adc    0x423107,%cl
  405ef5:	13 0d 4a 30 42 00    	adc    0x42304a,%ecx
  405efb:	83 25 8a 30 42 00 72 	andl   $0x72,0x42308a
  405f02:	8d 05 83 17 a7 98    	lea    0x98a71783,%eax
  405f08:	2d 21 e3 64 98       	sub    $0x9864e321,%eax
  405f0d:	50                   	push   %eax
  405f0e:	6a 01                	push   $0x1
  405f10:	ff 0c 24             	decl   (%esp)
  405f13:	68 01 00 10 00       	push   $0x100001
  405f18:	ff 0c 24             	decl   (%esp)
  405f1b:	a1 e8 f0 41 00       	mov    0x41f0e8,%eax
  405f20:	ff d0                	call   *%eax
  405f22:	85 c0                	test   %eax,%eax
  405f24:	0f 85 86 5a 00 00    	jne    0x40b9b0
  405f2a:	ba 01 00 00 00       	mov    $0x1,%edx
  405f2f:	01 c2                	add    %eax,%edx
  405f31:	81 15 52 31 42 00 af 	adcl   $0xaf,0x423152
  405f38:	00 00 00 
  405f3b:	21 15 41 31 42 00    	and    %edx,0x423141
  405f41:	81 35 ce 30 42 00 c5 	xorl   $0xc5,0x4230ce
  405f48:	00 00 00 
  405f4b:	83 eb a7             	sub    $0xffffffa7,%ebx
  405f4e:	8d 15 9b 17 a7 98    	lea    0x98a7179b,%edx
  405f54:	81 ea 21 e3 64 98    	sub    $0x9864e321,%edx
  405f5a:	52                   	push   %edx
  405f5b:	8d 35 90 17 a7 98    	lea    0x98a71790,%esi
  405f61:	81 ee 21 e3 64 98    	sub    $0x9864e321,%esi
  405f67:	56                   	push   %esi
  405f68:	a1 10 f1 41 00       	mov    0x41f110,%eax
  405f6d:	ff d0                	call   *%eax
  405f6f:	81 25 af 30 42 00 ba 	andl   $0xba,0x4230af
  405f76:	00 00 00 
  405f79:	8d 35 83 17 a7 98    	lea    0x98a71783,%esi
  405f7f:	81 ee 21 e3 64 98    	sub    $0x9864e321,%esi
  405f85:	56                   	push   %esi
  405f86:	6a 01                	push   $0x1
  405f88:	ff 0c 24             	decl   (%esp)
  405f8b:	68 01 00 10 00       	push   $0x100001
  405f90:	ff 0c 24             	decl   (%esp)
  405f93:	a1 e8 f0 41 00       	mov    0x41f0e8,%eax
  405f98:	ff d0                	call   *%eax
  405f9a:	85 c0                	test   %eax,%eax
  405f9c:	0f 85 0e 5a 00 00    	jne    0x40b9b0
  405fa2:	83 d0 c8             	adc    $0xffffffc8,%eax
  405fa5:	09 05 23 30 42 00    	or     %eax,0x423023
  405fab:	ba 01 00 00 00       	mov    $0x1,%edx
  405fb0:	01 da                	add    %ebx,%edx
  405fb2:	31 35 29 30 42 00    	xor    %esi,0x423029
  405fb8:	11 05 1c 31 42 00    	adc    %eax,0x42311c
  405fbe:	8d 1d 83 17 a7 98    	lea    0x98a71783,%ebx
  405fc4:	81 eb 21 e3 64 98    	sub    $0x9864e321,%ebx
  405fca:	53                   	push   %ebx
  405fcb:	6a 01                	push   $0x1
  405fcd:	ff 0c 24             	decl   (%esp)
  405fd0:	68 01 00 10 00       	push   $0x100001
  405fd5:	ff 0c 24             	decl   (%esp)
  405fd8:	a1 e8 f0 41 00       	mov    0x41f0e8,%eax
  405fdd:	ff d0                	call   *%eax
  405fdf:	85 c0                	test   %eax,%eax
  405fe1:	0f 85 c9 59 00 00    	jne    0x40b9b0
  405fe7:	0b 3d 0a 31 42 00    	or     0x42310a,%edi
  405fed:	8d 3d 9b 17 a7 98    	lea    0x98a7179b,%edi
  405ff3:	81 ef 21 e3 64 98    	sub    $0x9864e321,%edi
  405ff9:	57                   	push   %edi
  405ffa:	8d 35 90 17 a7 98    	lea    0x98a71790,%esi
  406000:	81 ee 21 e3 64 98    	sub    $0x9864e321,%esi
  406006:	56                   	push   %esi
  406007:	a1 10 f1 41 00       	mov    0x41f110,%eax
  40600c:	ff d0                	call   *%eax
  40600e:	ba 01 00 00 00       	mov    $0x1,%edx
  406013:	13 15 a2 30 42 00    	adc    0x4230a2,%edx
  406019:	01 3d 1a 30 42 00    	add    %edi,0x42301a
  40601f:	83 ee 0f             	sub    $0xf,%esi
  406022:	13 35 1f 31 42 00    	adc    0x42311f,%esi
  406028:	19 3d 19 30 42 00    	sbb    %edi,0x423019
  40602e:	8d 3d 9b 17 a7 98    	lea    0x98a7179b,%edi
  406034:	81 ef 21 e3 64 98    	sub    $0x9864e321,%edi
  40603a:	57                   	push   %edi
  40603b:	8d 05 90 17 a7 98    	lea    0x98a71790,%eax
  406041:	2d 21 e3 64 98       	sub    $0x9864e321,%eax
  406046:	50                   	push   %eax
  406047:	a1 10 f1 41 00       	mov    0x41f110,%eax
  40604c:	ff d0                	call   *%eax
  40604e:	13 05 50 31 42 00    	adc    0x423150,%eax
  406054:	b5 01                	mov    $0x1,%ch
  406056:	82 c5 ea             	add    $0xea,%ch
  406059:	19 f3                	sbb    %esi,%ebx
  40605b:	ba 01 00 00 00       	mov    $0x1,%edx
  406060:	13 15 3f 31 42 00    	adc    0x42313f,%edx
  406066:	8d 35 83 17 a7 98    	lea    0x98a71783,%esi
  40606c:	81 ee 21 e3 64 98    	sub    $0x9864e321,%esi
  406072:	56                   	push   %esi
  406073:	6a 01                	push   $0x1
  406075:	ff 0c 24             	decl   (%esp)
  406078:	68 01 00 10 00       	push   $0x100001
  40607d:	ff 0c 24             	decl   (%esp)
  406080:	a1 e8 f0 41 00       	mov    0x41f0e8,%eax
  406085:	ff d0                	call   *%eax
  406087:	85 c0                	test   %eax,%eax
  406089:	0f 85 21 59 00 00    	jne    0x40b9b0
  40608f:	8d 0d 9b 17 a7 98    	lea    0x98a7179b,%ecx
  406095:	81 e9 21 e3 64 98    	sub    $0x9864e321,%ecx
  40609b:	51                   	push   %ecx
  40609c:	8d 3d 90 17 a7 98    	lea    0x98a71790,%edi
  4060a2:	81 ef 21 e3 64 98    	sub    $0x9864e321,%edi
  4060a8:	57                   	push   %edi
  4060a9:	a1 10 f1 41 00       	mov    0x41f110,%eax
  4060ae:	ff d0                	call   *%eax
  4060b0:	b9 01 00 00 00       	mov    $0x1,%ecx
  4060b5:	01 d9                	add    %ebx,%ecx
  4060b7:	8d 3d 9b 17 a7 98    	lea    0x98a7179b,%edi
  4060bd:	81 ef 21 e3 64 98    	sub    $0x9864e321,%edi
  4060c3:	57                   	push   %edi
  4060c4:	8d 1d 90 17 a7 98    	lea    0x98a71790,%ebx
  4060ca:	81 eb 21 e3 64 98    	sub    $0x9864e321,%ebx
  4060d0:	53                   	push   %ebx
  4060d1:	a1 10 f1 41 00       	mov    0x41f110,%eax
  4060d6:	ff d0                	call   *%eax
  4060d8:	01 3d 88 31 42 00    	add    %edi,0x423188
  4060de:	0b 1d e7 31 42 00    	or     0x4231e7,%ebx
  4060e4:	29 35 84 30 42 00    	sub    %esi,0x423084
  4060ea:	83 15 19 30 42 00 3d 	adcl   $0x3d,0x423019
  4060f1:	83 c7 c8             	add    $0xffffffc8,%edi
  4060f4:	2e e9 e0 53 00 00    	cs jmp 0x40b4da
  4060fa:	83 25 a9 30 42 00 76 	andl   $0x76,0x4230a9
  406101:	10 1d 0a 30 42 00    	adc    %bl,0x42300a
  406107:	11 f7                	adc    %esi,%edi
  406109:	00 00                	add    %al,(%eax)
  40610b:	00 00                	add    %al,(%eax)
  40610d:	00 00                	add    %al,(%eax)
  40610f:	00 12                	add    %dl,(%edx)
  406111:	05 85 31 42 00       	add    $0x423185,%eax
  406116:	b9 01 00 00 00       	mov    $0x1,%ecx
  40611b:	13 0d 8b 31 42 00    	adc    0x42318b,%ecx
  406121:	81 25 88 31 42 00 fb 	andl   $0xfb,0x423188
  406128:	00 00 00 
  40612b:	ba 01 00 00 00       	mov    $0x1,%edx
  406130:	83 c2 e4             	add    $0xffffffe4,%edx
  406133:	8d 1d 83 17 a7 98    	lea    0x98a71783,%ebx
  406139:	81 eb 21 e3 64 98    	sub    $0x9864e321,%ebx
  40613f:	53                   	push   %ebx
  406140:	6a 01                	push   $0x1
  406142:	ff 0c 24             	decl   (%esp)
  406145:	68 01 00 10 00       	push   $0x100001
  40614a:	ff 0c 24             	decl   (%esp)
  40614d:	a1 e8 f0 41 00       	mov    0x41f0e8,%eax
  406152:	ff d0                	call   *%eax
  406154:	83 f8 00             	cmp    $0x0,%eax
  406157:	0f 85 53 58 00 00    	jne    0x40b9b0
  40615d:	ba 01 00 00 00       	mov    $0x1,%edx
  406162:	13 15 3d 31 42 00    	adc    0x42313d,%edx
  406168:	01 05 f8 31 42 00    	add    %eax,0x4231f8
  40616e:	81 0d b7 31 42 00 fd 	orl    $0xfd,0x4231b7
  406175:	00 00 00 
  406178:	c7 05 19 30 42 00 2f 	movl   $0x2f,0x423019
  40617f:	00 00 00 
  406182:	8d 3d 83 17 a7 98    	lea    0x98a71783,%edi
  406188:	81 ef 21 e3 64 98    	sub    $0x9864e321,%edi
  40618e:	57                   	push   %edi
  40618f:	6a 01                	push   $0x1
  406191:	ff 0c 24             	decl   (%esp)
