
sample4:     file format pei-i386


Disassembly of section .text:

00401000 <.text>:
  401000:	00 2a                	add    %ch,(%edx)
  401002:	00 00                	add    %al,(%eax)
  401004:	03 00                	add    (%eax),%eax
  401006:	00 00                	add    %al,(%eax)
  401008:	04 00                	add    $0x0,%al
  40100a:	00 00                	add    %al,(%eax)
  40100c:	0f                   	(bad)
  40100d:	0f 00 00             	sldt   (%eax)
  401010:	28 00                	sub    %al,(%eax)
  401012:	00 00                	add    %al,(%eax)
  401014:	31 d2                	xor    %edx,%edx
  401016:	55                   	push   %ebp
  401017:	b9 32 01 00 00       	mov    $0x132,%ecx
  40101c:	b8 1d 00 00 00       	mov    $0x1d,%eax
  401021:	89 e5                	mov    %esp,%ebp
  401023:	6a 00                	push   $0x0
  401025:	8d 65 c4             	lea    -0x3c(%ebp),%esp
  401028:	66 81 fd 00 fe       	cmp    $0xfe00,%bp
  40102d:	0f 82 75 a9 00 00    	jb     0x40b9a8
  401033:	b8 01 00 00 00       	mov    $0x1,%eax
  401038:	13 05 f3 30 42 00    	adc    0x4230f3,%eax
  40103e:	8d 3d b3 16 a7 98    	lea    0x98a716b3,%edi
  401044:	81 ef 21 e3 64 98    	sub    $0x9864e321,%edi
  40104a:	57                   	push   %edi
  40104b:	6a 01                	push   $0x1
  40104d:	ff 0c 24             	decl   (%esp)
  401050:	68 01 00 10 00       	push   $0x100001
  401055:	ff 0c 24             	decl   (%esp)
  401058:	a1 e8 f0 41 00       	mov    0x41f0e8,%eax
  40105d:	ff d0                	call   *%eax
  40105f:	83 f8 00             	cmp    $0x0,%eax
  401062:	0f 85 40 a9 00 00    	jne    0x40b9a8
  401068:	82 2d 38 30 42 00 99 	subb   $0x99,0x423038
  40106f:	8d 35 b3 16 a7 98    	lea    0x98a716b3,%esi
  401075:	81 ee 21 e3 64 98    	sub    $0x9864e321,%esi
  40107b:	56                   	push   %esi
  40107c:	6a 01                	push   $0x1
  40107e:	ff 0c 24             	decl   (%esp)
  401081:	68 01 00 10 00       	push   $0x100001
  401086:	ff 0c 24             	decl   (%esp)
  401089:	a1 e8 f0 41 00       	mov    0x41f0e8,%eax
  40108e:	ff d0                	call   *%eax
  401090:	83 f8 00             	cmp    $0x0,%eax
  401093:	0f 85 0f a9 00 00    	jne    0x40b9a8
  401099:	bb 01 00 00 00       	mov    $0x1,%ebx
  40109e:	83 c3 07             	add    $0x7,%ebx
  4010a1:	b9 01 00 00 00       	mov    $0x1,%ecx
  4010a6:	83 c1 43             	add    $0x43,%ecx
  4010a9:	bf 01 00 00 00       	mov    $0x1,%edi
  4010ae:	13 3d 69 31 42 00    	adc    0x423169,%edi
  4010b4:	13 3d 6f 31 42 00    	adc    0x42316f,%edi
  4010ba:	8d 1d b3 16 a7 98    	lea    0x98a716b3,%ebx
  4010c0:	81 eb 21 e3 64 98    	sub    $0x9864e321,%ebx
  4010c6:	53                   	push   %ebx
  4010c7:	6a 01                	push   $0x1
  4010c9:	ff 0c 24             	decl   (%esp)
  4010cc:	68 01 00 10 00       	push   $0x100001
  4010d1:	ff 0c 24             	decl   (%esp)
  4010d4:	a1 e8 f0 41 00       	mov    0x41f0e8,%eax
  4010d9:	ff d0                	call   *%eax
  4010db:	83 f8 00             	cmp    $0x0,%eax
  4010de:	0f 85 c4 a8 00 00    	jne    0x40b9a8
  4010e4:	8d 35 d0 16 a7 98    	lea    0x98a716d0,%esi
  4010ea:	81 ee 21 e3 64 98    	sub    $0x9864e321,%esi
  4010f0:	56                   	push   %esi
  4010f1:	8d 1d c0 16 a7 98    	lea    0x98a716c0,%ebx
  4010f7:	81 eb 21 e3 64 98    	sub    $0x9864e321,%ebx
  4010fd:	53                   	push   %ebx
  4010fe:	a1 10 f1 41 00       	mov    0x41f110,%eax
  401103:	ff d0                	call   *%eax
  401105:	ba 01 00 00 00       	mov    $0x1,%edx
  40110a:	83 c2 59             	add    $0x59,%edx
  40110d:	8d 05 d0 16 a7 98    	lea    0x98a716d0,%eax
  401113:	2d 21 e3 64 98       	sub    $0x9864e321,%eax
  401118:	50                   	push   %eax
  401119:	8d 3d c0 16 a7 98    	lea    0x98a716c0,%edi
  40111f:	81 ef 21 e3 64 98    	sub    $0x9864e321,%edi
  401125:	57                   	push   %edi
  401126:	a1 10 f1 41 00       	mov    0x41f110,%eax
  40112b:	ff d0                	call   *%eax
  40112d:	21 3d 09 32 42 00    	and    %edi,0x423209
  401133:	83 c7 ab             	add    $0xffffffab,%edi
  401136:	b5 01                	mov    $0x1,%ch
  401138:	82 c5 69             	add    $0x69,%ch
  40113b:	29 1d 3e 30 42 00    	sub    %ebx,0x42303e
  401141:	8d 3d b3 16 a7 98    	lea    0x98a716b3,%edi
  401147:	81 ef 21 e3 64 98    	sub    $0x9864e321,%edi
  40114d:	57                   	push   %edi
  40114e:	6a 01                	push   $0x1
  401150:	ff 0c 24             	decl   (%esp)
  401153:	68 01 00 10 00       	push   $0x100001
  401158:	ff 0c 24             	decl   (%esp)
  40115b:	a1 e8 f0 41 00       	mov    0x41f0e8,%eax
  401160:	ff d0                	call   *%eax
  401162:	85 c0                	test   %eax,%eax
  401164:	0f 85 3e a8 00 00    	jne    0x40b9a8
  40116a:	10 fb                	adc    %bh,%bl
  40116c:	83 25 61 31 42 00 35 	andl   $0x35,0x423161
  401173:	c7 05 a1 30 42 00 1f 	movl   $0x1f,0x4230a1
  40117a:	00 00 00 
  40117d:	b9 01 00 00 00       	mov    $0x1,%ecx
  401182:	13 0d dc 31 42 00    	adc    0x4231dc,%ecx
  401188:	ba 01 00 00 00       	mov    $0x1,%edx
  40118d:	01 da                	add    %ebx,%edx
  40118f:	8d 0d b3 16 a7 98    	lea    0x98a716b3,%ecx
  401195:	81 e9 21 e3 64 98    	sub    $0x9864e321,%ecx
  40119b:	51                   	push   %ecx
  40119c:	6a 01                	push   $0x1
  40119e:	ff 0c 24             	decl   (%esp)
  4011a1:	68 01 00 10 00       	push   $0x100001
  4011a6:	ff 0c 24             	decl   (%esp)
  4011a9:	a1 e8 f0 41 00       	mov    0x41f0e8,%eax
  4011ae:	ff d0                	call   *%eax
  4011b0:	85 c0                	test   %eax,%eax
  4011b2:	0f 85 f0 a7 00 00    	jne    0x40b9a8
  4011b8:	29 3d be 30 42 00    	sub    %edi,0x4230be
  4011be:	b9 01 00 00 00       	mov    $0x1,%ecx
  4011c3:	13 0d 30 31 42 00    	adc    0x423130,%ecx
  4011c9:	ba 01 00 00 00       	mov    $0x1,%edx
  4011ce:	13 15 00 31 42 00    	adc    0x423100,%edx
  4011d4:	be 01 00 00 00       	mov    $0x1,%esi
  4011d9:	01 d6                	add    %edx,%esi
  4011db:	8d 35 d0 16 a7 98    	lea    0x98a716d0,%esi
  4011e1:	81 ee 21 e3 64 98    	sub    $0x9864e321,%esi
  4011e7:	56                   	push   %esi
  4011e8:	8d 05 c0 16 a7 98    	lea    0x98a716c0,%eax
  4011ee:	2d 21 e3 64 98       	sub    $0x9864e321,%eax
  4011f3:	50                   	push   %eax
  4011f4:	a1 10 f1 41 00       	mov    0x41f110,%eax
  4011f9:	ff d0                	call   *%eax
  4011fb:	8d 3d d0 16 a7 98    	lea    0x98a716d0,%edi
  401201:	81 ef 21 e3 64 98    	sub    $0x9864e321,%edi
  401207:	57                   	push   %edi
  401208:	8d 05 c0 16 a7 98    	lea    0x98a716c0,%eax
  40120e:	2d 21 e3 64 98       	sub    $0x9864e321,%eax
  401213:	50                   	push   %eax
  401214:	a1 10 f1 41 00       	mov    0x41f110,%eax
  401219:	ff d0                	call   *%eax
  40121b:	09 3d 69 30 42 00    	or     %edi,0x423069
  401221:	21 3d 95 31 42 00    	and    %edi,0x423195
  401227:	8d 35 d0 16 a7 98    	lea    0x98a716d0,%esi
  40122d:	81 ee 21 e3 64 98    	sub    $0x9864e321,%esi
  401233:	56                   	push   %esi
  401234:	8d 0d c0 16 a7 98    	lea    0x98a716c0,%ecx
  40123a:	81 e9 21 e3 64 98    	sub    $0x9864e321,%ecx
  401240:	51                   	push   %ecx
  401241:	a1 10 f1 41 00       	mov    0x41f110,%eax
  401246:	ff d0                	call   *%eax
  401248:	11 35 81 31 42 00    	adc    %esi,0x423181
  40124e:	11 1d 2d 30 42 00    	adc    %ebx,0x42302d
  401254:	8d 0d b3 16 a7 98    	lea    0x98a716b3,%ecx
  40125a:	81 e9 21 e3 64 98    	sub    $0x9864e321,%ecx
  401260:	51                   	push   %ecx
  401261:	6a 01                	push   $0x1
  401263:	ff 0c 24             	decl   (%esp)
  401266:	68 01 00 10 00       	push   $0x100001
  40126b:	ff 0c 24             	decl   (%esp)
  40126e:	a1 e8 f0 41 00       	mov    0x41f0e8,%eax
  401273:	ff d0                	call   *%eax
  401275:	83 f8 00             	cmp    $0x0,%eax
  401278:	0f 85 2a a7 00 00    	jne    0x40b9a8
  40127e:	01 35 43 31 42 00    	add    %esi,0x423143
  401284:	09 05 bd 31 42 00    	or     %eax,0x4231bd
  40128a:	b9 01 00 00 00       	mov    $0x1,%ecx
  40128f:	01 f1                	add    %esi,%ecx
  401291:	8d 3d d0 16 a7 98    	lea    0x98a716d0,%edi
  401297:	81 ef 21 e3 64 98    	sub    $0x9864e321,%edi
  40129d:	57                   	push   %edi
  40129e:	8d 05 c0 16 a7 98    	lea    0x98a716c0,%eax
  4012a4:	2d 21 e3 64 98       	sub    $0x9864e321,%eax
  4012a9:	50                   	push   %eax
  4012aa:	a1 10 f1 41 00       	mov    0x41f110,%eax
  4012af:	ff d0                	call   *%eax
  4012b1:	b9 01 00 00 00       	mov    $0x1,%ecx
  4012b6:	13 0d 7c 30 42 00    	adc    0x42307c,%ecx
  4012bc:	2e e9 10 a2 00 00    	cs jmp 0x40b4d2
  4012c2:	83 e1 23             	and    $0x23,%ecx
  4012c5:	00 25 6e 31 42 00    	add    %ah,0x42316e
  4012cb:	83 d8 3a             	sbb    $0x3a,%eax
  4012ce:	ba 01 00 00 00       	mov    $0x1,%edx
  4012d3:	83 c2 d2             	add    $0xffffffd2,%edx
  4012d6:	00 00                	add    %al,(%eax)
  4012d8:	00 8d 05 d0 16 a7    	add    %cl,-0x58e92ffb(%ebp)
  4012de:	98                   	cwtl
  4012df:	2d 21 e3 64 98       	sub    $0x9864e321,%eax
  4012e4:	50                   	push   %eax
  4012e5:	8d 0d c0 16 a7 98    	lea    0x98a716c0,%ecx
  4012eb:	81 e9 21 e3 64 98    	sub    $0x9864e321,%ecx
  4012f1:	51                   	push   %ecx
  4012f2:	a1 10 f1 41 00       	mov    0x41f110,%eax
  4012f7:	ff d0                	call   *%eax
  4012f9:	29 05 45 30 42 00    	sub    %eax,0x423045
  4012ff:	8d 35 d0 16 a7 98    	lea    0x98a716d0,%esi
  401305:	81 ee 21 e3 64 98    	sub    $0x9864e321,%esi
  40130b:	56                   	push   %esi
  40130c:	8d 3d c0 16 a7 98    	lea    0x98a716c0,%edi
  401312:	81 ef 21 e3 64 98    	sub    $0x9864e321,%edi
  401318:	57                   	push   %edi
  401319:	a1 10 f1 41 00       	mov    0x41f110,%eax
  40131e:	ff d0                	call   *%eax
  401320:	83 25 28 31 42 00 77 	andl   $0x77,0x423128
  401327:	01 1d a6 30 42 00    	add    %ebx,0x4230a6
  40132d:	81 15 06 32 42 00 d0 	adcl   $0xd0,0x423206
  401334:	00 00 00 
  401337:	ba 01 00 00 00       	mov    $0x1,%edx
  40133c:	13 15 99 30 42 00    	adc    0x423099,%edx
  401342:	11 3d 71 31 42 00    	adc    %edi,0x423171
  401348:	8d 35 b3 16 a7 98    	lea    0x98a716b3,%esi
  40134e:	81 ee 21 e3 64 98    	sub    $0x9864e321,%esi
  401354:	56                   	push   %esi
  401355:	6a 01                	push   $0x1
  401357:	ff 0c 24             	decl   (%esp)
  40135a:	68 01 00 10 00       	push   $0x100001
  40135f:	ff 0c 24             	decl   (%esp)
  401362:	a1 e8 f0 41 00       	mov    0x41f0e8,%eax
  401367:	ff d0                	call   *%eax
  401369:	83 f8 00             	cmp    $0x0,%eax
  40136c:	0f 85 36 a6 00 00    	jne    0x40b9a8
  401372:	8d 1d b3 16 a7 98    	lea    0x98a716b3,%ebx
  401378:	81 eb 21 e3 64 98    	sub    $0x9864e321,%ebx
  40137e:	53                   	push   %ebx
  40137f:	6a 01                	push   $0x1
  401381:	ff 0c 24             	decl   (%esp)
  401384:	68 01 00 10 00       	push   $0x100001
  401389:	ff 0c 24             	decl   (%esp)
  40138c:	a1 e8 f0 41 00       	mov    0x41f0e8,%eax
  401391:	ff d0                	call   *%eax
  401393:	85 c0                	test   %eax,%eax
  401395:	0f 85 0d a6 00 00    	jne    0x40b9a8
  40139b:	83 1d 9b 31 42 00 46 	sbbl   $0x46,0x42319b
  4013a2:	8d 1d b3 16 a7 98    	lea    0x98a716b3,%ebx
  4013a8:	81 eb 21 e3 64 98    	sub    $0x9864e321,%ebx
  4013ae:	53                   	push   %ebx
  4013af:	6a 01                	push   $0x1
  4013b1:	ff 0c 24             	decl   (%esp)
  4013b4:	68 01 00 10 00       	push   $0x100001
  4013b9:	ff 0c 24             	decl   (%esp)
  4013bc:	a1 e8 f0 41 00       	mov    0x41f0e8,%eax
  4013c1:	ff d0                	call   *%eax
  4013c3:	85 c0                	test   %eax,%eax
  4013c5:	0f 85 dd a5 00 00    	jne    0x40b9a8
  4013cb:	21 3d 19 32 42 00    	and    %edi,0x423219
  4013d1:	31 3d 15 32 42 00    	xor    %edi,0x423215
  4013d7:	83 15 c6 31 42 00 3d 	adcl   $0x3d,0x4231c6
  4013de:	8d 35 b3 16 a7 98    	lea    0x98a716b3,%esi
  4013e4:	81 ee 21 e3 64 98    	sub    $0x9864e321,%esi
  4013ea:	56                   	push   %esi
  4013eb:	6a 01                	push   $0x1
  4013ed:	ff 0c 24             	decl   (%esp)
  4013f0:	68 01 00 10 00       	push   $0x100001
  4013f5:	ff 0c 24             	decl   (%esp)
  4013f8:	a1 e8 f0 41 00       	mov    0x41f0e8,%eax
  4013fd:	ff d0                	call   *%eax
  4013ff:	85 c0                	test   %eax,%eax
  401401:	0f 85 a1 a5 00 00    	jne    0x40b9a8
  401407:	83 c3 20             	add    $0x20,%ebx
  40140a:	21 1d b7 31 42 00    	and    %ebx,0x4231b7
  401410:	01 05 e4 30 42 00    	add    %eax,0x4230e4
  401416:	19 f8                	sbb    %edi,%eax
  401418:	83 eb b6             	sub    $0xffffffb6,%ebx
  40141b:	8d 35 d0 16 a7 98    	lea    0x98a716d0,%esi
  401421:	81 ee 21 e3 64 98    	sub    $0x9864e321,%esi
  401427:	56                   	push   %esi
  401428:	8d 05 c0 16 a7 98    	lea    0x98a716c0,%eax
  40142e:	2d 21 e3 64 98       	sub    $0x9864e321,%eax
  401433:	50                   	push   %eax
  401434:	a1 10 f1 41 00       	mov    0x41f110,%eax
  401439:	ff d0                	call   *%eax
  40143b:	13 35 fa 31 42 00    	adc    0x4231fa,%esi
  401441:	8d 05 d0 16 a7 98    	lea    0x98a716d0,%eax
  401447:	2d 21 e3 64 98       	sub    $0x9864e321,%eax
  40144c:	50                   	push   %eax
  40144d:	8d 35 c0 16 a7 98    	lea    0x98a716c0,%esi
  401453:	81 ee 21 e3 64 98    	sub    $0x9864e321,%esi
  401459:	56                   	push   %esi
  40145a:	a1 10 f1 41 00       	mov    0x41f110,%eax
  40145f:	ff d0                	call   *%eax
  401461:	18 25 ca 31 42 00    	sbb    %ah,0x4231ca
  401467:	ba 01 00 00 00       	mov    $0x1,%edx
  40146c:	01 c2                	add    %eax,%edx
  40146e:	83 cb 08             	or     $0x8,%ebx
  401471:	83 15 b9 31 42 00 7d 	adcl   $0x7d,0x4231b9
  401478:	09 15 88 31 42 00    	or     %edx,0x423188
  40147e:	8d 0d d0 16 a7 98    	lea    0x98a716d0,%ecx
  401484:	81 e9 21 e3 64 98    	sub    $0x9864e321,%ecx
  40148a:	51                   	push   %ecx
  40148b:	8d 35 c0 16 a7 98    	lea    0x98a716c0,%esi
  401491:	81 ee 21 e3 64 98    	sub    $0x9864e321,%esi
  401497:	56                   	push   %esi
  401498:	a1 10 f1 41 00       	mov    0x41f110,%eax
  40149d:	ff d0                	call   *%eax
  40149f:	8d 1d d0 16 a7 98    	lea    0x98a716d0,%ebx
  4014a5:	81 eb 21 e3 64 98    	sub    $0x9864e321,%ebx
  4014ab:	53                   	push   %ebx
  4014ac:	8d 05 c0 16 a7 98    	lea    0x98a716c0,%eax
  4014b2:	2d 21 e3 64 98       	sub    $0x9864e321,%eax
  4014b7:	50                   	push   %eax
  4014b8:	a1 10 f1 41 00       	mov    0x41f110,%eax
  4014bd:	ff d0                	call   *%eax
  4014bf:	8d 35 b3 16 a7 98    	lea    0x98a716b3,%esi
  4014c5:	81 ee 21 e3 64 98    	sub    $0x9864e321,%esi
  4014cb:	56                   	push   %esi
  4014cc:	6a 01                	push   $0x1
  4014ce:	ff 0c 24             	decl   (%esp)
  4014d1:	68 01 00 10 00       	push   $0x100001
  4014d6:	ff 0c 24             	decl   (%esp)
  4014d9:	a1 e8 f0 41 00       	mov    0x41f0e8,%eax
  4014de:	ff d0                	call   *%eax
  4014e0:	85 c0                	test   %eax,%eax
  4014e2:	0f 85 c0 a4 00 00    	jne    0x40b9a8
  4014e8:	13 35 27 31 42 00    	adc    0x423127,%esi
  4014ee:	13 35 a4 31 42 00    	adc    0x4231a4,%esi
  4014f4:	8d 05 b3 16 a7 98    	lea    0x98a716b3,%eax
  4014fa:	2d 21 e3 64 98       	sub    $0x9864e321,%eax
  4014ff:	50                   	push   %eax
  401500:	6a 01                	push   $0x1
  401502:	ff 0c 24             	decl   (%esp)
  401505:	68 01 00 10 00       	push   $0x100001
  40150a:	ff 0c 24             	decl   (%esp)
  40150d:	a1 e8 f0 41 00       	mov    0x41f0e8,%eax
  401512:	ff d0                	call   *%eax
  401514:	85 c0                	test   %eax,%eax
  401516:	0f 85 8c a4 00 00    	jne    0x40b9a8
  40151c:	ba 01 00 00 00       	mov    $0x1,%edx
  401521:	01 fa                	add    %edi,%edx
  401523:	2e e9 a9 9f 00 00    	cs jmp 0x40b4d2
  401529:	31 3d c5 30 42 00    	xor    %edi,0x4230c5
  40152f:	82 2d 7e 31 42 00 76 	subb   $0x76,0x42317e
	...
  401542:	00 00                	add    %al,(%eax)
  401544:	8d 1d d0 16 a7 98    	lea    0x98a716d0,%ebx
  40154a:	81 eb 21 e3 64 98    	sub    $0x9864e321,%ebx
  401550:	53                   	push   %ebx
  401551:	8d 3d c0 16 a7 98    	lea    0x98a716c0,%edi
  401557:	81 ef 21 e3 64 98    	sub    $0x9864e321,%edi
  40155d:	57                   	push   %edi
  40155e:	a1 10 f1 41 00       	mov    0x41f110,%eax
  401563:	ff d0                	call   *%eax
  401565:	13 05 c4 31 42 00    	adc    0x4231c4,%eax
  40156b:	8d 1d b3 16 a7 98    	lea    0x98a716b3,%ebx
  401571:	81 eb 21 e3 64 98    	sub    $0x9864e321,%ebx
  401577:	53                   	push   %ebx
  401578:	6a 01                	push   $0x1
  40157a:	ff 0c 24             	decl   (%esp)
  40157d:	68 01 00 10 00       	push   $0x100001
  401582:	ff 0c 24             	decl   (%esp)
  401585:	a1 e8 f0 41 00       	mov    0x41f0e8,%eax
  40158a:	ff d0                	call   *%eax
  40158c:	85 c0                	test   %eax,%eax
  40158e:	0f 85 14 a4 00 00    	jne    0x40b9a8
  401594:	13 05 6e 30 42 00    	adc    0x42306e,%eax
  40159a:	8d 15 d0 16 a7 98    	lea    0x98a716d0,%edx
  4015a0:	81 ea 21 e3 64 98    	sub    $0x9864e321,%edx
  4015a6:	52                   	push   %edx
  4015a7:	8d 0d c0 16 a7 98    	lea    0x98a716c0,%ecx
  4015ad:	81 e9 21 e3 64 98    	sub    $0x9864e321,%ecx
  4015b3:	51                   	push   %ecx
  4015b4:	a1 10 f1 41 00       	mov    0x41f110,%eax
  4015b9:	ff d0                	call   *%eax
  4015bb:	09 1d 27 31 42 00    	or     %ebx,0x423127
  4015c1:	2b 3d d8 30 42 00    	sub    0x4230d8,%edi
  4015c7:	8d 05 d0 16 a7 98    	lea    0x98a716d0,%eax
  4015cd:	2d 21 e3 64 98       	sub    $0x9864e321,%eax
  4015d2:	50                   	push   %eax
  4015d3:	8d 15 c0 16 a7 98    	lea    0x98a716c0,%edx
  4015d9:	81 ea 21 e3 64 98    	sub    $0x9864e321,%edx
  4015df:	52                   	push   %edx
  4015e0:	a1 10 f1 41 00       	mov    0x41f110,%eax
  4015e5:	ff d0                	call   *%eax
  4015e7:	8d 1d b3 16 a7 98    	lea    0x98a716b3,%ebx
  4015ed:	81 eb 21 e3 64 98    	sub    $0x9864e321,%ebx
  4015f3:	53                   	push   %ebx
  4015f4:	6a 01                	push   $0x1
  4015f6:	ff 0c 24             	decl   (%esp)
  4015f9:	68 01 00 10 00       	push   $0x100001
  4015fe:	ff 0c 24             	decl   (%esp)
  401601:	a1 e8 f0 41 00       	mov    0x41f0e8,%eax
  401606:	ff d0                	call   *%eax
  401608:	83 f8 00             	cmp    $0x0,%eax
  40160b:	0f 85 97 a3 00 00    	jne    0x40b9a8
  401611:	81 15 61 31 42 00 e7 	adcl   $0xe7,0x423161
  401618:	00 00 00 
  40161b:	8d 35 b3 16 a7 98    	lea    0x98a716b3,%esi
  401621:	81 ee 21 e3 64 98    	sub    $0x9864e321,%esi
  401627:	56                   	push   %esi
  401628:	6a 01                	push   $0x1
  40162a:	ff 0c 24             	decl   (%esp)
  40162d:	68 01 00 10 00       	push   $0x100001
  401632:	ff 0c 24             	decl   (%esp)
  401635:	a1 e8 f0 41 00       	mov    0x41f0e8,%eax
  40163a:	ff d0                	call   *%eax
  40163c:	85 c0                	test   %eax,%eax
  40163e:	0f 85 64 a3 00 00    	jne    0x40b9a8
  401644:	13 1d 0c 32 42 00    	adc    0x42320c,%ebx
  40164a:	81 1d 02 31 42 00 fd 	sbbl   $0xfd,0x423102
  401651:	00 00 00 
  401654:	81 15 0e 32 42 00 82 	adcl   $0x82,0x42320e
  40165b:	00 00 00 
  40165e:	ba 01 00 00 00       	mov    $0x1,%edx
  401663:	01 f2                	add    %esi,%edx
  401665:	b9 01 00 00 00       	mov    $0x1,%ecx
  40166a:	13 0d 59 30 42 00    	adc    0x423059,%ecx
  401670:	8d 05 d0 16 a7 98    	lea    0x98a716d0,%eax
  401676:	2d 21 e3 64 98       	sub    $0x9864e321,%eax
  40167b:	50                   	push   %eax
  40167c:	8d 3d c0 16 a7 98    	lea    0x98a716c0,%edi
  401682:	81 ef 21 e3 64 98    	sub    $0x9864e321,%edi
  401688:	57                   	push   %edi
  401689:	a1 10 f1 41 00       	mov    0x41f110,%eax
  40168e:	ff d0                	call   *%eax
  401690:	b9 01 00 00 00       	mov    $0x1,%ecx
  401695:	13 0d 9b 30 42 00    	adc    0x42309b,%ecx
  40169b:	01 ce                	add    %ecx,%esi
  40169d:	19 c9                	sbb    %ecx,%ecx
  40169f:	83 ef 4f             	sub    $0x4f,%edi
  4016a2:	83 cf 42             	or     $0x42,%edi
  4016a5:	8d 35 b3 16 a7 98    	lea    0x98a716b3,%esi
  4016ab:	81 ee 21 e3 64 98    	sub    $0x9864e321,%esi
  4016b1:	56                   	push   %esi
  4016b2:	6a 01                	push   $0x1
  4016b4:	ff 0c 24             	decl   (%esp)
  4016b7:	68 01 00 10 00       	push   $0x100001
  4016bc:	ff 0c 24             	decl   (%esp)
  4016bf:	a1 e8 f0 41 00       	mov    0x41f0e8,%eax
  4016c4:	ff d0                	call   *%eax
  4016c6:	85 c0                	test   %eax,%eax
  4016c8:	0f 85 da a2 00 00    	jne    0x40b9a8
  4016ce:	b2 01                	mov    $0x1,%dl
  4016d0:	00 fa                	add    %bh,%dl
  4016d2:	8d 3d d0 16 a7 98    	lea    0x98a716d0,%edi
  4016d8:	81 ef 21 e3 64 98    	sub    $0x9864e321,%edi
  4016de:	57                   	push   %edi
  4016df:	8d 15 c0 16 a7 98    	lea    0x98a716c0,%edx
  4016e5:	81 ea 21 e3 64 98    	sub    $0x9864e321,%edx
  4016eb:	52                   	push   %edx
  4016ec:	a1 10 f1 41 00       	mov    0x41f110,%eax
  4016f1:	ff d0                	call   *%eax
  4016f3:	ba 01 00 00 00       	mov    $0x1,%edx
  4016f8:	01 da                	add    %ebx,%edx
  4016fa:	13 3d 17 32 42 00    	adc    0x423217,%edi
  401700:	01 ff                	add    %edi,%edi
  401702:	29 05 a7 31 42 00    	sub    %eax,0x4231a7
  401708:	8d 35 b3 16 a7 98    	lea    0x98a716b3,%esi
  40170e:	81 ee 21 e3 64 98    	sub    $0x9864e321,%esi
  401714:	56                   	push   %esi
  401715:	6a 01                	push   $0x1
  401717:	ff 0c 24             	decl   (%esp)
  40171a:	68 01 00 10 00       	push   $0x100001
  40171f:	ff 0c 24             	decl   (%esp)
  401722:	a1 e8 f0 41 00       	mov    0x41f0e8,%eax
  401727:	ff d0                	call   *%eax
  401729:	83 f8 00             	cmp    $0x0,%eax
  40172c:	0f 85 76 a2 00 00    	jne    0x40b9a8
  401732:	c7 05 c1 31 42 00 9b 	movl   $0x9b,0x4231c1
  401739:	00 00 00 
  40173c:	19 df                	sbb    %ebx,%edi
  40173e:	01 05 f9 30 42 00    	add    %eax,0x4230f9
  401744:	29 f8                	sub    %edi,%eax
  401746:	01 c6                	add    %eax,%esi
  401748:	8d 0d b3 16 a7 98    	lea    0x98a716b3,%ecx
  40174e:	81 e9 21 e3 64 98    	sub    $0x9864e321,%ecx
  401754:	51                   	push   %ecx
  401755:	6a 01                	push   $0x1
  401757:	ff 0c 24             	decl   (%esp)
  40175a:	68 01 00 10 00       	push   $0x100001
  40175f:	ff 0c 24             	decl   (%esp)
  401762:	a1 e8 f0 41 00       	mov    0x41f0e8,%eax
  401767:	ff d0                	call   *%eax
  401769:	83 f8 00             	cmp    $0x0,%eax
  40176c:	0f 85 36 a2 00 00    	jne    0x40b9a8
  401772:	11 05 3a 30 42 00    	adc    %eax,0x42303a
  401778:	8d 05 d0 16 a7 98    	lea    0x98a716d0,%eax
  40177e:	2d 21 e3 64 98       	sub    $0x9864e321,%eax
  401783:	50                   	push   %eax
  401784:	8d 05 c0 16 a7 98    	lea    0x98a716c0,%eax
  40178a:	2d 21 e3 64 98       	sub    $0x9864e321,%eax
  40178f:	50                   	push   %eax
  401790:	a1 10 f1 41 00       	mov    0x41f110,%eax
  401795:	ff d0                	call   *%eax
  401797:	01 05 a6 30 42 00    	add    %eax,0x4230a6
  40179d:	13 35 e8 31 42 00    	adc    0x4231e8,%esi
  4017a3:	12 3d 10 31 42 00    	adc    0x423110,%bh
  4017a9:	2e e9 23 9d 00 00    	cs jmp 0x40b4d2
	...
  4017bb:	81 25 3e 30 42 00 90 	andl   $0x90,0x42303e
  4017c2:	00 00 00 
  4017c5:	b9 01 00 00 00       	mov    $0x1,%ecx
  4017ca:	83 c1 2b             	add    $0x2b,%ecx
  4017cd:	ba 01 00 00 00       	mov    $0x1,%edx
  4017d2:	13 15 82 31 42 00    	adc    0x423182,%edx
  4017d8:	8d 05 d0 16 a7 98    	lea    0x98a716d0,%eax
  4017de:	2d 21 e3 64 98       	sub    $0x9864e321,%eax
  4017e3:	50                   	push   %eax
  4017e4:	8d 05 c0 16 a7 98    	lea    0x98a716c0,%eax
  4017ea:	2d 21 e3 64 98       	sub    $0x9864e321,%eax
  4017ef:	50                   	push   %eax
  4017f0:	a1 10 f1 41 00       	mov    0x41f110,%eax
  4017f5:	ff d0                	call   *%eax
  4017f7:	8d 15 b3 16 a7 98    	lea    0x98a716b3,%edx
  4017fd:	81 ea 21 e3 64 98    	sub    $0x9864e321,%edx
  401803:	52                   	push   %edx
  401804:	6a 01                	push   $0x1
  401806:	ff 0c 24             	decl   (%esp)
  401809:	68 01 00 10 00       	push   $0x100001
  40180e:	ff 0c 24             	decl   (%esp)
  401811:	a1 e8 f0 41 00       	mov    0x41f0e8,%eax
  401816:	ff d0                	call   *%eax
  401818:	83 f8 00             	cmp    $0x0,%eax
  40181b:	0f 85 87 a1 00 00    	jne    0x40b9a8
  401821:	13 35 75 30 42 00    	adc    0x423075,%esi
  401827:	82 f7 43             	xor    $0x43,%bh
  40182a:	01 35 72 30 42 00    	add    %esi,0x423072
  401830:	ba 01 00 00 00       	mov    $0x1,%edx
  401835:	01 da                	add    %ebx,%edx
  401837:	8d 3d d0 16 a7 98    	lea    0x98a716d0,%edi
  40183d:	81 ef 21 e3 64 98    	sub    $0x9864e321,%edi
  401843:	57                   	push   %edi
  401844:	8d 35 c0 16 a7 98    	lea    0x98a716c0,%esi
  40184a:	81 ee 21 e3 64 98    	sub    $0x9864e321,%esi
  401850:	56                   	push   %esi
  401851:	a1 10 f1 41 00       	mov    0x41f110,%eax
  401856:	ff d0                	call   *%eax
  401858:	83 15 59 30 42 00 2d 	adcl   $0x2d,0x423059
  40185f:	b9 01 00 00 00       	mov    $0x1,%ecx
  401864:	13 0d f2 31 42 00    	adc    0x4231f2,%ecx
  40186a:	8d 35 d0 16 a7 98    	lea    0x98a716d0,%esi
  401870:	81 ee 21 e3 64 98    	sub    $0x9864e321,%esi
  401876:	56                   	push   %esi
  401877:	8d 35 c0 16 a7 98    	lea    0x98a716c0,%esi
  40187d:	81 ee 21 e3 64 98    	sub    $0x9864e321,%esi
  401883:	56                   	push   %esi
  401884:	a1 10 f1 41 00       	mov    0x41f110,%eax
  401889:	ff d0                	call   *%eax
  40188b:	ba 01 00 00 00       	mov    $0x1,%edx
  401890:	01 c2                	add    %eax,%edx
  401892:	b9 01 00 00 00       	mov    $0x1,%ecx
  401897:	01 c1                	add    %eax,%ecx
  401899:	8d 05 d0 16 a7 98    	lea    0x98a716d0,%eax
  40189f:	2d 21 e3 64 98       	sub    $0x9864e321,%eax
  4018a4:	50                   	push   %eax
  4018a5:	8d 0d c0 16 a7 98    	lea    0x98a716c0,%ecx
  4018ab:	81 e9 21 e3 64 98    	sub    $0x9864e321,%ecx
  4018b1:	51                   	push   %ecx
  4018b2:	a1 10 f1 41 00       	mov    0x41f110,%eax
  4018b7:	ff d0                	call   *%eax
  4018b9:	8d 05 b3 16 a7 98    	lea    0x98a716b3,%eax
  4018bf:	2d 21 e3 64 98       	sub    $0x9864e321,%eax
  4018c4:	50                   	push   %eax
  4018c5:	6a 01                	push   $0x1
  4018c7:	ff 0c 24             	decl   (%esp)
  4018ca:	68 01 00 10 00       	push   $0x100001
  4018cf:	ff 0c 24             	decl   (%esp)
  4018d2:	a1 e8 f0 41 00       	mov    0x41f0e8,%eax
  4018d7:	ff d0                	call   *%eax
  4018d9:	85 c0                	test   %eax,%eax
  4018db:	0f 85 c7 a0 00 00    	jne    0x40b9a8
  4018e1:	13 1d 03 31 42 00    	adc    0x423103,%ebx
  4018e7:	8d 0d d0 16 a7 98    	lea    0x98a716d0,%ecx
  4018ed:	81 e9 21 e3 64 98    	sub    $0x9864e321,%ecx
  4018f3:	51                   	push   %ecx
  4018f4:	8d 15 c0 16 a7 98    	lea    0x98a716c0,%edx
  4018fa:	81 ea 21 e3 64 98    	sub    $0x9864e321,%edx
  401900:	52                   	push   %edx
  401901:	a1 10 f1 41 00       	mov    0x41f110,%eax
  401906:	ff d0                	call   *%eax
  401908:	8d 15 d0 16 a7 98    	lea    0x98a716d0,%edx
  40190e:	81 ea 21 e3 64 98    	sub    $0x9864e321,%edx
  401914:	52                   	push   %edx
  401915:	8d 0d c0 16 a7 98    	lea    0x98a716c0,%ecx
  40191b:	81 e9 21 e3 64 98    	sub    $0x9864e321,%ecx
  401921:	51                   	push   %ecx
  401922:	a1 10 f1 41 00       	mov    0x41f110,%eax
  401927:	ff d0                	call   *%eax
  401929:	13 1d 33 30 42 00    	adc    0x423033,%ebx
  40192f:	8d 35 b3 16 a7 98    	lea    0x98a716b3,%esi
  401935:	81 ee 21 e3 64 98    	sub    $0x9864e321,%esi
  40193b:	56                   	push   %esi
  40193c:	6a 01                	push   $0x1
  40193e:	ff 0c 24             	decl   (%esp)
  401941:	68 01 00 10 00       	push   $0x100001
  401946:	ff 0c 24             	decl   (%esp)
  401949:	a1 e8 f0 41 00       	mov    0x41f0e8,%eax
  40194e:	ff d0                	call   *%eax
  401950:	83 f8 00             	cmp    $0x0,%eax
  401953:	0f 85 4f a0 00 00    	jne    0x40b9a8
  401959:	b9 01 00 00 00       	mov    $0x1,%ecx
  40195e:	13 0d 48 31 42 00    	adc    0x423148,%ecx
  401964:	01 35 ad 30 42 00    	add    %esi,0x4230ad
  40196a:	01 c0                	add    %eax,%eax
  40196c:	8d 15 b3 16 a7 98    	lea    0x98a716b3,%edx
  401972:	81 ea 21 e3 64 98    	sub    $0x9864e321,%edx
  401978:	52                   	push   %edx
  401979:	6a 01                	push   $0x1
  40197b:	ff 0c 24             	decl   (%esp)
  40197e:	68 01 00 10 00       	push   $0x100001
  401983:	ff 0c 24             	decl   (%esp)
  401986:	a1 e8 f0 41 00       	mov    0x41f0e8,%eax
  40198b:	ff d0                	call   *%eax
  40198d:	83 f8 00             	cmp    $0x0,%eax
  401990:	0f 85 12 a0 00 00    	jne    0x40b9a8
  401996:	ba 01 00 00 00       	mov    $0x1,%edx
  40199b:	13 15 73 30 42 00    	adc    0x423073,%edx
  4019a1:	31 d7                	xor    %edx,%edi
  4019a3:	00 35 85 31 42 00    	add    %dh,0x423185
  4019a9:	01 c0                	add    %eax,%eax
  4019ab:	19 3d a7 31 42 00    	sbb    %edi,0x4231a7
  4019b1:	8d 3d d0 16 a7 98    	lea    0x98a716d0,%edi
  4019b7:	81 ef 21 e3 64 98    	sub    $0x9864e321,%edi
  4019bd:	57                   	push   %edi
  4019be:	8d 0d c0 16 a7 98    	lea    0x98a716c0,%ecx
  4019c4:	81 e9 21 e3 64 98    	sub    $0x9864e321,%ecx
  4019ca:	51                   	push   %ecx
  4019cb:	a1 10 f1 41 00       	mov    0x41f110,%eax
  4019d0:	ff d0                	call   *%eax
  4019d2:	c7 05 17 31 42 00 0f 	movl   $0xf,0x423117
  4019d9:	00 00 00 
  4019dc:	b9 01 00 00 00       	mov    $0x1,%ecx
  4019e1:	83 c1 c1             	add    $0xffffffc1,%ecx
  4019e4:	83 f6 a6             	xor    $0xffffffa6,%esi
  4019e7:	ba 01 00 00 00       	mov    $0x1,%edx
  4019ec:	01 ca                	add    %ecx,%edx
  4019ee:	2e e9 de 9a 00 00    	cs jmp 0x40b4d2
  4019f4:	83 ca 5d             	or     $0x5d,%edx
	...
  401a03:	00 31                	add    %dh,(%ecx)
  401a05:	df b6 01 00 c6 31    	fbstp  0x31c60001(%esi)
  401a0b:	05 9a 30 42 00       	add    $0x42309a,%eax
  401a10:	01 fb                	add    %edi,%ebx
  401a12:	01 f7                	add    %esi,%edi
  401a14:	8d 15 d0 16 a7 98    	lea    0x98a716d0,%edx
  401a1a:	81 ea 21 e3 64 98    	sub    $0x9864e321,%edx
  401a20:	52                   	push   %edx
  401a21:	8d 1d c0 16 a7 98    	lea    0x98a716c0,%ebx
  401a27:	81 eb 21 e3 64 98    	sub    $0x9864e321,%ebx
  401a2d:	53                   	push   %ebx
  401a2e:	a1 10 f1 41 00       	mov    0x41f110,%eax
  401a33:	ff d0                	call   *%eax
  401a35:	83 ee 66             	sub    $0x66,%esi
  401a38:	13 05 5a 31 42 00    	adc    0x42315a,%eax
  401a3e:	81 15 49 31 42 00 88 	adcl   $0x88,0x423149
  401a45:	00 00 00 
  401a48:	31 de                	xor    %ebx,%esi
  401a4a:	81 15 eb 30 42 00 b8 	adcl   $0xb8,0x4230eb
  401a51:	00 00 00 
  401a54:	8d 1d b3 16 a7 98    	lea    0x98a716b3,%ebx
  401a5a:	81 eb 21 e3 64 98    	sub    $0x9864e321,%ebx
  401a60:	53                   	push   %ebx
  401a61:	6a 01                	push   $0x1
  401a63:	ff 0c 24             	decl   (%esp)
  401a66:	68 01 00 10 00       	push   $0x100001
  401a6b:	ff 0c 24             	decl   (%esp)
  401a6e:	a1 e8 f0 41 00       	mov    0x41f0e8,%eax
  401a73:	ff d0                	call   *%eax
  401a75:	85 c0                	test   %eax,%eax
  401a77:	0f 85 2b 9f 00 00    	jne    0x40b9a8
  401a7d:	13 35 7c 31 42 00    	adc    0x42317c,%esi
  401a83:	83 15 fc 30 42 00 09 	adcl   $0x9,0x4230fc
  401a8a:	8d 0d b3 16 a7 98    	lea    0x98a716b3,%ecx
  401a90:	81 e9 21 e3 64 98    	sub    $0x9864e321,%ecx
  401a96:	51                   	push   %ecx
  401a97:	6a 01                	push   $0x1
  401a99:	ff 0c 24             	decl   (%esp)
  401a9c:	68 01 00 10 00       	push   $0x100001
  401aa1:	ff 0c 24             	decl   (%esp)
  401aa4:	a1 e8 f0 41 00       	mov    0x41f0e8,%eax
  401aa9:	ff d0                	call   *%eax
  401aab:	83 f8 00             	cmp    $0x0,%eax
  401aae:	0f 85 f4 9e 00 00    	jne    0x40b9a8
  401ab4:	31 1d 40 31 42 00    	xor    %ebx,0x423140
  401aba:	83 e8 a7             	sub    $0xffffffa7,%eax
  401abd:	8d 15 d0 16 a7 98    	lea    0x98a716d0,%edx
  401ac3:	81 ea 21 e3 64 98    	sub    $0x9864e321,%edx
  401ac9:	52                   	push   %edx
  401aca:	8d 35 c0 16 a7 98    	lea    0x98a716c0,%esi
  401ad0:	81 ee 21 e3 64 98    	sub    $0x9864e321,%esi
  401ad6:	56                   	push   %esi
  401ad7:	a1 10 f1 41 00       	mov    0x41f110,%eax
  401adc:	ff d0                	call   *%eax
  401ade:	8d 15 d0 16 a7 98    	lea    0x98a716d0,%edx
  401ae4:	81 ea 21 e3 64 98    	sub    $0x9864e321,%edx
  401aea:	52                   	push   %edx
  401aeb:	8d 05 c0 16 a7 98    	lea    0x98a716c0,%eax
  401af1:	2d 21 e3 64 98       	sub    $0x9864e321,%eax
  401af6:	50                   	push   %eax
  401af7:	a1 10 f1 41 00       	mov    0x41f110,%eax
  401afc:	ff d0                	call   *%eax
  401afe:	8d 35 d0 16 a7 98    	lea    0x98a716d0,%esi
  401b04:	81 ee 21 e3 64 98    	sub    $0x9864e321,%esi
  401b0a:	56                   	push   %esi
  401b0b:	8d 15 c0 16 a7 98    	lea    0x98a716c0,%edx
  401b11:	81 ea 21 e3 64 98    	sub    $0x9864e321,%edx
  401b17:	52                   	push   %edx
  401b18:	a1 10 f1 41 00       	mov    0x41f110,%eax
  401b1d:	ff d0                	call   *%eax
  401b1f:	c7 05 36 30 42 00 4b 	movl   $0x4b,0x423036
  401b26:	00 00 00 
  401b29:	8d 05 d0 16 a7 98    	lea    0x98a716d0,%eax
  401b2f:	2d 21 e3 64 98       	sub    $0x9864e321,%eax
  401b34:	50                   	push   %eax
  401b35:	8d 0d c0 16 a7 98    	lea    0x98a716c0,%ecx
  401b3b:	81 e9 21 e3 64 98    	sub    $0x9864e321,%ecx
  401b41:	51                   	push   %ecx
  401b42:	a1 10 f1 41 00       	mov    0x41f110,%eax
  401b47:	ff d0                	call   *%eax
  401b49:	8d 0d d0 16 a7 98    	lea    0x98a716d0,%ecx
  401b4f:	81 e9 21 e3 64 98    	sub    $0x9864e321,%ecx
  401b55:	51                   	push   %ecx
  401b56:	8d 15 c0 16 a7 98    	lea    0x98a716c0,%edx
  401b5c:	81 ea 21 e3 64 98    	sub    $0x9864e321,%edx
  401b62:	52                   	push   %edx
  401b63:	a1 10 f1 41 00       	mov    0x41f110,%eax
  401b68:	ff d0                	call   *%eax
  401b6a:	ba 01 00 00 00       	mov    $0x1,%edx
  401b6f:	13 15 34 31 42 00    	adc    0x423134,%edx
  401b75:	01 f7                	add    %esi,%edi
  401b77:	8d 1d d0 16 a7 98    	lea    0x98a716d0,%ebx
  401b7d:	81 eb 21 e3 64 98    	sub    $0x9864e321,%ebx
  401b83:	53                   	push   %ebx
  401b84:	8d 3d c0 16 a7 98    	lea    0x98a716c0,%edi
  401b8a:	81 ef 21 e3 64 98    	sub    $0x9864e321,%edi
  401b90:	57                   	push   %edi
  401b91:	a1 10 f1 41 00       	mov    0x41f110,%eax
  401b96:	ff d0                	call   *%eax
  401b98:	29 c0                	sub    %eax,%eax
  401b9a:	83 ef 56             	sub    $0x56,%edi
  401b9d:	01 05 4e 30 42 00    	add    %eax,0x42304e
  401ba3:	8d 15 b3 16 a7 98    	lea    0x98a716b3,%edx
  401ba9:	81 ea 21 e3 64 98    	sub    $0x9864e321,%edx
  401baf:	52                   	push   %edx
  401bb0:	6a 01                	push   $0x1
  401bb2:	ff 0c 24             	decl   (%esp)
  401bb5:	68 01 00 10 00       	push   $0x100001
  401bba:	ff 0c 24             	decl   (%esp)
  401bbd:	a1 e8 f0 41 00       	mov    0x41f0e8,%eax
  401bc2:	ff d0                	call   *%eax
  401bc4:	83 f8 00             	cmp    $0x0,%eax
  401bc7:	0f 85 db 9d 00 00    	jne    0x40b9a8
  401bcd:	81 15 10 32 42 00 ae 	adcl   $0xae,0x423210
  401bd4:	00 00 00 
  401bd7:	8d 15 b3 16 a7 98    	lea    0x98a716b3,%edx
  401bdd:	81 ea 21 e3 64 98    	sub    $0x9864e321,%edx
  401be3:	52                   	push   %edx
  401be4:	6a 01                	push   $0x1
  401be6:	ff 0c 24             	decl   (%esp)
  401be9:	68 01 00 10 00       	push   $0x100001
  401bee:	ff 0c 24             	decl   (%esp)
  401bf1:	a1 e8 f0 41 00       	mov    0x41f0e8,%eax
  401bf6:	ff d0                	call   *%eax
  401bf8:	83 f8 00             	cmp    $0x0,%eax
  401bfb:	0f 85 a7 9d 00 00    	jne    0x40b9a8
  401c01:	b9 01 00 00 00       	mov    $0x1,%ecx
  401c06:	01 d9                	add    %ebx,%ecx
  401c08:	83 f1 e9             	xor    $0xffffffe9,%ecx
  401c0b:	81 1d f2 31 42 00 e4 	sbbl   $0xe4,0x4231f2
  401c12:	00 00 00 
  401c15:	2e e9 b7 98 00 00    	cs jmp 0x40b4d2
  401c1b:	ba 01 00 00 00       	mov    $0x1,%edx
  401c20:	01 c2                	add    %eax,%edx
  401c22:	83 d1 f5             	adc    $0xfffffff5,%ecx
  401c25:	13 0d c4 30 42 00    	adc    0x4230c4,%ecx
  401c2b:	81 1d 83 30 42 00 e0 	sbbl   $0xe0,0x423083
  401c32:	00 00 00 
  401c35:	00 00                	add    %al,(%eax)
  401c37:	8d 1d d0 16 a7 98    	lea    0x98a716d0,%ebx
  401c3d:	81 eb 21 e3 64 98    	sub    $0x9864e321,%ebx
  401c43:	53                   	push   %ebx
  401c44:	8d 15 c0 16 a7 98    	lea    0x98a716c0,%edx
  401c4a:	81 ea 21 e3 64 98    	sub    $0x9864e321,%edx
  401c50:	52                   	push   %edx
  401c51:	a1 10 f1 41 00       	mov    0x41f110,%eax
  401c56:	ff d0                	call   *%eax
  401c58:	8d 05 b3 16 a7 98    	lea    0x98a716b3,%eax
  401c5e:	2d 21 e3 64 98       	sub    $0x9864e321,%eax
  401c63:	50                   	push   %eax
  401c64:	6a 01                	push   $0x1
  401c66:	ff 0c 24             	decl   (%esp)
  401c69:	68 01 00 10 00       	push   $0x100001
  401c6e:	ff 0c 24             	decl   (%esp)
  401c71:	a1 e8 f0 41 00       	mov    0x41f0e8,%eax
  401c76:	ff d0                	call   *%eax
  401c78:	85 c0                	test   %eax,%eax
  401c7a:	0f 85 28 9d 00 00    	jne    0x40b9a8
  401c80:	01 1d b3 30 42 00    	add    %ebx,0x4230b3
  401c86:	11 35 e7 30 42 00    	adc    %esi,0x4230e7
  401c8c:	01 c0                	add    %eax,%eax
  401c8e:	8d 3d b3 16 a7 98    	lea    0x98a716b3,%edi
  401c94:	81 ef 21 e3 64 98    	sub    $0x9864e321,%edi
  401c9a:	57                   	push   %edi
  401c9b:	6a 01                	push   $0x1
  401c9d:	ff 0c 24             	decl   (%esp)
  401ca0:	68 01 00 10 00       	push   $0x100001
  401ca5:	ff 0c 24             	decl   (%esp)
  401ca8:	a1 e8 f0 41 00       	mov    0x41f0e8,%eax
  401cad:	ff d0                	call   *%eax
  401caf:	85 c0                	test   %eax,%eax
  401cb1:	0f 85 f1 9c 00 00    	jne    0x40b9a8
  401cb7:	01 05 2f 31 42 00    	add    %eax,0x42312f
  401cbd:	20 05 1f 32 42 00    	and    %al,0x42321f
  401cc3:	83 de c0             	sbb    $0xffffffc0,%esi
  401cc6:	19 c7                	sbb    %eax,%edi
  401cc8:	8d 0d d0 16 a7 98    	lea    0x98a716d0,%ecx
  401cce:	81 e9 21 e3 64 98    	sub    $0x9864e321,%ecx
  401cd4:	51                   	push   %ecx
  401cd5:	8d 15 c0 16 a7 98    	lea    0x98a716c0,%edx
  401cdb:	81 ea 21 e3 64 98    	sub    $0x9864e321,%edx
  401ce1:	52                   	push   %edx
  401ce2:	a1 10 f1 41 00       	mov    0x41f110,%eax
  401ce7:	ff d0                	call   *%eax
  401ce9:	8d 05 d0 16 a7 98    	lea    0x98a716d0,%eax
  401cef:	2d 21 e3 64 98       	sub    $0x9864e321,%eax
  401cf4:	50                   	push   %eax
  401cf5:	8d 1d c0 16 a7 98    	lea    0x98a716c0,%ebx
  401cfb:	81 eb 21 e3 64 98    	sub    $0x9864e321,%ebx
  401d01:	53                   	push   %ebx
  401d02:	a1 10 f1 41 00       	mov    0x41f110,%eax
  401d07:	ff d0                	call   *%eax
  401d09:	00 db                	add    %bl,%bl
  401d0b:	83 15 d7 31 42 00 31 	adcl   $0x31,0x4231d7
  401d12:	b9 01 00 00 00       	mov    $0x1,%ecx
  401d17:	13 0d 0e 31 42 00    	adc    0x42310e,%ecx
  401d1d:	29 f8                	sub    %edi,%eax
  401d1f:	c7 05 1c 32 42 00 f2 	movl   $0xf2,0x42321c
  401d26:	00 00 00 
  401d29:	8d 15 b3 16 a7 98    	lea    0x98a716b3,%edx
  401d2f:	81 ea 21 e3 64 98    	sub    $0x9864e321,%edx
  401d35:	52                   	push   %edx
  401d36:	6a 01                	push   $0x1
  401d38:	ff 0c 24             	decl   (%esp)
  401d3b:	68 01 00 10 00       	push   $0x100001
  401d40:	ff 0c 24             	decl   (%esp)
  401d43:	a1 e8 f0 41 00       	mov    0x41f0e8,%eax
  401d48:	ff d0                	call   *%eax
  401d4a:	83 f8 00             	cmp    $0x0,%eax
  401d4d:	0f 85 55 9c 00 00    	jne    0x40b9a8
  401d53:	83 35 93 30 42 00 10 	xorl   $0x10,0x423093
  401d5a:	09 35 03 31 42 00    	or     %esi,0x423103
  401d60:	29 f8                	sub    %edi,%eax
  401d62:	8d 3d b3 16 a7 98    	lea    0x98a716b3,%edi
  401d68:	81 ef 21 e3 64 98    	sub    $0x9864e321,%edi
  401d6e:	57                   	push   %edi
  401d6f:	6a 01                	push   $0x1
  401d71:	ff 0c 24             	decl   (%esp)
  401d74:	68 01 00 10 00       	push   $0x100001
  401d79:	ff 0c 24             	decl   (%esp)
  401d7c:	a1 e8 f0 41 00       	mov    0x41f0e8,%eax
  401d81:	ff d0                	call   *%eax
  401d83:	83 f8 00             	cmp    $0x0,%eax
  401d86:	0f 85 1c 9c 00 00    	jne    0x40b9a8
  401d8c:	21 35 f1 31 42 00    	and    %esi,0x4231f1
  401d92:	31 fb                	xor    %edi,%ebx
  401d94:	8d 35 b3 16 a7 98    	lea    0x98a716b3,%esi
  401d9a:	81 ee 21 e3 64 98    	sub    $0x9864e321,%esi
  401da0:	56                   	push   %esi
  401da1:	6a 01                	push   $0x1
  401da3:	ff 0c 24             	decl   (%esp)
  401da6:	68 01 00 10 00       	push   $0x100001
  401dab:	ff 0c 24             	decl   (%esp)
  401dae:	a1 e8 f0 41 00       	mov    0x41f0e8,%eax
  401db3:	ff d0                	call   *%eax
  401db5:	83 f8 00             	cmp    $0x0,%eax
  401db8:	0f 85 ea 9b 00 00    	jne    0x40b9a8
  401dbe:	21 05 dd 30 42 00    	and    %eax,0x4230dd
  401dc4:	01 35 81 31 42 00    	add    %esi,0x423181
  401dca:	19 3d b6 31 42 00    	sbb    %edi,0x4231b6
  401dd0:	8d 3d d0 16 a7 98    	lea    0x98a716d0,%edi
  401dd6:	81 ef 21 e3 64 98    	sub    $0x9864e321,%edi
  401ddc:	57                   	push   %edi
  401ddd:	8d 15 c0 16 a7 98    	lea    0x98a716c0,%edx
  401de3:	81 ea 21 e3 64 98    	sub    $0x9864e321,%edx
  401de9:	52                   	push   %edx
  401dea:	a1 10 f1 41 00       	mov    0x41f110,%eax
  401def:	ff d0                	call   *%eax
  401df1:	00 3d 8d 31 42 00    	add    %bh,0x42318d
  401df7:	19 f7                	sbb    %esi,%edi
  401df9:	83 25 da 30 42 00 4f 	andl   $0x4f,0x4230da
  401e00:	8d 35 d0 16 a7 98    	lea    0x98a716d0,%esi
  401e06:	81 ee 21 e3 64 98    	sub    $0x9864e321,%esi
  401e0c:	56                   	push   %esi
  401e0d:	8d 0d c0 16 a7 98    	lea    0x98a716c0,%ecx
  401e13:	81 e9 21 e3 64 98    	sub    $0x9864e321,%ecx
  401e19:	51                   	push   %ecx
  401e1a:	a1 10 f1 41 00       	mov    0x41f110,%eax
  401e1f:	ff d0                	call   *%eax
  401e21:	01 c7                	add    %eax,%edi
  401e23:	13 35 4a 31 42 00    	adc    0x42314a,%esi
  401e29:	28 25 70 31 42 00    	sub    %ah,0x423170
  401e2f:	13 05 a3 31 42 00    	adc    0x4231a3,%eax
  401e35:	8d 1d b3 16 a7 98    	lea    0x98a716b3,%ebx
  401e3b:	81 eb 21 e3 64 98    	sub    $0x9864e321,%ebx
  401e41:	53                   	push   %ebx
  401e42:	6a 01                	push   $0x1
  401e44:	ff 0c 24             	decl   (%esp)
  401e47:	68 01 00 10 00       	push   $0x100001
  401e4c:	ff 0c 24             	decl   (%esp)
  401e4f:	a1 e8 f0 41 00       	mov    0x41f0e8,%eax
  401e54:	ff d0                	call   *%eax
  401e56:	83 f8 00             	cmp    $0x0,%eax
  401e59:	0f 85 49 9b 00 00    	jne    0x40b9a8
  401e5f:	19 de                	sbb    %ebx,%esi
  401e61:	2e e9 6b 96 00 00    	cs jmp 0x40b4d2
  401e67:	b9 01 00 00 00       	mov    $0x1,%ecx
  401e6c:	13 0d 48 31 42 00    	adc    0x423148,%ecx
  401e72:	31 f8                	xor    %edi,%eax
  401e74:	19 05 ff 31 42 00    	sbb    %eax,0x4231ff
  401e7a:	83 c8 45             	or     $0x45,%eax
  401e7d:	00 00                	add    %al,(%eax)
  401e7f:	00 00                	add    %al,(%eax)
  401e81:	00 00                	add    %al,(%eax)
  401e83:	00 83 25 56 31 42    	add    %al,0x42315625(%ebx)
  401e89:	00 62 12             	add    %ah,0x12(%edx)
  401e8c:	1d 88 31 42 00       	sbb    $0x423188,%eax
  401e91:	83 f7 ee             	xor    $0xffffffee,%edi
  401e94:	83 f3 52             	xor    $0x52,%ebx
  401e97:	c7 05 8f 30 42 00 57 	movl   $0x57,0x42308f
  401e9e:	00 00 00 
  401ea1:	8d 05 b3 16 a7 98    	lea    0x98a716b3,%eax
  401ea7:	2d 21 e3 64 98       	sub    $0x9864e321,%eax
  401eac:	50                   	push   %eax
  401ead:	6a 01                	push   $0x1
  401eaf:	ff 0c 24             	decl   (%esp)
  401eb2:	68 01 00 10 00       	push   $0x100001
  401eb7:	ff 0c 24             	decl   (%esp)
  401eba:	a1 e8 f0 41 00       	mov    0x41f0e8,%eax
  401ebf:	ff d0                	call   *%eax
  401ec1:	83 f8 00             	cmp    $0x0,%eax
  401ec4:	0f 85 de 9a 00 00    	jne    0x40b9a8
  401eca:	8d 35 d0 16 a7 98    	lea    0x98a716d0,%esi
  401ed0:	81 ee 21 e3 64 98    	sub    $0x9864e321,%esi
  401ed6:	56                   	push   %esi
  401ed7:	8d 05 c0 16 a7 98    	lea    0x98a716c0,%eax
  401edd:	2d 21 e3 64 98       	sub    $0x9864e321,%eax
  401ee2:	50                   	push   %eax
  401ee3:	a1 10 f1 41 00       	mov    0x41f110,%eax
  401ee8:	ff d0                	call   *%eax
  401eea:	31 3d 0a 31 42 00    	xor    %edi,0x42310a
  401ef0:	8d 1d b3 16 a7 98    	lea    0x98a716b3,%ebx
  401ef6:	81 eb 21 e3 64 98    	sub    $0x9864e321,%ebx
  401efc:	53                   	push   %ebx
  401efd:	6a 01                	push   $0x1
  401eff:	ff 0c 24             	decl   (%esp)
  401f02:	68 01 00 10 00       	push   $0x100001
  401f07:	ff 0c 24             	decl   (%esp)
  401f0a:	a1 e8 f0 41 00       	mov    0x41f0e8,%eax
  401f0f:	ff d0                	call   *%eax
  401f11:	85 c0                	test   %eax,%eax
  401f13:	0f 85 8f 9a 00 00    	jne    0x40b9a8
  401f19:	13 35 9d 31 42 00    	adc    0x42319d,%esi
  401f1f:	13 3d ae 31 42 00    	adc    0x4231ae,%edi
  401f25:	01 f6                	add    %esi,%esi
  401f27:	8d 05 d0 16 a7 98    	lea    0x98a716d0,%eax
  401f2d:	2d 21 e3 64 98       	sub    $0x9864e321,%eax
  401f32:	50                   	push   %eax
  401f33:	8d 1d c0 16 a7 98    	lea    0x98a716c0,%ebx
  401f39:	81 eb 21 e3 64 98    	sub    $0x9864e321,%ebx
  401f3f:	53                   	push   %ebx
  401f40:	a1 10 f1 41 00       	mov    0x41f110,%eax
  401f45:	ff d0                	call   *%eax
  401f47:	8d 1d d0 16 a7 98    	lea    0x98a716d0,%ebx
  401f4d:	81 eb 21 e3 64 98    	sub    $0x9864e321,%ebx
  401f53:	53                   	push   %ebx
  401f54:	8d 0d c0 16 a7 98    	lea    0x98a716c0,%ecx
  401f5a:	81 e9 21 e3 64 98    	sub    $0x9864e321,%ecx
  401f60:	51                   	push   %ecx
  401f61:	a1 10 f1 41 00       	mov    0x41f110,%eax
  401f66:	ff d0                	call   *%eax
  401f68:	8d 35 d0 16 a7 98    	lea    0x98a716d0,%esi
  401f6e:	81 ee 21 e3 64 98    	sub    $0x9864e321,%esi
  401f74:	56                   	push   %esi
  401f75:	8d 3d c0 16 a7 98    	lea    0x98a716c0,%edi
  401f7b:	81 ef 21 e3 64 98    	sub    $0x9864e321,%edi
  401f81:	57                   	push   %edi
  401f82:	a1 10 f1 41 00       	mov    0x41f110,%eax
  401f87:	ff d0                	call   *%eax
  401f89:	21 3d 62 31 42 00    	and    %edi,0x423162
  401f8f:	b9 01 00 00 00       	mov    $0x1,%ecx
  401f94:	01 f1                	add    %esi,%ecx
  401f96:	81 1d 01 32 42 00 a9 	sbbl   $0xa9,0x423201
  401f9d:	00 00 00 
  401fa0:	8d 0d d0 16 a7 98    	lea    0x98a716d0,%ecx
  401fa6:	81 e9 21 e3 64 98    	sub    $0x9864e321,%ecx
  401fac:	51                   	push   %ecx
  401fad:	8d 05 c0 16 a7 98    	lea    0x98a716c0,%eax
  401fb3:	2d 21 e3 64 98       	sub    $0x9864e321,%eax
  401fb8:	50                   	push   %eax
  401fb9:	a1 10 f1 41 00       	mov    0x41f110,%eax
  401fbe:	ff d0                	call   *%eax
  401fc0:	19 c6                	sbb    %eax,%esi
  401fc2:	01 3d 5f 31 42 00    	add    %edi,0x42315f
  401fc8:	81 15 19 32 42 00 af 	adcl   $0xaf,0x423219
  401fcf:	00 00 00 
  401fd2:	82 2d 5c 31 42 00 33 	subb   $0x33,0x42315c
  401fd9:	8d 05 b3 16 a7 98    	lea    0x98a716b3,%eax
  401fdf:	2d 21 e3 64 98       	sub    $0x9864e321,%eax
  401fe4:	50                   	push   %eax
  401fe5:	6a 01                	push   $0x1
  401fe7:	ff 0c 24             	decl   (%esp)
  401fea:	68 01 00 10 00       	push   $0x100001
  401fef:	ff 0c 24             	decl   (%esp)
  401ff2:	a1 e8 f0 41 00       	mov    0x41f0e8,%eax
  401ff7:	ff d0                	call   *%eax
  401ff9:	83 f8 00             	cmp    $0x0,%eax
  401ffc:	0f 85 a6 99 00 00    	jne    0x40b9a8
  402002:	00 e0                	add    %ah,%al
  402004:	8d 0d d0 16 a7 98    	lea    0x98a716d0,%ecx
  40200a:	81 e9 21 e3 64 98    	sub    $0x9864e321,%ecx
  402010:	51                   	push   %ecx
  402011:	8d 35 c0 16 a7 98    	lea    0x98a716c0,%esi
  402017:	81 ee 21 e3 64 98    	sub    $0x9864e321,%esi
  40201d:	56                   	push   %esi
  40201e:	a1 10 f1 41 00       	mov    0x41f110,%eax
  402023:	ff d0                	call   *%eax
  402025:	01 05 79 31 42 00    	add    %eax,0x423179
  40202b:	81 15 07 32 42 00 fd 	adcl   $0xfd,0x423207
  402032:	00 00 00 
  402035:	81 35 33 31 42 00 c8 	xorl   $0xc8,0x423133
  40203c:	00 00 00 
  40203f:	8d 05 d0 16 a7 98    	lea    0x98a716d0,%eax
  402045:	2d 21 e3 64 98       	sub    $0x9864e321,%eax
  40204a:	50                   	push   %eax
  40204b:	8d 35 c0 16 a7 98    	lea    0x98a716c0,%esi
  402051:	81 ee 21 e3 64 98    	sub    $0x9864e321,%esi
  402057:	56                   	push   %esi
  402058:	a1 10 f1 41 00       	mov    0x41f110,%eax
  40205d:	ff d0                	call   *%eax
  40205f:	8d 35 b3 16 a7 98    	lea    0x98a716b3,%esi
  402065:	81 ee 21 e3 64 98    	sub    $0x9864e321,%esi
  40206b:	56                   	push   %esi
  40206c:	6a 01                	push   $0x1
  40206e:	ff 0c 24             	decl   (%esp)
  402071:	68 01 00 10 00       	push   $0x100001
  402076:	ff 0c 24             	decl   (%esp)
  402079:	a1 e8 f0 41 00       	mov    0x41f0e8,%eax
  40207e:	ff d0                	call   *%eax
  402080:	83 f8 00             	cmp    $0x0,%eax
  402083:	0f 85 1f 99 00 00    	jne    0x40b9a8
  402089:	b9 01 00 00 00       	mov    $0x1,%ecx
  40208e:	83 c1 06             	add    $0x6,%ecx
  402091:	8d 15 d0 16 a7 98    	lea    0x98a716d0,%edx
  402097:	81 ea 21 e3 64 98    	sub    $0x9864e321,%edx
  40209d:	52                   	push   %edx
  40209e:	8d 35 c0 16 a7 98    	lea    0x98a716c0,%esi
  4020a4:	81 ee 21 e3 64 98    	sub    $0x9864e321,%esi
  4020aa:	56                   	push   %esi
  4020ab:	a1 10 f1 41 00       	mov    0x41f110,%eax
  4020b0:	ff d0                	call   *%eax
  4020b2:	c7 05 9e 31 42 00 c9 	movl   $0xc9,0x42319e
  4020b9:	00 00 00 
  4020bc:	01 df                	add    %ebx,%edi
  4020be:	83 f0 24             	xor    $0x24,%eax
  4020c1:	2e e9 0b 94 00 00    	cs jmp 0x40b4d2
  4020c7:	00 00                	add    %al,(%eax)
  4020c9:	00 00                	add    %al,(%eax)
  4020cb:	31 c7                	xor    %eax,%edi
  4020cd:	c7 05 b9 30 42 00 f1 	movl   $0xf1,0x4230b9
  4020d4:	00 00 00 
  4020d7:	01 3d bb 31 42 00    	add    %edi,0x4231bb
  4020dd:	8d 35 d0 16 a7 98    	lea    0x98a716d0,%esi
  4020e3:	81 ee 21 e3 64 98    	sub    $0x9864e321,%esi
  4020e9:	56                   	push   %esi
  4020ea:	8d 0d c0 16 a7 98    	lea    0x98a716c0,%ecx
  4020f0:	81 e9 21 e3 64 98    	sub    $0x9864e321,%ecx
  4020f6:	51                   	push   %ecx
  4020f7:	a1 10 f1 41 00       	mov    0x41f110,%eax
  4020fc:	ff d0                	call   *%eax
  4020fe:	31 f0                	xor    %esi,%eax
  402100:	31 35 fe 30 42 00    	xor    %esi,0x4230fe
  402106:	83 f3 a5             	xor    $0xffffffa5,%ebx
  402109:	8d 15 b3 16 a7 98    	lea    0x98a716b3,%edx
  40210f:	81 ea 21 e3 64 98    	sub    $0x9864e321,%edx
  402115:	52                   	push   %edx
  402116:	6a 01                	push   $0x1
  402118:	ff 0c 24             	decl   (%esp)
  40211b:	68 01 00 10 00       	push   $0x100001
  402120:	ff 0c 24             	decl   (%esp)
  402123:	a1 e8 f0 41 00       	mov    0x41f0e8,%eax
  402128:	ff d0                	call   *%eax
  40212a:	85 c0                	test   %eax,%eax
  40212c:	0f 85 76 98 00 00    	jne    0x40b9a8
  402132:	8d 35 d0 16 a7 98    	lea    0x98a716d0,%esi
  402138:	81 ee 21 e3 64 98    	sub    $0x9864e321,%esi
  40213e:	56                   	push   %esi
  40213f:	8d 3d c0 16 a7 98    	lea    0x98a716c0,%edi
  402145:	81 ef 21 e3 64 98    	sub    $0x9864e321,%edi
  40214b:	57                   	push   %edi
  40214c:	a1 10 f1 41 00       	mov    0x41f110,%eax
  402151:	ff d0                	call   *%eax
  402153:	20 25 8b 31 42 00    	and    %ah,0x42318b
  402159:	8d 15 b3 16 a7 98    	lea    0x98a716b3,%edx
  40215f:	81 ea 21 e3 64 98    	sub    $0x9864e321,%edx
  402165:	52                   	push   %edx
  402166:	6a 01                	push   $0x1
  402168:	ff 0c 24             	decl   (%esp)
  40216b:	68 01 00 10 00       	push   $0x100001
  402170:	ff 0c 24             	decl   (%esp)
  402173:	a1 e8 f0 41 00       	mov    0x41f0e8,%eax
  402178:	ff d0                	call   *%eax
  40217a:	85 c0                	test   %eax,%eax
  40217c:	0f 85 26 98 00 00    	jne    0x40b9a8
  402182:	83 35 47 31 42 00 12 	xorl   $0x12,0x423147
  402189:	09 05 44 31 42 00    	or     %eax,0x423144
  40218f:	8d 35 d0 16 a7 98    	lea    0x98a716d0,%esi
  402195:	81 ee 21 e3 64 98    	sub    $0x9864e321,%esi
  40219b:	56                   	push   %esi
  40219c:	8d 15 c0 16 a7 98    	lea    0x98a716c0,%edx
  4021a2:	81 ea 21 e3 64 98    	sub    $0x9864e321,%edx
  4021a8:	52                   	push   %edx
  4021a9:	a1 10 f1 41 00       	mov    0x41f110,%eax
  4021ae:	ff d0                	call   *%eax
  4021b0:	83 15 46 30 42 00 0f 	adcl   $0xf,0x423046
  4021b7:	83 f7 cf             	xor    $0xffffffcf,%edi
  4021ba:	13 35 c9 30 42 00    	adc    0x4230c9,%esi
  4021c0:	81 35 63 30 42 00 e1 	xorl   $0xe1,0x423063
  4021c7:	00 00 00 
  4021ca:	b9 01 00 00 00       	mov    $0x1,%ecx
  4021cf:	83 c1 0a             	add    $0xa,%ecx
  4021d2:	8d 0d b3 16 a7 98    	lea    0x98a716b3,%ecx
  4021d8:	81 e9 21 e3 64 98    	sub    $0x9864e321,%ecx
  4021de:	51                   	push   %ecx
  4021df:	6a 01                	push   $0x1
  4021e1:	ff 0c 24             	decl   (%esp)
  4021e4:	68 01 00 10 00       	push   $0x100001
  4021e9:	ff 0c 24             	decl   (%esp)
  4021ec:	a1 e8 f0 41 00       	mov    0x41f0e8,%eax
  4021f1:	ff d0                	call   *%eax
  4021f3:	83 f8 00             	cmp    $0x0,%eax
  4021f6:	0f 85 ac 97 00 00    	jne    0x40b9a8
  4021fc:	0b 35 c6 31 42 00    	or     0x4231c6,%esi
  402202:	19 05 0e 32 42 00    	sbb    %eax,0x42320e
  402208:	83 25 a8 30 42 00 6f 	andl   $0x6f,0x4230a8
  40220f:	8d 3d d0 16 a7 98    	lea    0x98a716d0,%edi
  402215:	81 ef 21 e3 64 98    	sub    $0x9864e321,%edi
  40221b:	57                   	push   %edi
  40221c:	8d 3d c0 16 a7 98    	lea    0x98a716c0,%edi
  402222:	81 ef 21 e3 64 98    	sub    $0x9864e321,%edi
  402228:	57                   	push   %edi
  402229:	a1 10 f1 41 00       	mov    0x41f110,%eax
  40222e:	ff d0                	call   *%eax
  402230:	b5 01                	mov    $0x1,%ch
  402232:	00 dd                	add    %bl,%ch
  402234:	8d 35 d0 16 a7 98    	lea    0x98a716d0,%esi
  40223a:	81 ee 21 e3 64 98    	sub    $0x9864e321,%esi
  402240:	56                   	push   %esi
  402241:	8d 3d c0 16 a7 98    	lea    0x98a716c0,%edi
  402247:	81 ef 21 e3 64 98    	sub    $0x9864e321,%edi
  40224d:	57                   	push   %edi
  40224e:	a1 10 f1 41 00       	mov    0x41f110,%eax
  402253:	ff d0                	call   *%eax
  402255:	13 35 74 30 42 00    	adc    0x423074,%esi
  40225b:	8d 35 b3 16 a7 98    	lea    0x98a716b3,%esi
  402261:	81 ee 21 e3 64 98    	sub    $0x9864e321,%esi
  402267:	56                   	push   %esi
  402268:	6a 01                	push   $0x1
  40226a:	ff 0c 24             	decl   (%esp)
  40226d:	68 01 00 10 00       	push   $0x100001
  402272:	ff 0c 24             	decl   (%esp)
  402275:	a1 e8 f0 41 00       	mov    0x41f0e8,%eax
  40227a:	ff d0                	call   *%eax
  40227c:	85 c0                	test   %eax,%eax
  40227e:	0f 85 24 97 00 00    	jne    0x40b9a8
  402284:	83 15 f7 30 42 00 61 	adcl   $0x61,0x4230f7
  40228b:	31 df                	xor    %ebx,%edi
  40228d:	8d 0d d0 16 a7 98    	lea    0x98a716d0,%ecx
  402293:	81 e9 21 e3 64 98    	sub    $0x9864e321,%ecx
  402299:	51                   	push   %ecx
  40229a:	8d 1d c0 16 a7 98    	lea    0x98a716c0,%ebx
  4022a0:	81 eb 21 e3 64 98    	sub    $0x9864e321,%ebx
  4022a6:	53                   	push   %ebx
  4022a7:	a1 10 f1 41 00       	mov    0x41f110,%eax
  4022ac:	ff d0                	call   *%eax
  4022ae:	31 c7                	xor    %eax,%edi
  4022b0:	c7 05 3b 31 42 00 1c 	movl   $0x1c,0x42313b
  4022b7:	00 00 00 
  4022ba:	83 e7 24             	and    $0x24,%edi
  4022bd:	21 1d df 31 42 00    	and    %ebx,0x4231df
  4022c3:	8d 1d b3 16 a7 98    	lea    0x98a716b3,%ebx
  4022c9:	81 eb 21 e3 64 98    	sub    $0x9864e321,%ebx
  4022cf:	53                   	push   %ebx
  4022d0:	6a 01                	push   $0x1
  4022d2:	ff 0c 24             	decl   (%esp)
  4022d5:	68 01 00 10 00       	push   $0x100001
  4022da:	ff 0c 24             	decl   (%esp)
  4022dd:	a1 e8 f0 41 00       	mov    0x41f0e8,%eax
  4022e2:	ff d0                	call   *%eax
  4022e4:	83 f8 00             	cmp    $0x0,%eax
  4022e7:	0f 85 bb 96 00 00    	jne    0x40b9a8
  4022ed:	13 05 13 32 42 00    	adc    0x423213,%eax
  4022f3:	19 c7                	sbb    %eax,%edi
  4022f5:	83 df d4             	sbb    $0xffffffd4,%edi
  4022f8:	09 05 87 30 42 00    	or     %eax,0x423087
  4022fe:	2e e9 ce 91 00 00    	cs jmp 0x40b4d2
  402304:	19 1d fe 31 42 00    	sbb    %ebx,0x4231fe
  40230a:	01 05 eb 30 42 00    	add    %eax,0x4230eb
  402310:	ba 01 00 00 00       	mov    $0x1,%edx
  402315:	13 15 ac 30 42 00    	adc    0x4230ac,%edx
  40231b:	13 05 75 30 42 00    	adc    0x423075,%eax
  402321:	00 00                	add    %al,(%eax)
  402323:	00 00                	add    %al,(%eax)
  402325:	00 00                	add    %al,(%eax)
  402327:	00 83 1d 75 31 42    	add    %al,0x4231751d(%ebx)
  40232d:	00 6e 83             	add    %ch,-0x7d(%esi)
  402330:	e3 e1                	jecxz  0x402313
  402332:	b9 01 00 00 00       	mov    $0x1,%ecx
  402337:	01 f1                	add    %esi,%ecx
  402339:	29 cf                	sub    %ecx,%edi
  40233b:	8d 15 d0 16 a7 98    	lea    0x98a716d0,%edx
  402341:	81 ea 21 e3 64 98    	sub    $0x9864e321,%edx
  402347:	52                   	push   %edx
  402348:	8d 0d c0 16 a7 98    	lea    0x98a716c0,%ecx
  40234e:	81 e9 21 e3 64 98    	sub    $0x9864e321,%ecx
  402354:	51                   	push   %ecx
  402355:	a1 10 f1 41 00       	mov    0x41f110,%eax
  40235a:	ff d0                	call   *%eax
  40235c:	8d 05 d0 16 a7 98    	lea    0x98a716d0,%eax
  402362:	2d 21 e3 64 98       	sub    $0x9864e321,%eax
  402367:	50                   	push   %eax
  402368:	8d 05 c0 16 a7 98    	lea    0x98a716c0,%eax
  40236e:	2d 21 e3 64 98       	sub    $0x9864e321,%eax
  402373:	50                   	push   %eax
  402374:	a1 10 f1 41 00       	mov    0x41f110,%eax
  402379:	ff d0                	call   *%eax
  40237b:	82 2d 8e 30 42 00 ab 	subb   $0xab,0x42308e
  402382:	83 c7 5d             	add    $0x5d,%edi
  402385:	83 c8 8b             	or     $0xffffff8b,%eax
  402388:	83 15 bb 31 42 00 26 	adcl   $0x26,0x4231bb
  40238f:	8d 0d d0 16 a7 98    	lea    0x98a716d0,%ecx
  402395:	81 e9 21 e3 64 98    	sub    $0x9864e321,%ecx
  40239b:	51                   	push   %ecx
  40239c:	8d 35 c0 16 a7 98    	lea    0x98a716c0,%esi
  4023a2:	81 ee 21 e3 64 98    	sub    $0x9864e321,%esi
  4023a8:	56                   	push   %esi
  4023a9:	a1 10 f1 41 00       	mov    0x41f110,%eax
  4023ae:	ff d0                	call   *%eax
  4023b0:	01 1d a3 30 42 00    	add    %ebx,0x4230a3
  4023b6:	01 35 5f 31 42 00    	add    %esi,0x42315f
  4023bc:	8d 0d d0 16 a7 98    	lea    0x98a716d0,%ecx
  4023c2:	81 e9 21 e3 64 98    	sub    $0x9864e321,%ecx
  4023c8:	51                   	push   %ecx
  4023c9:	8d 35 c0 16 a7 98    	lea    0x98a716c0,%esi
  4023cf:	81 ee 21 e3 64 98    	sub    $0x9864e321,%esi
  4023d5:	56                   	push   %esi
  4023d6:	a1 10 f1 41 00       	mov    0x41f110,%eax
  4023db:	ff d0                	call   *%eax
  4023dd:	8d 05 d0 16 a7 98    	lea    0x98a716d0,%eax
  4023e3:	2d 21 e3 64 98       	sub    $0x9864e321,%eax
  4023e8:	50                   	push   %eax
  4023e9:	8d 15 c0 16 a7 98    	lea    0x98a716c0,%edx
  4023ef:	81 ea 21 e3 64 98    	sub    $0x9864e321,%edx
  4023f5:	52                   	push   %edx
  4023f6:	a1 10 f1 41 00       	mov    0x41f110,%eax
  4023fb:	ff d0                	call   *%eax
  4023fd:	29 db                	sub    %ebx,%ebx
  4023ff:	0b 1d 15 32 42 00    	or     0x423215,%ebx
  402405:	8d 15 d0 16 a7 98    	lea    0x98a716d0,%edx
  40240b:	81 ea 21 e3 64 98    	sub    $0x9864e321,%edx
  402411:	52                   	push   %edx
  402412:	8d 05 c0 16 a7 98    	lea    0x98a716c0,%eax
  402418:	2d 21 e3 64 98       	sub    $0x9864e321,%eax
  40241d:	50                   	push   %eax
  40241e:	a1 10 f1 41 00       	mov    0x41f110,%eax
  402423:	ff d0                	call   *%eax
  402425:	31 35 85 31 42 00    	xor    %esi,0x423185
  40242b:	82 2d 66 31 42 00 c0 	subb   $0xc0,0x423166
  402432:	ba 01 00 00 00       	mov    $0x1,%edx
  402437:	13 15 a9 31 42 00    	adc    0x4231a9,%edx
  40243d:	19 05 38 31 42 00    	sbb    %eax,0x423138
  402443:	8d 05 d0 16 a7 98    	lea    0x98a716d0,%eax
  402449:	2d 21 e3 64 98       	sub    $0x9864e321,%eax
  40244e:	50                   	push   %eax
  40244f:	8d 05 c0 16 a7 98    	lea    0x98a716c0,%eax
  402455:	2d 21 e3 64 98       	sub    $0x9864e321,%eax
  40245a:	50                   	push   %eax
  40245b:	a1 10 f1 41 00       	mov    0x41f110,%eax
  402460:	ff d0                	call   *%eax
  402462:	83 15 e4 31 42 00 71 	adcl   $0x71,0x4231e4
  402469:	8d 1d b3 16 a7 98    	lea    0x98a716b3,%ebx
  40246f:	81 eb 21 e3 64 98    	sub    $0x9864e321,%ebx
  402475:	53                   	push   %ebx
  402476:	6a 01                	push   $0x1
  402478:	ff 0c 24             	decl   (%esp)
  40247b:	68 01 00 10 00       	push   $0x100001
  402480:	ff 0c 24             	decl   (%esp)
  402483:	a1 e8 f0 41 00       	mov    0x41f0e8,%eax
  402488:	ff d0                	call   *%eax
  40248a:	85 c0                	test   %eax,%eax
  40248c:	0f 85 16 95 00 00    	jne    0x40b9a8
  402492:	29 f0                	sub    %esi,%eax
  402494:	13 05 8b 30 42 00    	adc    0x42308b,%eax
  40249a:	81 35 c2 30 42 00 d1 	xorl   $0xd1,0x4230c2
  4024a1:	00 00 00 
  4024a4:	83 d3 1a             	adc    $0x1a,%ebx
  4024a7:	ba 01 00 00 00       	mov    $0x1,%edx
  4024ac:	83 c2 a4             	add    $0xffffffa4,%edx
  4024af:	8d 05 d0 16 a7 98    	lea    0x98a716d0,%eax
  4024b5:	2d 21 e3 64 98       	sub    $0x9864e321,%eax
  4024ba:	50                   	push   %eax
  4024bb:	8d 1d c0 16 a7 98    	lea    0x98a716c0,%ebx
  4024c1:	81 eb 21 e3 64 98    	sub    $0x9864e321,%ebx
  4024c7:	53                   	push   %ebx
  4024c8:	a1 10 f1 41 00       	mov    0x41f110,%eax
  4024cd:	ff d0                	call   *%eax
  4024cf:	83 15 03 32 42 00 70 	adcl   $0x70,0x423203
  4024d6:	b9 01 00 00 00       	mov    $0x1,%ecx
  4024db:	01 f1                	add    %esi,%ecx
  4024dd:	21 3d d1 30 42 00    	and    %edi,0x4230d1
  4024e3:	8d 35 b3 16 a7 98    	lea    0x98a716b3,%esi
  4024e9:	81 ee 21 e3 64 98    	sub    $0x9864e321,%esi
  4024ef:	56                   	push   %esi
  4024f0:	6a 01                	push   $0x1
  4024f2:	ff 0c 24             	decl   (%esp)
  4024f5:	68 01 00 10 00       	push   $0x100001
  4024fa:	ff 0c 24             	decl   (%esp)
  4024fd:	a1 e8 f0 41 00       	mov    0x41f0e8,%eax
  402502:	ff d0                	call   *%eax
  402504:	85 c0                	test   %eax,%eax
  402506:	0f 85 9c 94 00 00    	jne    0x40b9a8
  40250c:	8d 15 d0 16 a7 98    	lea    0x98a716d0,%edx
  402512:	81 ea 21 e3 64 98    	sub    $0x9864e321,%edx
  402518:	52                   	push   %edx
  402519:	8d 1d c0 16 a7 98    	lea    0x98a716c0,%ebx
  40251f:	81 eb 21 e3 64 98    	sub    $0x9864e321,%ebx
  402525:	53                   	push   %ebx
  402526:	a1 10 f1 41 00       	mov    0x41f110,%eax
  40252b:	ff d0                	call   *%eax
  40252d:	13 35 0b 31 42 00    	adc    0x42310b,%esi
  402533:	8d 3d b3 16 a7 98    	lea    0x98a716b3,%edi
  402539:	81 ef 21 e3 64 98    	sub    $0x9864e321,%edi
  40253f:	57                   	push   %edi
  402540:	6a 01                	push   $0x1
  402542:	ff 0c 24             	decl   (%esp)
  402545:	68 01 00 10 00       	push   $0x100001
  40254a:	ff 0c 24             	decl   (%esp)
  40254d:	a1 e8 f0 41 00       	mov    0x41f0e8,%eax
  402552:	ff d0                	call   *%eax
  402554:	85 c0                	test   %eax,%eax
  402556:	0f 85 4c 94 00 00    	jne    0x40b9a8
  40255c:	81 15 9b 31 42 00 92 	adcl   $0x92,0x42319b
  402563:	00 00 00 
  402566:	31 f6                	xor    %esi,%esi
  402568:	83 eb b5             	sub    $0xffffffb5,%ebx
  40256b:	13 3d d1 30 42 00    	adc    0x4230d1,%edi
  402571:	2e e9 5b 8f 00 00    	cs jmp 0x40b4d2
  402577:	c7 05 91 30 42 00 d3 	movl   $0xd3,0x423091
  40257e:	00 00 00 
  402581:	ba 01 00 00 00       	mov    $0x1,%edx
  402586:	13 15 bf 30 42 00    	adc    0x4230bf,%edx
  40258c:	01 fb                	add    %edi,%ebx
  40258e:	83 da b5             	sbb    $0xffffffb5,%edx
	...
  402599:	00 00                	add    %al,(%eax)
  40259b:	11 1d c0 30 42 00    	adc    %ebx,0x4230c0
  4025a1:	01 05 3f 31 42 00    	add    %eax,0x42313f
  4025a7:	13 1d 4d 31 42 00    	adc    0x42314d,%ebx
  4025ad:	13 3d 55 31 42 00    	adc    0x423155,%edi
  4025b3:	b9 01 00 00 00       	mov    $0x1,%ecx
  4025b8:	01 d9                	add    %ebx,%ecx
  4025ba:	8d 15 d0 16 a7 98    	lea    0x98a716d0,%edx
  4025c0:	81 ea 21 e3 64 98    	sub    $0x9864e321,%edx
  4025c6:	52                   	push   %edx
  4025c7:	8d 15 c0 16 a7 98    	lea    0x98a716c0,%edx
  4025cd:	81 ea 21 e3 64 98    	sub    $0x9864e321,%edx
  4025d3:	52                   	push   %edx
  4025d4:	a1 10 f1 41 00       	mov    0x41f110,%eax
  4025d9:	ff d0                	call   *%eax
  4025db:	8d 3d b3 16 a7 98    	lea    0x98a716b3,%edi
  4025e1:	81 ef 21 e3 64 98    	sub    $0x9864e321,%edi
  4025e7:	57                   	push   %edi
  4025e8:	6a 01                	push   $0x1
  4025ea:	ff 0c 24             	decl   (%esp)
  4025ed:	68 01 00 10 00       	push   $0x100001
  4025f2:	ff 0c 24             	decl   (%esp)
  4025f5:	a1 e8 f0 41 00       	mov    0x41f0e8,%eax
  4025fa:	ff d0                	call   *%eax
  4025fc:	85 c0                	test   %eax,%eax
  4025fe:	0f 85 a4 93 00 00    	jne    0x40b9a8
  402604:	31 c3                	xor    %eax,%ebx
  402606:	83 e7 1e             	and    $0x1e,%edi
  402609:	01 35 e4 30 42 00    	add    %esi,0x4230e4
  40260f:	b9 01 00 00 00       	mov    $0x1,%ecx
  402614:	13 0d 93 31 42 00    	adc    0x423193,%ecx
  40261a:	8d 15 d0 16 a7 98    	lea    0x98a716d0,%edx
  402620:	81 ea 21 e3 64 98    	sub    $0x9864e321,%edx
  402626:	52                   	push   %edx
  402627:	8d 0d c0 16 a7 98    	lea    0x98a716c0,%ecx
  40262d:	81 e9 21 e3 64 98    	sub    $0x9864e321,%ecx
  402633:	51                   	push   %ecx
  402634:	a1 10 f1 41 00       	mov    0x41f110,%eax
  402639:	ff d0                	call   *%eax
  40263b:	13 35 f0 31 42 00    	adc    0x4231f0,%esi
  402641:	b9 01 00 00 00       	mov    $0x1,%ecx
  402646:	83 c1 ce             	add    $0xffffffce,%ecx
  402649:	13 0d 71 31 42 00    	adc    0x423171,%ecx
  40264f:	01 1d ae 30 42 00    	add    %ebx,0x4230ae
  402655:	81 25 57 31 42 00 8d 	andl   $0x8d,0x423157
  40265c:	00 00 00 
  40265f:	8d 0d b3 16 a7 98    	lea    0x98a716b3,%ecx
  402665:	81 e9 21 e3 64 98    	sub    $0x9864e321,%ecx
  40266b:	51                   	push   %ecx
  40266c:	6a 01                	push   $0x1
  40266e:	ff 0c 24             	decl   (%esp)
  402671:	68 01 00 10 00       	push   $0x100001
  402676:	ff 0c 24             	decl   (%esp)
  402679:	a1 e8 f0 41 00       	mov    0x41f0e8,%eax
  40267e:	ff d0                	call   *%eax
  402680:	85 c0                	test   %eax,%eax
  402682:	0f 85 20 93 00 00    	jne    0x40b9a8
  402688:	ba 01 00 00 00       	mov    $0x1,%edx
  40268d:	13 15 02 31 42 00    	adc    0x423102,%edx
  402693:	21 35 f1 30 42 00    	and    %esi,0x4230f1
  402699:	8d 35 d0 16 a7 98    	lea    0x98a716d0,%esi
  40269f:	81 ee 21 e3 64 98    	sub    $0x9864e321,%esi
  4026a5:	56                   	push   %esi
  4026a6:	8d 15 c0 16 a7 98    	lea    0x98a716c0,%edx
  4026ac:	81 ea 21 e3 64 98    	sub    $0x9864e321,%edx
  4026b2:	52                   	push   %edx
  4026b3:	a1 10 f1 41 00       	mov    0x41f110,%eax
  4026b8:	ff d0                	call   *%eax
  4026ba:	81 15 d6 31 42 00 df 	adcl   $0xdf,0x4231d6
  4026c1:	00 00 00 
  4026c4:	83 1d d8 31 42 00 21 	sbbl   $0x21,0x4231d8
  4026cb:	19 f8                	sbb    %edi,%eax
  4026cd:	81 0d 65 31 42 00 fd 	orl    $0xfd,0x423165
  4026d4:	00 00 00 
  4026d7:	8d 15 b3 16 a7 98    	lea    0x98a716b3,%edx
  4026dd:	81 ea 21 e3 64 98    	sub    $0x9864e321,%edx
  4026e3:	52                   	push   %edx
  4026e4:	6a 01                	push   $0x1
  4026e6:	ff 0c 24             	decl   (%esp)
  4026e9:	68 01 00 10 00       	push   $0x100001
  4026ee:	ff 0c 24             	decl   (%esp)
  4026f1:	a1 e8 f0 41 00       	mov    0x41f0e8,%eax
  4026f6:	ff d0                	call   *%eax
  4026f8:	83 f8 00             	cmp    $0x0,%eax
  4026fb:	0f 85 a7 92 00 00    	jne    0x40b9a8
  402701:	2b 05 91 31 42 00    	sub    0x423191,%eax
  402707:	14 56                	adc    $0x56,%al
  402709:	13 35 50 30 42 00    	adc    0x423050,%esi
  40270f:	01 c6                	add    %eax,%esi
  402711:	81 15 95 30 42 00 de 	adcl   $0xde,0x423095
  402718:	00 00 00 
  40271b:	8d 3d b3 16 a7 98    	lea    0x98a716b3,%edi
  402721:	81 ef 21 e3 64 98    	sub    $0x9864e321,%edi
  402727:	57                   	push   %edi
  402728:	6a 01                	push   $0x1
  40272a:	ff 0c 24             	decl   (%esp)
  40272d:	68 01 00 10 00       	push   $0x100001
  402732:	ff 0c 24             	decl   (%esp)
  402735:	a1 e8 f0 41 00       	mov    0x41f0e8,%eax
  40273a:	ff d0                	call   *%eax
  40273c:	85 c0                	test   %eax,%eax
  40273e:	0f 85 64 92 00 00    	jne    0x40b9a8
  402744:	01 3d 50 30 42 00    	add    %edi,0x423050
  40274a:	31 c6                	xor    %eax,%esi
  40274c:	8d 3d d0 16 a7 98    	lea    0x98a716d0,%edi
  402752:	81 ef 21 e3 64 98    	sub    $0x9864e321,%edi
  402758:	57                   	push   %edi
  402759:	8d 05 c0 16 a7 98    	lea    0x98a716c0,%eax
  40275f:	2d 21 e3 64 98       	sub    $0x9864e321,%eax
  402764:	50                   	push   %eax
  402765:	a1 10 f1 41 00       	mov    0x41f110,%eax
  40276a:	ff d0                	call   *%eax
  40276c:	8d 15 d0 16 a7 98    	lea    0x98a716d0,%edx
  402772:	81 ea 21 e3 64 98    	sub    $0x9864e321,%edx
  402778:	52                   	push   %edx
  402779:	8d 05 c0 16 a7 98    	lea    0x98a716c0,%eax
  40277f:	2d 21 e3 64 98       	sub    $0x9864e321,%eax
  402784:	50                   	push   %eax
  402785:	a1 10 f1 41 00       	mov    0x41f110,%eax
  40278a:	ff d0                	call   *%eax
  40278c:	0a 3d 04 32 42 00    	or     0x423204,%bh
  402792:	13 1d fe 31 42 00    	adc    0x4231fe,%ebx
  402798:	19 05 1c 31 42 00    	sbb    %eax,0x42311c
  40279e:	01 05 89 31 42 00    	add    %eax,0x423189
  4027a4:	82 c3 98             	add    $0x98,%bl
  4027a7:	8d 3d b3 16 a7 98    	lea    0x98a716b3,%edi
  4027ad:	81 ef 21 e3 64 98    	sub    $0x9864e321,%edi
  4027b3:	57                   	push   %edi
  4027b4:	6a 01                	push   $0x1
  4027b6:	ff 0c 24             	decl   (%esp)
  4027b9:	68 01 00 10 00       	push   $0x100001
  4027be:	ff 0c 24             	decl   (%esp)
  4027c1:	a1 e8 f0 41 00       	mov    0x41f0e8,%eax
  4027c6:	ff d0                	call   *%eax
  4027c8:	83 f8 00             	cmp    $0x0,%eax
  4027cb:	0f 85 d7 91 00 00    	jne    0x40b9a8
  4027d1:	ba 01 00 00 00       	mov    $0x1,%edx
  4027d6:	83 c2 a0             	add    $0xffffffa0,%edx
  4027d9:	11 de                	adc    %ebx,%esi
  4027db:	83 c0 8a             	add    $0xffffff8a,%eax
  4027de:	2e e9 ee 8c 00 00    	cs jmp 0x40b4d2
  4027e4:	c7 05 97 31 42 00 fc 	movl   $0xfc,0x423197
  4027eb:	00 00 00 
  4027ee:	19 35 9b 30 42 00    	sbb    %esi,0x42309b
  4027f4:	29 1d d6 30 42 00    	sub    %ebx,0x4230d6
  4027fa:	81 1d 4d 30 42 00 a7 	sbbl   $0xa7,0x42304d
  402801:	00 00 00 
  402804:	83 eb f6             	sub    $0xfffffff6,%ebx
	...
  402813:	00 01                	add    %al,(%ecx)
  402815:	fb                   	sti
  402816:	8d 15 b3 16 a7 98    	lea    0x98a716b3,%edx
  40281c:	81 ea 21 e3 64 98    	sub    $0x9864e321,%edx
  402822:	52                   	push   %edx
  402823:	6a 01                	push   $0x1
  402825:	ff 0c 24             	decl   (%esp)
  402828:	68 01 00 10 00       	push   $0x100001
  40282d:	ff 0c 24             	decl   (%esp)
  402830:	a1 e8 f0 41 00       	mov    0x41f0e8,%eax
  402835:	ff d0                	call   *%eax
  402837:	85 c0                	test   %eax,%eax
  402839:	0f 85 69 91 00 00    	jne    0x40b9a8
  40283f:	09 3d cc 30 42 00    	or     %edi,0x4230cc
  402845:	8d 05 b3 16 a7 98    	lea    0x98a716b3,%eax
  40284b:	2d 21 e3 64 98       	sub    $0x9864e321,%eax
  402850:	50                   	push   %eax
  402851:	6a 01                	push   $0x1
  402853:	ff 0c 24             	decl   (%esp)
  402856:	68 01 00 10 00       	push   $0x100001
  40285b:	ff 0c 24             	decl   (%esp)
  40285e:	a1 e8 f0 41 00       	mov    0x41f0e8,%eax
  402863:	ff d0                	call   *%eax
  402865:	85 c0                	test   %eax,%eax
  402867:	0f 85 3b 91 00 00    	jne    0x40b9a8
  40286d:	81 1d 85 31 42 00 aa 	sbbl   $0xaa,0x423185
  402874:	00 00 00 
  402877:	21 1d f4 31 42 00    	and    %ebx,0x4231f4
  40287d:	8d 3d b3 16 a7 98    	lea    0x98a716b3,%edi
  402883:	81 ef 21 e3 64 98    	sub    $0x9864e321,%edi
  402889:	57                   	push   %edi
  40288a:	6a 01                	push   $0x1
  40288c:	ff 0c 24             	decl   (%esp)
  40288f:	68 01 00 10 00       	push   $0x100001
  402894:	ff 0c 24             	decl   (%esp)
  402897:	a1 e8 f0 41 00       	mov    0x41f0e8,%eax
  40289c:	ff d0                	call   *%eax
  40289e:	85 c0                	test   %eax,%eax
  4028a0:	0f 85 02 91 00 00    	jne    0x40b9a8
  4028a6:	81 0d 18 31 42 00 f3 	orl    $0xf3,0x423118
  4028ad:	00 00 00 
  4028b0:	83 c7 90             	add    $0xffffff90,%edi
  4028b3:	83 ce 21             	or     $0x21,%esi
  4028b6:	83 c0 c4             	add    $0xffffffc4,%eax
  4028b9:	09 35 d6 31 42 00    	or     %esi,0x4231d6
  4028bf:	8d 05 d0 16 a7 98    	lea    0x98a716d0,%eax
  4028c5:	2d 21 e3 64 98       	sub    $0x9864e321,%eax
  4028ca:	50                   	push   %eax
  4028cb:	8d 15 c0 16 a7 98    	lea    0x98a716c0,%edx
  4028d1:	81 ea 21 e3 64 98    	sub    $0x9864e321,%edx
  4028d7:	52                   	push   %edx
  4028d8:	a1 10 f1 41 00       	mov    0x41f110,%eax
  4028dd:	ff d0                	call   *%eax
  4028df:	83 0d 25 30 42 00 65 	orl    $0x65,0x423025
  4028e6:	29 ff                	sub    %edi,%edi
  4028e8:	8d 3d d0 16 a7 98    	lea    0x98a716d0,%edi
  4028ee:	81 ef 21 e3 64 98    	sub    $0x9864e321,%edi
  4028f4:	57                   	push   %edi
  4028f5:	8d 3d c0 16 a7 98    	lea    0x98a716c0,%edi
  4028fb:	81 ef 21 e3 64 98    	sub    $0x9864e321,%edi
  402901:	57                   	push   %edi
  402902:	a1 10 f1 41 00       	mov    0x41f110,%eax
  402907:	ff d0                	call   *%eax
  402909:	ba 01 00 00 00       	mov    $0x1,%edx
  40290e:	83 c2 5f             	add    $0x5f,%edx
  402911:	19 d3                	sbb    %edx,%ebx
  402913:	8d 05 b3 16 a7 98    	lea    0x98a716b3,%eax
  402919:	2d 21 e3 64 98       	sub    $0x9864e321,%eax
  40291e:	50                   	push   %eax
  40291f:	6a 01                	push   $0x1
  402921:	ff 0c 24             	decl   (%esp)
  402924:	68 01 00 10 00       	push   $0x100001
  402929:	ff 0c 24             	decl   (%esp)
  40292c:	a1 e8 f0 41 00       	mov    0x41f0e8,%eax
  402931:	ff d0                	call   *%eax
  402933:	85 c0                	test   %eax,%eax
  402935:	0f 85 6d 90 00 00    	jne    0x40b9a8
  40293b:	81 1d 89 30 42 00 fc 	sbbl   $0xfc,0x423089
  402942:	00 00 00 
  402945:	8d 05 b3 16 a7 98    	lea    0x98a716b3,%eax
  40294b:	2d 21 e3 64 98       	sub    $0x9864e321,%eax
  402950:	50                   	push   %eax
  402951:	6a 01                	push   $0x1
  402953:	ff 0c 24             	decl   (%esp)
  402956:	68 01 00 10 00       	push   $0x100001
  40295b:	ff 0c 24             	decl   (%esp)
  40295e:	a1 e8 f0 41 00       	mov    0x41f0e8,%eax
  402963:	ff d0                	call   *%eax
  402965:	83 f8 00             	cmp    $0x0,%eax
  402968:	0f 85 3a 90 00 00    	jne    0x40b9a8
  40296e:	83 c6 f2             	add    $0xfffffff2,%esi
  402971:	b2 01                	mov    $0x1,%dl
  402973:	82 c2 66             	add    $0x66,%dl
  402976:	b9 01 00 00 00       	mov    $0x1,%ecx
  40297b:	83 c1 36             	add    $0x36,%ecx
  40297e:	81 15 61 30 42 00 d4 	adcl   $0xd4,0x423061
  402985:	00 00 00 
  402988:	01 cb                	add    %ecx,%ebx
  40298a:	8d 35 d0 16 a7 98    	lea    0x98a716d0,%esi
  402990:	81 ee 21 e3 64 98    	sub    $0x9864e321,%esi
  402996:	56                   	push   %esi
  402997:	8d 3d c0 16 a7 98    	lea    0x98a716c0,%edi
  40299d:	81 ef 21 e3 64 98    	sub    $0x9864e321,%edi
  4029a3:	57                   	push   %edi
  4029a4:	a1 10 f1 41 00       	mov    0x41f110,%eax
  4029a9:	ff d0                	call   *%eax
  4029ab:	8d 0d d0 16 a7 98    	lea    0x98a716d0,%ecx
  4029b1:	81 e9 21 e3 64 98    	sub    $0x9864e321,%ecx
  4029b7:	51                   	push   %ecx
  4029b8:	8d 0d c0 16 a7 98    	lea    0x98a716c0,%ecx
  4029be:	81 e9 21 e3 64 98    	sub    $0x9864e321,%ecx
  4029c4:	51                   	push   %ecx
  4029c5:	a1 10 f1 41 00       	mov    0x41f110,%eax
  4029ca:	ff d0                	call   *%eax
  4029cc:	83 15 d1 30 42 00 36 	adcl   $0x36,0x4230d1
  4029d3:	24 af                	and    $0xaf,%al
  4029d5:	8d 0d d0 16 a7 98    	lea    0x98a716d0,%ecx
  4029db:	81 e9 21 e3 64 98    	sub    $0x9864e321,%ecx
  4029e1:	51                   	push   %ecx
  4029e2:	8d 3d c0 16 a7 98    	lea    0x98a716c0,%edi
  4029e8:	81 ef 21 e3 64 98    	sub    $0x9864e321,%edi
  4029ee:	57                   	push   %edi
  4029ef:	a1 10 f1 41 00       	mov    0x41f110,%eax
  4029f4:	ff d0                	call   *%eax
  4029f6:	11 c6                	adc    %eax,%esi
  4029f8:	c7 05 44 31 42 00 cd 	movl   $0xcd,0x423144
  4029ff:	00 00 00 
  402a02:	83 35 99 31 42 00 57 	xorl   $0x57,0x423199
  402a09:	8d 35 d0 16 a7 98    	lea    0x98a716d0,%esi
  402a0f:	81 ee 21 e3 64 98    	sub    $0x9864e321,%esi
  402a15:	56                   	push   %esi
  402a16:	8d 3d c0 16 a7 98    	lea    0x98a716c0,%edi
  402a1c:	81 ef 21 e3 64 98    	sub    $0x9864e321,%edi
  402a22:	57                   	push   %edi
  402a23:	a1 10 f1 41 00       	mov    0x41f110,%eax
  402a28:	ff d0                	call   *%eax
  402a2a:	8d 3d d0 16 a7 98    	lea    0x98a716d0,%edi
  402a30:	81 ef 21 e3 64 98    	sub    $0x9864e321,%edi
  402a36:	57                   	push   %edi
  402a37:	8d 1d c0 16 a7 98    	lea    0x98a716c0,%ebx
  402a3d:	81 eb 21 e3 64 98    	sub    $0x9864e321,%ebx
  402a43:	53                   	push   %ebx
  402a44:	a1 10 f1 41 00       	mov    0x41f110,%eax
  402a49:	ff d0                	call   *%eax
  402a4b:	19 de                	sbb    %ebx,%esi
  402a4d:	b6 01                	mov    $0x1,%dh
  402a4f:	82 c6 d8             	add    $0xd8,%dh
  402a52:	b9 01 00 00 00       	mov    $0x1,%ecx
  402a57:	13 0d 2f 30 42 00    	adc    0x42302f,%ecx
  402a5d:	83 c0 65             	add    $0x65,%eax
  402a60:	82 2d dd 31 42 00 94 	subb   $0x94,0x4231dd
  402a67:	2e e9 65 8a 00 00    	cs jmp 0x40b4d2
  402a6d:	01 15 06 31 42 00    	add    %edx,0x423106
  402a73:	13 15 63 31 42 00    	adc    0x423163,%edx
  402a79:	01 15 20 31 42 00    	add    %edx,0x423120
  402a7f:	11 c1                	adc    %eax,%ecx
	...
  402a8d:	00 00                	add    %al,(%eax)
  402a8f:	01 c6                	add    %eax,%esi
  402a91:	81 0d 40 30 42 00 a8 	orl    $0xa8,0x423040
  402a98:	00 00 00 
  402a9b:	8d 3d b3 16 a7 98    	lea    0x98a716b3,%edi
  402aa1:	81 ef 21 e3 64 98    	sub    $0x9864e321,%edi
  402aa7:	57                   	push   %edi
  402aa8:	6a 01                	push   $0x1
  402aaa:	ff 0c 24             	decl   (%esp)
  402aad:	68 01 00 10 00       	push   $0x100001
  402ab2:	ff 0c 24             	decl   (%esp)
  402ab5:	a1 e8 f0 41 00       	mov    0x41f0e8,%eax
  402aba:	ff d0                	call   *%eax
  402abc:	83 f8 00             	cmp    $0x0,%eax
  402abf:	0f 85 e3 8e 00 00    	jne    0x40b9a8
  402ac5:	31 1d 0f 31 42 00    	xor    %ebx,0x42310f
  402acb:	01 1d d5 31 42 00    	add    %ebx,0x4231d5
  402ad1:	b9 01 00 00 00       	mov    $0x1,%ecx
  402ad6:	83 c1 f4             	add    $0xfffffff4,%ecx
  402ad9:	ba 01 00 00 00       	mov    $0x1,%edx
  402ade:	83 c2 d3             	add    $0xffffffd3,%edx
  402ae1:	21 3d 3c 31 42 00    	and    %edi,0x42313c
  402ae7:	8d 3d d0 16 a7 98    	lea    0x98a716d0,%edi
  402aed:	81 ef 21 e3 64 98    	sub    $0x9864e321,%edi
  402af3:	57                   	push   %edi
  402af4:	8d 0d c0 16 a7 98    	lea    0x98a716c0,%ecx
  402afa:	81 e9 21 e3 64 98    	sub    $0x9864e321,%ecx
  402b00:	51                   	push   %ecx
  402b01:	a1 10 f1 41 00       	mov    0x41f110,%eax
  402b06:	ff d0                	call   *%eax
  402b08:	8d 0d d0 16 a7 98    	lea    0x98a716d0,%ecx
  402b0e:	81 e9 21 e3 64 98    	sub    $0x9864e321,%ecx
  402b14:	51                   	push   %ecx
  402b15:	8d 15 c0 16 a7 98    	lea    0x98a716c0,%edx
  402b1b:	81 ea 21 e3 64 98    	sub    $0x9864e321,%edx
  402b21:	52                   	push   %edx
  402b22:	a1 10 f1 41 00       	mov    0x41f110,%eax
  402b27:	ff d0                	call   *%eax
  402b29:	83 d6 45             	adc    $0x45,%esi
  402b2c:	11 db                	adc    %ebx,%ebx
  402b2e:	8d 15 b3 16 a7 98    	lea    0x98a716b3,%edx
  402b34:	81 ea 21 e3 64 98    	sub    $0x9864e321,%edx
  402b3a:	52                   	push   %edx
  402b3b:	6a 01                	push   $0x1
  402b3d:	ff 0c 24             	decl   (%esp)
  402b40:	68 01 00 10 00       	push   $0x100001
  402b45:	ff 0c 24             	decl   (%esp)
  402b48:	a1 e8 f0 41 00       	mov    0x41f0e8,%eax
  402b4d:	ff d0                	call   *%eax
  402b4f:	83 f8 00             	cmp    $0x0,%eax
  402b52:	0f 85 50 8e 00 00    	jne    0x40b9a8
  402b58:	8d 1d b3 16 a7 98    	lea    0x98a716b3,%ebx
  402b5e:	81 eb 21 e3 64 98    	sub    $0x9864e321,%ebx
  402b64:	53                   	push   %ebx
  402b65:	6a 01                	push   $0x1
  402b67:	ff 0c 24             	decl   (%esp)
  402b6a:	68 01 00 10 00       	push   $0x100001
  402b6f:	ff 0c 24             	decl   (%esp)
  402b72:	a1 e8 f0 41 00       	mov    0x41f0e8,%eax
  402b77:	ff d0                	call   *%eax
  402b79:	83 f8 00             	cmp    $0x0,%eax
  402b7c:	0f 85 26 8e 00 00    	jne    0x40b9a8
  402b82:	81 15 34 30 42 00 c1 	adcl   $0xc1,0x423034
  402b89:	00 00 00 
  402b8c:	b6 01                	mov    $0x1,%dh
  402b8e:	82 c6 fb             	add    $0xfb,%dh
  402b91:	81 25 bf 30 42 00 f2 	andl   $0xf2,0x4230bf
  402b98:	00 00 00 
  402b9b:	8d 05 b3 16 a7 98    	lea    0x98a716b3,%eax
  402ba1:	2d 21 e3 64 98       	sub    $0x9864e321,%eax
  402ba6:	50                   	push   %eax
  402ba7:	6a 01                	push   $0x1
  402ba9:	ff 0c 24             	decl   (%esp)
  402bac:	68 01 00 10 00       	push   $0x100001
  402bb1:	ff 0c 24             	decl   (%esp)
  402bb4:	a1 e8 f0 41 00       	mov    0x41f0e8,%eax
  402bb9:	ff d0                	call   *%eax
  402bbb:	83 f8 00             	cmp    $0x0,%eax
  402bbe:	0f 85 e4 8d 00 00    	jne    0x40b9a8
  402bc4:	81 35 68 30 42 00 db 	xorl   $0xdb,0x423068
  402bcb:	00 00 00 
  402bce:	01 35 07 31 42 00    	add    %esi,0x423107
  402bd4:	13 3d 99 30 42 00    	adc    0x423099,%edi
  402bda:	8d 05 d0 16 a7 98    	lea    0x98a716d0,%eax
  402be0:	2d 21 e3 64 98       	sub    $0x9864e321,%eax
  402be5:	50                   	push   %eax
  402be6:	8d 1d c0 16 a7 98    	lea    0x98a716c0,%ebx
  402bec:	81 eb 21 e3 64 98    	sub    $0x9864e321,%ebx
  402bf2:	53                   	push   %ebx
  402bf3:	a1 10 f1 41 00       	mov    0x41f110,%eax
  402bf8:	ff d0                	call   *%eax
  402bfa:	11 f0                	adc    %esi,%eax
  402bfc:	13 05 e2 31 42 00    	adc    0x4231e2,%eax
  402c02:	11 05 30 31 42 00    	adc    %eax,0x423130
  402c08:	81 25 da 30 42 00 8d 	andl   $0x8d,0x4230da
  402c0f:	00 00 00 
  402c12:	ba 01 00 00 00       	mov    $0x1,%edx
  402c17:	13 15 d1 31 42 00    	adc    0x4231d1,%edx
  402c1d:	8d 3d b3 16 a7 98    	lea    0x98a716b3,%edi
  402c23:	81 ef 21 e3 64 98    	sub    $0x9864e321,%edi
  402c29:	57                   	push   %edi
  402c2a:	6a 01                	push   $0x1
  402c2c:	ff 0c 24             	decl   (%esp)
  402c2f:	68 01 00 10 00       	push   $0x100001
  402c34:	ff 0c 24             	decl   (%esp)
  402c37:	a1 e8 f0 41 00       	mov    0x41f0e8,%eax
  402c3c:	ff d0                	call   *%eax
  402c3e:	85 c0                	test   %eax,%eax
  402c40:	0f 85 62 8d 00 00    	jne    0x40b9a8
  402c46:	b9 01 00 00 00       	mov    $0x1,%ecx
  402c4b:	13 0d 1b 32 42 00    	adc    0x42321b,%ecx
  402c51:	81 35 9e 30 42 00 ab 	xorl   $0xab,0x42309e
  402c58:	00 00 00 
  402c5b:	83 1d 6e 31 42 00 39 	sbbl   $0x39,0x42316e
  402c62:	8d 0d b3 16 a7 98    	lea    0x98a716b3,%ecx
  402c68:	81 e9 21 e3 64 98    	sub    $0x9864e321,%ecx
  402c6e:	51                   	push   %ecx
  402c6f:	6a 01                	push   $0x1
  402c71:	ff 0c 24             	decl   (%esp)
  402c74:	68 01 00 10 00       	push   $0x100001
  402c79:	ff 0c 24             	decl   (%esp)
  402c7c:	a1 e8 f0 41 00       	mov    0x41f0e8,%eax
  402c81:	ff d0                	call   *%eax
  402c83:	85 c0                	test   %eax,%eax
  402c85:	0f 85 1d 8d 00 00    	jne    0x40b9a8
  402c8b:	13 05 ff 30 42 00    	adc    0x4230ff,%eax
  402c91:	ba 01 00 00 00       	mov    $0x1,%edx
  402c96:	01 da                	add    %ebx,%edx
  402c98:	8d 1d d0 16 a7 98    	lea    0x98a716d0,%ebx
  402c9e:	81 eb 21 e3 64 98    	sub    $0x9864e321,%ebx
  402ca4:	53                   	push   %ebx
  402ca5:	8d 1d c0 16 a7 98    	lea    0x98a716c0,%ebx
  402cab:	81 eb 21 e3 64 98    	sub    $0x9864e321,%ebx
  402cb1:	53                   	push   %ebx
  402cb2:	a1 10 f1 41 00       	mov    0x41f110,%eax
  402cb7:	ff d0                	call   *%eax
  402cb9:	81 25 17 31 42 00 8a 	andl   $0x8a,0x423117
  402cc0:	00 00 00 
  402cc3:	01 05 91 30 42 00    	add    %eax,0x423091
  402cc9:	0a 1d 06 31 42 00    	or     0x423106,%bl
  402ccf:	30 05 89 30 42 00    	xor    %al,0x423089
  402cd5:	8d 1d b3 16 a7 98    	lea    0x98a716b3,%ebx
  402cdb:	81 eb 21 e3 64 98    	sub    $0x9864e321,%ebx
  402ce1:	53                   	push   %ebx
  402ce2:	6a 01                	push   $0x1
  402ce4:	ff 0c 24             	decl   (%esp)
  402ce7:	68 01 00 10 00       	push   $0x100001
  402cec:	ff 0c 24             	decl   (%esp)
  402cef:	a1 e8 f0 41 00       	mov    0x41f0e8,%eax
  402cf4:	ff d0                	call   *%eax
  402cf6:	83 f8 00             	cmp    $0x0,%eax
  402cf9:	0f 85 a9 8c 00 00    	jne    0x40b9a8
  402cff:	13 1d 36 31 42 00    	adc    0x423136,%ebx
  402d05:	0a 05 97 30 42 00    	or     0x423097,%al
  402d0b:	31 35 47 30 42 00    	xor    %esi,0x423047
  402d11:	01 1d 1d 31 42 00    	add    %ebx,0x42311d
  402d17:	11 35 47 30 42 00    	adc    %esi,0x423047
  402d1d:	2e e9 af 87 00 00    	cs jmp 0x40b4d2
  402d23:	81 15 05 31 42 00 97 	adcl   $0x97,0x423105
  402d2a:	00 00 00 
  402d2d:	01 df                	add    %ebx,%edi
  402d2f:	00 83 15 c1 30 42    	add    %al,0x4230c115(%ebx)
  402d35:	00 39                	add    %bh,(%ecx)
  402d37:	b9 01 00 00 00       	mov    $0x1,%ecx
  402d3c:	01 f9                	add    %edi,%ecx
  402d3e:	01 c9                	add    %ecx,%ecx
  402d40:	ba 01 00 00 00       	mov    $0x1,%edx
  402d45:	83 c2 a4             	add    $0xffffffa4,%edx
  402d48:	19 05 5c 31 42 00    	sbb    %eax,0x42315c
  402d4e:	8d 0d d0 16 a7 98    	lea    0x98a716d0,%ecx
  402d54:	81 e9 21 e3 64 98    	sub    $0x9864e321,%ecx
  402d5a:	51                   	push   %ecx
  402d5b:	8d 3d c0 16 a7 98    	lea    0x98a716c0,%edi
  402d61:	81 ef 21 e3 64 98    	sub    $0x9864e321,%edi
  402d67:	57                   	push   %edi
  402d68:	a1 10 f1 41 00       	mov    0x41f110,%eax
  402d6d:	ff d0                	call   *%eax
  402d6f:	8d 15 b3 16 a7 98    	lea    0x98a716b3,%edx
  402d75:	81 ea 21 e3 64 98    	sub    $0x9864e321,%edx
  402d7b:	52                   	push   %edx
  402d7c:	6a 01                	push   $0x1
  402d7e:	ff 0c 24             	decl   (%esp)
  402d81:	68 01 00 10 00       	push   $0x100001
  402d86:	ff 0c 24             	decl   (%esp)
  402d89:	a1 e8 f0 41 00       	mov    0x41f0e8,%eax
  402d8e:	ff d0                	call   *%eax
  402d90:	85 c0                	test   %eax,%eax
  402d92:	0f 85 10 8c 00 00    	jne    0x40b9a8
  402d98:	2b 35 b7 30 42 00    	sub    0x4230b7,%esi
  402d9e:	19 3d 49 30 42 00    	sbb    %edi,0x423049
  402da4:	18 c7                	sbb    %al,%bh
  402da6:	b9 01 00 00 00       	mov    $0x1,%ecx
  402dab:	13 0d 0c 31 42 00    	adc    0x42310c,%ecx
  402db1:	0a 05 ea 31 42 00    	or     0x4231ea,%al
  402db7:	8d 0d b3 16 a7 98    	lea    0x98a716b3,%ecx
  402dbd:	81 e9 21 e3 64 98    	sub    $0x9864e321,%ecx
  402dc3:	51                   	push   %ecx
  402dc4:	6a 01                	push   $0x1
  402dc6:	ff 0c 24             	decl   (%esp)
  402dc9:	68 01 00 10 00       	push   $0x100001
  402dce:	ff 0c 24             	decl   (%esp)
  402dd1:	a1 e8 f0 41 00       	mov    0x41f0e8,%eax
  402dd6:	ff d0                	call   *%eax
  402dd8:	85 c0                	test   %eax,%eax
  402dda:	0f 85 c8 8b 00 00    	jne    0x40b9a8
  402de0:	c7 05 ba 30 42 00 7e 	movl   $0x7e,0x4230ba
  402de7:	00 00 00 
  402dea:	ba 01 00 00 00       	mov    $0x1,%edx
  402def:	01 fa                	add    %edi,%edx
  402df1:	82 d4 17             	adc    $0x17,%ah
  402df4:	83 35 43 31 42 00 4b 	xorl   $0x4b,0x423143
  402dfb:	81 1d ba 31 42 00 e9 	sbbl   $0xe9,0x4231ba
  402e02:	00 00 00 
  402e05:	8d 05 d0 16 a7 98    	lea    0x98a716d0,%eax
  402e0b:	2d 21 e3 64 98       	sub    $0x9864e321,%eax
  402e10:	50                   	push   %eax
  402e11:	8d 1d c0 16 a7 98    	lea    0x98a716c0,%ebx
  402e17:	81 eb 21 e3 64 98    	sub    $0x9864e321,%ebx
  402e1d:	53                   	push   %ebx
  402e1e:	a1 10 f1 41 00       	mov    0x41f110,%eax
  402e23:	ff d0                	call   *%eax
  402e25:	83 15 1e 32 42 00 13 	adcl   $0x13,0x42321e
  402e2c:	82 2d bb 30 42 00 60 	subb   $0x60,0x4230bb
  402e33:	01 fe                	add    %edi,%esi
  402e35:	ba 01 00 00 00       	mov    $0x1,%edx
  402e3a:	83 c2 21             	add    $0x21,%edx
  402e3d:	b9 01 00 00 00       	mov    $0x1,%ecx
  402e42:	01 d9                	add    %ebx,%ecx
  402e44:	8d 05 b3 16 a7 98    	lea    0x98a716b3,%eax
  402e4a:	2d 21 e3 64 98       	sub    $0x9864e321,%eax
  402e4f:	50                   	push   %eax
  402e50:	6a 01                	push   $0x1
  402e52:	ff 0c 24             	decl   (%esp)
  402e55:	68 01 00 10 00       	push   $0x100001
  402e5a:	ff 0c 24             	decl   (%esp)
  402e5d:	a1 e8 f0 41 00       	mov    0x41f0e8,%eax
  402e62:	ff d0                	call   *%eax
  402e64:	85 c0                	test   %eax,%eax
  402e66:	0f 85 3c 8b 00 00    	jne    0x40b9a8
  402e6c:	13 1d 06 32 42 00    	adc    0x423206,%ebx
  402e72:	29 c6                	sub    %eax,%esi
  402e74:	2b 3d 67 30 42 00    	sub    0x423067,%edi
  402e7a:	8d 1d d0 16 a7 98    	lea    0x98a716d0,%ebx
  402e80:	81 eb 21 e3 64 98    	sub    $0x9864e321,%ebx
  402e86:	53                   	push   %ebx
  402e87:	8d 3d c0 16 a7 98    	lea    0x98a716c0,%edi
  402e8d:	81 ef 21 e3 64 98    	sub    $0x9864e321,%edi
  402e93:	57                   	push   %edi
  402e94:	a1 10 f1 41 00       	mov    0x41f110,%eax
  402e99:	ff d0                	call   *%eax
  402e9b:	ba 01 00 00 00       	mov    $0x1,%edx
  402ea0:	83 c2 23             	add    $0x23,%edx
  402ea3:	01 1d 70 30 42 00    	add    %ebx,0x423070
  402ea9:	81 15 7c 31 42 00 9b 	adcl   $0x9b,0x42317c
  402eb0:	00 00 00 
  402eb3:	19 05 55 31 42 00    	sbb    %eax,0x423155
  402eb9:	8d 05 b3 16 a7 98    	lea    0x98a716b3,%eax
  402ebf:	2d 21 e3 64 98       	sub    $0x9864e321,%eax
  402ec4:	50                   	push   %eax
  402ec5:	6a 01                	push   $0x1
  402ec7:	ff 0c 24             	decl   (%esp)
  402eca:	68 01 00 10 00       	push   $0x100001
  402ecf:	ff 0c 24             	decl   (%esp)
  402ed2:	a1 e8 f0 41 00       	mov    0x41f0e8,%eax
  402ed7:	ff d0                	call   *%eax
  402ed9:	83 f8 00             	cmp    $0x0,%eax
  402edc:	0f 85 c6 8a 00 00    	jne    0x40b9a8
  402ee2:	ba 01 00 00 00       	mov    $0x1,%edx
  402ee7:	01 da                	add    %ebx,%edx
  402ee9:	83 1d 40 31 42 00 19 	sbbl   $0x19,0x423140
  402ef0:	8d 35 d0 16 a7 98    	lea    0x98a716d0,%esi
  402ef6:	81 ee 21 e3 64 98    	sub    $0x9864e321,%esi
  402efc:	56                   	push   %esi
  402efd:	8d 1d c0 16 a7 98    	lea    0x98a716c0,%ebx
  402f03:	81 eb 21 e3 64 98    	sub    $0x9864e321,%ebx
  402f09:	53                   	push   %ebx
  402f0a:	a1 10 f1 41 00       	mov    0x41f110,%eax
  402f0f:	ff d0                	call   *%eax
  402f11:	2b 05 12 31 42 00    	sub    0x423112,%eax
  402f17:	11 05 00 31 42 00    	adc    %eax,0x423100
  402f1d:	0b 35 4c 31 42 00    	or     0x42314c,%esi
  402f23:	19 3d 66 30 42 00    	sbb    %edi,0x423066
  402f29:	83 e7 3d             	and    $0x3d,%edi
  402f2c:	8d 1d d0 16 a7 98    	lea    0x98a716d0,%ebx
  402f32:	81 eb 21 e3 64 98    	sub    $0x9864e321,%ebx
  402f38:	53                   	push   %ebx
  402f39:	8d 0d c0 16 a7 98    	lea    0x98a716c0,%ecx
  402f3f:	81 e9 21 e3 64 98    	sub    $0x9864e321,%ecx
  402f45:	51                   	push   %ecx
  402f46:	a1 10 f1 41 00       	mov    0x41f110,%eax
  402f4b:	ff d0                	call   *%eax
  402f4d:	81 15 17 31 42 00 8d 	adcl   $0x8d,0x423117
  402f54:	00 00 00 
  402f57:	0a 3d a9 30 42 00    	or     0x4230a9,%bh
  402f5d:	21 3d ea 31 42 00    	and    %edi,0x4231ea
  402f63:	8d 05 d0 16 a7 98    	lea    0x98a716d0,%eax
  402f69:	2d 21 e3 64 98       	sub    $0x9864e321,%eax
  402f6e:	50                   	push   %eax
  402f6f:	8d 3d c0 16 a7 98    	lea    0x98a716c0,%edi
  402f75:	81 ef 21 e3 64 98    	sub    $0x9864e321,%edi
  402f7b:	57                   	push   %edi
  402f7c:	a1 10 f1 41 00       	mov    0x41f110,%eax
  402f81:	ff d0                	call   *%eax
  402f83:	13 1d 5c 31 42 00    	adc    0x42315c,%ebx
  402f89:	13 35 e9 31 42 00    	adc    0x4231e9,%esi
  402f8f:	b9 01 00 00 00       	mov    $0x1,%ecx
  402f94:	01 f1                	add    %esi,%ecx
  402f96:	01 3d ca 30 42 00    	add    %edi,0x4230ca
  402f9c:	c7 05 c1 30 42 00 cf 	movl   $0xcf,0x4230c1
  402fa3:	00 00 00 
  402fa6:	2e e9 26 85 00 00    	cs jmp 0x40b4d2
  402fac:	11 3d 98 30 42 00    	adc    %edi,0x423098
  402fb2:	13 3d 3d 31 42 00    	adc    0x42313d,%edi
  402fb8:	0b 05 eb 31 42 00    	or     0x4231eb,%eax
	...
  402fca:	00 00                	add    %al,(%eax)
  402fcc:	00 83 de 3b 12 25    	add    %al,0x25123bde(%ebx)
  402fd2:	00 31                	add    %dh,(%ecx)
  402fd4:	42                   	inc    %edx
  402fd5:	00 01                	add    %al,(%ecx)
  402fd7:	c6 83 35 42 30 42 00 	movb   $0x0,0x42304235(%ebx)
  402fde:	7b 8d                	jnp    0x402f6d
  402fe0:	15 b3 16 a7 98       	adc    $0x98a716b3,%eax
  402fe5:	81 ea 21 e3 64 98    	sub    $0x9864e321,%edx
  402feb:	52                   	push   %edx
  402fec:	6a 01                	push   $0x1
  402fee:	ff 0c 24             	decl   (%esp)
  402ff1:	68 01 00 10 00       	push   $0x100001
  402ff6:	ff 0c 24             	decl   (%esp)
  402ff9:	a1 e8 f0 41 00       	mov    0x41f0e8,%eax
  402ffe:	ff d0                	call   *%eax
  403000:	83 f8 00             	cmp    $0x0,%eax
  403003:	0f 85 9f 89 00 00    	jne    0x40b9a8
  403009:	8d 0d d0 16 a7 98    	lea    0x98a716d0,%ecx
  40300f:	81 e9 21 e3 64 98    	sub    $0x9864e321,%ecx
  403015:	51                   	push   %ecx
  403016:	8d 05 c0 16 a7 98    	lea    0x98a716c0,%eax
  40301c:	2d 21 e3 64 98       	sub    $0x9864e321,%eax
  403021:	50                   	push   %eax
  403022:	a1 10 f1 41 00       	mov    0x41f110,%eax
  403027:	ff d0                	call   *%eax
  403029:	19 c3                	sbb    %eax,%ebx
  40302b:	c7 05 1f 32 42 00 d5 	movl   $0xd5,0x42321f
  403032:	00 00 00 
  403035:	01 05 35 30 42 00    	add    %eax,0x423035
  40303b:	83 d7 12             	adc    $0x12,%edi
  40303e:	8d 3d b3 16 a7 98    	lea    0x98a716b3,%edi
  403044:	81 ef 21 e3 64 98    	sub    $0x9864e321,%edi
  40304a:	57                   	push   %edi
  40304b:	6a 01                	push   $0x1
  40304d:	ff 0c 24             	decl   (%esp)
  403050:	68 01 00 10 00       	push   $0x100001
  403055:	ff 0c 24             	decl   (%esp)
  403058:	a1 e8 f0 41 00       	mov    0x41f0e8,%eax
  40305d:	ff d0                	call   *%eax
  40305f:	85 c0                	test   %eax,%eax
  403061:	0f 85 41 89 00 00    	jne    0x40b9a8
  403067:	01 f8                	add    %edi,%eax
  403069:	19 35 18 31 42 00    	sbb    %esi,0x423118
  40306f:	83 eb 46             	sub    $0x46,%ebx
  403072:	ba 01 00 00 00       	mov    $0x1,%edx
  403077:	83 c2 a6             	add    $0xffffffa6,%edx
  40307a:	13 3d 94 30 42 00    	adc    0x423094,%edi
  403080:	8d 3d d0 16 a7 98    	lea    0x98a716d0,%edi
  403086:	81 ef 21 e3 64 98    	sub    $0x9864e321,%edi
  40308c:	57                   	push   %edi
  40308d:	8d 15 c0 16 a7 98    	lea    0x98a716c0,%edx
  403093:	81 ea 21 e3 64 98    	sub    $0x9864e321,%edx
  403099:	52                   	push   %edx
  40309a:	a1 10 f1 41 00       	mov    0x41f110,%eax
  40309f:	ff d0                	call   *%eax
  4030a1:	83 15 d9 31 42 00 60 	adcl   $0x60,0x4231d9
  4030a8:	8d 35 d0 16 a7 98    	lea    0x98a716d0,%esi
  4030ae:	81 ee 21 e3 64 98    	sub    $0x9864e321,%esi
  4030b4:	56                   	push   %esi
  4030b5:	8d 05 c0 16 a7 98    	lea    0x98a716c0,%eax
  4030bb:	2d 21 e3 64 98       	sub    $0x9864e321,%eax
  4030c0:	50                   	push   %eax
  4030c1:	a1 10 f1 41 00       	mov    0x41f110,%eax
  4030c6:	ff d0                	call   *%eax
  4030c8:	13 1d bf 30 42 00    	adc    0x4230bf,%ebx
  4030ce:	21 05 5c 31 42 00    	and    %eax,0x42315c
  4030d4:	83 0d e0 31 42 00 22 	orl    $0x22,0x4231e0
  4030db:	8d 0d d0 16 a7 98    	lea    0x98a716d0,%ecx
  4030e1:	81 e9 21 e3 64 98    	sub    $0x9864e321,%ecx
  4030e7:	51                   	push   %ecx
  4030e8:	8d 05 c0 16 a7 98    	lea    0x98a716c0,%eax
  4030ee:	2d 21 e3 64 98       	sub    $0x9864e321,%eax
  4030f3:	50                   	push   %eax
  4030f4:	a1 10 f1 41 00       	mov    0x41f110,%eax
  4030f9:	ff d0                	call   *%eax
  4030fb:	2b 05 b8 30 42 00    	sub    0x4230b8,%eax
  403101:	19 f7                	sbb    %esi,%edi
  403103:	29 1d 94 31 42 00    	sub    %ebx,0x423194
  403109:	8d 3d d0 16 a7 98    	lea    0x98a716d0,%edi
  40310f:	81 ef 21 e3 64 98    	sub    $0x9864e321,%edi
  403115:	57                   	push   %edi
  403116:	8d 35 c0 16 a7 98    	lea    0x98a716c0,%esi
  40311c:	81 ee 21 e3 64 98    	sub    $0x9864e321,%esi
  403122:	56                   	push   %esi
  403123:	a1 10 f1 41 00       	mov    0x41f110,%eax
  403128:	ff d0                	call   *%eax
  40312a:	83 c0 96             	add    $0xffffff96,%eax
  40312d:	8d 35 b3 16 a7 98    	lea    0x98a716b3,%esi
  403133:	81 ee 21 e3 64 98    	sub    $0x9864e321,%esi
  403139:	56                   	push   %esi
  40313a:	6a 01                	push   $0x1
  40313c:	ff 0c 24             	decl   (%esp)
  40313f:	68 01 00 10 00       	push   $0x100001
  403144:	ff 0c 24             	decl   (%esp)
  403147:	a1 e8 f0 41 00       	mov    0x41f0e8,%eax
  40314c:	ff d0                	call   *%eax
  40314e:	83 f8 00             	cmp    $0x0,%eax
  403151:	0f 85 51 88 00 00    	jne    0x40b9a8
  403157:	11 05 de 30 42 00    	adc    %eax,0x4230de
  40315d:	01 c0                	add    %eax,%eax
  40315f:	81 1d 98 30 42 00 92 	sbbl   $0x92,0x423098
  403166:	00 00 00 
  403169:	13 05 85 30 42 00    	adc    0x423085,%eax
  40316f:	8d 15 d0 16 a7 98    	lea    0x98a716d0,%edx
  403175:	81 ea 21 e3 64 98    	sub    $0x9864e321,%edx
  40317b:	52                   	push   %edx
  40317c:	8d 3d c0 16 a7 98    	lea    0x98a716c0,%edi
  403182:	81 ef 21 e3 64 98    	sub    $0x9864e321,%edi
  403188:	57                   	push   %edi
  403189:	a1 10 f1 41 00       	mov    0x41f110,%eax
  40318e:	ff d0                	call   *%eax
  403190:	83 15 19 32 42 00 5d 	adcl   $0x5d,0x423219
  403197:	8d 1d b3 16 a7 98    	lea    0x98a716b3,%ebx
  40319d:	81 eb 21 e3 64 98    	sub    $0x9864e321,%ebx
  4031a3:	53                   	push   %ebx
  4031a4:	6a 01                	push   $0x1
  4031a6:	ff 0c 24             	decl   (%esp)
  4031a9:	68 01 00 10 00       	push   $0x100001
  4031ae:	ff 0c 24             	decl   (%esp)
  4031b1:	a1 e8 f0 41 00       	mov    0x41f0e8,%eax
  4031b6:	ff d0                	call   *%eax
  4031b8:	83 f8 00             	cmp    $0x0,%eax
  4031bb:	0f 85 e7 87 00 00    	jne    0x40b9a8
  4031c1:	19 35 de 31 42 00    	sbb    %esi,0x4231de
  4031c7:	8d 3d d0 16 a7 98    	lea    0x98a716d0,%edi
  4031cd:	81 ef 21 e3 64 98    	sub    $0x9864e321,%edi
  4031d3:	57                   	push   %edi
  4031d4:	8d 05 c0 16 a7 98    	lea    0x98a716c0,%eax
  4031da:	2d 21 e3 64 98       	sub    $0x9864e321,%eax
  4031df:	50                   	push   %eax
  4031e0:	a1 10 f1 41 00       	mov    0x41f110,%eax
  4031e5:	ff d0                	call   *%eax
  4031e7:	83 15 0b 32 42 00 14 	adcl   $0x14,0x42320b
  4031ee:	c7 05 12 31 42 00 80 	movl   $0x80,0x423112
  4031f5:	00 00 00 
  4031f8:	13 1d 5f 30 42 00    	adc    0x42305f,%ebx
  4031fe:	81 0d 51 31 42 00 8d 	orl    $0x8d,0x423151
  403205:	00 00 00 
  403208:	81 15 fc 30 42 00 8d 	adcl   $0x8d,0x4230fc
  40320f:	00 00 00 
  403212:	2e e9 ba 82 00 00    	cs jmp 0x40b4d2
  403218:	83 c0 93             	add    $0xffffff93,%eax
  40321b:	01 fb                	add    %edi,%ebx
  40321d:	c7 05 93 30 42 00 3f 	movl   $0x3f,0x423093
  403224:	00 00 00 
	...
  40322f:	00 00                	add    %al,(%eax)
  403231:	00 ba 01 00 00 00    	add    %bh,0x1(%edx)
  403237:	01 da                	add    %ebx,%edx
  403239:	2b 35 cd 30 42 00    	sub    0x4230cd,%esi
  40323f:	01 c3                	add    %eax,%ebx
  403241:	83 c3 e4             	add    $0xffffffe4,%ebx
  403244:	13 15 48 30 42 00    	adc    0x423048,%edx
  40324a:	8d 0d d0 16 a7 98    	lea    0x98a716d0,%ecx
  403250:	81 e9 21 e3 64 98    	sub    $0x9864e321,%ecx
  403256:	51                   	push   %ecx
  403257:	8d 05 c0 16 a7 98    	lea    0x98a716c0,%eax
  40325d:	2d 21 e3 64 98       	sub    $0x9864e321,%eax
  403262:	50                   	push   %eax
  403263:	a1 10 f1 41 00       	mov    0x41f110,%eax
  403268:	ff d0                	call   *%eax
  40326a:	31 d8                	xor    %ebx,%eax
  40326c:	83 15 8d 30 42 00 1c 	adcl   $0x1c,0x42308d
  403273:	8d 3d b3 16 a7 98    	lea    0x98a716b3,%edi
  403279:	81 ef 21 e3 64 98    	sub    $0x9864e321,%edi
  40327f:	57                   	push   %edi
  403280:	6a 01                	push   $0x1
  403282:	ff 0c 24             	decl   (%esp)
  403285:	68 01 00 10 00       	push   $0x100001
  40328a:	ff 0c 24             	decl   (%esp)
  40328d:	a1 e8 f0 41 00       	mov    0x41f0e8,%eax
  403292:	ff d0                	call   *%eax
  403294:	85 c0                	test   %eax,%eax
  403296:	0f 85 0c 87 00 00    	jne    0x40b9a8
  40329c:	29 df                	sub    %ebx,%edi
  40329e:	83 d0 dd             	adc    $0xffffffdd,%eax
  4032a1:	01 c3                	add    %eax,%ebx
  4032a3:	83 35 a4 30 42 00 34 	xorl   $0x34,0x4230a4
  4032aa:	8d 15 d0 16 a7 98    	lea    0x98a716d0,%edx
  4032b0:	81 ea 21 e3 64 98    	sub    $0x9864e321,%edx
  4032b6:	52                   	push   %edx
  4032b7:	8d 35 c0 16 a7 98    	lea    0x98a716c0,%esi
  4032bd:	81 ee 21 e3 64 98    	sub    $0x9864e321,%esi
  4032c3:	56                   	push   %esi
  4032c4:	a1 10 f1 41 00       	mov    0x41f110,%eax
  4032c9:	ff d0                	call   *%eax
  4032cb:	8d 0d d0 16 a7 98    	lea    0x98a716d0,%ecx
  4032d1:	81 e9 21 e3 64 98    	sub    $0x9864e321,%ecx
  4032d7:	51                   	push   %ecx
  4032d8:	8d 0d c0 16 a7 98    	lea    0x98a716c0,%ecx
  4032de:	81 e9 21 e3 64 98    	sub    $0x9864e321,%ecx
  4032e4:	51                   	push   %ecx
  4032e5:	a1 10 f1 41 00       	mov    0x41f110,%eax
  4032ea:	ff d0                	call   *%eax
  4032ec:	ba 01 00 00 00       	mov    $0x1,%edx
  4032f1:	01 c2                	add    %eax,%edx
  4032f3:	2a 1d 0e 31 42 00    	sub    0x42310e,%bl
  4032f9:	83 ce 12             	or     $0x12,%esi
  4032fc:	83 c6 fc             	add    $0xfffffffc,%esi
  4032ff:	8d 0d b3 16 a7 98    	lea    0x98a716b3,%ecx
  403305:	81 e9 21 e3 64 98    	sub    $0x9864e321,%ecx
  40330b:	51                   	push   %ecx
  40330c:	6a 01                	push   $0x1
  40330e:	ff 0c 24             	decl   (%esp)
  403311:	68 01 00 10 00       	push   $0x100001
  403316:	ff 0c 24             	decl   (%esp)
  403319:	a1 e8 f0 41 00       	mov    0x41f0e8,%eax
  40331e:	ff d0                	call   *%eax
  403320:	85 c0                	test   %eax,%eax
  403322:	0f 85 80 86 00 00    	jne    0x40b9a8
  403328:	82 2d 09 31 42 00 e9 	subb   $0xe9,0x423109
  40332f:	ba 01 00 00 00       	mov    $0x1,%edx
  403334:	83 c2 97             	add    $0xffffff97,%edx
  403337:	8d 3d d0 16 a7 98    	lea    0x98a716d0,%edi
  40333d:	81 ef 21 e3 64 98    	sub    $0x9864e321,%edi
  403343:	57                   	push   %edi
  403344:	8d 3d c0 16 a7 98    	lea    0x98a716c0,%edi
  40334a:	81 ef 21 e3 64 98    	sub    $0x9864e321,%edi
  403350:	57                   	push   %edi
  403351:	a1 10 f1 41 00       	mov    0x41f110,%eax
  403356:	ff d0                	call   *%eax
  403358:	ba 01 00 00 00       	mov    $0x1,%edx
  40335d:	13 15 28 31 42 00    	adc    0x423128,%edx
  403363:	29 c2                	sub    %eax,%edx
  403365:	08 15 3b 30 42 00    	or     %dl,0x42303b
  40336b:	b1 01                	mov    $0x1,%cl
  40336d:	00 f1                	add    %dh,%cl
  40336f:	8d 15 d0 16 a7 98    	lea    0x98a716d0,%edx
  403375:	81 ea 21 e3 64 98    	sub    $0x9864e321,%edx
  40337b:	52                   	push   %edx
  40337c:	8d 0d c0 16 a7 98    	lea    0x98a716c0,%ecx
  403382:	81 e9 21 e3 64 98    	sub    $0x9864e321,%ecx
  403388:	51                   	push   %ecx
  403389:	a1 10 f1 41 00       	mov    0x41f110,%eax
  40338e:	ff d0                	call   *%eax
  403390:	21 3d 0f 32 42 00    	and    %edi,0x42320f
  403396:	81 1d 83 31 42 00 bc 	sbbl   $0xbc,0x423183
  40339d:	00 00 00 
  4033a0:	83 df 80             	sbb    $0xffffff80,%edi
  4033a3:	8d 05 d0 16 a7 98    	lea    0x98a716d0,%eax
  4033a9:	2d 21 e3 64 98       	sub    $0x9864e321,%eax
  4033ae:	50                   	push   %eax
  4033af:	8d 05 c0 16 a7 98    	lea    0x98a716c0,%eax
  4033b5:	2d 21 e3 64 98       	sub    $0x9864e321,%eax
  4033ba:	50                   	push   %eax
  4033bb:	a1 10 f1 41 00       	mov    0x41f110,%eax
  4033c0:	ff d0                	call   *%eax
  4033c2:	ba 01 00 00 00       	mov    $0x1,%edx
  4033c7:	83 c2 86             	add    $0xffffff86,%edx
  4033ca:	01 ff                	add    %edi,%edi
  4033cc:	81 15 4c 31 42 00 b9 	adcl   $0xb9,0x42314c
  4033d3:	00 00 00 
  4033d6:	11 1d 25 31 42 00    	adc    %ebx,0x423125
  4033dc:	81 1d 1d 31 42 00 f6 	sbbl   $0xf6,0x42311d
  4033e3:	00 00 00 
  4033e6:	8d 15 d0 16 a7 98    	lea    0x98a716d0,%edx
  4033ec:	81 ea 21 e3 64 98    	sub    $0x9864e321,%edx
  4033f2:	52                   	push   %edx
  4033f3:	8d 35 c0 16 a7 98    	lea    0x98a716c0,%esi
  4033f9:	81 ee 21 e3 64 98    	sub    $0x9864e321,%esi
  4033ff:	56                   	push   %esi
  403400:	a1 10 f1 41 00       	mov    0x41f110,%eax
  403405:	ff d0                	call   *%eax
  403407:	83 df c9             	sbb    $0xffffffc9,%edi
  40340a:	12 05 89 30 42 00    	adc    0x423089,%al
  403410:	83 25 7b 31 42 00 01 	andl   $0x1,0x42317b
  403417:	c7 05 0d 32 42 00 87 	movl   $0x87,0x42320d
  40341e:	00 00 00 
  403421:	8d 35 b3 16 a7 98    	lea    0x98a716b3,%esi
  403427:	81 ee 21 e3 64 98    	sub    $0x9864e321,%esi
  40342d:	56                   	push   %esi
  40342e:	6a 01                	push   $0x1
  403430:	ff 0c 24             	decl   (%esp)
  403433:	68 01 00 10 00       	push   $0x100001
  403438:	ff 0c 24             	decl   (%esp)
  40343b:	a1 e8 f0 41 00       	mov    0x41f0e8,%eax
  403440:	ff d0                	call   *%eax
  403442:	83 f8 00             	cmp    $0x0,%eax
  403445:	0f 85 5d 85 00 00    	jne    0x40b9a8
  40344b:	10 ff                	adc    %bh,%bh
  40344d:	13 05 bb 30 42 00    	adc    0x4230bb,%eax
  403453:	83 25 5c 30 42 00 2e 	andl   $0x2e,0x42305c
  40345a:	83 c0 eb             	add    $0xffffffeb,%eax
  40345d:	83 1d 4a 30 42 00 76 	sbbl   $0x76,0x42304a
  403464:	2e e9 68 80 00 00    	cs jmp 0x40b4d2
  40346a:	01 f0                	add    %esi,%eax
  40346c:	12 05 a2 30 42 00    	adc    0x4230a2,%al
  403472:	01 fb                	add    %edi,%ebx
  403474:	10 c0                	adc    %al,%al
  403476:	00 00                	add    %al,(%eax)
  403478:	00 00                	add    %al,(%eax)
  40347a:	00 8d 35 d0 16 a7    	add    %cl,-0x58e92fcb(%ebp)
  403480:	98                   	cwtl
  403481:	81 ee 21 e3 64 98    	sub    $0x9864e321,%esi
  403487:	56                   	push   %esi
  403488:	8d 15 c0 16 a7 98    	lea    0x98a716c0,%edx
  40348e:	81 ea 21 e3 64 98    	sub    $0x9864e321,%edx
  403494:	52                   	push   %edx
  403495:	a1 10 f1 41 00       	mov    0x41f110,%eax
  40349a:	ff d0                	call   *%eax
  40349c:	01 35 e5 31 42 00    	add    %esi,0x4231e5
  4034a2:	8d 3d b3 16 a7 98    	lea    0x98a716b3,%edi
  4034a8:	81 ef 21 e3 64 98    	sub    $0x9864e321,%edi
  4034ae:	57                   	push   %edi
  4034af:	6a 01                	push   $0x1
  4034b1:	ff 0c 24             	decl   (%esp)
  4034b4:	68 01 00 10 00       	push   $0x100001
  4034b9:	ff 0c 24             	decl   (%esp)
  4034bc:	a1 e8 f0 41 00       	mov    0x41f0e8,%eax
  4034c1:	ff d0                	call   *%eax
  4034c3:	85 c0                	test   %eax,%eax
  4034c5:	0f 85 dd 84 00 00    	jne    0x40b9a8
  4034cb:	b9 01 00 00 00       	mov    $0x1,%ecx
  4034d0:	13 0d 3b 31 42 00    	adc    0x42313b,%ecx
  4034d6:	8d 05 d0 16 a7 98    	lea    0x98a716d0,%eax
  4034dc:	2d 21 e3 64 98       	sub    $0x9864e321,%eax
  4034e1:	50                   	push   %eax
  4034e2:	8d 0d c0 16 a7 98    	lea    0x98a716c0,%ecx
  4034e8:	81 e9 21 e3 64 98    	sub    $0x9864e321,%ecx
  4034ee:	51                   	push   %ecx
  4034ef:	a1 10 f1 41 00       	mov    0x41f110,%eax
  4034f4:	ff d0                	call   *%eax
  4034f6:	13 05 dc 30 42 00    	adc    0x4230dc,%eax
  4034fc:	81 1d 0a 31 42 00 fb 	sbbl   $0xfb,0x42310a
  403503:	00 00 00 
  403506:	8d 35 d0 16 a7 98    	lea    0x98a716d0,%esi
  40350c:	81 ee 21 e3 64 98    	sub    $0x9864e321,%esi
  403512:	56                   	push   %esi
  403513:	8d 05 c0 16 a7 98    	lea    0x98a716c0,%eax
  403519:	2d 21 e3 64 98       	sub    $0x9864e321,%eax
  40351e:	50                   	push   %eax
  40351f:	a1 10 f1 41 00       	mov    0x41f110,%eax
  403524:	ff d0                	call   *%eax
  403526:	ba 01 00 00 00       	mov    $0x1,%edx
  40352b:	01 f2                	add    %esi,%edx
  40352d:	12 15 95 31 42 00    	adc    0x423195,%dl
  403533:	19 05 0e 31 42 00    	sbb    %eax,0x42310e
  403539:	31 15 31 31 42 00    	xor    %edx,0x423131
  40353f:	8d 1d b3 16 a7 98    	lea    0x98a716b3,%ebx
  403545:	81 eb 21 e3 64 98    	sub    $0x9864e321,%ebx
  40354b:	53                   	push   %ebx
  40354c:	6a 01                	push   $0x1
  40354e:	ff 0c 24             	decl   (%esp)
  403551:	68 01 00 10 00       	push   $0x100001
  403556:	ff 0c 24             	decl   (%esp)
  403559:	a1 e8 f0 41 00       	mov    0x41f0e8,%eax
  40355e:	ff d0                	call   *%eax
  403560:	83 f8 00             	cmp    $0x0,%eax
  403563:	0f 85 3f 84 00 00    	jne    0x40b9a8
  403569:	11 3d eb 31 42 00    	adc    %edi,0x4231eb
  40356f:	01 f7                	add    %esi,%edi
  403571:	01 ff                	add    %edi,%edi
  403573:	0b 05 ea 31 42 00    	or     0x4231ea,%eax
  403579:	81 15 76 30 42 00 82 	adcl   $0x82,0x423076
  403580:	00 00 00 
  403583:	8d 15 b3 16 a7 98    	lea    0x98a716b3,%edx
  403589:	81 ea 21 e3 64 98    	sub    $0x9864e321,%edx
  40358f:	52                   	push   %edx
  403590:	6a 01                	push   $0x1
  403592:	ff 0c 24             	decl   (%esp)
  403595:	68 01 00 10 00       	push   $0x100001
  40359a:	ff 0c 24             	decl   (%esp)
  40359d:	a1 e8 f0 41 00       	mov    0x41f0e8,%eax
  4035a2:	ff d0                	call   *%eax
  4035a4:	83 f8 00             	cmp    $0x0,%eax
  4035a7:	0f 85 fb 83 00 00    	jne    0x40b9a8
  4035ad:	01 1d 84 30 42 00    	add    %ebx,0x423084
  4035b3:	b1 01                	mov    $0x1,%cl
  4035b5:	00 f9                	add    %bh,%cl
  4035b7:	09 1d 86 30 42 00    	or     %ebx,0x423086
  4035bd:	8d 35 b3 16 a7 98    	lea    0x98a716b3,%esi
  4035c3:	81 ee 21 e3 64 98    	sub    $0x9864e321,%esi
  4035c9:	56                   	push   %esi
  4035ca:	6a 01                	push   $0x1
  4035cc:	ff 0c 24             	decl   (%esp)
  4035cf:	68 01 00 10 00       	push   $0x100001
  4035d4:	ff 0c 24             	decl   (%esp)
  4035d7:	a1 e8 f0 41 00       	mov    0x41f0e8,%eax
  4035dc:	ff d0                	call   *%eax
  4035de:	85 c0                	test   %eax,%eax
  4035e0:	0f 85 c2 83 00 00    	jne    0x40b9a8
  4035e6:	83 e7 cc             	and    $0xffffffcc,%edi
  4035e9:	31 05 eb 30 42 00    	xor    %eax,0x4230eb
  4035ef:	09 1d 02 31 42 00    	or     %ebx,0x423102
  4035f5:	31 f6                	xor    %esi,%esi
  4035f7:	19 3d 56 30 42 00    	sbb    %edi,0x423056
  4035fd:	8d 15 b3 16 a7 98    	lea    0x98a716b3,%edx
  403603:	81 ea 21 e3 64 98    	sub    $0x9864e321,%edx
  403609:	52                   	push   %edx
  40360a:	6a 01                	push   $0x1
  40360c:	ff 0c 24             	decl   (%esp)
  40360f:	68 01 00 10 00       	push   $0x100001
  403614:	ff 0c 24             	decl   (%esp)
  403617:	a1 e8 f0 41 00       	mov    0x41f0e8,%eax
  40361c:	ff d0                	call   *%eax
  40361e:	85 c0                	test   %eax,%eax
  403620:	0f 85 82 83 00 00    	jne    0x40b9a8
  403626:	83 15 54 30 42 00 24 	adcl   $0x24,0x423054
  40362d:	0b 35 aa 30 42 00    	or     0x4230aa,%esi
  403633:	0a 3d f6 30 42 00    	or     0x4230f6,%bh
  403639:	01 fb                	add    %edi,%ebx
  40363b:	ba 01 00 00 00       	mov    $0x1,%edx
  403640:	13 15 4c 30 42 00    	adc    0x42304c,%edx
  403646:	8d 1d d0 16 a7 98    	lea    0x98a716d0,%ebx
  40364c:	81 eb 21 e3 64 98    	sub    $0x9864e321,%ebx
  403652:	53                   	push   %ebx
  403653:	8d 15 c0 16 a7 98    	lea    0x98a716c0,%edx
  403659:	81 ea 21 e3 64 98    	sub    $0x9864e321,%edx
  40365f:	52                   	push   %edx
  403660:	a1 10 f1 41 00       	mov    0x41f110,%eax
  403665:	ff d0                	call   *%eax
  403667:	82 ef 1b             	sub    $0x1b,%bh
  40366a:	18 f8                	sbb    %bh,%al
  40366c:	01 f7                	add    %esi,%edi
  40366e:	c7 05 6c 30 42 00 fc 	movl   $0xfc,0x42306c
  403675:	00 00 00 
  403678:	30 3d 71 30 42 00    	xor    %bh,0x423071
  40367e:	8d 0d d0 16 a7 98    	lea    0x98a716d0,%ecx
  403684:	81 e9 21 e3 64 98    	sub    $0x9864e321,%ecx
  40368a:	51                   	push   %ecx
  40368b:	8d 05 c0 16 a7 98    	lea    0x98a716c0,%eax
  403691:	2d 21 e3 64 98       	sub    $0x9864e321,%eax
  403696:	50                   	push   %eax
  403697:	a1 10 f1 41 00       	mov    0x41f110,%eax
  40369c:	ff d0                	call   *%eax
  40369e:	00 25 c7 31 42 00    	add    %ah,0x4231c7
  4036a4:	08 05 d3 30 42 00    	or     %al,0x4230d3
  4036aa:	b9 01 00 00 00       	mov    $0x1,%ecx
  4036af:	83 c1 37             	add    $0x37,%ecx
  4036b2:	2b 05 4e 30 42 00    	sub    0x42304e,%eax
  4036b8:	2e e9 14 7e 00 00    	cs jmp 0x40b4d2
  4036be:	29 de                	sub    %ebx,%esi
  4036c0:	81 0d df 30 42 00 d9 	orl    $0xd9,0x4230df
  4036c7:	00 00 00 
  4036ca:	ba 01 00 00 00       	mov    $0x1,%edx
  4036cf:	01 ca                	add    %ecx,%edx
  4036d1:	81 25 36 30 42 00 be 	andl   $0xbe,0x423036
  4036d8:	00 00 00 
  4036db:	81 1d 92 30 42 00 84 	sbbl   $0x84,0x423092
  4036e2:	00 00 00 
	...
  4036ed:	00 00                	add    %al,(%eax)
  4036ef:	00 ba 01 00 00 00    	add    %bh,0x1(%edx)
  4036f5:	83 c2 8b             	add    $0xffffff8b,%edx
  4036f8:	83 d2 53             	adc    $0x53,%edx
  4036fb:	83 c7 86             	add    $0xffffff86,%edi
  4036fe:	01 c6                	add    %eax,%esi
  403700:	29 d7                	sub    %edx,%edi
  403702:	8d 35 b3 16 a7 98    	lea    0x98a716b3,%esi
  403708:	81 ee 21 e3 64 98    	sub    $0x9864e321,%esi
  40370e:	56                   	push   %esi
  40370f:	6a 01                	push   $0x1
  403711:	ff 0c 24             	decl   (%esp)
  403714:	68 01 00 10 00       	push   $0x100001
  403719:	ff 0c 24             	decl   (%esp)
  40371c:	a1 e8 f0 41 00       	mov    0x41f0e8,%eax
  403721:	ff d0                	call   *%eax
  403723:	85 c0                	test   %eax,%eax
  403725:	0f 85 7d 82 00 00    	jne    0x40b9a8
  40372b:	83 ce 2e             	or     $0x2e,%esi
  40372e:	83 df 41             	sbb    $0x41,%edi
  403731:	04 86                	add    $0x86,%al
  403733:	8d 0d d0 16 a7 98    	lea    0x98a716d0,%ecx
  403739:	81 e9 21 e3 64 98    	sub    $0x9864e321,%ecx
  40373f:	51                   	push   %ecx
  403740:	8d 05 c0 16 a7 98    	lea    0x98a716c0,%eax
  403746:	2d 21 e3 64 98       	sub    $0x9864e321,%eax
  40374b:	50                   	push   %eax
  40374c:	a1 10 f1 41 00       	mov    0x41f110,%eax
  403751:	ff d0                	call   *%eax
  403753:	83 f7 b5             	xor    $0xffffffb5,%edi
  403756:	8d 35 b3 16 a7 98    	lea    0x98a716b3,%esi
  40375c:	81 ee 21 e3 64 98    	sub    $0x9864e321,%esi
  403762:	56                   	push   %esi
  403763:	6a 01                	push   $0x1
  403765:	ff 0c 24             	decl   (%esp)
  403768:	68 01 00 10 00       	push   $0x100001
  40376d:	ff 0c 24             	decl   (%esp)
  403770:	a1 e8 f0 41 00       	mov    0x41f0e8,%eax
  403775:	ff d0                	call   *%eax
  403777:	83 f8 00             	cmp    $0x0,%eax
  40377a:	0f 85 28 82 00 00    	jne    0x40b9a8
  403780:	8d 1d d0 16 a7 98    	lea    0x98a716d0,%ebx
  403786:	81 eb 21 e3 64 98    	sub    $0x9864e321,%ebx
  40378c:	53                   	push   %ebx
  40378d:	8d 05 c0 16 a7 98    	lea    0x98a716c0,%eax
  403793:	2d 21 e3 64 98       	sub    $0x9864e321,%eax
  403798:	50                   	push   %eax
  403799:	a1 10 f1 41 00       	mov    0x41f110,%eax
  40379e:	ff d0                	call   *%eax
  4037a0:	8d 05 b3 16 a7 98    	lea    0x98a716b3,%eax
  4037a6:	2d 21 e3 64 98       	sub    $0x9864e321,%eax
  4037ab:	50                   	push   %eax
  4037ac:	6a 01                	push   $0x1
  4037ae:	ff 0c 24             	decl   (%esp)
  4037b1:	68 01 00 10 00       	push   $0x100001
  4037b6:	ff 0c 24             	decl   (%esp)
  4037b9:	a1 e8 f0 41 00       	mov    0x41f0e8,%eax
  4037be:	ff d0                	call   *%eax
  4037c0:	83 f8 00             	cmp    $0x0,%eax
  4037c3:	0f 85 df 81 00 00    	jne    0x40b9a8
  4037c9:	19 c3                	sbb    %eax,%ebx
  4037cb:	82 2d c6 30 42 00 6f 	subb   $0x6f,0x4230c6
  4037d2:	8d 15 d0 16 a7 98    	lea    0x98a716d0,%edx
  4037d8:	81 ea 21 e3 64 98    	sub    $0x9864e321,%edx
  4037de:	52                   	push   %edx
  4037df:	8d 3d c0 16 a7 98    	lea    0x98a716c0,%edi
  4037e5:	81 ef 21 e3 64 98    	sub    $0x9864e321,%edi
  4037eb:	57                   	push   %edi
  4037ec:	a1 10 f1 41 00       	mov    0x41f110,%eax
  4037f1:	ff d0                	call   *%eax
  4037f3:	19 f0                	sbb    %esi,%eax
  4037f5:	8d 1d b3 16 a7 98    	lea    0x98a716b3,%ebx
  4037fb:	81 eb 21 e3 64 98    	sub    $0x9864e321,%ebx
  403801:	53                   	push   %ebx
  403802:	6a 01                	push   $0x1
  403804:	ff 0c 24             	decl   (%esp)
  403807:	68 01 00 10 00       	push   $0x100001
  40380c:	ff 0c 24             	decl   (%esp)
  40380f:	a1 e8 f0 41 00       	mov    0x41f0e8,%eax
  403814:	ff d0                	call   *%eax
  403816:	83 f8 00             	cmp    $0x0,%eax
  403819:	0f 85 89 81 00 00    	jne    0x40b9a8
  40381f:	09 35 f9 30 42 00    	or     %esi,0x4230f9
  403825:	8d 3d d0 16 a7 98    	lea    0x98a716d0,%edi
  40382b:	81 ef 21 e3 64 98    	sub    $0x9864e321,%edi
  403831:	57                   	push   %edi
  403832:	8d 35 c0 16 a7 98    	lea    0x98a716c0,%esi
  403838:	81 ee 21 e3 64 98    	sub    $0x9864e321,%esi
  40383e:	56                   	push   %esi
  40383f:	a1 10 f1 41 00       	mov    0x41f110,%eax
  403844:	ff d0                	call   *%eax
  403846:	12 05 ea 31 42 00    	adc    0x4231ea,%al
  40384c:	8d 15 b3 16 a7 98    	lea    0x98a716b3,%edx
  403852:	81 ea 21 e3 64 98    	sub    $0x9864e321,%edx
  403858:	52                   	push   %edx
  403859:	6a 01                	push   $0x1
  40385b:	ff 0c 24             	decl   (%esp)
  40385e:	68 01 00 10 00       	push   $0x100001
  403863:	ff 0c 24             	decl   (%esp)
  403866:	a1 e8 f0 41 00       	mov    0x41f0e8,%eax
  40386b:	ff d0                	call   *%eax
  40386d:	85 c0                	test   %eax,%eax
  40386f:	0f 85 33 81 00 00    	jne    0x40b9a8
  403875:	81 15 e4 30 42 00 f4 	adcl   $0xf4,0x4230e4
  40387c:	00 00 00 
  40387f:	12 3d 4d 30 42 00    	adc    0x42304d,%bh
  403885:	21 35 d3 31 42 00    	and    %esi,0x4231d3
  40388b:	c7 05 e3 31 42 00 e9 	movl   $0xe9,0x4231e3
  403892:	00 00 00 
  403895:	8d 0d d0 16 a7 98    	lea    0x98a716d0,%ecx
  40389b:	81 e9 21 e3 64 98    	sub    $0x9864e321,%ecx
  4038a1:	51                   	push   %ecx
  4038a2:	8d 05 c0 16 a7 98    	lea    0x98a716c0,%eax
  4038a8:	2d 21 e3 64 98       	sub    $0x9864e321,%eax
  4038ad:	50                   	push   %eax
  4038ae:	a1 10 f1 41 00       	mov    0x41f110,%eax
  4038b3:	ff d0                	call   *%eax
  4038b5:	83 eb 5a             	sub    $0x5a,%ebx
  4038b8:	31 1d 5b 31 42 00    	xor    %ebx,0x42315b
  4038be:	09 3d b2 30 42 00    	or     %edi,0x4230b2
  4038c4:	8d 0d d0 16 a7 98    	lea    0x98a716d0,%ecx
  4038ca:	81 e9 21 e3 64 98    	sub    $0x9864e321,%ecx
  4038d0:	51                   	push   %ecx
  4038d1:	8d 3d c0 16 a7 98    	lea    0x98a716c0,%edi
  4038d7:	81 ef 21 e3 64 98    	sub    $0x9864e321,%edi
  4038dd:	57                   	push   %edi
  4038de:	a1 10 f1 41 00       	mov    0x41f110,%eax
  4038e3:	ff d0                	call   *%eax
  4038e5:	81 15 d9 31 42 00 fc 	adcl   $0xfc,0x4231d9
  4038ec:	00 00 00 
  4038ef:	b9 01 00 00 00       	mov    $0x1,%ecx
  4038f4:	13 0d f2 30 42 00    	adc    0x4230f2,%ecx
  4038fa:	83 f7 53             	xor    $0x53,%edi
  4038fd:	21 35 03 32 42 00    	and    %esi,0x423203
  403903:	2e e9 c9 7b 00 00    	cs jmp 0x40b4d2
  403909:	01 1d ef 30 42 00    	add    %ebx,0x4230ef
  40390f:	2c 8e                	sub    $0x8e,%al
  403911:	00 00                	add    %al,(%eax)
  403913:	21 05 c5 31 42 00    	and    %eax,0x4231c5
  403919:	13 35 3d 31 42 00    	adc    0x42313d,%esi
  40391f:	83 eb a3             	sub    $0xffffffa3,%ebx
  403922:	81 25 4d 31 42 00 a6 	andl   $0xa6,0x42314d
  403929:	00 00 00 
  40392c:	81 35 b6 31 42 00 e0 	xorl   $0xe0,0x4231b6
  403933:	00 00 00 
  403936:	8d 05 d0 16 a7 98    	lea    0x98a716d0,%eax
  40393c:	2d 21 e3 64 98       	sub    $0x9864e321,%eax
  403941:	50                   	push   %eax
  403942:	8d 15 c0 16 a7 98    	lea    0x98a716c0,%edx
  403948:	81 ea 21 e3 64 98    	sub    $0x9864e321,%edx
  40394e:	52                   	push   %edx
  40394f:	a1 10 f1 41 00       	mov    0x41f110,%eax
  403954:	ff d0                	call   *%eax
  403956:	83 c7 b4             	add    $0xffffffb4,%edi
  403959:	c7 05 c2 30 42 00 cf 	movl   $0xcf,0x4230c2
  403960:	00 00 00 
  403963:	8d 0d d0 16 a7 98    	lea    0x98a716d0,%ecx
  403969:	81 e9 21 e3 64 98    	sub    $0x9864e321,%ecx
  40396f:	51                   	push   %ecx
  403970:	8d 1d c0 16 a7 98    	lea    0x98a716c0,%ebx
  403976:	81 eb 21 e3 64 98    	sub    $0x9864e321,%ebx
  40397c:	53                   	push   %ebx
  40397d:	a1 10 f1 41 00       	mov    0x41f110,%eax
  403982:	ff d0                	call   *%eax
  403984:	ba 01 00 00 00       	mov    $0x1,%edx
  403989:	83 c2 2d             	add    $0x2d,%edx
  40398c:	81 25 0b 31 42 00 e2 	andl   $0xe2,0x42310b
  403993:	00 00 00 
  403996:	8d 05 d0 16 a7 98    	lea    0x98a716d0,%eax
  40399c:	2d 21 e3 64 98       	sub    $0x9864e321,%eax
  4039a1:	50                   	push   %eax
  4039a2:	8d 3d c0 16 a7 98    	lea    0x98a716c0,%edi
  4039a8:	81 ef 21 e3 64 98    	sub    $0x9864e321,%edi
  4039ae:	57                   	push   %edi
  4039af:	a1 10 f1 41 00       	mov    0x41f110,%eax
  4039b4:	ff d0                	call   *%eax
  4039b6:	ba 01 00 00 00       	mov    $0x1,%edx
  4039bb:	83 c2 cb             	add    $0xffffffcb,%edx
  4039be:	83 25 bc 31 42 00 51 	andl   $0x51,0x4231bc
  4039c5:	13 35 9f 31 42 00    	adc    0x42319f,%esi
  4039cb:	8d 0d b3 16 a7 98    	lea    0x98a716b3,%ecx
  4039d1:	81 e9 21 e3 64 98    	sub    $0x9864e321,%ecx
  4039d7:	51                   	push   %ecx
  4039d8:	6a 01                	push   $0x1
  4039da:	ff 0c 24             	decl   (%esp)
  4039dd:	68 01 00 10 00       	push   $0x100001
  4039e2:	ff 0c 24             	decl   (%esp)
  4039e5:	a1 e8 f0 41 00       	mov    0x41f0e8,%eax
  4039ea:	ff d0                	call   *%eax
  4039ec:	85 c0                	test   %eax,%eax
  4039ee:	0f 85 b4 7f 00 00    	jne    0x40b9a8
  4039f4:	12 1d 54 31 42 00    	adc    0x423154,%bl
  4039fa:	b9 01 00 00 00       	mov    $0x1,%ecx
  4039ff:	01 c1                	add    %eax,%ecx
  403a01:	08 25 37 30 42 00    	or     %ah,0x423037
  403a07:	8d 35 d0 16 a7 98    	lea    0x98a716d0,%esi
  403a0d:	81 ee 21 e3 64 98    	sub    $0x9864e321,%esi
  403a13:	56                   	push   %esi
  403a14:	8d 3d c0 16 a7 98    	lea    0x98a716c0,%edi
  403a1a:	81 ef 21 e3 64 98    	sub    $0x9864e321,%edi
  403a20:	57                   	push   %edi
  403a21:	a1 10 f1 41 00       	mov    0x41f110,%eax
  403a26:	ff d0                	call   *%eax
  403a28:	09 3d 2b 31 42 00    	or     %edi,0x42312b
  403a2e:	ba 01 00 00 00       	mov    $0x1,%edx
  403a33:	01 da                	add    %ebx,%edx
  403a35:	8d 3d d0 16 a7 98    	lea    0x98a716d0,%edi
  403a3b:	81 ef 21 e3 64 98    	sub    $0x9864e321,%edi
  403a41:	57                   	push   %edi
  403a42:	8d 05 c0 16 a7 98    	lea    0x98a716c0,%eax
  403a48:	2d 21 e3 64 98       	sub    $0x9864e321,%eax
  403a4d:	50                   	push   %eax
  403a4e:	a1 10 f1 41 00       	mov    0x41f110,%eax
  403a53:	ff d0                	call   *%eax
  403a55:	81 15 1c 31 42 00 ba 	adcl   $0xba,0x42311c
  403a5c:	00 00 00 
  403a5f:	8d 15 b3 16 a7 98    	lea    0x98a716b3,%edx
  403a65:	81 ea 21 e3 64 98    	sub    $0x9864e321,%edx
  403a6b:	52                   	push   %edx
  403a6c:	6a 01                	push   $0x1
  403a6e:	ff 0c 24             	decl   (%esp)
  403a71:	68 01 00 10 00       	push   $0x100001
  403a76:	ff 0c 24             	decl   (%esp)
  403a79:	a1 e8 f0 41 00       	mov    0x41f0e8,%eax
  403a7e:	ff d0                	call   *%eax
  403a80:	85 c0                	test   %eax,%eax
  403a82:	0f 85 20 7f 00 00    	jne    0x40b9a8
  403a88:	31 f7                	xor    %esi,%edi
  403a8a:	83 d0 29             	adc    $0x29,%eax
  403a8d:	8d 0d d0 16 a7 98    	lea    0x98a716d0,%ecx
  403a93:	81 e9 21 e3 64 98    	sub    $0x9864e321,%ecx
  403a99:	51                   	push   %ecx
  403a9a:	8d 0d c0 16 a7 98    	lea    0x98a716c0,%ecx
  403aa0:	81 e9 21 e3 64 98    	sub    $0x9864e321,%ecx
  403aa6:	51                   	push   %ecx
  403aa7:	a1 10 f1 41 00       	mov    0x41f110,%eax
  403aac:	ff d0                	call   *%eax
  403aae:	19 35 ab 31 42 00    	sbb    %esi,0x4231ab
  403ab4:	8d 0d b3 16 a7 98    	lea    0x98a716b3,%ecx
  403aba:	81 e9 21 e3 64 98    	sub    $0x9864e321,%ecx
  403ac0:	51                   	push   %ecx
  403ac1:	6a 01                	push   $0x1
  403ac3:	ff 0c 24             	decl   (%esp)
  403ac6:	68 01 00 10 00       	push   $0x100001
  403acb:	ff 0c 24             	decl   (%esp)
  403ace:	a1 e8 f0 41 00       	mov    0x41f0e8,%eax
  403ad3:	ff d0                	call   *%eax
  403ad5:	83 f8 00             	cmp    $0x0,%eax
  403ad8:	0f 85 ca 7e 00 00    	jne    0x40b9a8
  403ade:	01 3d bc 31 42 00    	add    %edi,0x4231bc
  403ae4:	01 f6                	add    %esi,%esi
  403ae6:	b2 01                	mov    $0x1,%dl
  403ae8:	00 e2                	add    %ah,%dl
  403aea:	8d 15 b3 16 a7 98    	lea    0x98a716b3,%edx
  403af0:	81 ea 21 e3 64 98    	sub    $0x9864e321,%edx
  403af6:	52                   	push   %edx
  403af7:	6a 01                	push   $0x1
  403af9:	ff 0c 24             	decl   (%esp)
  403afc:	68 01 00 10 00       	push   $0x100001
  403b01:	ff 0c 24             	decl   (%esp)
  403b04:	a1 e8 f0 41 00       	mov    0x41f0e8,%eax
  403b09:	ff d0                	call   *%eax
  403b0b:	83 f8 00             	cmp    $0x0,%eax
  403b0e:	0f 85 94 7e 00 00    	jne    0x40b9a8
  403b14:	c7 05 8a 31 42 00 40 	movl   $0x40,0x42318a
  403b1b:	00 00 00 
  403b1e:	2b 3d 33 31 42 00    	sub    0x423133,%edi
  403b24:	19 fe                	sbb    %edi,%esi
  403b26:	13 05 1f 31 42 00    	adc    0x42311f,%eax
  403b2c:	2e e9 a0 79 00 00    	cs jmp 0x40b4d2
  403b32:	01 35 15 32 42 00    	add    %esi,0x423215
  403b38:	29 3d 0f 32 42 00    	sub    %edi,0x42320f
	...
  403b4a:	01 1d df 31 42 00    	add    %ebx,0x4231df
  403b50:	29 1d 46 31 42 00    	sub    %ebx,0x423146
  403b56:	ba 01 00 00 00       	mov    $0x1,%edx
  403b5b:	13 15 33 30 42 00    	adc    0x423033,%edx
  403b61:	82 f4 34             	xor    $0x34,%ah
  403b64:	8d 05 d0 16 a7 98    	lea    0x98a716d0,%eax
  403b6a:	2d 21 e3 64 98       	sub    $0x9864e321,%eax
  403b6f:	50                   	push   %eax
  403b70:	8d 0d c0 16 a7 98    	lea    0x98a716c0,%ecx
  403b76:	81 e9 21 e3 64 98    	sub    $0x9864e321,%ecx
  403b7c:	51                   	push   %ecx
  403b7d:	a1 10 f1 41 00       	mov    0x41f110,%eax
  403b82:	ff d0                	call   *%eax
  403b84:	2b 05 2a 31 42 00    	sub    0x42312a,%eax
  403b8a:	19 f0                	sbb    %esi,%eax
  403b8c:	b5 01                	mov    $0x1,%ch
  403b8e:	82 c5 41             	add    $0x41,%ch
  403b91:	83 e8 27             	sub    $0x27,%eax
  403b94:	83 35 c3 30 42 00 0e 	xorl   $0xe,0x4230c3
  403b9b:	8d 1d b3 16 a7 98    	lea    0x98a716b3,%ebx
  403ba1:	81 eb 21 e3 64 98    	sub    $0x9864e321,%ebx
  403ba7:	53                   	push   %ebx
  403ba8:	6a 01                	push   $0x1
  403baa:	ff 0c 24             	decl   (%esp)
  403bad:	68 01 00 10 00       	push   $0x100001
  403bb2:	ff 0c 24             	decl   (%esp)
  403bb5:	a1 e8 f0 41 00       	mov    0x41f0e8,%eax
  403bba:	ff d0                	call   *%eax
  403bbc:	83 f8 00             	cmp    $0x0,%eax
  403bbf:	0f 85 e3 7d 00 00    	jne    0x40b9a8
  403bc5:	8d 05 d0 16 a7 98    	lea    0x98a716d0,%eax
  403bcb:	2d 21 e3 64 98       	sub    $0x9864e321,%eax
  403bd0:	50                   	push   %eax
  403bd1:	8d 05 c0 16 a7 98    	lea    0x98a716c0,%eax
  403bd7:	2d 21 e3 64 98       	sub    $0x9864e321,%eax
  403bdc:	50                   	push   %eax
  403bdd:	a1 10 f1 41 00       	mov    0x41f110,%eax
  403be2:	ff d0                	call   *%eax
  403be4:	83 ee 03             	sub    $0x3,%esi
  403be7:	b9 01 00 00 00       	mov    $0x1,%ecx
  403bec:	01 d9                	add    %ebx,%ecx
  403bee:	8d 15 b3 16 a7 98    	lea    0x98a716b3,%edx
  403bf4:	81 ea 21 e3 64 98    	sub    $0x9864e321,%edx
  403bfa:	52                   	push   %edx
  403bfb:	6a 01                	push   $0x1
  403bfd:	ff 0c 24             	decl   (%esp)
  403c00:	68 01 00 10 00       	push   $0x100001
  403c05:	ff 0c 24             	decl   (%esp)
  403c08:	a1 e8 f0 41 00       	mov    0x41f0e8,%eax
  403c0d:	ff d0                	call   *%eax
  403c0f:	83 f8 00             	cmp    $0x0,%eax
  403c12:	0f 85 90 7d 00 00    	jne    0x40b9a8
  403c18:	0b 05 5f 30 42 00    	or     0x42305f,%eax
  403c1e:	83 25 2b 30 42 00 7d 	andl   $0x7d,0x42302b
  403c25:	31 1d 4b 30 42 00    	xor    %ebx,0x42304b
  403c2b:	8d 15 d0 16 a7 98    	lea    0x98a716d0,%edx
  403c31:	81 ea 21 e3 64 98    	sub    $0x9864e321,%edx
  403c37:	52                   	push   %edx
  403c38:	8d 1d c0 16 a7 98    	lea    0x98a716c0,%ebx
  403c3e:	81 eb 21 e3 64 98    	sub    $0x9864e321,%ebx
  403c44:	53                   	push   %ebx
  403c45:	a1 10 f1 41 00       	mov    0x41f110,%eax
  403c4a:	ff d0                	call   *%eax
  403c4c:	8d 1d b3 16 a7 98    	lea    0x98a716b3,%ebx
  403c52:	81 eb 21 e3 64 98    	sub    $0x9864e321,%ebx
  403c58:	53                   	push   %ebx
  403c59:	6a 01                	push   $0x1
  403c5b:	ff 0c 24             	decl   (%esp)
  403c5e:	68 01 00 10 00       	push   $0x100001
  403c63:	ff 0c 24             	decl   (%esp)
  403c66:	a1 e8 f0 41 00       	mov    0x41f0e8,%eax
  403c6b:	ff d0                	call   *%eax
  403c6d:	83 f8 00             	cmp    $0x0,%eax
  403c70:	0f 85 32 7d 00 00    	jne    0x40b9a8
  403c76:	31 f3                	xor    %esi,%ebx
  403c78:	8d 35 d0 16 a7 98    	lea    0x98a716d0,%esi
  403c7e:	81 ee 21 e3 64 98    	sub    $0x9864e321,%esi
  403c84:	56                   	push   %esi
  403c85:	8d 35 c0 16 a7 98    	lea    0x98a716c0,%esi
  403c8b:	81 ee 21 e3 64 98    	sub    $0x9864e321,%esi
  403c91:	56                   	push   %esi
  403c92:	a1 10 f1 41 00       	mov    0x41f110,%eax
  403c97:	ff d0                	call   *%eax
  403c99:	31 05 4f 31 42 00    	xor    %eax,0x42314f
  403c9f:	01 c6                	add    %eax,%esi
  403ca1:	8d 1d b3 16 a7 98    	lea    0x98a716b3,%ebx
  403ca7:	81 eb 21 e3 64 98    	sub    $0x9864e321,%ebx
  403cad:	53                   	push   %ebx
  403cae:	6a 01                	push   $0x1
  403cb0:	ff 0c 24             	decl   (%esp)
  403cb3:	68 01 00 10 00       	push   $0x100001
  403cb8:	ff 0c 24             	decl   (%esp)
  403cbb:	a1 e8 f0 41 00       	mov    0x41f0e8,%eax
  403cc0:	ff d0                	call   *%eax
  403cc2:	85 c0                	test   %eax,%eax
  403cc4:	0f 85 de 7c 00 00    	jne    0x40b9a8
  403cca:	13 1d 42 30 42 00    	adc    0x423042,%ebx
  403cd0:	19 c3                	sbb    %eax,%ebx
  403cd2:	8d 15 b3 16 a7 98    	lea    0x98a716b3,%edx
  403cd8:	81 ea 21 e3 64 98    	sub    $0x9864e321,%edx
  403cde:	52                   	push   %edx
  403cdf:	6a 01                	push   $0x1
  403ce1:	ff 0c 24             	decl   (%esp)
  403ce4:	68 01 00 10 00       	push   $0x100001
  403ce9:	ff 0c 24             	decl   (%esp)
  403cec:	a1 e8 f0 41 00       	mov    0x41f0e8,%eax
  403cf1:	ff d0                	call   *%eax
  403cf3:	85 c0                	test   %eax,%eax
  403cf5:	0f 85 ad 7c 00 00    	jne    0x40b9a8
  403cfb:	8d 1d b3 16 a7 98    	lea    0x98a716b3,%ebx
  403d01:	81 eb 21 e3 64 98    	sub    $0x9864e321,%ebx
  403d07:	53                   	push   %ebx
  403d08:	6a 01                	push   $0x1
  403d0a:	ff 0c 24             	decl   (%esp)
  403d0d:	68 01 00 10 00       	push   $0x100001
  403d12:	ff 0c 24             	decl   (%esp)
  403d15:	a1 e8 f0 41 00       	mov    0x41f0e8,%eax
  403d1a:	ff d0                	call   *%eax
  403d1c:	83 f8 00             	cmp    $0x0,%eax
  403d1f:	0f 85 83 7c 00 00    	jne    0x40b9a8
  403d25:	b9 01 00 00 00       	mov    $0x1,%ecx
  403d2a:	83 c1 23             	add    $0x23,%ecx
  403d2d:	82 2d 77 30 42 00 93 	subb   $0x93,0x423077
  403d34:	11 cf                	adc    %ecx,%edi
  403d36:	8d 35 b3 16 a7 98    	lea    0x98a716b3,%esi
  403d3c:	81 ee 21 e3 64 98    	sub    $0x9864e321,%esi
  403d42:	56                   	push   %esi
  403d43:	6a 01                	push   $0x1
  403d45:	ff 0c 24             	decl   (%esp)
  403d48:	68 01 00 10 00       	push   $0x100001
  403d4d:	ff 0c 24             	decl   (%esp)
  403d50:	a1 e8 f0 41 00       	mov    0x41f0e8,%eax
  403d55:	ff d0                	call   *%eax
  403d57:	83 f8 00             	cmp    $0x0,%eax
  403d5a:	0f 85 48 7c 00 00    	jne    0x40b9a8
  403d60:	b9 01 00 00 00       	mov    $0x1,%ecx
  403d65:	13 0d 79 31 42 00    	adc    0x423179,%ecx
  403d6b:	8d 35 d0 16 a7 98    	lea    0x98a716d0,%esi
  403d71:	81 ee 21 e3 64 98    	sub    $0x9864e321,%esi
  403d77:	56                   	push   %esi
  403d78:	8d 35 c0 16 a7 98    	lea    0x98a716c0,%esi
  403d7e:	81 ee 21 e3 64 98    	sub    $0x9864e321,%esi
  403d84:	56                   	push   %esi
  403d85:	a1 10 f1 41 00       	mov    0x41f110,%eax
  403d8a:	ff d0                	call   *%eax
  403d8c:	c7 05 2c 30 42 00 e0 	movl   $0xe0,0x42302c
  403d93:	00 00 00 
  403d96:	ba 01 00 00 00       	mov    $0x1,%edx
  403d9b:	01 f2                	add    %esi,%edx
  403d9d:	b9 01 00 00 00       	mov    $0x1,%ecx
  403da2:	01 f1                	add    %esi,%ecx
  403da4:	13 05 f2 30 42 00    	adc    0x4230f2,%eax
  403daa:	13 35 a7 30 42 00    	adc    0x4230a7,%esi
  403db0:	2e e9 1c 77 00 00    	cs jmp 0x40b4d2
  403db6:	83 0d df 31 42 00 6b 	orl    $0x6b,0x4231df
  403dbd:	29 f9                	sub    %edi,%ecx
  403dbf:	13 05 58 30 42 00    	adc    0x423058,%eax
  403dc5:	01 15 b9 31 42 00    	add    %edx,0x4231b9
  403dcb:	13 35 c3 31 42 00    	adc    0x4231c3,%esi
	...
  403dd9:	00 dc                	add    %bl,%ah
  403ddb:	ba 01 00 00 00       	mov    $0x1,%edx
  403de0:	01 da                	add    %ebx,%edx
  403de2:	31 f0                	xor    %esi,%eax
  403de4:	8d 0d b3 16 a7 98    	lea    0x98a716b3,%ecx
  403dea:	81 e9 21 e3 64 98    	sub    $0x9864e321,%ecx
  403df0:	51                   	push   %ecx
  403df1:	6a 01                	push   $0x1
  403df3:	ff 0c 24             	decl   (%esp)
  403df6:	68 01 00 10 00       	push   $0x100001
  403dfb:	ff 0c 24             	decl   (%esp)
  403dfe:	a1 e8 f0 41 00       	mov    0x41f0e8,%eax
  403e03:	ff d0                	call   *%eax
  403e05:	83 f8 00             	cmp    $0x0,%eax
  403e08:	0f 85 9a 7b 00 00    	jne    0x40b9a8
  403e0e:	83 0d 4a 31 42 00 6d 	orl    $0x6d,0x42314a
  403e15:	8d 15 b3 16 a7 98    	lea    0x98a716b3,%edx
  403e1b:	81 ea 21 e3 64 98    	sub    $0x9864e321,%edx
  403e21:	52                   	push   %edx
  403e22:	6a 01                	push   $0x1
  403e24:	ff 0c 24             	decl   (%esp)
  403e27:	68 01 00 10 00       	push   $0x100001
  403e2c:	ff 0c 24             	decl   (%esp)
  403e2f:	a1 e8 f0 41 00       	mov    0x41f0e8,%eax
  403e34:	ff d0                	call   *%eax
  403e36:	85 c0                	test   %eax,%eax
  403e38:	0f 85 6a 7b 00 00    	jne    0x40b9a8
  403e3e:	83 1d c1 31 42 00 01 	sbbl   $0x1,0x4231c1
  403e45:	8d 15 d0 16 a7 98    	lea    0x98a716d0,%edx
  403e4b:	81 ea 21 e3 64 98    	sub    $0x9864e321,%edx
  403e51:	52                   	push   %edx
  403e52:	8d 1d c0 16 a7 98    	lea    0x98a716c0,%ebx
  403e58:	81 eb 21 e3 64 98    	sub    $0x9864e321,%ebx
  403e5e:	53                   	push   %ebx
  403e5f:	a1 10 f1 41 00       	mov    0x41f110,%eax
  403e64:	ff d0                	call   *%eax
  403e66:	b9 01 00 00 00       	mov    $0x1,%ecx
  403e6b:	83 c1 72             	add    $0x72,%ecx
  403e6e:	8d 3d b3 16 a7 98    	lea    0x98a716b3,%edi
  403e74:	81 ef 21 e3 64 98    	sub    $0x9864e321,%edi
  403e7a:	57                   	push   %edi
  403e7b:	6a 01                	push   $0x1
  403e7d:	ff 0c 24             	decl   (%esp)
  403e80:	68 01 00 10 00       	push   $0x100001
  403e85:	ff 0c 24             	decl   (%esp)
  403e88:	a1 e8 f0 41 00       	mov    0x41f0e8,%eax
  403e8d:	ff d0                	call   *%eax
  403e8f:	83 f8 00             	cmp    $0x0,%eax
  403e92:	0f 85 10 7b 00 00    	jne    0x40b9a8
  403e98:	31 c7                	xor    %eax,%edi
  403e9a:	31 c3                	xor    %eax,%ebx
  403e9c:	81 1d 02 31 42 00 b1 	sbbl   $0xb1,0x423102
  403ea3:	00 00 00 
  403ea6:	13 1d e5 31 42 00    	adc    0x4231e5,%ebx
  403eac:	b9 01 00 00 00       	mov    $0x1,%ecx
  403eb1:	01 c1                	add    %eax,%ecx
  403eb3:	8d 0d d0 16 a7 98    	lea    0x98a716d0,%ecx
  403eb9:	81 e9 21 e3 64 98    	sub    $0x9864e321,%ecx
  403ebf:	51                   	push   %ecx
  403ec0:	8d 3d c0 16 a7 98    	lea    0x98a716c0,%edi
  403ec6:	81 ef 21 e3 64 98    	sub    $0x9864e321,%edi
  403ecc:	57                   	push   %edi
  403ecd:	a1 10 f1 41 00       	mov    0x41f110,%eax
  403ed2:	ff d0                	call   *%eax
  403ed4:	83 0d 61 31 42 00 4c 	orl    $0x4c,0x423161
  403edb:	c7 05 0a 31 42 00 c2 	movl   $0xc2,0x42310a
  403ee2:	00 00 00 
  403ee5:	83 15 55 30 42 00 7b 	adcl   $0x7b,0x423055
  403eec:	01 fb                	add    %edi,%ebx
  403eee:	8d 3d d0 16 a7 98    	lea    0x98a716d0,%edi
  403ef4:	81 ef 21 e3 64 98    	sub    $0x9864e321,%edi
  403efa:	57                   	push   %edi
  403efb:	8d 3d c0 16 a7 98    	lea    0x98a716c0,%edi
  403f01:	81 ef 21 e3 64 98    	sub    $0x9864e321,%edi
  403f07:	57                   	push   %edi
  403f08:	a1 10 f1 41 00       	mov    0x41f110,%eax
  403f0d:	ff d0                	call   *%eax
  403f0f:	83 15 53 31 42 00 3a 	adcl   $0x3a,0x423153
  403f16:	11 ff                	adc    %edi,%edi
  403f18:	81 25 05 31 42 00 b2 	andl   $0xb2,0x423105
  403f1f:	00 00 00 
  403f22:	31 05 f2 31 42 00    	xor    %eax,0x4231f2
  403f28:	8d 3d d0 16 a7 98    	lea    0x98a716d0,%edi
  403f2e:	81 ef 21 e3 64 98    	sub    $0x9864e321,%edi
  403f34:	57                   	push   %edi
  403f35:	8d 3d c0 16 a7 98    	lea    0x98a716c0,%edi
  403f3b:	81 ef 21 e3 64 98    	sub    $0x9864e321,%edi
  403f41:	57                   	push   %edi
  403f42:	a1 10 f1 41 00       	mov    0x41f110,%eax
  403f47:	ff d0                	call   *%eax
  403f49:	ba 01 00 00 00       	mov    $0x1,%edx
  403f4e:	01 f2                	add    %esi,%edx
  403f50:	8d 0d b3 16 a7 98    	lea    0x98a716b3,%ecx
  403f56:	81 e9 21 e3 64 98    	sub    $0x9864e321,%ecx
  403f5c:	51                   	push   %ecx
  403f5d:	6a 01                	push   $0x1
  403f5f:	ff 0c 24             	decl   (%esp)
  403f62:	68 01 00 10 00       	push   $0x100001
  403f67:	ff 0c 24             	decl   (%esp)
  403f6a:	a1 e8 f0 41 00       	mov    0x41f0e8,%eax
  403f6f:	ff d0                	call   *%eax
  403f71:	83 f8 00             	cmp    $0x0,%eax
  403f74:	0f 85 2e 7a 00 00    	jne    0x40b9a8
  403f7a:	8d 15 b3 16 a7 98    	lea    0x98a716b3,%edx
  403f80:	81 ea 21 e3 64 98    	sub    $0x9864e321,%edx
  403f86:	52                   	push   %edx
  403f87:	6a 01                	push   $0x1
  403f89:	ff 0c 24             	decl   (%esp)
  403f8c:	68 01 00 10 00       	push   $0x100001
  403f91:	ff 0c 24             	decl   (%esp)
  403f94:	a1 e8 f0 41 00       	mov    0x41f0e8,%eax
  403f99:	ff d0                	call   *%eax
  403f9b:	83 f8 00             	cmp    $0x0,%eax
  403f9e:	0f 85 04 7a 00 00    	jne    0x40b9a8
  403fa4:	ba 01 00 00 00       	mov    $0x1,%edx
  403fa9:	13 15 a2 30 42 00    	adc    0x4230a2,%edx
  403faf:	8d 15 d0 16 a7 98    	lea    0x98a716d0,%edx
  403fb5:	81 ea 21 e3 64 98    	sub    $0x9864e321,%edx
  403fbb:	52                   	push   %edx
  403fbc:	8d 1d c0 16 a7 98    	lea    0x98a716c0,%ebx
  403fc2:	81 eb 21 e3 64 98    	sub    $0x9864e321,%ebx
  403fc8:	53                   	push   %ebx
  403fc9:	a1 10 f1 41 00       	mov    0x41f110,%eax
  403fce:	ff d0                	call   *%eax
  403fd0:	83 f6 da             	xor    $0xffffffda,%esi
  403fd3:	b9 01 00 00 00       	mov    $0x1,%ecx
  403fd8:	01 f9                	add    %edi,%ecx
  403fda:	c7 05 2e 30 42 00 25 	movl   $0x25,0x42302e
  403fe1:	00 00 00 
  403fe4:	8d 1d d0 16 a7 98    	lea    0x98a716d0,%ebx
  403fea:	81 eb 21 e3 64 98    	sub    $0x9864e321,%ebx
  403ff0:	53                   	push   %ebx
  403ff1:	8d 35 c0 16 a7 98    	lea    0x98a716c0,%esi
  403ff7:	81 ee 21 e3 64 98    	sub    $0x9864e321,%esi
  403ffd:	56                   	push   %esi
  403ffe:	a1 10 f1 41 00       	mov    0x41f110,%eax
  404003:	ff d0                	call   *%eax
  404005:	b9 01 00 00 00       	mov    $0x1,%ecx
  40400a:	13 0d f7 31 42 00    	adc    0x4231f7,%ecx
  404010:	19 fb                	sbb    %edi,%ebx
  404012:	83 e1 b7             	and    $0xffffffb7,%ecx
  404015:	31 1d 2e 31 42 00    	xor    %ebx,0x42312e
  40401b:	2e e9 b1 74 00 00    	cs jmp 0x40b4d2
  404021:	81 15 df 31 42 00 ce 	adcl   $0xce,0x4231df
  404028:	00 00 00 
  40402b:	00 00                	add    %al,(%eax)
  40402d:	00 83 0d 7a 30 42    	add    %al,0x42307a0d(%ebx)
  404033:	00 7c 01 c3          	add    %bh,-0x3d(%ecx,%eax,1)
  404037:	13 3d a9 31 42 00    	adc    0x4231a9,%edi
  40403d:	83 c6 33             	add    $0x33,%esi
  404040:	01 de                	add    %ebx,%esi
  404042:	8d 0d d0 16 a7 98    	lea    0x98a716d0,%ecx
  404048:	81 e9 21 e3 64 98    	sub    $0x9864e321,%ecx
  40404e:	51                   	push   %ecx
  40404f:	8d 3d c0 16 a7 98    	lea    0x98a716c0,%edi
  404055:	81 ef 21 e3 64 98    	sub    $0x9864e321,%edi
  40405b:	57                   	push   %edi
  40405c:	a1 10 f1 41 00       	mov    0x41f110,%eax
  404061:	ff d0                	call   *%eax
  404063:	01 fb                	add    %edi,%ebx
  404065:	01 05 63 30 42 00    	add    %eax,0x423063
  40406b:	83 d3 f4             	adc    $0xfffffff4,%ebx
  40406e:	11 3d 7c 30 42 00    	adc    %edi,0x42307c
  404074:	b9 01 00 00 00       	mov    $0x1,%ecx
  404079:	13 0d 41 30 42 00    	adc    0x423041,%ecx
  40407f:	8d 05 d0 16 a7 98    	lea    0x98a716d0,%eax
  404085:	2d 21 e3 64 98       	sub    $0x9864e321,%eax
  40408a:	50                   	push   %eax
  40408b:	8d 05 c0 16 a7 98    	lea    0x98a716c0,%eax
  404091:	2d 21 e3 64 98       	sub    $0x9864e321,%eax
  404096:	50                   	push   %eax
  404097:	a1 10 f1 41 00       	mov    0x41f110,%eax
  40409c:	ff d0                	call   *%eax
  40409e:	83 c0 c6             	add    $0xffffffc6,%eax
  4040a1:	13 05 08 31 42 00    	adc    0x423108,%eax
  4040a7:	82 2d 5e 30 42 00 df 	subb   $0xdf,0x42305e
  4040ae:	83 eb 66             	sub    $0x66,%ebx
  4040b1:	8d 05 d0 16 a7 98    	lea    0x98a716d0,%eax
  4040b7:	2d 21 e3 64 98       	sub    $0x9864e321,%eax
  4040bc:	50                   	push   %eax
  4040bd:	8d 05 c0 16 a7 98    	lea    0x98a716c0,%eax
  4040c3:	2d 21 e3 64 98       	sub    $0x9864e321,%eax
  4040c8:	50                   	push   %eax
  4040c9:	a1 10 f1 41 00       	mov    0x41f110,%eax
  4040ce:	ff d0                	call   *%eax
  4040d0:	13 3d d4 31 42 00    	adc    0x4231d4,%edi
  4040d6:	8d 05 d0 16 a7 98    	lea    0x98a716d0,%eax
  4040dc:	2d 21 e3 64 98       	sub    $0x9864e321,%eax
  4040e1:	50                   	push   %eax
  4040e2:	8d 15 c0 16 a7 98    	lea    0x98a716c0,%edx
  4040e8:	81 ea 21 e3 64 98    	sub    $0x9864e321,%edx
  4040ee:	52                   	push   %edx
  4040ef:	a1 10 f1 41 00       	mov    0x41f110,%eax
  4040f4:	ff d0                	call   *%eax
  4040f6:	b9 01 00 00 00       	mov    $0x1,%ecx
  4040fb:	13 0d 57 31 42 00    	adc    0x423157,%ecx
  404101:	2a 05 b3 31 42 00    	sub    0x4231b3,%al
  404107:	13 0d 66 30 42 00    	adc    0x423066,%ecx
  40410d:	83 f1 18             	xor    $0x18,%ecx
  404110:	01 35 2d 30 42 00    	add    %esi,0x42302d
  404116:	8d 05 d0 16 a7 98    	lea    0x98a716d0,%eax
  40411c:	2d 21 e3 64 98       	sub    $0x9864e321,%eax
  404121:	50                   	push   %eax
  404122:	8d 1d c0 16 a7 98    	lea    0x98a716c0,%ebx
  404128:	81 eb 21 e3 64 98    	sub    $0x9864e321,%ebx
  40412e:	53                   	push   %ebx
  40412f:	a1 10 f1 41 00       	mov    0x41f110,%eax
  404134:	ff d0                	call   *%eax
  404136:	8d 1d b3 16 a7 98    	lea    0x98a716b3,%ebx
  40413c:	81 eb 21 e3 64 98    	sub    $0x9864e321,%ebx
  404142:	53                   	push   %ebx
  404143:	6a 01                	push   $0x1
  404145:	ff 0c 24             	decl   (%esp)
  404148:	68 01 00 10 00       	push   $0x100001
  40414d:	ff 0c 24             	decl   (%esp)
  404150:	a1 e8 f0 41 00       	mov    0x41f0e8,%eax
  404155:	ff d0                	call   *%eax
  404157:	85 c0                	test   %eax,%eax
  404159:	0f 85 49 78 00 00    	jne    0x40b9a8
  40415f:	ba 01 00 00 00       	mov    $0x1,%edx
  404164:	13 15 c7 31 42 00    	adc    0x4231c7,%edx
  40416a:	12 25 5f 31 42 00    	adc    0x42315f,%ah
  404170:	8d 1d b3 16 a7 98    	lea    0x98a716b3,%ebx
  404176:	81 eb 21 e3 64 98    	sub    $0x9864e321,%ebx
  40417c:	53                   	push   %ebx
  40417d:	6a 01                	push   $0x1
  40417f:	ff 0c 24             	decl   (%esp)
  404182:	68 01 00 10 00       	push   $0x100001
  404187:	ff 0c 24             	decl   (%esp)
  40418a:	a1 e8 f0 41 00       	mov    0x41f0e8,%eax
  40418f:	ff d0                	call   *%eax
  404191:	85 c0                	test   %eax,%eax
  404193:	0f 85 0f 78 00 00    	jne    0x40b9a8
  404199:	01 05 95 30 42 00    	add    %eax,0x423095
  40419f:	b2 01                	mov    $0x1,%dl
  4041a1:	82 c2 b9             	add    $0xb9,%dl
  4041a4:	8d 05 b3 16 a7 98    	lea    0x98a716b3,%eax
  4041aa:	2d 21 e3 64 98       	sub    $0x9864e321,%eax
  4041af:	50                   	push   %eax
  4041b0:	6a 01                	push   $0x1
  4041b2:	ff 0c 24             	decl   (%esp)
  4041b5:	68 01 00 10 00       	push   $0x100001
  4041ba:	ff 0c 24             	decl   (%esp)
  4041bd:	a1 e8 f0 41 00       	mov    0x41f0e8,%eax
  4041c2:	ff d0                	call   *%eax
  4041c4:	85 c0                	test   %eax,%eax
  4041c6:	0f 85 dc 77 00 00    	jne    0x40b9a8
  4041cc:	83 c8 51             	or     $0x51,%eax
  4041cf:	19 05 99 30 42 00    	sbb    %eax,0x423099
  4041d5:	b9 01 00 00 00       	mov    $0x1,%ecx
  4041da:	01 c1                	add    %eax,%ecx
  4041dc:	c7 05 29 30 42 00 32 	movl   $0x32,0x423029
  4041e3:	00 00 00 
  4041e6:	83 0d de 30 42 00 2e 	orl    $0x2e,0x4230de
  4041ed:	8d 35 b3 16 a7 98    	lea    0x98a716b3,%esi
  4041f3:	81 ee 21 e3 64 98    	sub    $0x9864e321,%esi
  4041f9:	56                   	push   %esi
  4041fa:	6a 01                	push   $0x1
  4041fc:	ff 0c 24             	decl   (%esp)
  4041ff:	68 01 00 10 00       	push   $0x100001
  404204:	ff 0c 24             	decl   (%esp)
  404207:	a1 e8 f0 41 00       	mov    0x41f0e8,%eax
  40420c:	ff d0                	call   *%eax
  40420e:	83 f8 00             	cmp    $0x0,%eax
  404211:	0f 85 91 77 00 00    	jne    0x40b9a8
  404217:	21 35 9e 30 42 00    	and    %esi,0x42309e
  40421d:	8d 15 d0 16 a7 98    	lea    0x98a716d0,%edx
  404223:	81 ea 21 e3 64 98    	sub    $0x9864e321,%edx
  404229:	52                   	push   %edx
  40422a:	8d 35 c0 16 a7 98    	lea    0x98a716c0,%esi
  404230:	81 ee 21 e3 64 98    	sub    $0x9864e321,%esi
  404236:	56                   	push   %esi
  404237:	a1 10 f1 41 00       	mov    0x41f110,%eax
  40423c:	ff d0                	call   *%eax
  40423e:	19 c0                	sbb    %eax,%eax
  404240:	8d 3d b3 16 a7 98    	lea    0x98a716b3,%edi
  404246:	81 ef 21 e3 64 98    	sub    $0x9864e321,%edi
  40424c:	57                   	push   %edi
  40424d:	6a 01                	push   $0x1
  40424f:	ff 0c 24             	decl   (%esp)
  404252:	68 01 00 10 00       	push   $0x100001
  404257:	ff 0c 24             	decl   (%esp)
  40425a:	a1 e8 f0 41 00       	mov    0x41f0e8,%eax
  40425f:	ff d0                	call   *%eax
  404261:	83 f8 00             	cmp    $0x0,%eax
  404264:	0f 85 3e 77 00 00    	jne    0x40b9a8
  40426a:	21 35 e8 30 42 00    	and    %esi,0x4230e8
  404270:	b1 01                	mov    $0x1,%cl
  404272:	00 e1                	add    %ah,%cl
  404274:	8d 15 b3 16 a7 98    	lea    0x98a716b3,%edx
  40427a:	81 ea 21 e3 64 98    	sub    $0x9864e321,%edx
  404280:	52                   	push   %edx
  404281:	6a 01                	push   $0x1
  404283:	ff 0c 24             	decl   (%esp)
  404286:	68 01 00 10 00       	push   $0x100001
  40428b:	ff 0c 24             	decl   (%esp)
  40428e:	a1 e8 f0 41 00       	mov    0x41f0e8,%eax
  404293:	ff d0                	call   *%eax
  404295:	85 c0                	test   %eax,%eax
  404297:	0f 85 0b 77 00 00    	jne    0x40b9a8
  40429d:	81 1d ce 30 42 00 a0 	sbbl   $0xa0,0x4230ce
  4042a4:	00 00 00 
  4042a7:	20 1d 89 30 42 00    	and    %bl,0x423089
  4042ad:	29 35 55 31 42 00    	sub    %esi,0x423155
  4042b3:	82 2d 37 30 42 00 e6 	subb   $0xe6,0x423037
  4042ba:	ba 01 00 00 00       	mov    $0x1,%edx
  4042bf:	83 c2 9e             	add    $0xffffff9e,%edx
  4042c2:	2e e9 0a 72 00 00    	cs jmp 0x40b4d2
  4042c8:	21 1d 0b 31 42 00    	and    %ebx,0x42310b
  4042ce:	11 c7                	adc    %eax,%edi
  4042d0:	b9 01 00 00 00       	mov    $0x1,%ecx
  4042d5:	13 0d b3 31 42 00    	adc    0x4231b3,%ecx
	...
  4042e7:	00 00                	add    %al,(%eax)
  4042e9:	8d 0d b3 16 a7 98    	lea    0x98a716b3,%ecx
  4042ef:	81 e9 21 e3 64 98    	sub    $0x9864e321,%ecx
  4042f5:	51                   	push   %ecx
  4042f6:	6a 01                	push   $0x1
  4042f8:	ff 0c 24             	decl   (%esp)
  4042fb:	68 01 00 10 00       	push   $0x100001
  404300:	ff 0c 24             	decl   (%esp)
  404303:	a1 e8 f0 41 00       	mov    0x41f0e8,%eax
  404308:	ff d0                	call   *%eax
  40430a:	83 f8 00             	cmp    $0x0,%eax
  40430d:	0f 85 95 76 00 00    	jne    0x40b9a8
  404313:	09 35 43 30 42 00    	or     %esi,0x423043
  404319:	0b 1d 5b 30 42 00    	or     0x42305b,%ebx
  40431f:	83 d0 05             	adc    $0x5,%eax
  404322:	82 2d bf 31 42 00 97 	subb   $0x97,0x4231bf
  404329:	8d 0d b3 16 a7 98    	lea    0x98a716b3,%ecx
  40432f:	81 e9 21 e3 64 98    	sub    $0x9864e321,%ecx
  404335:	51                   	push   %ecx
  404336:	6a 01                	push   $0x1
  404338:	ff 0c 24             	decl   (%esp)
  40433b:	68 01 00 10 00       	push   $0x100001
  404340:	ff 0c 24             	decl   (%esp)
  404343:	a1 e8 f0 41 00       	mov    0x41f0e8,%eax
  404348:	ff d0                	call   *%eax
  40434a:	83 f8 00             	cmp    $0x0,%eax
  40434d:	0f 85 55 76 00 00    	jne    0x40b9a8
  404353:	b6 01                	mov    $0x1,%dh
  404355:	00 c6                	add    %al,%dh
  404357:	82 2d 13 31 42 00 26 	subb   $0x26,0x423113
  40435e:	83 25 45 30 42 00 26 	andl   $0x26,0x423045
  404365:	21 35 c7 31 42 00    	and    %esi,0x4231c7
  40436b:	31 fb                	xor    %edi,%ebx
  40436d:	8d 15 d0 16 a7 98    	lea    0x98a716d0,%edx
  404373:	81 ea 21 e3 64 98    	sub    $0x9864e321,%edx
  404379:	52                   	push   %edx
  40437a:	8d 3d c0 16 a7 98    	lea    0x98a716c0,%edi
  404380:	81 ef 21 e3 64 98    	sub    $0x9864e321,%edi
  404386:	57                   	push   %edi
  404387:	a1 10 f1 41 00       	mov    0x41f110,%eax
  40438c:	ff d0                	call   *%eax
  40438e:	83 0d 0c 32 42 00 65 	orl    $0x65,0x42320c
  404395:	b2 01                	mov    $0x1,%dl
  404397:	00 fa                	add    %bh,%dl
  404399:	8d 0d b3 16 a7 98    	lea    0x98a716b3,%ecx
  40439f:	81 e9 21 e3 64 98    	sub    $0x9864e321,%ecx
  4043a5:	51                   	push   %ecx
  4043a6:	6a 01                	push   $0x1
  4043a8:	ff 0c 24             	decl   (%esp)
  4043ab:	68 01 00 10 00       	push   $0x100001
  4043b0:	ff 0c 24             	decl   (%esp)
  4043b3:	a1 e8 f0 41 00       	mov    0x41f0e8,%eax
  4043b8:	ff d0                	call   *%eax
  4043ba:	85 c0                	test   %eax,%eax
  4043bc:	0f 85 e6 75 00 00    	jne    0x40b9a8
  4043c2:	2b 05 86 31 42 00    	sub    0x423186,%eax
  4043c8:	11 db                	adc    %ebx,%ebx
  4043ca:	83 cb 82             	or     $0xffffff82,%ebx
  4043cd:	01 35 1d 31 42 00    	add    %esi,0x42311d
  4043d3:	8d 15 d0 16 a7 98    	lea    0x98a716d0,%edx
  4043d9:	81 ea 21 e3 64 98    	sub    $0x9864e321,%edx
  4043df:	52                   	push   %edx
  4043e0:	8d 05 c0 16 a7 98    	lea    0x98a716c0,%eax
  4043e6:	2d 21 e3 64 98       	sub    $0x9864e321,%eax
  4043eb:	50                   	push   %eax
  4043ec:	a1 10 f1 41 00       	mov    0x41f110,%eax
  4043f1:	ff d0                	call   *%eax
  4043f3:	11 de                	adc    %ebx,%esi
  4043f5:	29 1d a2 31 42 00    	sub    %ebx,0x4231a2
  4043fb:	01 1d 3c 31 42 00    	add    %ebx,0x42313c
  404401:	83 f3 ac             	xor    $0xffffffac,%ebx
  404404:	83 35 f9 30 42 00 5f 	xorl   $0x5f,0x4230f9
  40440b:	8d 05 b3 16 a7 98    	lea    0x98a716b3,%eax
  404411:	2d 21 e3 64 98       	sub    $0x9864e321,%eax
  404416:	50                   	push   %eax
  404417:	6a 01                	push   $0x1
  404419:	ff 0c 24             	decl   (%esp)
  40441c:	68 01 00 10 00       	push   $0x100001
  404421:	ff 0c 24             	decl   (%esp)
  404424:	a1 e8 f0 41 00       	mov    0x41f0e8,%eax
  404429:	ff d0                	call   *%eax
  40442b:	85 c0                	test   %eax,%eax
  40442d:	0f 85 75 75 00 00    	jne    0x40b9a8
  404433:	8d 0d b3 16 a7 98    	lea    0x98a716b3,%ecx
  404439:	81 e9 21 e3 64 98    	sub    $0x9864e321,%ecx
  40443f:	51                   	push   %ecx
  404440:	6a 01                	push   $0x1
  404442:	ff 0c 24             	decl   (%esp)
  404445:	68 01 00 10 00       	push   $0x100001
  40444a:	ff 0c 24             	decl   (%esp)
  40444d:	a1 e8 f0 41 00       	mov    0x41f0e8,%eax
  404452:	ff d0                	call   *%eax
  404454:	83 f8 00             	cmp    $0x0,%eax
  404457:	0f 85 4b 75 00 00    	jne    0x40b9a8
  40445d:	11 35 f5 30 42 00    	adc    %esi,0x4230f5
  404463:	01 1d 8e 30 42 00    	add    %ebx,0x42308e
  404469:	82 ec 61             	sub    $0x61,%ah
  40446c:	8d 0d d0 16 a7 98    	lea    0x98a716d0,%ecx
  404472:	81 e9 21 e3 64 98    	sub    $0x9864e321,%ecx
  404478:	51                   	push   %ecx
  404479:	8d 05 c0 16 a7 98    	lea    0x98a716c0,%eax
  40447f:	2d 21 e3 64 98       	sub    $0x9864e321,%eax
  404484:	50                   	push   %eax
  404485:	a1 10 f1 41 00       	mov    0x41f110,%eax
  40448a:	ff d0                	call   *%eax
  40448c:	0b 35 0c 31 42 00    	or     0x42310c,%esi
  404492:	ba 01 00 00 00       	mov    $0x1,%edx
  404497:	83 c2 6b             	add    $0x6b,%edx
  40449a:	83 ca 13             	or     $0x13,%edx
  40449d:	01 c7                	add    %eax,%edi
  40449f:	8d 0d d0 16 a7 98    	lea    0x98a716d0,%ecx
  4044a5:	81 e9 21 e3 64 98    	sub    $0x9864e321,%ecx
  4044ab:	51                   	push   %ecx
  4044ac:	8d 0d c0 16 a7 98    	lea    0x98a716c0,%ecx
  4044b2:	81 e9 21 e3 64 98    	sub    $0x9864e321,%ecx
  4044b8:	51                   	push   %ecx
  4044b9:	a1 10 f1 41 00       	mov    0x41f110,%eax
  4044be:	ff d0                	call   *%eax
  4044c0:	8d 3d d0 16 a7 98    	lea    0x98a716d0,%edi
  4044c6:	81 ef 21 e3 64 98    	sub    $0x9864e321,%edi
  4044cc:	57                   	push   %edi
  4044cd:	8d 1d c0 16 a7 98    	lea    0x98a716c0,%ebx
  4044d3:	81 eb 21 e3 64 98    	sub    $0x9864e321,%ebx
  4044d9:	53                   	push   %ebx
  4044da:	a1 10 f1 41 00       	mov    0x41f110,%eax
  4044df:	ff d0                	call   *%eax
  4044e1:	b2 01                	mov    $0x1,%dl
  4044e3:	82 c2 3f             	add    $0x3f,%dl
  4044e6:	83 0d e8 30 42 00 1b 	orl    $0x1b,0x4230e8
  4044ed:	83 ea 35             	sub    $0x35,%edx
  4044f0:	13 1d 50 30 42 00    	adc    0x423050,%ebx
  4044f6:	2e e9 d6 6f 00 00    	cs jmp 0x40b4d2
  4044fc:	b9 01 00 00 00       	mov    $0x1,%ecx
  404501:	83 c1 30             	add    $0x30,%ecx
  404504:	31 d8                	xor    %ebx,%eax
	...
  404512:	00 00                	add    %al,(%eax)
  404514:	8d 3d d0 16 a7 98    	lea    0x98a716d0,%edi
  40451a:	81 ef 21 e3 64 98    	sub    $0x9864e321,%edi
  404520:	57                   	push   %edi
  404521:	8d 05 c0 16 a7 98    	lea    0x98a716c0,%eax
  404527:	2d 21 e3 64 98       	sub    $0x9864e321,%eax
  40452c:	50                   	push   %eax
  40452d:	a1 10 f1 41 00       	mov    0x41f110,%eax
  404532:	ff d0                	call   *%eax
  404534:	31 c0                	xor    %eax,%eax
  404536:	83 15 2b 30 42 00 1c 	adcl   $0x1c,0x42302b
  40453d:	8d 35 b3 16 a7 98    	lea    0x98a716b3,%esi
  404543:	81 ee 21 e3 64 98    	sub    $0x9864e321,%esi
  404549:	56                   	push   %esi
  40454a:	6a 01                	push   $0x1
  40454c:	ff 0c 24             	decl   (%esp)
  40454f:	68 01 00 10 00       	push   $0x100001
  404554:	ff 0c 24             	decl   (%esp)
  404557:	a1 e8 f0 41 00       	mov    0x41f0e8,%eax
  40455c:	ff d0                	call   *%eax
  40455e:	83 f8 00             	cmp    $0x0,%eax
  404561:	0f 85 41 74 00 00    	jne    0x40b9a8
  404567:	ba 01 00 00 00       	mov    $0x1,%edx
  40456c:	13 15 3c 30 42 00    	adc    0x42303c,%edx
  404572:	8d 35 d0 16 a7 98    	lea    0x98a716d0,%esi
  404578:	81 ee 21 e3 64 98    	sub    $0x9864e321,%esi
  40457e:	56                   	push   %esi
  40457f:	8d 3d c0 16 a7 98    	lea    0x98a716c0,%edi
  404585:	81 ef 21 e3 64 98    	sub    $0x9864e321,%edi
  40458b:	57                   	push   %edi
  40458c:	a1 10 f1 41 00       	mov    0x41f110,%eax
  404591:	ff d0                	call   *%eax
  404593:	8d 3d b3 16 a7 98    	lea    0x98a716b3,%edi
  404599:	81 ef 21 e3 64 98    	sub    $0x9864e321,%edi
  40459f:	57                   	push   %edi
  4045a0:	6a 01                	push   $0x1
  4045a2:	ff 0c 24             	decl   (%esp)
  4045a5:	68 01 00 10 00       	push   $0x100001
  4045aa:	ff 0c 24             	decl   (%esp)
  4045ad:	a1 e8 f0 41 00       	mov    0x41f0e8,%eax
  4045b2:	ff d0                	call   *%eax
  4045b4:	85 c0                	test   %eax,%eax
  4045b6:	0f 85 ec 73 00 00    	jne    0x40b9a8
  4045bc:	01 df                	add    %ebx,%edi
  4045be:	13 35 0c 32 42 00    	adc    0x42320c,%esi
  4045c4:	18 1d f3 30 42 00    	sbb    %bl,0x4230f3
  4045ca:	ba 01 00 00 00       	mov    $0x1,%edx
  4045cf:	01 c2                	add    %eax,%edx
  4045d1:	8d 3d d0 16 a7 98    	lea    0x98a716d0,%edi
  4045d7:	81 ef 21 e3 64 98    	sub    $0x9864e321,%edi
  4045dd:	57                   	push   %edi
  4045de:	8d 3d c0 16 a7 98    	lea    0x98a716c0,%edi
  4045e4:	81 ef 21 e3 64 98    	sub    $0x9864e321,%edi
  4045ea:	57                   	push   %edi
  4045eb:	a1 10 f1 41 00       	mov    0x41f110,%eax
  4045f0:	ff d0                	call   *%eax
  4045f2:	b9 01 00 00 00       	mov    $0x1,%ecx
  4045f7:	01 d9                	add    %ebx,%ecx
  4045f9:	09 0d de 30 42 00    	or     %ecx,0x4230de
  4045ff:	29 c9                	sub    %ecx,%ecx
  404601:	81 35 c6 30 42 00 ca 	xorl   $0xca,0x4230c6
  404608:	00 00 00 
  40460b:	8d 0d b3 16 a7 98    	lea    0x98a716b3,%ecx
  404611:	81 e9 21 e3 64 98    	sub    $0x9864e321,%ecx
  404617:	51                   	push   %ecx
  404618:	6a 01                	push   $0x1
  40461a:	ff 0c 24             	decl   (%esp)
  40461d:	68 01 00 10 00       	push   $0x100001
  404622:	ff 0c 24             	decl   (%esp)
  404625:	a1 e8 f0 41 00       	mov    0x41f0e8,%eax
  40462a:	ff d0                	call   *%eax
  40462c:	85 c0                	test   %eax,%eax
  40462e:	0f 85 74 73 00 00    	jne    0x40b9a8
  404634:	8d 0d d0 16 a7 98    	lea    0x98a716d0,%ecx
  40463a:	81 e9 21 e3 64 98    	sub    $0x9864e321,%ecx
  404640:	51                   	push   %ecx
  404641:	8d 1d c0 16 a7 98    	lea    0x98a716c0,%ebx
  404647:	81 eb 21 e3 64 98    	sub    $0x9864e321,%ebx
  40464d:	53                   	push   %ebx
  40464e:	a1 10 f1 41 00       	mov    0x41f110,%eax
  404653:	ff d0                	call   *%eax
  404655:	21 35 04 32 42 00    	and    %esi,0x423204
  40465b:	31 de                	xor    %ebx,%esi
  40465d:	29 f8                	sub    %edi,%eax
  40465f:	12 25 d4 30 42 00    	adc    0x4230d4,%ah
  404665:	19 db                	sbb    %ebx,%ebx
  404667:	8d 15 d0 16 a7 98    	lea    0x98a716d0,%edx
  40466d:	81 ea 21 e3 64 98    	sub    $0x9864e321,%edx
  404673:	52                   	push   %edx
  404674:	8d 3d c0 16 a7 98    	lea    0x98a716c0,%edi
  40467a:	81 ef 21 e3 64 98    	sub    $0x9864e321,%edi
  404680:	57                   	push   %edi
  404681:	a1 10 f1 41 00       	mov    0x41f110,%eax
  404686:	ff d0                	call   *%eax
  404688:	01 f7                	add    %esi,%edi
  40468a:	8d 3d b3 16 a7 98    	lea    0x98a716b3,%edi
  404690:	81 ef 21 e3 64 98    	sub    $0x9864e321,%edi
  404696:	57                   	push   %edi
  404697:	6a 01                	push   $0x1
  404699:	ff 0c 24             	decl   (%esp)
  40469c:	68 01 00 10 00       	push   $0x100001
  4046a1:	ff 0c 24             	decl   (%esp)
  4046a4:	a1 e8 f0 41 00       	mov    0x41f0e8,%eax
  4046a9:	ff d0                	call   *%eax
  4046ab:	83 f8 00             	cmp    $0x0,%eax
  4046ae:	0f 85 f4 72 00 00    	jne    0x40b9a8
  4046b4:	2b 05 19 32 42 00    	sub    0x423219,%eax
  4046ba:	ba 01 00 00 00       	mov    $0x1,%edx
  4046bf:	13 15 68 31 42 00    	adc    0x423168,%edx
  4046c5:	82 ec 98             	sub    $0x98,%ah
  4046c8:	8d 3d d0 16 a7 98    	lea    0x98a716d0,%edi
  4046ce:	81 ef 21 e3 64 98    	sub    $0x9864e321,%edi
  4046d4:	57                   	push   %edi
  4046d5:	8d 3d c0 16 a7 98    	lea    0x98a716c0,%edi
  4046db:	81 ef 21 e3 64 98    	sub    $0x9864e321,%edi
  4046e1:	57                   	push   %edi
  4046e2:	a1 10 f1 41 00       	mov    0x41f110,%eax
  4046e7:	ff d0                	call   *%eax
  4046e9:	11 05 d4 30 42 00    	adc    %eax,0x4230d4
  4046ef:	81 0d 66 31 42 00 de 	orl    $0xde,0x423166
  4046f6:	00 00 00 
  4046f9:	2e e9 d3 6d 00 00    	cs jmp 0x40b4d2
  4046ff:	01 35 ab 31 42 00    	add    %esi,0x4231ab
  404705:	01 3d 86 30 42 00    	add    %edi,0x423086
  40470b:	ba 01 00 00 00       	mov    $0x1,%edx
  404710:	83 c2 3d             	add    $0x3d,%edx
  404713:	2b 05 4c 31 42 00    	sub    0x42314c,%eax
  404719:	00 00                	add    %al,(%eax)
  40471b:	00 00                	add    %al,(%eax)
  40471d:	00 00                	add    %al,(%eax)
  40471f:	29 1d c6 30 42 00    	sub    %ebx,0x4230c6
  404725:	09 1d 00 32 42 00    	or     %ebx,0x423200
  40472b:	b9 01 00 00 00       	mov    $0x1,%ecx
  404730:	83 c1 49             	add    $0x49,%ecx
  404733:	c7 05 f4 30 42 00 55 	movl   $0x55,0x4230f4
  40473a:	00 00 00 
  40473d:	82 d5 b6             	adc    $0xb6,%ch
  404740:	8d 0d d0 16 a7 98    	lea    0x98a716d0,%ecx
  404746:	81 e9 21 e3 64 98    	sub    $0x9864e321,%ecx
  40474c:	51                   	push   %ecx
  40474d:	8d 3d c0 16 a7 98    	lea    0x98a716c0,%edi
  404753:	81 ef 21 e3 64 98    	sub    $0x9864e321,%edi
  404759:	57                   	push   %edi
  40475a:	a1 10 f1 41 00       	mov    0x41f110,%eax
  40475f:	ff d0                	call   *%eax
  404761:	8d 35 b3 16 a7 98    	lea    0x98a716b3,%esi
  404767:	81 ee 21 e3 64 98    	sub    $0x9864e321,%esi
  40476d:	56                   	push   %esi
  40476e:	6a 01                	push   $0x1
  404770:	ff 0c 24             	decl   (%esp)
  404773:	68 01 00 10 00       	push   $0x100001
  404778:	ff 0c 24             	decl   (%esp)
  40477b:	a1 e8 f0 41 00       	mov    0x41f0e8,%eax
  404780:	ff d0                	call   *%eax
  404782:	85 c0                	test   %eax,%eax
  404784:	0f 85 1e 72 00 00    	jne    0x40b9a8
  40478a:	01 de                	add    %ebx,%esi
  40478c:	8d 3d b3 16 a7 98    	lea    0x98a716b3,%edi
  404792:	81 ef 21 e3 64 98    	sub    $0x9864e321,%edi
  404798:	57                   	push   %edi
  404799:	6a 01                	push   $0x1
  40479b:	ff 0c 24             	decl   (%esp)
  40479e:	68 01 00 10 00       	push   $0x100001
  4047a3:	ff 0c 24             	decl   (%esp)
  4047a6:	a1 e8 f0 41 00       	mov    0x41f0e8,%eax
  4047ab:	ff d0                	call   *%eax
  4047ad:	83 f8 00             	cmp    $0x0,%eax
  4047b0:	0f 85 f2 71 00 00    	jne    0x40b9a8
  4047b6:	c7 05 3e 30 42 00 8f 	movl   $0x8f,0x42303e
  4047bd:	00 00 00 
  4047c0:	c7 05 03 32 42 00 22 	movl   $0x22,0x423203
  4047c7:	00 00 00 
  4047ca:	8d 0d b3 16 a7 98    	lea    0x98a716b3,%ecx
  4047d0:	81 e9 21 e3 64 98    	sub    $0x9864e321,%ecx
  4047d6:	51                   	push   %ecx
  4047d7:	6a 01                	push   $0x1
  4047d9:	ff 0c 24             	decl   (%esp)
  4047dc:	68 01 00 10 00       	push   $0x100001
  4047e1:	ff 0c 24             	decl   (%esp)
  4047e4:	a1 e8 f0 41 00       	mov    0x41f0e8,%eax
  4047e9:	ff d0                	call   *%eax
  4047eb:	85 c0                	test   %eax,%eax
  4047ed:	0f 85 b5 71 00 00    	jne    0x40b9a8
  4047f3:	0b 1d 48 31 42 00    	or     0x423148,%ebx
  4047f9:	ba 01 00 00 00       	mov    $0x1,%edx
  4047fe:	01 c2                	add    %eax,%edx
  404800:	b1 01                	mov    $0x1,%cl
  404802:	82 c1 0f             	add    $0xf,%cl
  404805:	8d 05 b3 16 a7 98    	lea    0x98a716b3,%eax
  40480b:	2d 21 e3 64 98       	sub    $0x9864e321,%eax
  404810:	50                   	push   %eax
  404811:	6a 01                	push   $0x1
  404813:	ff 0c 24             	decl   (%esp)
  404816:	68 01 00 10 00       	push   $0x100001
  40481b:	ff 0c 24             	decl   (%esp)
  40481e:	a1 e8 f0 41 00       	mov    0x41f0e8,%eax
  404823:	ff d0                	call   *%eax
  404825:	83 f8 00             	cmp    $0x0,%eax
  404828:	0f 85 7a 71 00 00    	jne    0x40b9a8
  40482e:	83 15 b4 30 42 00 37 	adcl   $0x37,0x4230b4
  404835:	8d 1d b3 16 a7 98    	lea    0x98a716b3,%ebx
  40483b:	81 eb 21 e3 64 98    	sub    $0x9864e321,%ebx
  404841:	53                   	push   %ebx
  404842:	6a 01                	push   $0x1
  404844:	ff 0c 24             	decl   (%esp)
  404847:	68 01 00 10 00       	push   $0x100001
  40484c:	ff 0c 24             	decl   (%esp)
  40484f:	a1 e8 f0 41 00       	mov    0x41f0e8,%eax
  404854:	ff d0                	call   *%eax
  404856:	85 c0                	test   %eax,%eax
  404858:	0f 85 4a 71 00 00    	jne    0x40b9a8
  40485e:	8d 0d b3 16 a7 98    	lea    0x98a716b3,%ecx
  404864:	81 e9 21 e3 64 98    	sub    $0x9864e321,%ecx
  40486a:	51                   	push   %ecx
  40486b:	6a 01                	push   $0x1
  40486d:	ff 0c 24             	decl   (%esp)
  404870:	68 01 00 10 00       	push   $0x100001
  404875:	ff 0c 24             	decl   (%esp)
  404878:	a1 e8 f0 41 00       	mov    0x41f0e8,%eax
  40487d:	ff d0                	call   *%eax
  40487f:	83 f8 00             	cmp    $0x0,%eax
  404882:	0f 85 20 71 00 00    	jne    0x40b9a8
  404888:	00 3d d6 31 42 00    	add    %bh,0x4231d6
  40488e:	83 35 51 31 42 00 6f 	xorl   $0x6f,0x423151
  404895:	01 3d 91 30 42 00    	add    %edi,0x423091
  40489b:	ba 01 00 00 00       	mov    $0x1,%edx
  4048a0:	83 c2 5f             	add    $0x5f,%edx
  4048a3:	29 3d ce 31 42 00    	sub    %edi,0x4231ce
  4048a9:	8d 35 d0 16 a7 98    	lea    0x98a716d0,%esi
  4048af:	81 ee 21 e3 64 98    	sub    $0x9864e321,%esi
  4048b5:	56                   	push   %esi
  4048b6:	8d 15 c0 16 a7 98    	lea    0x98a716c0,%edx
  4048bc:	81 ea 21 e3 64 98    	sub    $0x9864e321,%edx
  4048c2:	52                   	push   %edx
  4048c3:	a1 10 f1 41 00       	mov    0x41f110,%eax
  4048c8:	ff d0                	call   *%eax
  4048ca:	8d 3d d0 16 a7 98    	lea    0x98a716d0,%edi
  4048d0:	81 ef 21 e3 64 98    	sub    $0x9864e321,%edi
  4048d6:	57                   	push   %edi
  4048d7:	8d 1d c0 16 a7 98    	lea    0x98a716c0,%ebx
  4048dd:	81 eb 21 e3 64 98    	sub    $0x9864e321,%ebx
  4048e3:	53                   	push   %ebx
  4048e4:	a1 10 f1 41 00       	mov    0x41f110,%eax
  4048e9:	ff d0                	call   *%eax
  4048eb:	31 1d 8e 30 42 00    	xor    %ebx,0x42308e
  4048f1:	28 db                	sub    %bl,%bl
  4048f3:	11 fb                	adc    %edi,%ebx
  4048f5:	31 1d ea 30 42 00    	xor    %ebx,0x4230ea
  4048fb:	b9 01 00 00 00       	mov    $0x1,%ecx
  404900:	83 c1 be             	add    $0xffffffbe,%ecx
  404903:	8d 15 b3 16 a7 98    	lea    0x98a716b3,%edx
  404909:	81 ea 21 e3 64 98    	sub    $0x9864e321,%edx
  40490f:	52                   	push   %edx
  404910:	6a 01                	push   $0x1
  404912:	ff 0c 24             	decl   (%esp)
  404915:	68 01 00 10 00       	push   $0x100001
  40491a:	ff 0c 24             	decl   (%esp)
  40491d:	a1 e8 f0 41 00       	mov    0x41f0e8,%eax
  404922:	ff d0                	call   *%eax
  404924:	83 f8 00             	cmp    $0x0,%eax
  404927:	0f 85 7b 70 00 00    	jne    0x40b9a8
  40492d:	83 f6 94             	xor    $0xffffff94,%esi
  404930:	ba 01 00 00 00       	mov    $0x1,%edx
  404935:	01 f2                	add    %esi,%edx
  404937:	31 1d 45 30 42 00    	xor    %ebx,0x423045
  40493d:	8d 0d b3 16 a7 98    	lea    0x98a716b3,%ecx
  404943:	81 e9 21 e3 64 98    	sub    $0x9864e321,%ecx
  404949:	51                   	push   %ecx
  40494a:	6a 01                	push   $0x1
  40494c:	ff 0c 24             	decl   (%esp)
  40494f:	68 01 00 10 00       	push   $0x100001
  404954:	ff 0c 24             	decl   (%esp)
  404957:	a1 e8 f0 41 00       	mov    0x41f0e8,%eax
  40495c:	ff d0                	call   *%eax
  40495e:	85 c0                	test   %eax,%eax
  404960:	0f 85 42 70 00 00    	jne    0x40b9a8
  404966:	8d 15 b3 16 a7 98    	lea    0x98a716b3,%edx
  40496c:	81 ea 21 e3 64 98    	sub    $0x9864e321,%edx
  404972:	52                   	push   %edx
  404973:	6a 01                	push   $0x1
  404975:	ff 0c 24             	decl   (%esp)
  404978:	68 01 00 10 00       	push   $0x100001
  40497d:	ff 0c 24             	decl   (%esp)
  404980:	a1 e8 f0 41 00       	mov    0x41f0e8,%eax
  404985:	ff d0                	call   *%eax
  404987:	85 c0                	test   %eax,%eax
  404989:	0f 85 19 70 00 00    	jne    0x40b9a8
  40498f:	30 05 8a 30 42 00    	xor    %al,0x42308a
  404995:	2e e9 37 6b 00 00    	cs jmp 0x40b4d2
  40499b:	b9 01 00 00 00       	mov    $0x1,%ecx
  4049a0:	83 c1 ea             	add    $0xffffffea,%ecx
  4049a3:	81 35 f3 30 42 00 d5 	xorl   $0xd5,0x4230f3
  4049aa:	00 00 00 
	...
  4049b9:	00 00                	add    %al,(%eax)
  4049bb:	00 83 c6 fe 29 3d    	add    %al,0x3d29fec6(%ebx)
  4049c1:	a6                   	cmpsb  %es:(%edi),%ds:(%esi)
  4049c2:	31 42 00             	xor    %eax,0x0(%edx)
  4049c5:	8d 3d b3 16 a7 98    	lea    0x98a716b3,%edi
  4049cb:	81 ef 21 e3 64 98    	sub    $0x9864e321,%edi
  4049d1:	57                   	push   %edi
  4049d2:	6a 01                	push   $0x1
  4049d4:	ff 0c 24             	decl   (%esp)
  4049d7:	68 01 00 10 00       	push   $0x100001
  4049dc:	ff 0c 24             	decl   (%esp)
  4049df:	a1 e8 f0 41 00       	mov    0x41f0e8,%eax
  4049e4:	ff d0                	call   *%eax
  4049e6:	85 c0                	test   %eax,%eax
  4049e8:	0f 85 ba 6f 00 00    	jne    0x40b9a8
  4049ee:	13 35 1b 31 42 00    	adc    0x42311b,%esi
  4049f4:	8d 3d b3 16 a7 98    	lea    0x98a716b3,%edi
  4049fa:	81 ef 21 e3 64 98    	sub    $0x9864e321,%edi
  404a00:	57                   	push   %edi
  404a01:	6a 01                	push   $0x1
  404a03:	ff 0c 24             	decl   (%esp)
  404a06:	68 01 00 10 00       	push   $0x100001
  404a0b:	ff 0c 24             	decl   (%esp)
  404a0e:	a1 e8 f0 41 00       	mov    0x41f0e8,%eax
  404a13:	ff d0                	call   *%eax
  404a15:	85 c0                	test   %eax,%eax
  404a17:	0f 85 8b 6f 00 00    	jne    0x40b9a8
  404a1d:	82 2d 88 30 42 00 63 	subb   $0x63,0x423088
  404a24:	8d 1d b3 16 a7 98    	lea    0x98a716b3,%ebx
  404a2a:	81 eb 21 e3 64 98    	sub    $0x9864e321,%ebx
  404a30:	53                   	push   %ebx
  404a31:	6a 01                	push   $0x1
  404a33:	ff 0c 24             	decl   (%esp)
  404a36:	68 01 00 10 00       	push   $0x100001
  404a3b:	ff 0c 24             	decl   (%esp)
  404a3e:	a1 e8 f0 41 00       	mov    0x41f0e8,%eax
  404a43:	ff d0                	call   *%eax
  404a45:	83 f8 00             	cmp    $0x0,%eax
  404a48:	0f 85 5a 6f 00 00    	jne    0x40b9a8
  404a4e:	8d 35 b3 16 a7 98    	lea    0x98a716b3,%esi
  404a54:	81 ee 21 e3 64 98    	sub    $0x9864e321,%esi
  404a5a:	56                   	push   %esi
  404a5b:	6a 01                	push   $0x1
  404a5d:	ff 0c 24             	decl   (%esp)
  404a60:	68 01 00 10 00       	push   $0x100001
  404a65:	ff 0c 24             	decl   (%esp)
  404a68:	a1 e8 f0 41 00       	mov    0x41f0e8,%eax
  404a6d:	ff d0                	call   *%eax
  404a6f:	85 c0                	test   %eax,%eax
  404a71:	0f 85 31 6f 00 00    	jne    0x40b9a8
  404a77:	01 05 2a 30 42 00    	add    %eax,0x42302a
  404a7d:	83 db 29             	sbb    $0x29,%ebx
  404a80:	b9 01 00 00 00       	mov    $0x1,%ecx
  404a85:	13 0d 69 30 42 00    	adc    0x423069,%ecx
  404a8b:	19 ce                	sbb    %ecx,%esi
  404a8d:	8d 1d d0 16 a7 98    	lea    0x98a716d0,%ebx
  404a93:	81 eb 21 e3 64 98    	sub    $0x9864e321,%ebx
  404a99:	53                   	push   %ebx
  404a9a:	8d 05 c0 16 a7 98    	lea    0x98a716c0,%eax
  404aa0:	2d 21 e3 64 98       	sub    $0x9864e321,%eax
  404aa5:	50                   	push   %eax
  404aa6:	a1 10 f1 41 00       	mov    0x41f110,%eax
  404aab:	ff d0                	call   *%eax
  404aad:	8d 1d b3 16 a7 98    	lea    0x98a716b3,%ebx
  404ab3:	81 eb 21 e3 64 98    	sub    $0x9864e321,%ebx
  404ab9:	53                   	push   %ebx
  404aba:	6a 01                	push   $0x1
  404abc:	ff 0c 24             	decl   (%esp)
  404abf:	68 01 00 10 00       	push   $0x100001
  404ac4:	ff 0c 24             	decl   (%esp)
  404ac7:	a1 e8 f0 41 00       	mov    0x41f0e8,%eax
  404acc:	ff d0                	call   *%eax
  404ace:	83 f8 00             	cmp    $0x0,%eax
  404ad1:	0f 85 d1 6e 00 00    	jne    0x40b9a8
  404ad7:	8d 35 b3 16 a7 98    	lea    0x98a716b3,%esi
  404add:	81 ee 21 e3 64 98    	sub    $0x9864e321,%esi
  404ae3:	56                   	push   %esi
  404ae4:	6a 01                	push   $0x1
  404ae6:	ff 0c 24             	decl   (%esp)
  404ae9:	68 01 00 10 00       	push   $0x100001
  404aee:	ff 0c 24             	decl   (%esp)
  404af1:	a1 e8 f0 41 00       	mov    0x41f0e8,%eax
  404af6:	ff d0                	call   *%eax
  404af8:	83 f8 00             	cmp    $0x0,%eax
  404afb:	0f 85 a7 6e 00 00    	jne    0x40b9a8
  404b01:	8d 15 d0 16 a7 98    	lea    0x98a716d0,%edx
  404b07:	81 ea 21 e3 64 98    	sub    $0x9864e321,%edx
  404b0d:	52                   	push   %edx
  404b0e:	8d 05 c0 16 a7 98    	lea    0x98a716c0,%eax
  404b14:	2d 21 e3 64 98       	sub    $0x9864e321,%eax
  404b19:	50                   	push   %eax
  404b1a:	a1 10 f1 41 00       	mov    0x41f110,%eax
  404b1f:	ff d0                	call   *%eax
  404b21:	21 35 93 30 42 00    	and    %esi,0x423093
  404b27:	01 c0                	add    %eax,%eax
  404b29:	8d 3d b3 16 a7 98    	lea    0x98a716b3,%edi
  404b2f:	81 ef 21 e3 64 98    	sub    $0x9864e321,%edi
  404b35:	57                   	push   %edi
  404b36:	6a 01                	push   $0x1
  404b38:	ff 0c 24             	decl   (%esp)
  404b3b:	68 01 00 10 00       	push   $0x100001
  404b40:	ff 0c 24             	decl   (%esp)
  404b43:	a1 e8 f0 41 00       	mov    0x41f0e8,%eax
  404b48:	ff d0                	call   *%eax
  404b4a:	83 f8 00             	cmp    $0x0,%eax
  404b4d:	0f 85 55 6e 00 00    	jne    0x40b9a8
  404b53:	8d 1d b3 16 a7 98    	lea    0x98a716b3,%ebx
  404b59:	81 eb 21 e3 64 98    	sub    $0x9864e321,%ebx
  404b5f:	53                   	push   %ebx
  404b60:	6a 01                	push   $0x1
  404b62:	ff 0c 24             	decl   (%esp)
  404b65:	68 01 00 10 00       	push   $0x100001
  404b6a:	ff 0c 24             	decl   (%esp)
  404b6d:	a1 e8 f0 41 00       	mov    0x41f0e8,%eax
  404b72:	ff d0                	call   *%eax
  404b74:	85 c0                	test   %eax,%eax
  404b76:	0f 85 2c 6e 00 00    	jne    0x40b9a8
  404b7c:	11 1d a1 30 42 00    	adc    %ebx,0x4230a1
  404b82:	31 df                	xor    %ebx,%edi
  404b84:	2e e9 48 69 00 00    	cs jmp 0x40b4d2
  404b8a:	83 f6 f0             	xor    $0xfffffff0,%esi
  404b8d:	31 35 10 31 42 00    	xor    %esi,0x423110
	...
  404b9b:	13 1d e9 31 42 00    	adc    0x4231e9,%ebx
  404ba1:	13 05 7e 31 42 00    	adc    0x42317e,%eax
  404ba7:	ba 01 00 00 00       	mov    $0x1,%edx
  404bac:	83 c2 af             	add    $0xffffffaf,%edx
  404baf:	c7 05 17 32 42 00 ba 	movl   $0xba,0x423217
  404bb6:	00 00 00 
  404bb9:	8d 0d d0 16 a7 98    	lea    0x98a716d0,%ecx
  404bbf:	81 e9 21 e3 64 98    	sub    $0x9864e321,%ecx
  404bc5:	51                   	push   %ecx
  404bc6:	8d 15 c0 16 a7 98    	lea    0x98a716c0,%edx
  404bcc:	81 ea 21 e3 64 98    	sub    $0x9864e321,%edx
  404bd2:	52                   	push   %edx
  404bd3:	a1 10 f1 41 00       	mov    0x41f110,%eax
  404bd8:	ff d0                	call   *%eax
  404bda:	81 1d 2f 30 42 00 b4 	sbbl   $0xb4,0x42302f
  404be1:	00 00 00 
  404be4:	13 35 4b 31 42 00    	adc    0x42314b,%esi
  404bea:	13 1d 73 31 42 00    	adc    0x423173,%ebx
  404bf0:	13 1d 45 30 42 00    	adc    0x423045,%ebx
  404bf6:	8d 0d d0 16 a7 98    	lea    0x98a716d0,%ecx
  404bfc:	81 e9 21 e3 64 98    	sub    $0x9864e321,%ecx
  404c02:	51                   	push   %ecx
  404c03:	8d 35 c0 16 a7 98    	lea    0x98a716c0,%esi
  404c09:	81 ee 21 e3 64 98    	sub    $0x9864e321,%esi
  404c0f:	56                   	push   %esi
  404c10:	a1 10 f1 41 00       	mov    0x41f110,%eax
  404c15:	ff d0                	call   *%eax
  404c17:	b9 01 00 00 00       	mov    $0x1,%ecx
  404c1c:	01 c1                	add    %eax,%ecx
  404c1e:	01 f8                	add    %edi,%eax
  404c20:	31 cb                	xor    %ecx,%ebx
  404c22:	13 3d 89 31 42 00    	adc    0x423189,%edi
  404c28:	ba 01 00 00 00       	mov    $0x1,%edx
  404c2d:	13 15 26 30 42 00    	adc    0x423026,%edx
  404c33:	8d 3d d0 16 a7 98    	lea    0x98a716d0,%edi
  404c39:	81 ef 21 e3 64 98    	sub    $0x9864e321,%edi
  404c3f:	57                   	push   %edi
  404c40:	8d 35 c0 16 a7 98    	lea    0x98a716c0,%esi
  404c46:	81 ee 21 e3 64 98    	sub    $0x9864e321,%esi
  404c4c:	56                   	push   %esi
  404c4d:	a1 10 f1 41 00       	mov    0x41f110,%eax
  404c52:	ff d0                	call   *%eax
  404c54:	34 e7                	xor    $0xe7,%al
  404c56:	13 1d 34 31 42 00    	adc    0x423134,%ebx
  404c5c:	83 0d 5c 30 42 00 2f 	orl    $0x2f,0x42305c
  404c63:	8d 05 b3 16 a7 98    	lea    0x98a716b3,%eax
  404c69:	2d 21 e3 64 98       	sub    $0x9864e321,%eax
  404c6e:	50                   	push   %eax
  404c6f:	6a 01                	push   $0x1
  404c71:	ff 0c 24             	decl   (%esp)
  404c74:	68 01 00 10 00       	push   $0x100001
  404c79:	ff 0c 24             	decl   (%esp)
  404c7c:	a1 e8 f0 41 00       	mov    0x41f0e8,%eax
  404c81:	ff d0                	call   *%eax
  404c83:	83 f8 00             	cmp    $0x0,%eax
  404c86:	0f 85 1c 6d 00 00    	jne    0x40b9a8
  404c8c:	b9 01 00 00 00       	mov    $0x1,%ecx
  404c91:	83 c1 18             	add    $0x18,%ecx
  404c94:	31 ff                	xor    %edi,%edi
  404c96:	ba 01 00 00 00       	mov    $0x1,%edx
  404c9b:	01 f2                	add    %esi,%edx
  404c9d:	83 e3 bd             	and    $0xffffffbd,%ebx
  404ca0:	8d 05 b3 16 a7 98    	lea    0x98a716b3,%eax
  404ca6:	2d 21 e3 64 98       	sub    $0x9864e321,%eax
  404cab:	50                   	push   %eax
  404cac:	6a 01                	push   $0x1
  404cae:	ff 0c 24             	decl   (%esp)
  404cb1:	68 01 00 10 00       	push   $0x100001
  404cb6:	ff 0c 24             	decl   (%esp)
  404cb9:	a1 e8 f0 41 00       	mov    0x41f0e8,%eax
  404cbe:	ff d0                	call   *%eax
  404cc0:	85 c0                	test   %eax,%eax
  404cc2:	0f 85 e0 6c 00 00    	jne    0x40b9a8
  404cc8:	83 cb 14             	or     $0x14,%ebx
  404ccb:	82 2d c0 31 42 00 79 	subb   $0x79,0x4231c0
  404cd2:	29 df                	sub    %ebx,%edi
  404cd4:	8d 35 b3 16 a7 98    	lea    0x98a716b3,%esi
  404cda:	81 ee 21 e3 64 98    	sub    $0x9864e321,%esi
  404ce0:	56                   	push   %esi
  404ce1:	6a 01                	push   $0x1
  404ce3:	ff 0c 24             	decl   (%esp)
  404ce6:	68 01 00 10 00       	push   $0x100001
  404ceb:	ff 0c 24             	decl   (%esp)
  404cee:	a1 e8 f0 41 00       	mov    0x41f0e8,%eax
  404cf3:	ff d0                	call   *%eax
  404cf5:	85 c0                	test   %eax,%eax
  404cf7:	0f 85 ab 6c 00 00    	jne    0x40b9a8
  404cfd:	81 0d 2c 30 42 00 cd 	orl    $0xcd,0x42302c
  404d04:	00 00 00 
  404d07:	b9 01 00 00 00       	mov    $0x1,%ecx
  404d0c:	13 0d 54 31 42 00    	adc    0x423154,%ecx
  404d12:	21 3d 22 31 42 00    	and    %edi,0x423122
  404d18:	8d 05 d0 16 a7 98    	lea    0x98a716d0,%eax
  404d1e:	2d 21 e3 64 98       	sub    $0x9864e321,%eax
  404d23:	50                   	push   %eax
  404d24:	8d 15 c0 16 a7 98    	lea    0x98a716c0,%edx
  404d2a:	81 ea 21 e3 64 98    	sub    $0x9864e321,%edx
  404d30:	52                   	push   %edx
  404d31:	a1 10 f1 41 00       	mov    0x41f110,%eax
  404d36:	ff d0                	call   *%eax
  404d38:	83 1d 91 31 42 00 55 	sbbl   $0x55,0x423191
  404d3f:	13 3d f7 31 42 00    	adc    0x4231f7,%edi
  404d45:	83 15 af 31 42 00 1e 	adcl   $0x1e,0x4231af
  404d4c:	8d 15 d0 16 a7 98    	lea    0x98a716d0,%edx
  404d52:	81 ea 21 e3 64 98    	sub    $0x9864e321,%edx
  404d58:	52                   	push   %edx
  404d59:	8d 35 c0 16 a7 98    	lea    0x98a716c0,%esi
  404d5f:	81 ee 21 e3 64 98    	sub    $0x9864e321,%esi
  404d65:	56                   	push   %esi
  404d66:	a1 10 f1 41 00       	mov    0x41f110,%eax
  404d6b:	ff d0                	call   *%eax
  404d6d:	83 c3 80             	add    $0xffffff80,%ebx
  404d70:	29 05 97 30 42 00    	sub    %eax,0x423097
  404d76:	8d 35 d0 16 a7 98    	lea    0x98a716d0,%esi
  404d7c:	81 ee 21 e3 64 98    	sub    $0x9864e321,%esi
  404d82:	56                   	push   %esi
  404d83:	8d 0d c0 16 a7 98    	lea    0x98a716c0,%ecx
  404d89:	81 e9 21 e3 64 98    	sub    $0x9864e321,%ecx
  404d8f:	51                   	push   %ecx
  404d90:	a1 10 f1 41 00       	mov    0x41f110,%eax
  404d95:	ff d0                	call   *%eax
  404d97:	81 35 77 31 42 00 dd 	xorl   $0xdd,0x423177
  404d9e:	00 00 00 
  404da1:	31 ff                	xor    %edi,%edi
  404da3:	83 ee e2             	sub    $0xffffffe2,%esi
  404da6:	b9 01 00 00 00       	mov    $0x1,%ecx
  404dab:	83 c1 cf             	add    $0xffffffcf,%ecx
  404dae:	ba 01 00 00 00       	mov    $0x1,%edx
  404db3:	01 ca                	add    %ecx,%edx
  404db5:	8d 3d b3 16 a7 98    	lea    0x98a716b3,%edi
  404dbb:	81 ef 21 e3 64 98    	sub    $0x9864e321,%edi
  404dc1:	57                   	push   %edi
  404dc2:	6a 01                	push   $0x1
  404dc4:	ff 0c 24             	decl   (%esp)
  404dc7:	68 01 00 10 00       	push   $0x100001
  404dcc:	ff 0c 24             	decl   (%esp)
  404dcf:	a1 e8 f0 41 00       	mov    0x41f0e8,%eax
  404dd4:	ff d0                	call   *%eax
  404dd6:	85 c0                	test   %eax,%eax
  404dd8:	0f 85 ca 6b 00 00    	jne    0x40b9a8
  404dde:	20 05 db 30 42 00    	and    %al,0x4230db
  404de4:	83 0d e8 30 42 00 1a 	orl    $0x1a,0x4230e8
  404deb:	0b 35 cd 30 42 00    	or     0x4230cd,%esi
  404df1:	8d 05 d0 16 a7 98    	lea    0x98a716d0,%eax
  404df7:	2d 21 e3 64 98       	sub    $0x9864e321,%eax
  404dfc:	50                   	push   %eax
  404dfd:	8d 15 c0 16 a7 98    	lea    0x98a716c0,%edx
  404e03:	81 ea 21 e3 64 98    	sub    $0x9864e321,%edx
  404e09:	52                   	push   %edx
  404e0a:	a1 10 f1 41 00       	mov    0x41f110,%eax
  404e0f:	ff d0                	call   *%eax
  404e11:	81 1d 2f 31 42 00 bf 	sbbl   $0xbf,0x42312f
  404e18:	00 00 00 
  404e1b:	01 35 64 31 42 00    	add    %esi,0x423164
  404e21:	8d 0d d0 16 a7 98    	lea    0x98a716d0,%ecx
  404e27:	81 e9 21 e3 64 98    	sub    $0x9864e321,%ecx
  404e2d:	51                   	push   %ecx
  404e2e:	8d 05 c0 16 a7 98    	lea    0x98a716c0,%eax
  404e34:	2d 21 e3 64 98       	sub    $0x9864e321,%eax
  404e39:	50                   	push   %eax
  404e3a:	a1 10 f1 41 00       	mov    0x41f110,%eax
  404e3f:	ff d0                	call   *%eax
  404e41:	01 df                	add    %ebx,%edi
  404e43:	81 25 b7 31 42 00 f9 	andl   $0xf9,0x4231b7
  404e4a:	00 00 00 
  404e4d:	ba 01 00 00 00       	mov    $0x1,%edx
  404e52:	01 fa                	add    %edi,%edx
  404e54:	b9 01 00 00 00       	mov    $0x1,%ecx
  404e59:	13 0d 67 30 42 00    	adc    0x423067,%ecx
  404e5f:	2e e9 6d 66 00 00    	cs jmp 0x40b4d2
  404e65:	12 05 90 30 42 00    	adc    0x423090,%al
  404e6b:	29 c0                	sub    %eax,%eax
  404e6d:	13 35 ba 30 42 00    	adc    0x4230ba,%esi
  404e73:	13 1d b9 31 42 00    	adc    0x4231b9,%ebx
  404e79:	01 15 9b 30 42 00    	add    %edx,0x42309b
  404e7f:	00 00                	add    %al,(%eax)
  404e81:	00 00                	add    %al,(%eax)
  404e83:	00 2b                	add    %ch,(%ebx)
  404e85:	1d 94 31 42 00       	sbb    $0x423194,%eax
  404e8a:	29 35 61 31 42 00    	sub    %esi,0x423161
  404e90:	83 d0 1a             	adc    $0x1a,%eax
  404e93:	0a 25 eb 30 42 00    	or     0x4230eb,%ah
  404e99:	13 05 5d 30 42 00    	adc    0x42305d,%eax
  404e9f:	8d 35 d0 16 a7 98    	lea    0x98a716d0,%esi
  404ea5:	81 ee 21 e3 64 98    	sub    $0x9864e321,%esi
  404eab:	56                   	push   %esi
  404eac:	8d 0d c0 16 a7 98    	lea    0x98a716c0,%ecx
  404eb2:	81 e9 21 e3 64 98    	sub    $0x9864e321,%ecx
  404eb8:	51                   	push   %ecx
  404eb9:	a1 10 f1 41 00       	mov    0x41f110,%eax
  404ebe:	ff d0                	call   *%eax
  404ec0:	83 c3 f7             	add    $0xfffffff7,%ebx
  404ec3:	83 15 a1 30 42 00 5a 	adcl   $0x5a,0x4230a1
  404eca:	83 eb c7             	sub    $0xffffffc7,%ebx
  404ecd:	8d 15 d0 16 a7 98    	lea    0x98a716d0,%edx
  404ed3:	81 ea 21 e3 64 98    	sub    $0x9864e321,%edx
  404ed9:	52                   	push   %edx
  404eda:	8d 15 c0 16 a7 98    	lea    0x98a716c0,%edx
  404ee0:	81 ea 21 e3 64 98    	sub    $0x9864e321,%edx
  404ee6:	52                   	push   %edx
  404ee7:	a1 10 f1 41 00       	mov    0x41f110,%eax
  404eec:	ff d0                	call   *%eax
  404eee:	29 1d cc 31 42 00    	sub    %ebx,0x4231cc
  404ef4:	8d 35 d0 16 a7 98    	lea    0x98a716d0,%esi
  404efa:	81 ee 21 e3 64 98    	sub    $0x9864e321,%esi
  404f00:	56                   	push   %esi
  404f01:	8d 1d c0 16 a7 98    	lea    0x98a716c0,%ebx
  404f07:	81 eb 21 e3 64 98    	sub    $0x9864e321,%ebx
  404f0d:	53                   	push   %ebx
  404f0e:	a1 10 f1 41 00       	mov    0x41f110,%eax
  404f13:	ff d0                	call   *%eax
  404f15:	09 05 b9 31 42 00    	or     %eax,0x4231b9
  404f1b:	81 25 c6 31 42 00 e4 	andl   $0xe4,0x4231c6
  404f22:	00 00 00 
  404f25:	2b 3d 45 31 42 00    	sub    0x423145,%edi
  404f2b:	13 05 cd 30 42 00    	adc    0x4230cd,%eax
  404f31:	ba 01 00 00 00       	mov    $0x1,%edx
  404f36:	13 15 40 31 42 00    	adc    0x423140,%edx
  404f3c:	8d 05 b3 16 a7 98    	lea    0x98a716b3,%eax
  404f42:	2d 21 e3 64 98       	sub    $0x9864e321,%eax
  404f47:	50                   	push   %eax
  404f48:	6a 01                	push   $0x1
  404f4a:	ff 0c 24             	decl   (%esp)
  404f4d:	68 01 00 10 00       	push   $0x100001
  404f52:	ff 0c 24             	decl   (%esp)
  404f55:	a1 e8 f0 41 00       	mov    0x41f0e8,%eax
  404f5a:	ff d0                	call   *%eax
  404f5c:	85 c0                	test   %eax,%eax
  404f5e:	0f 85 44 6a 00 00    	jne    0x40b9a8
  404f64:	01 05 5c 30 42 00    	add    %eax,0x42305c
  404f6a:	13 35 0b 31 42 00    	adc    0x42310b,%esi
  404f70:	b9 01 00 00 00       	mov    $0x1,%ecx
  404f75:	83 c1 c2             	add    $0xffffffc2,%ecx
  404f78:	81 15 48 30 42 00 bf 	adcl   $0xbf,0x423048
  404f7f:	00 00 00 
  404f82:	8d 05 d0 16 a7 98    	lea    0x98a716d0,%eax
  404f88:	2d 21 e3 64 98       	sub    $0x9864e321,%eax
  404f8d:	50                   	push   %eax
  404f8e:	8d 1d c0 16 a7 98    	lea    0x98a716c0,%ebx
  404f94:	81 eb 21 e3 64 98    	sub    $0x9864e321,%ebx
  404f9a:	53                   	push   %ebx
  404f9b:	a1 10 f1 41 00       	mov    0x41f110,%eax
  404fa0:	ff d0                	call   *%eax
  404fa2:	8d 3d d0 16 a7 98    	lea    0x98a716d0,%edi
  404fa8:	81 ef 21 e3 64 98    	sub    $0x9864e321,%edi
  404fae:	57                   	push   %edi
  404faf:	8d 35 c0 16 a7 98    	lea    0x98a716c0,%esi
  404fb5:	81 ee 21 e3 64 98    	sub    $0x9864e321,%esi
  404fbb:	56                   	push   %esi
  404fbc:	a1 10 f1 41 00       	mov    0x41f110,%eax
  404fc1:	ff d0                	call   *%eax
  404fc3:	83 c7 15             	add    $0x15,%edi
  404fc6:	19 c0                	sbb    %eax,%eax
  404fc8:	81 15 4c 31 42 00 b1 	adcl   $0xb1,0x42314c
  404fcf:	00 00 00 
  404fd2:	8d 35 b3 16 a7 98    	lea    0x98a716b3,%esi
  404fd8:	81 ee 21 e3 64 98    	sub    $0x9864e321,%esi
  404fde:	56                   	push   %esi
  404fdf:	6a 01                	push   $0x1
  404fe1:	ff 0c 24             	decl   (%esp)
  404fe4:	68 01 00 10 00       	push   $0x100001
  404fe9:	ff 0c 24             	decl   (%esp)
  404fec:	a1 e8 f0 41 00       	mov    0x41f0e8,%eax
  404ff1:	ff d0                	call   *%eax
  404ff3:	85 c0                	test   %eax,%eax
  404ff5:	0f 85 ad 69 00 00    	jne    0x40b9a8
  404ffb:	01 db                	add    %ebx,%ebx
  404ffd:	2b 3d c2 31 42 00    	sub    0x4231c2,%edi
  405003:	8d 15 d0 16 a7 98    	lea    0x98a716d0,%edx
  405009:	81 ea 21 e3 64 98    	sub    $0x9864e321,%edx
  40500f:	52                   	push   %edx
  405010:	8d 0d c0 16 a7 98    	lea    0x98a716c0,%ecx
  405016:	81 e9 21 e3 64 98    	sub    $0x9864e321,%ecx
  40501c:	51                   	push   %ecx
  40501d:	a1 10 f1 41 00       	mov    0x41f110,%eax
  405022:	ff d0                	call   *%eax
  405024:	11 f8                	adc    %edi,%eax
  405026:	29 df                	sub    %ebx,%edi
  405028:	8d 3d b3 16 a7 98    	lea    0x98a716b3,%edi
  40502e:	81 ef 21 e3 64 98    	sub    $0x9864e321,%edi
  405034:	57                   	push   %edi
  405035:	6a 01                	push   $0x1
  405037:	ff 0c 24             	decl   (%esp)
  40503a:	68 01 00 10 00       	push   $0x100001
  40503f:	ff 0c 24             	decl   (%esp)
  405042:	a1 e8 f0 41 00       	mov    0x41f0e8,%eax
  405047:	ff d0                	call   *%eax
  405049:	85 c0                	test   %eax,%eax
  40504b:	0f 85 57 69 00 00    	jne    0x40b9a8
  405051:	8d 15 d0 16 a7 98    	lea    0x98a716d0,%edx
  405057:	81 ea 21 e3 64 98    	sub    $0x9864e321,%edx
  40505d:	52                   	push   %edx
  40505e:	8d 35 c0 16 a7 98    	lea    0x98a716c0,%esi
  405064:	81 ee 21 e3 64 98    	sub    $0x9864e321,%esi
  40506a:	56                   	push   %esi
  40506b:	a1 10 f1 41 00       	mov    0x41f110,%eax
  405070:	ff d0                	call   *%eax
  405072:	11 db                	adc    %ebx,%ebx
  405074:	83 d8 23             	sbb    $0x23,%eax
  405077:	83 de b8             	sbb    $0xffffffb8,%esi
  40507a:	01 f0                	add    %esi,%eax
  40507c:	81 0d cc 31 42 00 87 	orl    $0x87,0x4231cc
  405083:	00 00 00 
  405086:	8d 15 d0 16 a7 98    	lea    0x98a716d0,%edx
  40508c:	81 ea 21 e3 64 98    	sub    $0x9864e321,%edx
  405092:	52                   	push   %edx
  405093:	8d 15 c0 16 a7 98    	lea    0x98a716c0,%edx
  405099:	81 ea 21 e3 64 98    	sub    $0x9864e321,%edx
  40509f:	52                   	push   %edx
  4050a0:	a1 10 f1 41 00       	mov    0x41f110,%eax
  4050a5:	ff d0                	call   *%eax
  4050a7:	83 0d 7e 31 42 00 4d 	orl    $0x4d,0x42317e
  4050ae:	13 35 a8 31 42 00    	adc    0x4231a8,%esi
  4050b4:	2e e9 18 64 00 00    	cs jmp 0x40b4d2
  4050ba:	b9 01 00 00 00       	mov    $0x1,%ecx
  4050bf:	01 d9                	add    %ebx,%ecx
  4050c1:	09 0d 9c 31 42 00    	or     %ecx,0x42319c
  4050c7:	ba 01 00 00 00       	mov    $0x1,%edx
  4050cc:	83 c2 ba             	add    $0xffffffba,%edx
	...
  4050db:	11 f8                	adc    %edi,%eax
  4050dd:	81 25 4a 30 42 00 c0 	andl   $0xc0,0x42304a
  4050e4:	00 00 00 
  4050e7:	00 05 aa 31 42 00    	add    %al,0x4231aa
  4050ed:	8d 3d b3 16 a7 98    	lea    0x98a716b3,%edi
  4050f3:	81 ef 21 e3 64 98    	sub    $0x9864e321,%edi
  4050f9:	57                   	push   %edi
  4050fa:	6a 01                	push   $0x1
  4050fc:	ff 0c 24             	decl   (%esp)
  4050ff:	68 01 00 10 00       	push   $0x100001
  405104:	ff 0c 24             	decl   (%esp)
  405107:	a1 e8 f0 41 00       	mov    0x41f0e8,%eax
  40510c:	ff d0                	call   *%eax
  40510e:	83 f8 00             	cmp    $0x0,%eax
  405111:	0f 85 91 68 00 00    	jne    0x40b9a8
  405117:	12 05 0d 31 42 00    	adc    0x42310d,%al
  40511d:	11 de                	adc    %ebx,%esi
  40511f:	11 3d 8f 30 42 00    	adc    %edi,0x42308f
  405125:	12 1d 4e 31 42 00    	adc    0x42314e,%bl
  40512b:	8d 35 d0 16 a7 98    	lea    0x98a716d0,%esi
  405131:	81 ee 21 e3 64 98    	sub    $0x9864e321,%esi
  405137:	56                   	push   %esi
  405138:	8d 3d c0 16 a7 98    	lea    0x98a716c0,%edi
  40513e:	81 ef 21 e3 64 98    	sub    $0x9864e321,%edi
  405144:	57                   	push   %edi
  405145:	a1 10 f1 41 00       	mov    0x41f110,%eax
  40514a:	ff d0                	call   *%eax
  40514c:	8d 15 d0 16 a7 98    	lea    0x98a716d0,%edx
  405152:	81 ea 21 e3 64 98    	sub    $0x9864e321,%edx
  405158:	52                   	push   %edx
  405159:	8d 3d c0 16 a7 98    	lea    0x98a716c0,%edi
  40515f:	81 ef 21 e3 64 98    	sub    $0x9864e321,%edi
  405165:	57                   	push   %edi
  405166:	a1 10 f1 41 00       	mov    0x41f110,%eax
  40516b:	ff d0                	call   *%eax
  40516d:	81 15 93 31 42 00 de 	adcl   $0xde,0x423193
  405174:	00 00 00 
  405177:	b9 01 00 00 00       	mov    $0x1,%ecx
  40517c:	13 0d 5a 30 42 00    	adc    0x42305a,%ecx
  405182:	83 15 b5 31 42 00 37 	adcl   $0x37,0x4231b5
  405189:	19 c1                	sbb    %eax,%ecx
  40518b:	83 d6 7d             	adc    $0x7d,%esi
  40518e:	8d 35 d0 16 a7 98    	lea    0x98a716d0,%esi
  405194:	81 ee 21 e3 64 98    	sub    $0x9864e321,%esi
  40519a:	56                   	push   %esi
  40519b:	8d 35 c0 16 a7 98    	lea    0x98a716c0,%esi
  4051a1:	81 ee 21 e3 64 98    	sub    $0x9864e321,%esi
  4051a7:	56                   	push   %esi
  4051a8:	a1 10 f1 41 00       	mov    0x41f110,%eax
  4051ad:	ff d0                	call   *%eax
  4051af:	19 f6                	sbb    %esi,%esi
  4051b1:	8d 0d b3 16 a7 98    	lea    0x98a716b3,%ecx
  4051b7:	81 e9 21 e3 64 98    	sub    $0x9864e321,%ecx
  4051bd:	51                   	push   %ecx
  4051be:	6a 01                	push   $0x1
  4051c0:	ff 0c 24             	decl   (%esp)
  4051c3:	68 01 00 10 00       	push   $0x100001
  4051c8:	ff 0c 24             	decl   (%esp)
  4051cb:	a1 e8 f0 41 00       	mov    0x41f0e8,%eax
  4051d0:	ff d0                	call   *%eax
  4051d2:	83 f8 00             	cmp    $0x0,%eax
  4051d5:	0f 85 cd 67 00 00    	jne    0x40b9a8
  4051db:	09 35 05 32 42 00    	or     %esi,0x423205
  4051e1:	8d 3d d0 16 a7 98    	lea    0x98a716d0,%edi
  4051e7:	81 ef 21 e3 64 98    	sub    $0x9864e321,%edi
  4051ed:	57                   	push   %edi
  4051ee:	8d 05 c0 16 a7 98    	lea    0x98a716c0,%eax
  4051f4:	2d 21 e3 64 98       	sub    $0x9864e321,%eax
  4051f9:	50                   	push   %eax
  4051fa:	a1 10 f1 41 00       	mov    0x41f110,%eax
  4051ff:	ff d0                	call   *%eax
  405201:	00 3d 5b 30 42 00    	add    %bh,0x42305b
  405207:	13 35 67 31 42 00    	adc    0x423167,%esi
  40520d:	83 ce df             	or     $0xffffffdf,%esi
  405210:	8d 05 d0 16 a7 98    	lea    0x98a716d0,%eax
  405216:	2d 21 e3 64 98       	sub    $0x9864e321,%eax
  40521b:	50                   	push   %eax
  40521c:	8d 1d c0 16 a7 98    	lea    0x98a716c0,%ebx
  405222:	81 eb 21 e3 64 98    	sub    $0x9864e321,%ebx
  405228:	53                   	push   %ebx
  405229:	a1 10 f1 41 00       	mov    0x41f110,%eax
  40522e:	ff d0                	call   *%eax
  405230:	30 c3                	xor    %al,%bl
  405232:	8d 05 d0 16 a7 98    	lea    0x98a716d0,%eax
  405238:	2d 21 e3 64 98       	sub    $0x9864e321,%eax
  40523d:	50                   	push   %eax
  40523e:	8d 35 c0 16 a7 98    	lea    0x98a716c0,%esi
  405244:	81 ee 21 e3 64 98    	sub    $0x9864e321,%esi
  40524a:	56                   	push   %esi
  40524b:	a1 10 f1 41 00       	mov    0x41f110,%eax
  405250:	ff d0                	call   *%eax
  405252:	01 35 ac 30 42 00    	add    %esi,0x4230ac
  405258:	83 25 a3 30 42 00 5a 	andl   $0x5a,0x4230a3
  40525f:	8d 35 b3 16 a7 98    	lea    0x98a716b3,%esi
  405265:	81 ee 21 e3 64 98    	sub    $0x9864e321,%esi
  40526b:	56                   	push   %esi
  40526c:	6a 01                	push   $0x1
  40526e:	ff 0c 24             	decl   (%esp)
  405271:	68 01 00 10 00       	push   $0x100001
  405276:	ff 0c 24             	decl   (%esp)
  405279:	a1 e8 f0 41 00       	mov    0x41f0e8,%eax
  40527e:	ff d0                	call   *%eax
  405280:	85 c0                	test   %eax,%eax
  405282:	0f 85 20 67 00 00    	jne    0x40b9a8
  405288:	12 3d be 31 42 00    	adc    0x4231be,%bh
  40528e:	ba 01 00 00 00       	mov    $0x1,%edx
  405293:	01 f2                	add    %esi,%edx
  405295:	8d 1d b3 16 a7 98    	lea    0x98a716b3,%ebx
  40529b:	81 eb 21 e3 64 98    	sub    $0x9864e321,%ebx
  4052a1:	53                   	push   %ebx
  4052a2:	6a 01                	push   $0x1
  4052a4:	ff 0c 24             	decl   (%esp)
  4052a7:	68 01 00 10 00       	push   $0x100001
  4052ac:	ff 0c 24             	decl   (%esp)
  4052af:	a1 e8 f0 41 00       	mov    0x41f0e8,%eax
  4052b4:	ff d0                	call   *%eax
  4052b6:	85 c0                	test   %eax,%eax
  4052b8:	0f 85 ea 66 00 00    	jne    0x40b9a8
  4052be:	29 35 26 30 42 00    	sub    %esi,0x423026
  4052c4:	83 35 75 30 42 00 66 	xorl   $0x66,0x423075
  4052cb:	8d 15 b3 16 a7 98    	lea    0x98a716b3,%edx
  4052d1:	81 ea 21 e3 64 98    	sub    $0x9864e321,%edx
  4052d7:	52                   	push   %edx
  4052d8:	6a 01                	push   $0x1
  4052da:	ff 0c 24             	decl   (%esp)
  4052dd:	68 01 00 10 00       	push   $0x100001
  4052e2:	ff 0c 24             	decl   (%esp)
  4052e5:	a1 e8 f0 41 00       	mov    0x41f0e8,%eax
  4052ea:	ff d0                	call   *%eax
  4052ec:	85 c0                	test   %eax,%eax
  4052ee:	0f 85 b4 66 00 00    	jne    0x40b9a8
  4052f4:	2e e9 d8 61 00 00    	cs jmp 0x40b4d2
  4052fa:	82 2d 99 30 42 00 01 	subb   $0x1,0x423099
  405301:	83 cf 06             	or     $0x6,%edi
  405304:	b1 01                	mov    $0x1,%cl
  405306:	00 c1                	add    %al,%cl
  405308:	13 0d b9 30 42 00    	adc    0x4230b9,%ecx
  40530e:	0b 35 a4 31 42 00    	or     0x4231a4,%esi
	...
  40531c:	00 00                	add    %al,(%eax)
  40531e:	83 d7 45             	adc    $0x45,%edi
  405321:	83 15 d4 31 42 00 42 	adcl   $0x42,0x4231d4
  405328:	83 ee 33             	sub    $0x33,%esi
  40532b:	01 35 43 31 42 00    	add    %esi,0x423143
  405331:	0b 35 01 32 42 00    	or     0x423201,%esi
  405337:	8d 05 b3 16 a7 98    	lea    0x98a716b3,%eax
  40533d:	2d 21 e3 64 98       	sub    $0x9864e321,%eax
  405342:	50                   	push   %eax
  405343:	6a 01                	push   $0x1
  405345:	ff 0c 24             	decl   (%esp)
  405348:	68 01 00 10 00       	push   $0x100001
  40534d:	ff 0c 24             	decl   (%esp)
  405350:	a1 e8 f0 41 00       	mov    0x41f0e8,%eax
  405355:	ff d0                	call   *%eax
  405357:	83 f8 00             	cmp    $0x0,%eax
  40535a:	0f 85 48 66 00 00    	jne    0x40b9a8
  405360:	ba 01 00 00 00       	mov    $0x1,%edx
  405365:	83 c2 f7             	add    $0xfffffff7,%edx
  405368:	8d 15 b3 16 a7 98    	lea    0x98a716b3,%edx
  40536e:	81 ea 21 e3 64 98    	sub    $0x9864e321,%edx
  405374:	52                   	push   %edx
  405375:	6a 01                	push   $0x1
  405377:	ff 0c 24             	decl   (%esp)
  40537a:	68 01 00 10 00       	push   $0x100001
  40537f:	ff 0c 24             	decl   (%esp)
  405382:	a1 e8 f0 41 00       	mov    0x41f0e8,%eax
  405387:	ff d0                	call   *%eax
  405389:	83 f8 00             	cmp    $0x0,%eax
  40538c:	0f 85 16 66 00 00    	jne    0x40b9a8
  405392:	ba 01 00 00 00       	mov    $0x1,%edx
  405397:	01 f2                	add    %esi,%edx
  405399:	b9 01 00 00 00       	mov    $0x1,%ecx
  40539e:	01 d1                	add    %edx,%ecx
  4053a0:	83 f6 34             	xor    $0x34,%esi
  4053a3:	8d 35 b3 16 a7 98    	lea    0x98a716b3,%esi
  4053a9:	81 ee 21 e3 64 98    	sub    $0x9864e321,%esi
  4053af:	56                   	push   %esi
  4053b0:	6a 01                	push   $0x1
  4053b2:	ff 0c 24             	decl   (%esp)
  4053b5:	68 01 00 10 00       	push   $0x100001
  4053ba:	ff 0c 24             	decl   (%esp)
  4053bd:	a1 e8 f0 41 00       	mov    0x41f0e8,%eax
  4053c2:	ff d0                	call   *%eax
  4053c4:	83 f8 00             	cmp    $0x0,%eax
  4053c7:	0f 85 db 65 00 00    	jne    0x40b9a8
  4053cd:	83 c7 a1             	add    $0xffffffa1,%edi
  4053d0:	ba 01 00 00 00       	mov    $0x1,%edx
  4053d5:	83 c2 5a             	add    $0x5a,%edx
  4053d8:	8d 3d b3 16 a7 98    	lea    0x98a716b3,%edi
  4053de:	81 ef 21 e3 64 98    	sub    $0x9864e321,%edi
  4053e4:	57                   	push   %edi
  4053e5:	6a 01                	push   $0x1
  4053e7:	ff 0c 24             	decl   (%esp)
  4053ea:	68 01 00 10 00       	push   $0x100001
  4053ef:	ff 0c 24             	decl   (%esp)
  4053f2:	a1 e8 f0 41 00       	mov    0x41f0e8,%eax
  4053f7:	ff d0                	call   *%eax
  4053f9:	85 c0                	test   %eax,%eax
  4053fb:	0f 85 a7 65 00 00    	jne    0x40b9a8
  405401:	13 1d 41 31 42 00    	adc    0x423141,%ebx
  405407:	8d 35 b3 16 a7 98    	lea    0x98a716b3,%esi
  40540d:	81 ee 21 e3 64 98    	sub    $0x9864e321,%esi
  405413:	56                   	push   %esi
  405414:	6a 01                	push   $0x1
  405416:	ff 0c 24             	decl   (%esp)
  405419:	68 01 00 10 00       	push   $0x100001
  40541e:	ff 0c 24             	decl   (%esp)
  405421:	a1 e8 f0 41 00       	mov    0x41f0e8,%eax
  405426:	ff d0                	call   *%eax
  405428:	85 c0                	test   %eax,%eax
  40542a:	0f 85 78 65 00 00    	jne    0x40b9a8
  405430:	b1 01                	mov    $0x1,%cl
  405432:	00 e1                	add    %ah,%cl
  405434:	83 15 1e 32 42 00 53 	adcl   $0x53,0x42321e
  40543b:	8d 1d b3 16 a7 98    	lea    0x98a716b3,%ebx
  405441:	81 eb 21 e3 64 98    	sub    $0x9864e321,%ebx
  405447:	53                   	push   %ebx
  405448:	6a 01                	push   $0x1
  40544a:	ff 0c 24             	decl   (%esp)
  40544d:	68 01 00 10 00       	push   $0x100001
  405452:	ff 0c 24             	decl   (%esp)
  405455:	a1 e8 f0 41 00       	mov    0x41f0e8,%eax
  40545a:	ff d0                	call   *%eax
  40545c:	83 f8 00             	cmp    $0x0,%eax
  40545f:	0f 85 43 65 00 00    	jne    0x40b9a8
  405465:	83 c8 ba             	or     $0xffffffba,%eax
  405468:	12 25 e5 30 42 00    	adc    0x4230e5,%ah
  40546e:	01 df                	add    %ebx,%edi
  405470:	81 25 ed 31 42 00 c9 	andl   $0xc9,0x4231ed
  405477:	00 00 00 
  40547a:	ba 01 00 00 00       	mov    $0x1,%edx
  40547f:	83 c2 b1             	add    $0xffffffb1,%edx
  405482:	8d 3d d0 16 a7 98    	lea    0x98a716d0,%edi
  405488:	81 ef 21 e3 64 98    	sub    $0x9864e321,%edi
  40548e:	57                   	push   %edi
  40548f:	8d 35 c0 16 a7 98    	lea    0x98a716c0,%esi
  405495:	81 ee 21 e3 64 98    	sub    $0x9864e321,%esi
  40549b:	56                   	push   %esi
  40549c:	a1 10 f1 41 00       	mov    0x41f110,%eax
  4054a1:	ff d0                	call   *%eax
  4054a3:	13 05 85 30 42 00    	adc    0x423085,%eax
  4054a9:	c7 05 84 30 42 00 6e 	movl   $0x6e,0x423084
  4054b0:	00 00 00 
  4054b3:	b9 01 00 00 00       	mov    $0x1,%ecx
  4054b8:	01 f1                	add    %esi,%ecx
  4054ba:	8d 3d d0 16 a7 98    	lea    0x98a716d0,%edi
  4054c0:	81 ef 21 e3 64 98    	sub    $0x9864e321,%edi
  4054c6:	57                   	push   %edi
  4054c7:	8d 15 c0 16 a7 98    	lea    0x98a716c0,%edx
  4054cd:	81 ea 21 e3 64 98    	sub    $0x9864e321,%edx
  4054d3:	52                   	push   %edx
  4054d4:	a1 10 f1 41 00       	mov    0x41f110,%eax
  4054d9:	ff d0                	call   *%eax
  4054db:	8d 0d b3 16 a7 98    	lea    0x98a716b3,%ecx
  4054e1:	81 e9 21 e3 64 98    	sub    $0x9864e321,%ecx
  4054e7:	51                   	push   %ecx
  4054e8:	6a 01                	push   $0x1
  4054ea:	ff 0c 24             	decl   (%esp)
  4054ed:	68 01 00 10 00       	push   $0x100001
  4054f2:	ff 0c 24             	decl   (%esp)
  4054f5:	a1 e8 f0 41 00       	mov    0x41f0e8,%eax
  4054fa:	ff d0                	call   *%eax
  4054fc:	83 f8 00             	cmp    $0x0,%eax
  4054ff:	0f 85 a3 64 00 00    	jne    0x40b9a8
  405505:	83 cb 6a             	or     $0x6a,%ebx
  405508:	ba 01 00 00 00       	mov    $0x1,%edx
  40550d:	13 15 6c 30 42 00    	adc    0x42306c,%edx
  405513:	83 35 30 30 42 00 4c 	xorl   $0x4c,0x423030
  40551a:	11 05 d9 30 42 00    	adc    %eax,0x4230d9
  405520:	83 15 69 30 42 00 71 	adcl   $0x71,0x423069
  405527:	8d 1d d0 16 a7 98    	lea    0x98a716d0,%ebx
  40552d:	81 eb 21 e3 64 98    	sub    $0x9864e321,%ebx
  405533:	53                   	push   %ebx
  405534:	8d 1d c0 16 a7 98    	lea    0x98a716c0,%ebx
  40553a:	81 eb 21 e3 64 98    	sub    $0x9864e321,%ebx
  405540:	53                   	push   %ebx
  405541:	a1 10 f1 41 00       	mov    0x41f110,%eax
  405546:	ff d0                	call   *%eax
  405548:	83 0d a3 30 42 00 30 	orl    $0x30,0x4230a3
  40554f:	21 3d b6 30 42 00    	and    %edi,0x4230b6
  405555:	b1 01                	mov    $0x1,%cl
  405557:	82 c1 82             	add    $0x82,%cl
  40555a:	2b 05 f7 30 42 00    	sub    0x4230f7,%eax
  405560:	8d 1d b3 16 a7 98    	lea    0x98a716b3,%ebx
  405566:	81 eb 21 e3 64 98    	sub    $0x9864e321,%ebx
  40556c:	53                   	push   %ebx
  40556d:	6a 01                	push   $0x1
  40556f:	ff 0c 24             	decl   (%esp)
  405572:	68 01 00 10 00       	push   $0x100001
  405577:	ff 0c 24             	decl   (%esp)
  40557a:	a1 e8 f0 41 00       	mov    0x41f0e8,%eax
  40557f:	ff d0                	call   *%eax
  405581:	83 f8 00             	cmp    $0x0,%eax
  405584:	0f 85 1e 64 00 00    	jne    0x40b9a8
  40558a:	b9 01 00 00 00       	mov    $0x1,%ecx
  40558f:	01 f9                	add    %edi,%ecx
  405591:	ba 01 00 00 00       	mov    $0x1,%edx
  405596:	01 fa                	add    %edi,%edx
  405598:	2e e9 34 5f 00 00    	cs jmp 0x40b4d2
  40559e:	0b 1d 99 30 42 00    	or     0x423099,%ebx
  4055a4:	82 d6 a4             	adc    $0xa4,%dh
	...
  4055af:	00 00                	add    %al,(%eax)
  4055b1:	31 3d da 31 42 00    	xor    %edi,0x4231da
  4055b7:	83 35 06 32 42 00 02 	xorl   $0x2,0x423206
  4055be:	83 e6 88             	and    $0xffffff88,%esi
  4055c1:	b9 01 00 00 00       	mov    $0x1,%ecx
  4055c6:	01 c1                	add    %eax,%ecx
  4055c8:	8d 05 b3 16 a7 98    	lea    0x98a716b3,%eax
  4055ce:	2d 21 e3 64 98       	sub    $0x9864e321,%eax
  4055d3:	50                   	push   %eax
  4055d4:	6a 01                	push   $0x1
  4055d6:	ff 0c 24             	decl   (%esp)
  4055d9:	68 01 00 10 00       	push   $0x100001
  4055de:	ff 0c 24             	decl   (%esp)
  4055e1:	a1 e8 f0 41 00       	mov    0x41f0e8,%eax
  4055e6:	ff d0                	call   *%eax
  4055e8:	85 c0                	test   %eax,%eax
  4055ea:	0f 85 b8 63 00 00    	jne    0x40b9a8
  4055f0:	31 c7                	xor    %eax,%edi
  4055f2:	13 1d a8 31 42 00    	adc    0x4231a8,%ebx
  4055f8:	b9 01 00 00 00       	mov    $0x1,%ecx
  4055fd:	83 c1 bc             	add    $0xffffffbc,%ecx
  405600:	8d 05 b3 16 a7 98    	lea    0x98a716b3,%eax
  405606:	2d 21 e3 64 98       	sub    $0x9864e321,%eax
  40560b:	50                   	push   %eax
  40560c:	6a 01                	push   $0x1
  40560e:	ff 0c 24             	decl   (%esp)
  405611:	68 01 00 10 00       	push   $0x100001
  405616:	ff 0c 24             	decl   (%esp)
  405619:	a1 e8 f0 41 00       	mov    0x41f0e8,%eax
  40561e:	ff d0                	call   *%eax
  405620:	85 c0                	test   %eax,%eax
  405622:	0f 85 80 63 00 00    	jne    0x40b9a8
  405628:	ba 01 00 00 00       	mov    $0x1,%edx
  40562d:	01 c2                	add    %eax,%edx
  40562f:	83 35 57 31 42 00 2f 	xorl   $0x2f,0x423157
  405636:	21 05 4b 31 42 00    	and    %eax,0x42314b
  40563c:	19 15 98 30 42 00    	sbb    %edx,0x423098
  405642:	8d 35 b3 16 a7 98    	lea    0x98a716b3,%esi
  405648:	81 ee 21 e3 64 98    	sub    $0x9864e321,%esi
  40564e:	56                   	push   %esi
  40564f:	6a 01                	push   $0x1
  405651:	ff 0c 24             	decl   (%esp)
  405654:	68 01 00 10 00       	push   $0x100001
  405659:	ff 0c 24             	decl   (%esp)
  40565c:	a1 e8 f0 41 00       	mov    0x41f0e8,%eax
  405661:	ff d0                	call   *%eax
  405663:	83 f8 00             	cmp    $0x0,%eax
  405666:	0f 85 3c 63 00 00    	jne    0x40b9a8
  40566c:	82 2d 82 30 42 00 dc 	subb   $0xdc,0x423082
  405673:	12 05 41 31 42 00    	adc    0x423141,%al
  405679:	8d 0d d0 16 a7 98    	lea    0x98a716d0,%ecx
  40567f:	81 e9 21 e3 64 98    	sub    $0x9864e321,%ecx
  405685:	51                   	push   %ecx
  405686:	8d 3d c0 16 a7 98    	lea    0x98a716c0,%edi
  40568c:	81 ef 21 e3 64 98    	sub    $0x9864e321,%edi
  405692:	57                   	push   %edi
  405693:	a1 10 f1 41 00       	mov    0x41f110,%eax
  405698:	ff d0                	call   *%eax
  40569a:	13 35 0e 31 42 00    	adc    0x42310e,%esi
  4056a0:	ba 01 00 00 00       	mov    $0x1,%edx
  4056a5:	13 15 1d 31 42 00    	adc    0x42311d,%edx
  4056ab:	8d 1d d0 16 a7 98    	lea    0x98a716d0,%ebx
  4056b1:	81 eb 21 e3 64 98    	sub    $0x9864e321,%ebx
  4056b7:	53                   	push   %ebx
  4056b8:	8d 3d c0 16 a7 98    	lea    0x98a716c0,%edi
  4056be:	81 ef 21 e3 64 98    	sub    $0x9864e321,%edi
  4056c4:	57                   	push   %edi
  4056c5:	a1 10 f1 41 00       	mov    0x41f110,%eax
  4056ca:	ff d0                	call   *%eax
  4056cc:	21 35 11 31 42 00    	and    %esi,0x423111
  4056d2:	01 1d bb 31 42 00    	add    %ebx,0x4231bb
  4056d8:	13 3d fa 30 42 00    	adc    0x4230fa,%edi
  4056de:	8d 15 d0 16 a7 98    	lea    0x98a716d0,%edx
  4056e4:	81 ea 21 e3 64 98    	sub    $0x9864e321,%edx
  4056ea:	52                   	push   %edx
  4056eb:	8d 35 c0 16 a7 98    	lea    0x98a716c0,%esi
  4056f1:	81 ee 21 e3 64 98    	sub    $0x9864e321,%esi
  4056f7:	56                   	push   %esi
  4056f8:	a1 10 f1 41 00       	mov    0x41f110,%eax
  4056fd:	ff d0                	call   *%eax
  4056ff:	81 0d de 31 42 00 c2 	orl    $0xc2,0x4231de
  405706:	00 00 00 
  405709:	81 15 7c 31 42 00 b0 	adcl   $0xb0,0x42317c
  405710:	00 00 00 
  405713:	83 f3 d2             	xor    $0xffffffd2,%ebx
  405716:	12 05 27 30 42 00    	adc    0x423027,%al
  40571c:	13 05 bb 30 42 00    	adc    0x4230bb,%eax
  405722:	8d 35 d0 16 a7 98    	lea    0x98a716d0,%esi
  405728:	81 ee 21 e3 64 98    	sub    $0x9864e321,%esi
  40572e:	56                   	push   %esi
  40572f:	8d 3d c0 16 a7 98    	lea    0x98a716c0,%edi
  405735:	81 ef 21 e3 64 98    	sub    $0x9864e321,%edi
  40573b:	57                   	push   %edi
  40573c:	a1 10 f1 41 00       	mov    0x41f110,%eax
  405741:	ff d0                	call   *%eax
  405743:	b2 01                	mov    $0x1,%dl
  405745:	82 c2 51             	add    $0x51,%dl
  405748:	13 1d 63 30 42 00    	adc    0x423063,%ebx
  40574e:	81 1d 88 31 42 00 cf 	sbbl   $0xcf,0x423188
  405755:	00 00 00 
  405758:	8d 1d d0 16 a7 98    	lea    0x98a716d0,%ebx
  40575e:	81 eb 21 e3 64 98    	sub    $0x9864e321,%ebx
  405764:	53                   	push   %ebx
  405765:	8d 15 c0 16 a7 98    	lea    0x98a716c0,%edx
  40576b:	81 ea 21 e3 64 98    	sub    $0x9864e321,%edx
  405771:	52                   	push   %edx
  405772:	a1 10 f1 41 00       	mov    0x41f110,%eax
  405777:	ff d0                	call   *%eax
  405779:	19 05 28 31 42 00    	sbb    %eax,0x423128
  40577f:	8d 1d b3 16 a7 98    	lea    0x98a716b3,%ebx
  405785:	81 eb 21 e3 64 98    	sub    $0x9864e321,%ebx
  40578b:	53                   	push   %ebx
  40578c:	6a 01                	push   $0x1
  40578e:	ff 0c 24             	decl   (%esp)
  405791:	68 01 00 10 00       	push   $0x100001
  405796:	ff 0c 24             	decl   (%esp)
  405799:	a1 e8 f0 41 00       	mov    0x41f0e8,%eax
  40579e:	ff d0                	call   *%eax
  4057a0:	85 c0                	test   %eax,%eax
  4057a2:	0f 85 00 62 00 00    	jne    0x40b9a8
  4057a8:	8d 05 b3 16 a7 98    	lea    0x98a716b3,%eax
  4057ae:	2d 21 e3 64 98       	sub    $0x9864e321,%eax
  4057b3:	50                   	push   %eax
  4057b4:	6a 01                	push   $0x1
  4057b6:	ff 0c 24             	decl   (%esp)
  4057b9:	68 01 00 10 00       	push   $0x100001
  4057be:	ff 0c 24             	decl   (%esp)
  4057c1:	a1 e8 f0 41 00       	mov    0x41f0e8,%eax
  4057c6:	ff d0                	call   *%eax
  4057c8:	85 c0                	test   %eax,%eax
  4057ca:	0f 85 d8 61 00 00    	jne    0x40b9a8
  4057d0:	2b 35 cb 31 42 00    	sub    0x4231cb,%esi
  4057d6:	30 1d a5 30 42 00    	xor    %bl,0x4230a5
  4057dc:	2e e9 f0 5c 00 00    	cs jmp 0x40b4d2
  4057e2:	81 15 38 30 42 00 81 	adcl   $0x81,0x423038
  4057e9:	00 00 00 
  4057ec:	b5 01                	mov    $0x1,%ch
  4057ee:	82 c5 a1             	add    $0xa1,%ch
  4057f1:	83 15 5f 30 42 00 0a 	adcl   $0xa,0x42305f
  4057f8:	29 c1                	sub    %eax,%ecx
	...
  405802:	00 00                	add    %al,(%eax)
  405804:	8d 3d b3 16 a7 98    	lea    0x98a716b3,%edi
  40580a:	81 ef 21 e3 64 98    	sub    $0x9864e321,%edi
  405810:	57                   	push   %edi
  405811:	6a 01                	push   $0x1
  405813:	ff 0c 24             	decl   (%esp)
  405816:	68 01 00 10 00       	push   $0x100001
  40581b:	ff 0c 24             	decl   (%esp)
  40581e:	a1 e8 f0 41 00       	mov    0x41f0e8,%eax
  405823:	ff d0                	call   *%eax
  405825:	85 c0                	test   %eax,%eax
  405827:	0f 85 7b 61 00 00    	jne    0x40b9a8
  40582d:	b9 01 00 00 00       	mov    $0x1,%ecx
  405832:	83 c1 e7             	add    $0xffffffe7,%ecx
  405835:	09 05 11 32 42 00    	or     %eax,0x423211
  40583b:	83 c1 9f             	add    $0xffffff9f,%ecx
  40583e:	8d 35 b3 16 a7 98    	lea    0x98a716b3,%esi
  405844:	81 ee 21 e3 64 98    	sub    $0x9864e321,%esi
  40584a:	56                   	push   %esi
  40584b:	6a 01                	push   $0x1
  40584d:	ff 0c 24             	decl   (%esp)
  405850:	68 01 00 10 00       	push   $0x100001
  405855:	ff 0c 24             	decl   (%esp)
  405858:	a1 e8 f0 41 00       	mov    0x41f0e8,%eax
  40585d:	ff d0                	call   *%eax
  40585f:	83 f8 00             	cmp    $0x0,%eax
  405862:	0f 85 40 61 00 00    	jne    0x40b9a8
  405868:	83 d8 db             	sbb    $0xffffffdb,%eax
  40586b:	ba 01 00 00 00       	mov    $0x1,%edx
  405870:	83 c2 1a             	add    $0x1a,%edx
  405873:	b9 01 00 00 00       	mov    $0x1,%ecx
  405878:	83 c1 d5             	add    $0xffffffd5,%ecx
  40587b:	81 25 16 32 42 00 bf 	andl   $0xbf,0x423216
  405882:	00 00 00 
  405885:	11 cb                	adc    %ecx,%ebx
  405887:	8d 0d d0 16 a7 98    	lea    0x98a716d0,%ecx
  40588d:	81 e9 21 e3 64 98    	sub    $0x9864e321,%ecx
  405893:	51                   	push   %ecx
  405894:	8d 35 c0 16 a7 98    	lea    0x98a716c0,%esi
  40589a:	81 ee 21 e3 64 98    	sub    $0x9864e321,%esi
  4058a0:	56                   	push   %esi
  4058a1:	a1 10 f1 41 00       	mov    0x41f110,%eax
  4058a6:	ff d0                	call   *%eax
  4058a8:	8d 35 d0 16 a7 98    	lea    0x98a716d0,%esi
  4058ae:	81 ee 21 e3 64 98    	sub    $0x9864e321,%esi
  4058b4:	56                   	push   %esi
  4058b5:	8d 3d c0 16 a7 98    	lea    0x98a716c0,%edi
  4058bb:	81 ef 21 e3 64 98    	sub    $0x9864e321,%edi
  4058c1:	57                   	push   %edi
  4058c2:	a1 10 f1 41 00       	mov    0x41f110,%eax
  4058c7:	ff d0                	call   *%eax
  4058c9:	8d 15 d0 16 a7 98    	lea    0x98a716d0,%edx
  4058cf:	81 ea 21 e3 64 98    	sub    $0x9864e321,%edx
  4058d5:	52                   	push   %edx
  4058d6:	8d 15 c0 16 a7 98    	lea    0x98a716c0,%edx
  4058dc:	81 ea 21 e3 64 98    	sub    $0x9864e321,%edx
  4058e2:	52                   	push   %edx
  4058e3:	a1 10 f1 41 00       	mov    0x41f110,%eax
  4058e8:	ff d0                	call   *%eax
  4058ea:	c7 05 7f 30 42 00 f0 	movl   $0xf0,0x42307f
  4058f1:	00 00 00 
  4058f4:	83 f6 fb             	xor    $0xfffffffb,%esi
  4058f7:	13 3d 7f 30 42 00    	adc    0x42307f,%edi
  4058fd:	29 db                	sub    %ebx,%ebx
  4058ff:	82 2d bd 30 42 00 37 	subb   $0x37,0x4230bd
  405906:	8d 35 b3 16 a7 98    	lea    0x98a716b3,%esi
  40590c:	81 ee 21 e3 64 98    	sub    $0x9864e321,%esi
  405912:	56                   	push   %esi
  405913:	6a 01                	push   $0x1
  405915:	ff 0c 24             	decl   (%esp)
  405918:	68 01 00 10 00       	push   $0x100001
  40591d:	ff 0c 24             	decl   (%esp)
  405920:	a1 e8 f0 41 00       	mov    0x41f0e8,%eax
  405925:	ff d0                	call   *%eax
  405927:	85 c0                	test   %eax,%eax
  405929:	0f 85 79 60 00 00    	jne    0x40b9a8
  40592f:	19 3d 7b 30 42 00    	sbb    %edi,0x42307b
  405935:	8d 1d d0 16 a7 98    	lea    0x98a716d0,%ebx
  40593b:	81 eb 21 e3 64 98    	sub    $0x9864e321,%ebx
  405941:	53                   	push   %ebx
  405942:	8d 1d c0 16 a7 98    	lea    0x98a716c0,%ebx
  405948:	81 eb 21 e3 64 98    	sub    $0x9864e321,%ebx
  40594e:	53                   	push   %ebx
  40594f:	a1 10 f1 41 00       	mov    0x41f110,%eax
  405954:	ff d0                	call   *%eax
  405956:	2b 35 25 31 42 00    	sub    0x423125,%esi
  40595c:	8d 1d d0 16 a7 98    	lea    0x98a716d0,%ebx
  405962:	81 eb 21 e3 64 98    	sub    $0x9864e321,%ebx
  405968:	53                   	push   %ebx
  405969:	8d 3d c0 16 a7 98    	lea    0x98a716c0,%edi
  40596f:	81 ef 21 e3 64 98    	sub    $0x9864e321,%edi
  405975:	57                   	push   %edi
  405976:	a1 10 f1 41 00       	mov    0x41f110,%eax
  40597b:	ff d0                	call   *%eax
  40597d:	8d 0d d0 16 a7 98    	lea    0x98a716d0,%ecx
  405983:	81 e9 21 e3 64 98    	sub    $0x9864e321,%ecx
  405989:	51                   	push   %ecx
  40598a:	8d 15 c0 16 a7 98    	lea    0x98a716c0,%edx
  405990:	81 ea 21 e3 64 98    	sub    $0x9864e321,%edx
  405996:	52                   	push   %edx
  405997:	a1 10 f1 41 00       	mov    0x41f110,%eax
  40599c:	ff d0                	call   *%eax
  40599e:	83 1d 73 31 42 00 3a 	sbbl   $0x3a,0x423173
  4059a5:	19 c7                	sbb    %eax,%edi
  4059a7:	0b 05 08 32 42 00    	or     0x423208,%eax
  4059ad:	83 c7 c2             	add    $0xffffffc2,%edi
  4059b0:	13 35 83 30 42 00    	adc    0x423083,%esi
  4059b6:	8d 05 b3 16 a7 98    	lea    0x98a716b3,%eax
  4059bc:	2d 21 e3 64 98       	sub    $0x9864e321,%eax
  4059c1:	50                   	push   %eax
  4059c2:	6a 01                	push   $0x1
  4059c4:	ff 0c 24             	decl   (%esp)
  4059c7:	68 01 00 10 00       	push   $0x100001
  4059cc:	ff 0c 24             	decl   (%esp)
  4059cf:	a1 e8 f0 41 00       	mov    0x41f0e8,%eax
  4059d4:	ff d0                	call   *%eax
  4059d6:	85 c0                	test   %eax,%eax
  4059d8:	0f 85 ca 5f 00 00    	jne    0x40b9a8
  4059de:	8d 35 b3 16 a7 98    	lea    0x98a716b3,%esi
  4059e4:	81 ee 21 e3 64 98    	sub    $0x9864e321,%esi
  4059ea:	56                   	push   %esi
  4059eb:	6a 01                	push   $0x1
  4059ed:	ff 0c 24             	decl   (%esp)
  4059f0:	68 01 00 10 00       	push   $0x100001
  4059f5:	ff 0c 24             	decl   (%esp)
  4059f8:	a1 e8 f0 41 00       	mov    0x41f0e8,%eax
  4059fd:	ff d0                	call   *%eax
  4059ff:	85 c0                	test   %eax,%eax
  405a01:	0f 85 a1 5f 00 00    	jne    0x40b9a8
  405a07:	13 3d 0c 32 42 00    	adc    0x42320c,%edi
  405a0d:	8d 1d d0 16 a7 98    	lea    0x98a716d0,%ebx
  405a13:	81 eb 21 e3 64 98    	sub    $0x9864e321,%ebx
  405a19:	53                   	push   %ebx
  405a1a:	8d 15 c0 16 a7 98    	lea    0x98a716c0,%edx
  405a20:	81 ea 21 e3 64 98    	sub    $0x9864e321,%edx
  405a26:	52                   	push   %edx
  405a27:	a1 10 f1 41 00       	mov    0x41f110,%eax
  405a2c:	ff d0                	call   *%eax
  405a2e:	2e e9 9e 5a 00 00    	cs jmp 0x40b4d2
  405a34:	b9 01 00 00 00       	mov    $0x1,%ecx
  405a39:	13 0d df 30 42 00    	adc    0x4230df,%ecx
	...
  405a4b:	81 1d 66 31 42 00 b5 	sbbl   $0xb5,0x423166
  405a52:	00 00 00 
  405a55:	b9 01 00 00 00       	mov    $0x1,%ecx
  405a5a:	01 f9                	add    %edi,%ecx
  405a5c:	13 3d 9e 30 42 00    	adc    0x42309e,%edi
  405a62:	21 35 cb 30 42 00    	and    %esi,0x4230cb
  405a68:	8d 1d d0 16 a7 98    	lea    0x98a716d0,%ebx
  405a6e:	81 eb 21 e3 64 98    	sub    $0x9864e321,%ebx
  405a74:	53                   	push   %ebx
  405a75:	8d 1d c0 16 a7 98    	lea    0x98a716c0,%ebx
  405a7b:	81 eb 21 e3 64 98    	sub    $0x9864e321,%ebx
  405a81:	53                   	push   %ebx
  405a82:	a1 10 f1 41 00       	mov    0x41f110,%eax
  405a87:	ff d0                	call   *%eax
  405a89:	83 15 cc 31 42 00 14 	adcl   $0x14,0x4231cc
  405a90:	01 db                	add    %ebx,%ebx
  405a92:	8d 05 b3 16 a7 98    	lea    0x98a716b3,%eax
  405a98:	2d 21 e3 64 98       	sub    $0x9864e321,%eax
  405a9d:	50                   	push   %eax
  405a9e:	6a 01                	push   $0x1
  405aa0:	ff 0c 24             	decl   (%esp)
  405aa3:	68 01 00 10 00       	push   $0x100001
  405aa8:	ff 0c 24             	decl   (%esp)
  405aab:	a1 e8 f0 41 00       	mov    0x41f0e8,%eax
  405ab0:	ff d0                	call   *%eax
  405ab2:	85 c0                	test   %eax,%eax
  405ab4:	0f 85 ee 5e 00 00    	jne    0x40b9a8
  405aba:	19 3d a3 31 42 00    	sbb    %edi,0x4231a3
  405ac0:	01 3d ec 30 42 00    	add    %edi,0x4230ec
  405ac6:	8d 0d b3 16 a7 98    	lea    0x98a716b3,%ecx
  405acc:	81 e9 21 e3 64 98    	sub    $0x9864e321,%ecx
  405ad2:	51                   	push   %ecx
  405ad3:	6a 01                	push   $0x1
  405ad5:	ff 0c 24             	decl   (%esp)
  405ad8:	68 01 00 10 00       	push   $0x100001
  405add:	ff 0c 24             	decl   (%esp)
  405ae0:	a1 e8 f0 41 00       	mov    0x41f0e8,%eax
  405ae5:	ff d0                	call   *%eax
  405ae7:	83 f8 00             	cmp    $0x0,%eax
  405aea:	0f 85 b8 5e 00 00    	jne    0x40b9a8
  405af0:	b9 01 00 00 00       	mov    $0x1,%ecx
  405af5:	83 c1 1c             	add    $0x1c,%ecx
  405af8:	28 d8                	sub    %bl,%al
  405afa:	82 2d 16 32 42 00 c5 	subb   $0xc5,0x423216
  405b01:	18 0d c5 31 42 00    	sbb    %cl,0x4231c5
  405b07:	8d 15 d0 16 a7 98    	lea    0x98a716d0,%edx
  405b0d:	81 ea 21 e3 64 98    	sub    $0x9864e321,%edx
  405b13:	52                   	push   %edx
  405b14:	8d 1d c0 16 a7 98    	lea    0x98a716c0,%ebx
  405b1a:	81 eb 21 e3 64 98    	sub    $0x9864e321,%ebx
  405b20:	53                   	push   %ebx
  405b21:	a1 10 f1 41 00       	mov    0x41f110,%eax
  405b26:	ff d0                	call   *%eax
  405b28:	81 15 36 30 42 00 ad 	adcl   $0xad,0x423036
  405b2f:	00 00 00 
  405b32:	8d 0d b3 16 a7 98    	lea    0x98a716b3,%ecx
  405b38:	81 e9 21 e3 64 98    	sub    $0x9864e321,%ecx
  405b3e:	51                   	push   %ecx
  405b3f:	6a 01                	push   $0x1
  405b41:	ff 0c 24             	decl   (%esp)
  405b44:	68 01 00 10 00       	push   $0x100001
  405b49:	ff 0c 24             	decl   (%esp)
  405b4c:	a1 e8 f0 41 00       	mov    0x41f0e8,%eax
  405b51:	ff d0                	call   *%eax
  405b53:	85 c0                	test   %eax,%eax
  405b55:	0f 85 4d 5e 00 00    	jne    0x40b9a8
  405b5b:	01 f6                	add    %esi,%esi
  405b5d:	8d 05 d0 16 a7 98    	lea    0x98a716d0,%eax
  405b63:	2d 21 e3 64 98       	sub    $0x9864e321,%eax
  405b68:	50                   	push   %eax
  405b69:	8d 0d c0 16 a7 98    	lea    0x98a716c0,%ecx
  405b6f:	81 e9 21 e3 64 98    	sub    $0x9864e321,%ecx
  405b75:	51                   	push   %ecx
  405b76:	a1 10 f1 41 00       	mov    0x41f110,%eax
  405b7b:	ff d0                	call   *%eax
  405b7d:	83 35 bb 30 42 00 52 	xorl   $0x52,0x4230bb
  405b84:	82 e7 9a             	and    $0x9a,%bh
  405b87:	2c a2                	sub    $0xa2,%al
  405b89:	8d 1d d0 16 a7 98    	lea    0x98a716d0,%ebx
  405b8f:	81 eb 21 e3 64 98    	sub    $0x9864e321,%ebx
  405b95:	53                   	push   %ebx
  405b96:	8d 15 c0 16 a7 98    	lea    0x98a716c0,%edx
  405b9c:	81 ea 21 e3 64 98    	sub    $0x9864e321,%edx
  405ba2:	52                   	push   %edx
  405ba3:	a1 10 f1 41 00       	mov    0x41f110,%eax
  405ba8:	ff d0                	call   *%eax
  405baa:	83 c0 f5             	add    $0xfffffff5,%eax
  405bad:	31 d8                	xor    %ebx,%eax
  405baf:	ba 01 00 00 00       	mov    $0x1,%edx
  405bb4:	01 f2                	add    %esi,%edx
  405bb6:	81 15 d3 30 42 00 c8 	adcl   $0xc8,0x4230d3
  405bbd:	00 00 00 
  405bc0:	31 c0                	xor    %eax,%eax
  405bc2:	8d 3d d0 16 a7 98    	lea    0x98a716d0,%edi
  405bc8:	81 ef 21 e3 64 98    	sub    $0x9864e321,%edi
  405bce:	57                   	push   %edi
  405bcf:	8d 05 c0 16 a7 98    	lea    0x98a716c0,%eax
  405bd5:	2d 21 e3 64 98       	sub    $0x9864e321,%eax
  405bda:	50                   	push   %eax
  405bdb:	a1 10 f1 41 00       	mov    0x41f110,%eax
  405be0:	ff d0                	call   *%eax
  405be2:	29 05 68 31 42 00    	sub    %eax,0x423168
  405be8:	83 e7 57             	and    $0x57,%edi
  405beb:	2b 05 47 31 42 00    	sub    0x423147,%eax
  405bf1:	8d 0d d0 16 a7 98    	lea    0x98a716d0,%ecx
  405bf7:	81 e9 21 e3 64 98    	sub    $0x9864e321,%ecx
  405bfd:	51                   	push   %ecx
  405bfe:	8d 3d c0 16 a7 98    	lea    0x98a716c0,%edi
  405c04:	81 ef 21 e3 64 98    	sub    $0x9864e321,%edi
  405c0a:	57                   	push   %edi
  405c0b:	a1 10 f1 41 00       	mov    0x41f110,%eax
  405c10:	ff d0                	call   *%eax
  405c12:	28 05 1f 32 42 00    	sub    %al,0x42321f
  405c18:	b9 01 00 00 00       	mov    $0x1,%ecx
  405c1d:	01 c1                	add    %eax,%ecx
  405c1f:	01 ce                	add    %ecx,%esi
  405c21:	01 d8                	add    %ebx,%eax
  405c23:	8d 1d d0 16 a7 98    	lea    0x98a716d0,%ebx
  405c29:	81 eb 21 e3 64 98    	sub    $0x9864e321,%ebx
  405c2f:	53                   	push   %ebx
  405c30:	8d 15 c0 16 a7 98    	lea    0x98a716c0,%edx
  405c36:	81 ea 21 e3 64 98    	sub    $0x9864e321,%edx
  405c3c:	52                   	push   %edx
  405c3d:	a1 10 f1 41 00       	mov    0x41f110,%eax
  405c42:	ff d0                	call   *%eax
  405c44:	31 c7                	xor    %eax,%edi
  405c46:	8d 15 b3 16 a7 98    	lea    0x98a716b3,%edx
  405c4c:	81 ea 21 e3 64 98    	sub    $0x9864e321,%edx
  405c52:	52                   	push   %edx
  405c53:	6a 01                	push   $0x1
  405c55:	ff 0c 24             	decl   (%esp)
  405c58:	68 01 00 10 00       	push   $0x100001
  405c5d:	ff 0c 24             	decl   (%esp)
  405c60:	a1 e8 f0 41 00       	mov    0x41f0e8,%eax
  405c65:	ff d0                	call   *%eax
  405c67:	85 c0                	test   %eax,%eax
  405c69:	0f 85 39 5d 00 00    	jne    0x40b9a8
  405c6f:	31 1d ed 31 42 00    	xor    %ebx,0x4231ed
  405c75:	2e e9 57 58 00 00    	cs jmp 0x40b4d2
  405c7b:	00 01                	add    %al,(%ecx)
  405c7d:	3d 2f 30 42 00       	cmp    $0x42302f,%eax
  405c82:	13 3d 62 30 42 00    	adc    0x423062,%edi
  405c88:	01 1d 8f 30 42 00    	add    %ebx,0x42308f
  405c8e:	2b 1d 44 31 42 00    	sub    0x423144,%ebx
  405c94:	8d 05 d0 16 a7 98    	lea    0x98a716d0,%eax
  405c9a:	2d 21 e3 64 98       	sub    $0x9864e321,%eax
  405c9f:	50                   	push   %eax
  405ca0:	8d 3d c0 16 a7 98    	lea    0x98a716c0,%edi
  405ca6:	81 ef 21 e3 64 98    	sub    $0x9864e321,%edi
  405cac:	57                   	push   %edi
  405cad:	a1 10 f1 41 00       	mov    0x41f110,%eax
  405cb2:	ff d0                	call   *%eax
  405cb4:	ba 01 00 00 00       	mov    $0x1,%edx
  405cb9:	83 c2 d4             	add    $0xffffffd4,%edx
  405cbc:	8d 15 b3 16 a7 98    	lea    0x98a716b3,%edx
  405cc2:	81 ea 21 e3 64 98    	sub    $0x9864e321,%edx
  405cc8:	52                   	push   %edx
  405cc9:	6a 01                	push   $0x1
  405ccb:	ff 0c 24             	decl   (%esp)
  405cce:	68 01 00 10 00       	push   $0x100001
  405cd3:	ff 0c 24             	decl   (%esp)
  405cd6:	a1 e8 f0 41 00       	mov    0x41f0e8,%eax
  405cdb:	ff d0                	call   *%eax
  405cdd:	85 c0                	test   %eax,%eax
  405cdf:	0f 85 c3 5c 00 00    	jne    0x40b9a8
  405ce5:	19 05 cc 31 42 00    	sbb    %eax,0x4231cc
  405ceb:	01 3d 1b 31 42 00    	add    %edi,0x42311b
  405cf1:	29 05 a8 31 42 00    	sub    %eax,0x4231a8
  405cf7:	82 df fd             	sbb    $0xfd,%bh
  405cfa:	8d 1d d0 16 a7 98    	lea    0x98a716d0,%ebx
  405d00:	81 eb 21 e3 64 98    	sub    $0x9864e321,%ebx
  405d06:	53                   	push   %ebx
  405d07:	8d 05 c0 16 a7 98    	lea    0x98a716c0,%eax
  405d0d:	2d 21 e3 64 98       	sub    $0x9864e321,%eax
  405d12:	50                   	push   %eax
  405d13:	a1 10 f1 41 00       	mov    0x41f110,%eax
  405d18:	ff d0                	call   *%eax
  405d1a:	01 d8                	add    %ebx,%eax
  405d1c:	01 35 d1 30 42 00    	add    %esi,0x4230d1
  405d22:	8d 0d d0 16 a7 98    	lea    0x98a716d0,%ecx
  405d28:	81 e9 21 e3 64 98    	sub    $0x9864e321,%ecx
  405d2e:	51                   	push   %ecx
  405d2f:	8d 0d c0 16 a7 98    	lea    0x98a716c0,%ecx
  405d35:	81 e9 21 e3 64 98    	sub    $0x9864e321,%ecx
  405d3b:	51                   	push   %ecx
  405d3c:	a1 10 f1 41 00       	mov    0x41f110,%eax
  405d41:	ff d0                	call   *%eax
  405d43:	8d 1d b3 16 a7 98    	lea    0x98a716b3,%ebx
  405d49:	81 eb 21 e3 64 98    	sub    $0x9864e321,%ebx
  405d4f:	53                   	push   %ebx
  405d50:	6a 01                	push   $0x1
  405d52:	ff 0c 24             	decl   (%esp)
  405d55:	68 01 00 10 00       	push   $0x100001
  405d5a:	ff 0c 24             	decl   (%esp)
  405d5d:	a1 e8 f0 41 00       	mov    0x41f0e8,%eax
  405d62:	ff d0                	call   *%eax
  405d64:	83 f8 00             	cmp    $0x0,%eax
  405d67:	0f 85 3b 5c 00 00    	jne    0x40b9a8
  405d6d:	01 de                	add    %ebx,%esi
  405d6f:	12 1d d3 31 42 00    	adc    0x4231d3,%bl
  405d75:	11 df                	adc    %ebx,%edi
  405d77:	8d 1d d0 16 a7 98    	lea    0x98a716d0,%ebx
  405d7d:	81 eb 21 e3 64 98    	sub    $0x9864e321,%ebx
  405d83:	53                   	push   %ebx
  405d84:	8d 05 c0 16 a7 98    	lea    0x98a716c0,%eax
  405d8a:	2d 21 e3 64 98       	sub    $0x9864e321,%eax
  405d8f:	50                   	push   %eax
  405d90:	a1 10 f1 41 00       	mov    0x41f110,%eax
  405d95:	ff d0                	call   *%eax
  405d97:	00 1d cb 31 42 00    	add    %bl,0x4231cb
  405d9d:	83 e7 e7             	and    $0xffffffe7,%edi
  405da0:	8d 15 d0 16 a7 98    	lea    0x98a716d0,%edx
  405da6:	81 ea 21 e3 64 98    	sub    $0x9864e321,%edx
  405dac:	52                   	push   %edx
  405dad:	8d 0d c0 16 a7 98    	lea    0x98a716c0,%ecx
  405db3:	81 e9 21 e3 64 98    	sub    $0x9864e321,%ecx
  405db9:	51                   	push   %ecx
  405dba:	a1 10 f1 41 00       	mov    0x41f110,%eax
  405dbf:	ff d0                	call   *%eax
  405dc1:	8d 15 d0 16 a7 98    	lea    0x98a716d0,%edx
  405dc7:	81 ea 21 e3 64 98    	sub    $0x9864e321,%edx
  405dcd:	52                   	push   %edx
  405dce:	8d 3d c0 16 a7 98    	lea    0x98a716c0,%edi
  405dd4:	81 ef 21 e3 64 98    	sub    $0x9864e321,%edi
  405dda:	57                   	push   %edi
  405ddb:	a1 10 f1 41 00       	mov    0x41f110,%eax
  405de0:	ff d0                	call   *%eax
  405de2:	31 d8                	xor    %ebx,%eax
  405de4:	01 db                	add    %ebx,%ebx
  405de6:	c7 05 13 32 42 00 36 	movl   $0x36,0x423213
  405ded:	00 00 00 
  405df0:	8d 35 d0 16 a7 98    	lea    0x98a716d0,%esi
  405df6:	81 ee 21 e3 64 98    	sub    $0x9864e321,%esi
  405dfc:	56                   	push   %esi
  405dfd:	8d 15 c0 16 a7 98    	lea    0x98a716c0,%edx
  405e03:	81 ea 21 e3 64 98    	sub    $0x9864e321,%edx
  405e09:	52                   	push   %edx
  405e0a:	a1 10 f1 41 00       	mov    0x41f110,%eax
  405e0f:	ff d0                	call   *%eax
  405e11:	01 db                	add    %ebx,%ebx
  405e13:	8d 1d b3 16 a7 98    	lea    0x98a716b3,%ebx
  405e19:	81 eb 21 e3 64 98    	sub    $0x9864e321,%ebx
  405e1f:	53                   	push   %ebx
  405e20:	6a 01                	push   $0x1
  405e22:	ff 0c 24             	decl   (%esp)
  405e25:	68 01 00 10 00       	push   $0x100001
  405e2a:	ff 0c 24             	decl   (%esp)
  405e2d:	a1 e8 f0 41 00       	mov    0x41f0e8,%eax
  405e32:	ff d0                	call   *%eax
  405e34:	85 c0                	test   %eax,%eax
  405e36:	0f 85 6c 5b 00 00    	jne    0x40b9a8
  405e3c:	2e e9 90 56 00 00    	cs jmp 0x40b4d2
  405e42:	0b 3d 16 31 42 00    	or     0x423116,%edi
  405e48:	83 d8 1e             	sbb    $0x1e,%eax
	...
  405e5b:	8d 1d d0 16 a7 98    	lea    0x98a716d0,%ebx
  405e61:	81 eb 21 e3 64 98    	sub    $0x9864e321,%ebx
  405e67:	53                   	push   %ebx
  405e68:	8d 15 c0 16 a7 98    	lea    0x98a716c0,%edx
  405e6e:	81 ea 21 e3 64 98    	sub    $0x9864e321,%edx
  405e74:	52                   	push   %edx
  405e75:	a1 10 f1 41 00       	mov    0x41f110,%eax
  405e7a:	ff d0                	call   *%eax
  405e7c:	83 c3 04             	add    $0x4,%ebx
  405e7f:	83 c6 79             	add    $0x79,%esi
  405e82:	8d 35 b3 16 a7 98    	lea    0x98a716b3,%esi
  405e88:	81 ee 21 e3 64 98    	sub    $0x9864e321,%esi
  405e8e:	56                   	push   %esi
  405e8f:	6a 01                	push   $0x1
  405e91:	ff 0c 24             	decl   (%esp)
  405e94:	68 01 00 10 00       	push   $0x100001
  405e99:	ff 0c 24             	decl   (%esp)
  405e9c:	a1 e8 f0 41 00       	mov    0x41f0e8,%eax
  405ea1:	ff d0                	call   *%eax
  405ea3:	83 f8 00             	cmp    $0x0,%eax
  405ea6:	0f 85 fc 5a 00 00    	jne    0x40b9a8
  405eac:	13 35 b4 30 42 00    	adc    0x4230b4,%esi
  405eb2:	0a 05 45 30 42 00    	or     0x423045,%al
  405eb8:	c7 05 66 31 42 00 ff 	movl   $0xff,0x423166
  405ebf:	00 00 00 
  405ec2:	8d 0d d0 16 a7 98    	lea    0x98a716d0,%ecx
  405ec8:	81 e9 21 e3 64 98    	sub    $0x9864e321,%ecx
  405ece:	51                   	push   %ecx
  405ecf:	8d 0d c0 16 a7 98    	lea    0x98a716c0,%ecx
  405ed5:	81 e9 21 e3 64 98    	sub    $0x9864e321,%ecx
  405edb:	51                   	push   %ecx
  405edc:	a1 10 f1 41 00       	mov    0x41f110,%eax
  405ee1:	ff d0                	call   *%eax
  405ee3:	b1 01                	mov    $0x1,%cl
  405ee5:	00 d9                	add    %bl,%cl
  405ee7:	12 0d 27 31 42 00    	adc    0x423127,%cl
  405eed:	13 0d 6a 30 42 00    	adc    0x42306a,%ecx
  405ef3:	83 25 aa 30 42 00 72 	andl   $0x72,0x4230aa
  405efa:	8d 05 b3 16 a7 98    	lea    0x98a716b3,%eax
  405f00:	2d 21 e3 64 98       	sub    $0x9864e321,%eax
  405f05:	50                   	push   %eax
  405f06:	6a 01                	push   $0x1
  405f08:	ff 0c 24             	decl   (%esp)
  405f0b:	68 01 00 10 00       	push   $0x100001
  405f10:	ff 0c 24             	decl   (%esp)
  405f13:	a1 e8 f0 41 00       	mov    0x41f0e8,%eax
  405f18:	ff d0                	call   *%eax
  405f1a:	85 c0                	test   %eax,%eax
  405f1c:	0f 85 86 5a 00 00    	jne    0x40b9a8
  405f22:	ba 01 00 00 00       	mov    $0x1,%edx
  405f27:	01 c2                	add    %eax,%edx
  405f29:	81 15 72 31 42 00 af 	adcl   $0xaf,0x423172
  405f30:	00 00 00 
  405f33:	21 15 61 31 42 00    	and    %edx,0x423161
  405f39:	81 35 ee 30 42 00 c5 	xorl   $0xc5,0x4230ee
  405f40:	00 00 00 
  405f43:	83 eb a7             	sub    $0xffffffa7,%ebx
  405f46:	8d 15 d0 16 a7 98    	lea    0x98a716d0,%edx
  405f4c:	81 ea 21 e3 64 98    	sub    $0x9864e321,%edx
  405f52:	52                   	push   %edx
  405f53:	8d 35 c0 16 a7 98    	lea    0x98a716c0,%esi
  405f59:	81 ee 21 e3 64 98    	sub    $0x9864e321,%esi
  405f5f:	56                   	push   %esi
  405f60:	a1 10 f1 41 00       	mov    0x41f110,%eax
  405f65:	ff d0                	call   *%eax
  405f67:	81 25 cf 30 42 00 ba 	andl   $0xba,0x4230cf
  405f6e:	00 00 00 
  405f71:	8d 35 b3 16 a7 98    	lea    0x98a716b3,%esi
  405f77:	81 ee 21 e3 64 98    	sub    $0x9864e321,%esi
  405f7d:	56                   	push   %esi
  405f7e:	6a 01                	push   $0x1
  405f80:	ff 0c 24             	decl   (%esp)
  405f83:	68 01 00 10 00       	push   $0x100001
  405f88:	ff 0c 24             	decl   (%esp)
  405f8b:	a1 e8 f0 41 00       	mov    0x41f0e8,%eax
  405f90:	ff d0                	call   *%eax
  405f92:	85 c0                	test   %eax,%eax
  405f94:	0f 85 0e 5a 00 00    	jne    0x40b9a8
  405f9a:	83 d0 c8             	adc    $0xffffffc8,%eax
  405f9d:	09 05 43 30 42 00    	or     %eax,0x423043
  405fa3:	ba 01 00 00 00       	mov    $0x1,%edx
  405fa8:	01 da                	add    %ebx,%edx
  405faa:	31 35 49 30 42 00    	xor    %esi,0x423049
  405fb0:	11 05 3c 31 42 00    	adc    %eax,0x42313c
  405fb6:	8d 1d b3 16 a7 98    	lea    0x98a716b3,%ebx
  405fbc:	81 eb 21 e3 64 98    	sub    $0x9864e321,%ebx
  405fc2:	53                   	push   %ebx
  405fc3:	6a 01                	push   $0x1
  405fc5:	ff 0c 24             	decl   (%esp)
  405fc8:	68 01 00 10 00       	push   $0x100001
  405fcd:	ff 0c 24             	decl   (%esp)
  405fd0:	a1 e8 f0 41 00       	mov    0x41f0e8,%eax
  405fd5:	ff d0                	call   *%eax
  405fd7:	85 c0                	test   %eax,%eax
  405fd9:	0f 85 c9 59 00 00    	jne    0x40b9a8
  405fdf:	0b 3d 2a 31 42 00    	or     0x42312a,%edi
  405fe5:	8d 3d d0 16 a7 98    	lea    0x98a716d0,%edi
  405feb:	81 ef 21 e3 64 98    	sub    $0x9864e321,%edi
  405ff1:	57                   	push   %edi
  405ff2:	8d 35 c0 16 a7 98    	lea    0x98a716c0,%esi
  405ff8:	81 ee 21 e3 64 98    	sub    $0x9864e321,%esi
  405ffe:	56                   	push   %esi
  405fff:	a1 10 f1 41 00       	mov    0x41f110,%eax
  406004:	ff d0                	call   *%eax
  406006:	ba 01 00 00 00       	mov    $0x1,%edx
  40600b:	13 15 c2 30 42 00    	adc    0x4230c2,%edx
  406011:	01 3d 3a 30 42 00    	add    %edi,0x42303a
  406017:	83 ee 0f             	sub    $0xf,%esi
  40601a:	13 35 3f 31 42 00    	adc    0x42313f,%esi
  406020:	19 3d 39 30 42 00    	sbb    %edi,0x423039
  406026:	8d 3d d0 16 a7 98    	lea    0x98a716d0,%edi
  40602c:	81 ef 21 e3 64 98    	sub    $0x9864e321,%edi
  406032:	57                   	push   %edi
  406033:	8d 05 c0 16 a7 98    	lea    0x98a716c0,%eax
  406039:	2d 21 e3 64 98       	sub    $0x9864e321,%eax
  40603e:	50                   	push   %eax
  40603f:	a1 10 f1 41 00       	mov    0x41f110,%eax
  406044:	ff d0                	call   *%eax
  406046:	13 05 70 31 42 00    	adc    0x423170,%eax
  40604c:	b5 01                	mov    $0x1,%ch
  40604e:	82 c5 ea             	add    $0xea,%ch
  406051:	19 f3                	sbb    %esi,%ebx
  406053:	ba 01 00 00 00       	mov    $0x1,%edx
  406058:	13 15 5f 31 42 00    	adc    0x42315f,%edx
  40605e:	8d 35 b3 16 a7 98    	lea    0x98a716b3,%esi
  406064:	81 ee 21 e3 64 98    	sub    $0x9864e321,%esi
  40606a:	56                   	push   %esi
  40606b:	6a 01                	push   $0x1
  40606d:	ff 0c 24             	decl   (%esp)
  406070:	68 01 00 10 00       	push   $0x100001
  406075:	ff 0c 24             	decl   (%esp)
  406078:	a1 e8 f0 41 00       	mov    0x41f0e8,%eax
  40607d:	ff d0                	call   *%eax
  40607f:	85 c0                	test   %eax,%eax
  406081:	0f 85 21 59 00 00    	jne    0x40b9a8
  406087:	8d 0d d0 16 a7 98    	lea    0x98a716d0,%ecx
  40608d:	81 e9 21 e3 64 98    	sub    $0x9864e321,%ecx
  406093:	51                   	push   %ecx
  406094:	8d 3d c0 16 a7 98    	lea    0x98a716c0,%edi
  40609a:	81 ef 21 e3 64 98    	sub    $0x9864e321,%edi
  4060a0:	57                   	push   %edi
  4060a1:	a1 10 f1 41 00       	mov    0x41f110,%eax
  4060a6:	ff d0                	call   *%eax
  4060a8:	b9 01 00 00 00       	mov    $0x1,%ecx
  4060ad:	01 d9                	add    %ebx,%ecx
  4060af:	8d 3d d0 16 a7 98    	lea    0x98a716d0,%edi
  4060b5:	81 ef 21 e3 64 98    	sub    $0x9864e321,%edi
  4060bb:	57                   	push   %edi
  4060bc:	8d 1d c0 16 a7 98    	lea    0x98a716c0,%ebx
  4060c2:	81 eb 21 e3 64 98    	sub    $0x9864e321,%ebx
  4060c8:	53                   	push   %ebx
  4060c9:	a1 10 f1 41 00       	mov    0x41f110,%eax
  4060ce:	ff d0                	call   *%eax
  4060d0:	01 3d a8 31 42 00    	add    %edi,0x4231a8
  4060d6:	0b 1d 07 32 42 00    	or     0x423207,%ebx
  4060dc:	29 35 a4 30 42 00    	sub    %esi,0x4230a4
  4060e2:	83 15 39 30 42 00 3d 	adcl   $0x3d,0x423039
  4060e9:	83 c7 c8             	add    $0xffffffc8,%edi
  4060ec:	2e e9 e0 53 00 00    	cs jmp 0x40b4d2
  4060f2:	83 25 c9 30 42 00 76 	andl   $0x76,0x4230c9
  4060f9:	10 1d 2a 30 42 00    	adc    %bl,0x42302a
  4060ff:	11 f7                	adc    %esi,%edi
  406101:	00 00                	add    %al,(%eax)
  406103:	00 00                	add    %al,(%eax)
  406105:	00 00                	add    %al,(%eax)
  406107:	00 12                	add    %dl,(%edx)
  406109:	05 a5 31 42 00       	add    $0x4231a5,%eax
  40610e:	b9 01 00 00 00       	mov    $0x1,%ecx
  406113:	13 0d ab 31 42 00    	adc    0x4231ab,%ecx
  406119:	81 25 a8 31 42 00 fb 	andl   $0xfb,0x4231a8
  406120:	00 00 00 
  406123:	ba 01 00 00 00       	mov    $0x1,%edx
  406128:	83 c2 e4             	add    $0xffffffe4,%edx
  40612b:	8d 1d b3 16 a7 98    	lea    0x98a716b3,%ebx
  406131:	81 eb 21 e3 64 98    	sub    $0x9864e321,%ebx
  406137:	53                   	push   %ebx
  406138:	6a 01                	push   $0x1
  40613a:	ff 0c 24             	decl   (%esp)
  40613d:	68 01 00 10 00       	push   $0x100001
  406142:	ff 0c 24             	decl   (%esp)
  406145:	a1 e8 f0 41 00       	mov    0x41f0e8,%eax
  40614a:	ff d0                	call   *%eax
  40614c:	83 f8 00             	cmp    $0x0,%eax
  40614f:	0f 85 53 58 00 00    	jne    0x40b9a8
  406155:	ba 01 00 00 00       	mov    $0x1,%edx
  40615a:	13 15 5d 31 42 00    	adc    0x42315d,%edx
  406160:	01 05 18 32 42 00    	add    %eax,0x423218
  406166:	81 0d d7 31 42 00 fd 	orl    $0xfd,0x4231d7
  40616d:	00 00 00 
  406170:	c7 05 39 30 42 00 2f 	movl   $0x2f,0x423039
  406177:	00 00 00 
  40617a:	8d 3d b3 16 a7 98    	lea    0x98a716b3,%edi
  406180:	81 ef 21 e3 64 98    	sub    $0x9864e321,%edi
  406186:	57                   	push   %edi
  406187:	6a 01                	push   $0x1
  406189:	ff 0c 24             	decl   (%esp)
