
sample18:     file format pei-i386


Disassembly of section .text:

00401000 <.text>:
  401000:	31 d2                	xor    %edx,%edx
  401002:	55                   	push   %ebp
  401003:	89 e5                	mov    %esp,%ebp
  401005:	6a 00                	push   $0x0
  401007:	8d 65 d4             	lea    -0x2c(%ebp),%esp
  40100a:	8d 0d 21 01 00 00    	lea    0x121,%ecx
  401010:	66 81 fd 00 fe       	cmp    $0xfe00,%bp
  401015:	0f 82 e5 ae 00 00    	jb     0x40bf00
  40101b:	be 01 00 00 00       	mov    $0x1,%esi
  401020:	13 35 45 40 42 00    	adc    0x424045,%esi
  401026:	b3 01                	mov    $0x1,%bl
  401028:	00 c3                	add    %al,%bl
  40102a:	83 25 5f 41 42 00 24 	andl   $0x24,0x42415f
  401031:	13 35 f7 41 42 00    	adc    0x4241f7,%esi
  401037:	8d 3d c0 25 a7 98    	lea    0x98a725c0,%edi
  40103d:	81 ef 21 e3 64 98    	sub    $0x9864e321,%edi
  401043:	57                   	push   %edi
  401044:	8d 15 b1 25 a7 98    	lea    0x98a725b1,%edx
  40104a:	81 ea 21 e3 64 98    	sub    $0x9864e321,%edx
  401050:	52                   	push   %edx
  401051:	a1 84 00 42 00       	mov    0x420084,%eax
  401056:	ff d0                	call   *%eax
  401058:	19 1d 32 40 42 00    	sbb    %ebx,0x424032
  40105e:	6a 0f                	push   $0xf
  401060:	ff 0c 24             	decl   (%esp)
  401063:	8d 0d a3 25 a7 98    	lea    0x98a725a3,%ecx
  401069:	81 e9 21 e3 64 98    	sub    $0x9864e321,%ecx
  40106f:	51                   	push   %ecx
  401070:	8d 15 91 25 a7 98    	lea    0x98a72591,%edx
  401076:	81 ea 21 e3 64 98    	sub    $0x9864e321,%edx
  40107c:	52                   	push   %edx
  40107d:	a1 78 00 42 00       	mov    0x420078,%eax
  401082:	ff d0                	call   *%eax
  401084:	85 c0                	test   %eax,%eax
  401086:	0f 85 74 ae 00 00    	jne    0x40bf00
  40108c:	6a 0f                	push   $0xf
  40108e:	ff 0c 24             	decl   (%esp)
  401091:	8d 15 a3 25 a7 98    	lea    0x98a725a3,%edx
  401097:	81 ea 21 e3 64 98    	sub    $0x9864e321,%edx
  40109d:	52                   	push   %edx
  40109e:	8d 15 91 25 a7 98    	lea    0x98a72591,%edx
  4010a4:	81 ea 21 e3 64 98    	sub    $0x9864e321,%edx
  4010aa:	52                   	push   %edx
  4010ab:	a1 78 00 42 00       	mov    0x420078,%eax
  4010b0:	ff d0                	call   *%eax
  4010b2:	85 c0                	test   %eax,%eax
  4010b4:	0f 85 46 ae 00 00    	jne    0x40bf00
  4010ba:	b0 01                	mov    $0x1,%al
  4010bc:	00 d8                	add    %bl,%al
  4010be:	83 de 94             	sbb    $0xffffff94,%esi
  4010c1:	29 d8                	sub    %ebx,%eax
  4010c3:	8d 3d c0 25 a7 98    	lea    0x98a725c0,%edi
  4010c9:	81 ef 21 e3 64 98    	sub    $0x9864e321,%edi
  4010cf:	57                   	push   %edi
  4010d0:	8d 15 b1 25 a7 98    	lea    0x98a725b1,%edx
  4010d6:	81 ea 21 e3 64 98    	sub    $0x9864e321,%edx
  4010dc:	52                   	push   %edx
  4010dd:	a1 84 00 42 00       	mov    0x420084,%eax
  4010e2:	ff d0                	call   *%eax
  4010e4:	01 1d b8 41 42 00    	add    %ebx,0x4241b8
  4010ea:	8d 0d c0 25 a7 98    	lea    0x98a725c0,%ecx
  4010f0:	81 e9 21 e3 64 98    	sub    $0x9864e321,%ecx
  4010f6:	51                   	push   %ecx
  4010f7:	8d 05 b1 25 a7 98    	lea    0x98a725b1,%eax
  4010fd:	2d 21 e3 64 98       	sub    $0x9864e321,%eax
  401102:	50                   	push   %eax
  401103:	a1 84 00 42 00       	mov    0x420084,%eax
  401108:	ff d0                	call   *%eax
  40110a:	11 05 58 40 42 00    	adc    %eax,0x424058
  401110:	6a 0f                	push   $0xf
  401112:	ff 0c 24             	decl   (%esp)
  401115:	8d 3d a3 25 a7 98    	lea    0x98a725a3,%edi
  40111b:	81 ef 21 e3 64 98    	sub    $0x9864e321,%edi
  401121:	57                   	push   %edi
  401122:	8d 1d 91 25 a7 98    	lea    0x98a72591,%ebx
  401128:	81 eb 21 e3 64 98    	sub    $0x9864e321,%ebx
  40112e:	53                   	push   %ebx
  40112f:	a1 78 00 42 00       	mov    0x420078,%eax
  401134:	ff d0                	call   *%eax
  401136:	83 f8 00             	cmp    $0x0,%eax
  401139:	0f 85 c1 ad 00 00    	jne    0x40bf00
  40113f:	19 05 4f 41 42 00    	sbb    %eax,0x42414f
  401145:	31 1d 0b 40 42 00    	xor    %ebx,0x42400b
  40114b:	11 c6                	adc    %eax,%esi
  40114d:	6a 0f                	push   $0xf
  40114f:	ff 0c 24             	decl   (%esp)
  401152:	8d 05 a3 25 a7 98    	lea    0x98a725a3,%eax
  401158:	2d 21 e3 64 98       	sub    $0x9864e321,%eax
  40115d:	50                   	push   %eax
  40115e:	8d 1d 91 25 a7 98    	lea    0x98a72591,%ebx
  401164:	81 eb 21 e3 64 98    	sub    $0x9864e321,%ebx
  40116a:	53                   	push   %ebx
  40116b:	a1 78 00 42 00       	mov    0x420078,%eax
  401170:	ff d0                	call   *%eax
  401172:	85 c0                	test   %eax,%eax
  401174:	0f 85 86 ad 00 00    	jne    0x40bf00
  40117a:	81 1d 05 41 42 00 c0 	sbbl   $0xc0,0x424105
  401181:	00 00 00 
  401184:	6a 0f                	push   $0xf
  401186:	ff 0c 24             	decl   (%esp)
  401189:	8d 0d a3 25 a7 98    	lea    0x98a725a3,%ecx
  40118f:	81 e9 21 e3 64 98    	sub    $0x9864e321,%ecx
  401195:	51                   	push   %ecx
  401196:	8d 05 91 25 a7 98    	lea    0x98a72591,%eax
  40119c:	2d 21 e3 64 98       	sub    $0x9864e321,%eax
  4011a1:	50                   	push   %eax
  4011a2:	a1 78 00 42 00       	mov    0x420078,%eax
  4011a7:	ff d0                	call   *%eax
  4011a9:	83 f8 00             	cmp    $0x0,%eax
  4011ac:	0f 85 4e ad 00 00    	jne    0x40bf00
  4011b2:	2a 05 58 40 42 00    	sub    0x424058,%al
  4011b8:	8d 0d c0 25 a7 98    	lea    0x98a725c0,%ecx
  4011be:	81 e9 21 e3 64 98    	sub    $0x9864e321,%ecx
  4011c4:	51                   	push   %ecx
  4011c5:	8d 3d b1 25 a7 98    	lea    0x98a725b1,%edi
  4011cb:	81 ef 21 e3 64 98    	sub    $0x9864e321,%edi
  4011d1:	57                   	push   %edi
  4011d2:	a1 84 00 42 00       	mov    0x420084,%eax
  4011d7:	ff d0                	call   *%eax
  4011d9:	09 05 2d 41 42 00    	or     %eax,0x42412d
  4011df:	83 15 23 40 42 00 3b 	adcl   $0x3b,0x424023
  4011e6:	83 15 93 40 42 00 4d 	adcl   $0x4d,0x424093
  4011ed:	01 1d 10 41 42 00    	add    %ebx,0x424110
  4011f3:	8d 3d c0 25 a7 98    	lea    0x98a725c0,%edi
  4011f9:	81 ef 21 e3 64 98    	sub    $0x9864e321,%edi
  4011ff:	57                   	push   %edi
  401200:	8d 1d b1 25 a7 98    	lea    0x98a725b1,%ebx
  401206:	81 eb 21 e3 64 98    	sub    $0x9864e321,%ebx
  40120c:	53                   	push   %ebx
  40120d:	a1 84 00 42 00       	mov    0x420084,%eax
  401212:	ff d0                	call   *%eax
  401214:	bf 01 00 00 00       	mov    $0x1,%edi
  401219:	13 3d 71 41 42 00    	adc    0x424171,%edi
  40121f:	6a 0f                	push   $0xf
  401221:	ff 0c 24             	decl   (%esp)
  401224:	8d 0d a3 25 a7 98    	lea    0x98a725a3,%ecx
  40122a:	81 e9 21 e3 64 98    	sub    $0x9864e321,%ecx
  401230:	51                   	push   %ecx
  401231:	8d 15 91 25 a7 98    	lea    0x98a72591,%edx
  401237:	81 ea 21 e3 64 98    	sub    $0x9864e321,%edx
  40123d:	52                   	push   %edx
  40123e:	a1 78 00 42 00       	mov    0x420078,%eax
  401243:	ff d0                	call   *%eax
  401245:	83 f8 00             	cmp    $0x0,%eax
  401248:	0f 85 b2 ac 00 00    	jne    0x40bf00
  40124e:	2e e9 e8 a7 00 00    	cs jmp 0x40ba3c
  401254:	83 cb d8             	or     $0xffffffd8,%ebx
  401257:	ba 01 00 00 00       	mov    $0x1,%edx
  40125c:	83 c2 93             	add    $0xffffff93,%edx
  40125f:	01 d0                	add    %edx,%eax
  401261:	01 15 09 40 42 00    	add    %edx,0x424009
  401267:	01 c6                	add    %eax,%esi
	...
  401271:	00 00                	add    %al,(%eax)
  401273:	83 d0 25             	adc    $0x25,%eax
  401276:	c7 05 e1 41 42 00 c3 	movl   $0xc3,0x4241e1
  40127d:	00 00 00 
  401280:	82 2d 4d 41 42 00 ce 	subb   $0xce,0x42414d
  401287:	82 f7 30             	xor    $0x30,%bh
  40128a:	0b 05 2c 40 42 00    	or     0x42402c,%eax
  401290:	6a 0f                	push   $0xf
  401292:	ff 0c 24             	decl   (%esp)
  401295:	8d 3d a3 25 a7 98    	lea    0x98a725a3,%edi
  40129b:	81 ef 21 e3 64 98    	sub    $0x9864e321,%edi
  4012a1:	57                   	push   %edi
  4012a2:	8d 35 91 25 a7 98    	lea    0x98a72591,%esi
  4012a8:	81 ee 21 e3 64 98    	sub    $0x9864e321,%esi
  4012ae:	56                   	push   %esi
  4012af:	a1 78 00 42 00       	mov    0x420078,%eax
  4012b4:	ff d0                	call   *%eax
  4012b6:	83 f8 00             	cmp    $0x0,%eax
  4012b9:	0f 85 41 ac 00 00    	jne    0x40bf00
  4012bf:	83 0d 48 40 42 00 4c 	orl    $0x4c,0x424048
  4012c6:	29 1d aa 40 42 00    	sub    %ebx,0x4240aa
  4012cc:	6a 0f                	push   $0xf
  4012ce:	ff 0c 24             	decl   (%esp)
  4012d1:	8d 0d a3 25 a7 98    	lea    0x98a725a3,%ecx
  4012d7:	81 e9 21 e3 64 98    	sub    $0x9864e321,%ecx
  4012dd:	51                   	push   %ecx
  4012de:	8d 05 91 25 a7 98    	lea    0x98a72591,%eax
  4012e4:	2d 21 e3 64 98       	sub    $0x9864e321,%eax
  4012e9:	50                   	push   %eax
  4012ea:	a1 78 00 42 00       	mov    0x420078,%eax
  4012ef:	ff d0                	call   *%eax
  4012f1:	83 f8 00             	cmp    $0x0,%eax
  4012f4:	0f 85 06 ac 00 00    	jne    0x40bf00
  4012fa:	83 eb 77             	sub    $0x77,%ebx
  4012fd:	ba 01 00 00 00       	mov    $0x1,%edx
  401302:	13 15 e1 40 42 00    	adc    0x4240e1,%edx
  401308:	18 f7                	sbb    %dh,%bh
  40130a:	29 ff                	sub    %edi,%edi
  40130c:	6a 0f                	push   $0xf
  40130e:	ff 0c 24             	decl   (%esp)
  401311:	8d 35 a3 25 a7 98    	lea    0x98a725a3,%esi
  401317:	81 ee 21 e3 64 98    	sub    $0x9864e321,%esi
  40131d:	56                   	push   %esi
  40131e:	8d 05 91 25 a7 98    	lea    0x98a72591,%eax
  401324:	2d 21 e3 64 98       	sub    $0x9864e321,%eax
  401329:	50                   	push   %eax
  40132a:	a1 78 00 42 00       	mov    0x420078,%eax
  40132f:	ff d0                	call   *%eax
  401331:	85 c0                	test   %eax,%eax
  401333:	0f 85 c7 ab 00 00    	jne    0x40bf00
  401339:	8d 0d c0 25 a7 98    	lea    0x98a725c0,%ecx
  40133f:	81 e9 21 e3 64 98    	sub    $0x9864e321,%ecx
  401345:	51                   	push   %ecx
  401346:	8d 05 b1 25 a7 98    	lea    0x98a725b1,%eax
  40134c:	2d 21 e3 64 98       	sub    $0x9864e321,%eax
  401351:	50                   	push   %eax
  401352:	a1 84 00 42 00       	mov    0x420084,%eax
  401357:	ff d0                	call   *%eax
  401359:	19 c7                	sbb    %eax,%edi
  40135b:	83 c3 1b             	add    $0x1b,%ebx
  40135e:	83 15 1b 41 42 00 17 	adcl   $0x17,0x42411b
  401365:	13 1d fd 40 42 00    	adc    0x4240fd,%ebx
  40136b:	13 3d 20 40 42 00    	adc    0x424020,%edi
  401371:	6a 0f                	push   $0xf
  401373:	ff 0c 24             	decl   (%esp)
  401376:	8d 15 a3 25 a7 98    	lea    0x98a725a3,%edx
  40137c:	81 ea 21 e3 64 98    	sub    $0x9864e321,%edx
  401382:	52                   	push   %edx
  401383:	8d 15 91 25 a7 98    	lea    0x98a72591,%edx
  401389:	81 ea 21 e3 64 98    	sub    $0x9864e321,%edx
  40138f:	52                   	push   %edx
  401390:	a1 78 00 42 00       	mov    0x420078,%eax
  401395:	ff d0                	call   *%eax
  401397:	85 c0                	test   %eax,%eax
  401399:	0f 85 61 ab 00 00    	jne    0x40bf00
  40139f:	81 25 01 41 42 00 a5 	andl   $0xa5,0x424101
  4013a6:	00 00 00 
  4013a9:	81 15 db 41 42 00 a9 	adcl   $0xa9,0x4241db
  4013b0:	00 00 00 
  4013b3:	83 ef 1b             	sub    $0x1b,%edi
  4013b6:	6a 0f                	push   $0xf
  4013b8:	ff 0c 24             	decl   (%esp)
  4013bb:	8d 0d a3 25 a7 98    	lea    0x98a725a3,%ecx
  4013c1:	81 e9 21 e3 64 98    	sub    $0x9864e321,%ecx
  4013c7:	51                   	push   %ecx
  4013c8:	8d 15 91 25 a7 98    	lea    0x98a72591,%edx
  4013ce:	81 ea 21 e3 64 98    	sub    $0x9864e321,%edx
  4013d4:	52                   	push   %edx
  4013d5:	a1 78 00 42 00       	mov    0x420078,%eax
  4013da:	ff d0                	call   *%eax
  4013dc:	83 f8 00             	cmp    $0x0,%eax
  4013df:	0f 85 1b ab 00 00    	jne    0x40bf00
  4013e5:	6a 0f                	push   $0xf
  4013e7:	ff 0c 24             	decl   (%esp)
  4013ea:	8d 3d a3 25 a7 98    	lea    0x98a725a3,%edi
  4013f0:	81 ef 21 e3 64 98    	sub    $0x9864e321,%edi
  4013f6:	57                   	push   %edi
  4013f7:	8d 35 91 25 a7 98    	lea    0x98a72591,%esi
  4013fd:	81 ee 21 e3 64 98    	sub    $0x9864e321,%esi
  401403:	56                   	push   %esi
  401404:	a1 78 00 42 00       	mov    0x420078,%eax
  401409:	ff d0                	call   *%eax
  40140b:	85 c0                	test   %eax,%eax
  40140d:	0f 85 ed aa 00 00    	jne    0x40bf00
  401413:	81 15 2b 40 42 00 de 	adcl   $0xde,0x42402b
  40141a:	00 00 00 
  40141d:	8d 15 c0 25 a7 98    	lea    0x98a725c0,%edx
  401423:	81 ea 21 e3 64 98    	sub    $0x9864e321,%edx
  401429:	52                   	push   %edx
  40142a:	8d 15 b1 25 a7 98    	lea    0x98a725b1,%edx
  401430:	81 ea 21 e3 64 98    	sub    $0x9864e321,%edx
  401436:	52                   	push   %edx
  401437:	a1 84 00 42 00       	mov    0x420084,%eax
  40143c:	ff d0                	call   *%eax
  40143e:	b9 01 00 00 00       	mov    $0x1,%ecx
  401443:	01 c1                	add    %eax,%ecx
  401445:	81 25 a7 41 42 00 cc 	andl   $0xcc,0x4241a7
  40144c:	00 00 00 
  40144f:	29 0d ff 40 42 00    	sub    %ecx,0x4240ff
  401455:	31 0d 35 41 42 00    	xor    %ecx,0x424135
  40145b:	82 2d 9b 40 42 00 d9 	subb   $0xd9,0x42409b
  401462:	8d 35 c0 25 a7 98    	lea    0x98a725c0,%esi
  401468:	81 ee 21 e3 64 98    	sub    $0x9864e321,%esi
  40146e:	56                   	push   %esi
  40146f:	8d 1d b1 25 a7 98    	lea    0x98a725b1,%ebx
  401475:	81 eb 21 e3 64 98    	sub    $0x9864e321,%ebx
  40147b:	53                   	push   %ebx
  40147c:	a1 84 00 42 00       	mov    0x420084,%eax
  401481:	ff d0                	call   *%eax
  401483:	82 2d f4 41 42 00 31 	subb   $0x31,0x4241f4
  40148a:	2b 1d 88 41 42 00    	sub    0x424188,%ebx
  401490:	b9 01 00 00 00       	mov    $0x1,%ecx
  401495:	83 c1 2b             	add    $0x2b,%ecx
  401498:	12 1d fe 41 42 00    	adc    0x4241fe,%bl
  40149e:	8d 05 c0 25 a7 98    	lea    0x98a725c0,%eax
  4014a4:	2d 21 e3 64 98       	sub    $0x9864e321,%eax
  4014a9:	50                   	push   %eax
  4014aa:	8d 1d b1 25 a7 98    	lea    0x98a725b1,%ebx
  4014b0:	81 eb 21 e3 64 98    	sub    $0x9864e321,%ebx
  4014b6:	53                   	push   %ebx
  4014b7:	a1 84 00 42 00       	mov    0x420084,%eax
  4014bc:	ff d0                	call   *%eax
  4014be:	13 1d 03 41 42 00    	adc    0x424103,%ebx
  4014c4:	31 f7                	xor    %esi,%edi
  4014c6:	13 05 ee 41 42 00    	adc    0x4241ee,%eax
  4014cc:	6a 0f                	push   $0xf
  4014ce:	ff 0c 24             	decl   (%esp)
  4014d1:	8d 1d a3 25 a7 98    	lea    0x98a725a3,%ebx
  4014d7:	81 eb 21 e3 64 98    	sub    $0x9864e321,%ebx
  4014dd:	53                   	push   %ebx
  4014de:	8d 35 91 25 a7 98    	lea    0x98a72591,%esi
  4014e4:	81 ee 21 e3 64 98    	sub    $0x9864e321,%esi
  4014ea:	56                   	push   %esi
  4014eb:	a1 78 00 42 00       	mov    0x420078,%eax
  4014f0:	ff d0                	call   *%eax
  4014f2:	85 c0                	test   %eax,%eax
  4014f4:	0f 85 06 aa 00 00    	jne    0x40bf00
  4014fa:	81 15 b5 41 42 00 ac 	adcl   $0xac,0x4241b5
  401501:	00 00 00 
  401504:	19 db                	sbb    %ebx,%ebx
  401506:	29 df                	sub    %ebx,%edi
  401508:	13 05 80 41 42 00    	adc    0x424180,%eax
  40150e:	2a 25 97 40 42 00    	sub    0x424097,%ah
  401514:	6a 0f                	push   $0xf
  401516:	ff 0c 24             	decl   (%esp)
  401519:	8d 35 a3 25 a7 98    	lea    0x98a725a3,%esi
  40151f:	81 ee 21 e3 64 98    	sub    $0x9864e321,%esi
  401525:	56                   	push   %esi
  401526:	8d 3d 91 25 a7 98    	lea    0x98a72591,%edi
  40152c:	81 ef 21 e3 64 98    	sub    $0x9864e321,%edi
  401532:	57                   	push   %edi
  401533:	a1 78 00 42 00       	mov    0x420078,%eax
  401538:	ff d0                	call   *%eax
  40153a:	85 c0                	test   %eax,%eax
  40153c:	0f 85 be a9 00 00    	jne    0x40bf00
  401542:	11 1d c7 41 42 00    	adc    %ebx,0x4241c7
  401548:	2e e9 ee a4 00 00    	cs jmp 0x40ba3c
  40154e:	83 c6 a4             	add    $0xffffffa4,%esi
	...
  40155d:	00 00                	add    %al,(%eax)
  40155f:	00 13                	add    %dl,(%ebx)
  401561:	3d f9 41 42 00       	cmp    $0x4241f9,%eax
  401566:	b9 01 00 00 00       	mov    $0x1,%ecx
  40156b:	83 c1 a2             	add    $0xffffffa2,%ecx
  40156e:	2b 1d e6 40 42 00    	sub    0x4240e6,%ebx
  401574:	ba 01 00 00 00       	mov    $0x1,%edx
  401579:	83 c2 8d             	add    $0xffffff8d,%edx
  40157c:	19 3d e2 40 42 00    	sbb    %edi,0x4240e2
  401582:	8d 35 c0 25 a7 98    	lea    0x98a725c0,%esi
  401588:	81 ee 21 e3 64 98    	sub    $0x9864e321,%esi
  40158e:	56                   	push   %esi
  40158f:	8d 1d b1 25 a7 98    	lea    0x98a725b1,%ebx
  401595:	81 eb 21 e3 64 98    	sub    $0x9864e321,%ebx
  40159b:	53                   	push   %ebx
  40159c:	a1 84 00 42 00       	mov    0x420084,%eax
  4015a1:	ff d0                	call   *%eax
  4015a3:	ba 01 00 00 00       	mov    $0x1,%edx
  4015a8:	13 15 b6 40 42 00    	adc    0x4240b6,%edx
  4015ae:	8d 15 c0 25 a7 98    	lea    0x98a725c0,%edx
  4015b4:	81 ea 21 e3 64 98    	sub    $0x9864e321,%edx
  4015ba:	52                   	push   %edx
  4015bb:	8d 05 b1 25 a7 98    	lea    0x98a725b1,%eax
  4015c1:	2d 21 e3 64 98       	sub    $0x9864e321,%eax
  4015c6:	50                   	push   %eax
  4015c7:	a1 84 00 42 00       	mov    0x420084,%eax
  4015cc:	ff d0                	call   *%eax
  4015ce:	01 f3                	add    %esi,%ebx
  4015d0:	6a 0f                	push   $0xf
  4015d2:	ff 0c 24             	decl   (%esp)
  4015d5:	8d 15 a3 25 a7 98    	lea    0x98a725a3,%edx
  4015db:	81 ea 21 e3 64 98    	sub    $0x9864e321,%edx
  4015e1:	52                   	push   %edx
  4015e2:	8d 0d 91 25 a7 98    	lea    0x98a72591,%ecx
  4015e8:	81 e9 21 e3 64 98    	sub    $0x9864e321,%ecx
  4015ee:	51                   	push   %ecx
  4015ef:	a1 78 00 42 00       	mov    0x420078,%eax
  4015f4:	ff d0                	call   *%eax
  4015f6:	85 c0                	test   %eax,%eax
  4015f8:	0f 85 02 a9 00 00    	jne    0x40bf00
  4015fe:	01 df                	add    %ebx,%edi
  401600:	8d 05 c0 25 a7 98    	lea    0x98a725c0,%eax
  401606:	2d 21 e3 64 98       	sub    $0x9864e321,%eax
  40160b:	50                   	push   %eax
  40160c:	8d 3d b1 25 a7 98    	lea    0x98a725b1,%edi
  401612:	81 ef 21 e3 64 98    	sub    $0x9864e321,%edi
  401618:	57                   	push   %edi
  401619:	a1 84 00 42 00       	mov    0x420084,%eax
  40161e:	ff d0                	call   *%eax
  401620:	01 c7                	add    %eax,%edi
  401622:	01 1d 27 41 42 00    	add    %ebx,0x424127
  401628:	8d 1d c0 25 a7 98    	lea    0x98a725c0,%ebx
  40162e:	81 eb 21 e3 64 98    	sub    $0x9864e321,%ebx
  401634:	53                   	push   %ebx
  401635:	8d 35 b1 25 a7 98    	lea    0x98a725b1,%esi
  40163b:	81 ee 21 e3 64 98    	sub    $0x9864e321,%esi
  401641:	56                   	push   %esi
  401642:	a1 84 00 42 00       	mov    0x420084,%eax
  401647:	ff d0                	call   *%eax
  401649:	6a 0f                	push   $0xf
  40164b:	ff 0c 24             	decl   (%esp)
  40164e:	8d 35 a3 25 a7 98    	lea    0x98a725a3,%esi
  401654:	81 ee 21 e3 64 98    	sub    $0x9864e321,%esi
  40165a:	56                   	push   %esi
  40165b:	8d 35 91 25 a7 98    	lea    0x98a72591,%esi
  401661:	81 ee 21 e3 64 98    	sub    $0x9864e321,%esi
  401667:	56                   	push   %esi
  401668:	a1 78 00 42 00       	mov    0x420078,%eax
  40166d:	ff d0                	call   *%eax
  40166f:	85 c0                	test   %eax,%eax
  401671:	0f 85 89 a8 00 00    	jne    0x40bf00
  401677:	81 35 ca 40 42 00 e5 	xorl   $0xe5,0x4240ca
  40167e:	00 00 00 
  401681:	19 f3                	sbb    %esi,%ebx
  401683:	6a 0f                	push   $0xf
  401685:	ff 0c 24             	decl   (%esp)
  401688:	8d 3d a3 25 a7 98    	lea    0x98a725a3,%edi
  40168e:	81 ef 21 e3 64 98    	sub    $0x9864e321,%edi
  401694:	57                   	push   %edi
  401695:	8d 05 91 25 a7 98    	lea    0x98a72591,%eax
  40169b:	2d 21 e3 64 98       	sub    $0x9864e321,%eax
  4016a0:	50                   	push   %eax
  4016a1:	a1 78 00 42 00       	mov    0x420078,%eax
  4016a6:	ff d0                	call   *%eax
  4016a8:	83 f8 00             	cmp    $0x0,%eax
  4016ab:	0f 85 4f a8 00 00    	jne    0x40bf00
  4016b1:	01 3d a9 40 42 00    	add    %edi,0x4240a9
  4016b7:	13 35 9e 41 42 00    	adc    0x42419e,%esi
  4016bd:	8d 0d c0 25 a7 98    	lea    0x98a725c0,%ecx
  4016c3:	81 e9 21 e3 64 98    	sub    $0x9864e321,%ecx
  4016c9:	51                   	push   %ecx
  4016ca:	8d 35 b1 25 a7 98    	lea    0x98a725b1,%esi
  4016d0:	81 ee 21 e3 64 98    	sub    $0x9864e321,%esi
  4016d6:	56                   	push   %esi
  4016d7:	a1 84 00 42 00       	mov    0x420084,%eax
  4016dc:	ff d0                	call   *%eax
  4016de:	83 f6 41             	xor    $0x41,%esi
  4016e1:	83 0d f4 40 42 00 57 	orl    $0x57,0x4240f4
  4016e8:	c7 05 1c 40 42 00 6a 	movl   $0x6a,0x42401c
  4016ef:	00 00 00 
  4016f2:	8d 0d c0 25 a7 98    	lea    0x98a725c0,%ecx
  4016f8:	81 e9 21 e3 64 98    	sub    $0x9864e321,%ecx
  4016fe:	51                   	push   %ecx
  4016ff:	8d 3d b1 25 a7 98    	lea    0x98a725b1,%edi
  401705:	81 ef 21 e3 64 98    	sub    $0x9864e321,%edi
  40170b:	57                   	push   %edi
  40170c:	a1 84 00 42 00       	mov    0x420084,%eax
  401711:	ff d0                	call   *%eax
  401713:	11 3d 57 40 42 00    	adc    %edi,0x424057
  401719:	31 fb                	xor    %edi,%ebx
  40171b:	b9 01 00 00 00       	mov    $0x1,%ecx
  401720:	01 c1                	add    %eax,%ecx
  401722:	6a 0f                	push   $0xf
  401724:	ff 0c 24             	decl   (%esp)
  401727:	8d 05 a3 25 a7 98    	lea    0x98a725a3,%eax
  40172d:	2d 21 e3 64 98       	sub    $0x9864e321,%eax
  401732:	50                   	push   %eax
  401733:	8d 05 91 25 a7 98    	lea    0x98a72591,%eax
  401739:	2d 21 e3 64 98       	sub    $0x9864e321,%eax
  40173e:	50                   	push   %eax
  40173f:	a1 78 00 42 00       	mov    0x420078,%eax
  401744:	ff d0                	call   *%eax
  401746:	85 c0                	test   %eax,%eax
  401748:	0f 85 b2 a7 00 00    	jne    0x40bf00
  40174e:	2e e9 e8 a2 00 00    	cs jmp 0x40ba3c
  401754:	83 d0 64             	adc    $0x64,%eax
  401757:	ba 01 00 00 00       	mov    $0x1,%edx
  40175c:	83 c2 78             	add    $0x78,%edx
	...
  40176f:	6a 0f                	push   $0xf
  401771:	ff 0c 24             	decl   (%esp)
  401774:	8d 0d a3 25 a7 98    	lea    0x98a725a3,%ecx
  40177a:	81 e9 21 e3 64 98    	sub    $0x9864e321,%ecx
  401780:	51                   	push   %ecx
  401781:	8d 1d 91 25 a7 98    	lea    0x98a72591,%ebx
  401787:	81 eb 21 e3 64 98    	sub    $0x9864e321,%ebx
  40178d:	53                   	push   %ebx
  40178e:	a1 78 00 42 00       	mov    0x420078,%eax
  401793:	ff d0                	call   *%eax
  401795:	85 c0                	test   %eax,%eax
  401797:	0f 85 63 a7 00 00    	jne    0x40bf00
  40179d:	01 3d 69 40 42 00    	add    %edi,0x424069
  4017a3:	0b 05 1a 41 42 00    	or     0x42411a,%eax
  4017a9:	c7 05 81 40 42 00 a0 	movl   $0xa0,0x424081
  4017b0:	00 00 00 
  4017b3:	6a 0f                	push   $0xf
  4017b5:	ff 0c 24             	decl   (%esp)
  4017b8:	8d 15 a3 25 a7 98    	lea    0x98a725a3,%edx
  4017be:	81 ea 21 e3 64 98    	sub    $0x9864e321,%edx
  4017c4:	52                   	push   %edx
  4017c5:	8d 3d 91 25 a7 98    	lea    0x98a72591,%edi
  4017cb:	81 ef 21 e3 64 98    	sub    $0x9864e321,%edi
  4017d1:	57                   	push   %edi
  4017d2:	a1 78 00 42 00       	mov    0x420078,%eax
  4017d7:	ff d0                	call   *%eax
  4017d9:	85 c0                	test   %eax,%eax
  4017db:	0f 85 1f a7 00 00    	jne    0x40bf00
  4017e1:	2a 1d f8 41 42 00    	sub    0x4241f8,%bl
  4017e7:	19 3d cd 41 42 00    	sbb    %edi,0x4241cd
  4017ed:	8d 35 c0 25 a7 98    	lea    0x98a725c0,%esi
  4017f3:	81 ee 21 e3 64 98    	sub    $0x9864e321,%esi
  4017f9:	56                   	push   %esi
  4017fa:	8d 0d b1 25 a7 98    	lea    0x98a725b1,%ecx
  401800:	81 e9 21 e3 64 98    	sub    $0x9864e321,%ecx
  401806:	51                   	push   %ecx
  401807:	a1 84 00 42 00       	mov    0x420084,%eax
  40180c:	ff d0                	call   *%eax
  40180e:	6a 0f                	push   $0xf
  401810:	ff 0c 24             	decl   (%esp)
  401813:	8d 35 a3 25 a7 98    	lea    0x98a725a3,%esi
  401819:	81 ee 21 e3 64 98    	sub    $0x9864e321,%esi
  40181f:	56                   	push   %esi
  401820:	8d 0d 91 25 a7 98    	lea    0x98a72591,%ecx
  401826:	81 e9 21 e3 64 98    	sub    $0x9864e321,%ecx
  40182c:	51                   	push   %ecx
  40182d:	a1 78 00 42 00       	mov    0x420078,%eax
  401832:	ff d0                	call   *%eax
  401834:	83 f8 00             	cmp    $0x0,%eax
  401837:	0f 85 c3 a6 00 00    	jne    0x40bf00
  40183d:	83 cf 85             	or     $0xffffff85,%edi
  401840:	01 3d ec 41 42 00    	add    %edi,0x4241ec
  401846:	82 c4 ec             	add    $0xec,%ah
  401849:	6a 0f                	push   $0xf
  40184b:	ff 0c 24             	decl   (%esp)
  40184e:	8d 3d a3 25 a7 98    	lea    0x98a725a3,%edi
  401854:	81 ef 21 e3 64 98    	sub    $0x9864e321,%edi
  40185a:	57                   	push   %edi
  40185b:	8d 05 91 25 a7 98    	lea    0x98a72591,%eax
  401861:	2d 21 e3 64 98       	sub    $0x9864e321,%eax
  401866:	50                   	push   %eax
  401867:	a1 78 00 42 00       	mov    0x420078,%eax
  40186c:	ff d0                	call   *%eax
  40186e:	85 c0                	test   %eax,%eax
  401870:	0f 85 8a a6 00 00    	jne    0x40bf00
  401876:	6a 0f                	push   $0xf
  401878:	ff 0c 24             	decl   (%esp)
  40187b:	8d 1d a3 25 a7 98    	lea    0x98a725a3,%ebx
  401881:	81 eb 21 e3 64 98    	sub    $0x9864e321,%ebx
  401887:	53                   	push   %ebx
  401888:	8d 15 91 25 a7 98    	lea    0x98a72591,%edx
  40188e:	81 ea 21 e3 64 98    	sub    $0x9864e321,%edx
  401894:	52                   	push   %edx
  401895:	a1 78 00 42 00       	mov    0x420078,%eax
  40189a:	ff d0                	call   *%eax
  40189c:	85 c0                	test   %eax,%eax
  40189e:	0f 85 5c a6 00 00    	jne    0x40bf00
  4018a4:	83 c7 dd             	add    $0xffffffdd,%edi
  4018a7:	31 c7                	xor    %eax,%edi
  4018a9:	83 d6 93             	adc    $0xffffff93,%esi
  4018ac:	00 1d fc 41 42 00    	add    %bl,0x4241fc
  4018b2:	29 d8                	sub    %ebx,%eax
  4018b4:	6a 0f                	push   $0xf
  4018b6:	ff 0c 24             	decl   (%esp)
  4018b9:	8d 1d a3 25 a7 98    	lea    0x98a725a3,%ebx
  4018bf:	81 eb 21 e3 64 98    	sub    $0x9864e321,%ebx
  4018c5:	53                   	push   %ebx
  4018c6:	8d 1d 91 25 a7 98    	lea    0x98a72591,%ebx
  4018cc:	81 eb 21 e3 64 98    	sub    $0x9864e321,%ebx
  4018d2:	53                   	push   %ebx
  4018d3:	a1 78 00 42 00       	mov    0x420078,%eax
  4018d8:	ff d0                	call   *%eax
  4018da:	83 f8 00             	cmp    $0x0,%eax
  4018dd:	0f 85 1d a6 00 00    	jne    0x40bf00
  4018e3:	29 c3                	sub    %eax,%ebx
  4018e5:	6a 0f                	push   $0xf
  4018e7:	ff 0c 24             	decl   (%esp)
  4018ea:	8d 3d a3 25 a7 98    	lea    0x98a725a3,%edi
  4018f0:	81 ef 21 e3 64 98    	sub    $0x9864e321,%edi
  4018f6:	57                   	push   %edi
  4018f7:	8d 0d 91 25 a7 98    	lea    0x98a72591,%ecx
  4018fd:	81 e9 21 e3 64 98    	sub    $0x9864e321,%ecx
  401903:	51                   	push   %ecx
  401904:	a1 78 00 42 00       	mov    0x420078,%eax
  401909:	ff d0                	call   *%eax
  40190b:	83 f8 00             	cmp    $0x0,%eax
  40190e:	0f 85 ec a5 00 00    	jne    0x40bf00
  401914:	01 fe                	add    %edi,%esi
  401916:	11 f3                	adc    %esi,%ebx
  401918:	29 fb                	sub    %edi,%ebx
  40191a:	8d 15 c0 25 a7 98    	lea    0x98a725c0,%edx
  401920:	81 ea 21 e3 64 98    	sub    $0x9864e321,%edx
  401926:	52                   	push   %edx
  401927:	8d 3d b1 25 a7 98    	lea    0x98a725b1,%edi
  40192d:	81 ef 21 e3 64 98    	sub    $0x9864e321,%edi
  401933:	57                   	push   %edi
  401934:	a1 84 00 42 00       	mov    0x420084,%eax
  401939:	ff d0                	call   *%eax
  40193b:	13 35 87 41 42 00    	adc    0x424187,%esi
  401941:	31 35 14 40 42 00    	xor    %esi,0x424014
  401947:	b9 01 00 00 00       	mov    $0x1,%ecx
  40194c:	13 0d cc 41 42 00    	adc    0x4241cc,%ecx
  401952:	83 0d 0e 41 42 00 60 	orl    $0x60,0x42410e
  401959:	13 0d 4c 41 42 00    	adc    0x42414c,%ecx
  40195f:	8d 1d c0 25 a7 98    	lea    0x98a725c0,%ebx
  401965:	81 eb 21 e3 64 98    	sub    $0x9864e321,%ebx
  40196b:	53                   	push   %ebx
  40196c:	8d 0d b1 25 a7 98    	lea    0x98a725b1,%ecx
  401972:	81 e9 21 e3 64 98    	sub    $0x9864e321,%ecx
  401978:	51                   	push   %ecx
  401979:	a1 84 00 42 00       	mov    0x420084,%eax
  40197e:	ff d0                	call   *%eax
  401980:	81 25 28 41 42 00 cd 	andl   $0xcd,0x424128
  401987:	00 00 00 
  40198a:	2b 05 c3 40 42 00    	sub    0x4240c3,%eax
  401990:	30 1d e1 40 42 00    	xor    %bl,0x4240e1
  401996:	c7 05 a6 40 42 00 6b 	movl   $0x6b,0x4240a6
  40199d:	00 00 00 
  4019a0:	6a 0f                	push   $0xf
  4019a2:	ff 0c 24             	decl   (%esp)
  4019a5:	8d 0d a3 25 a7 98    	lea    0x98a725a3,%ecx
  4019ab:	81 e9 21 e3 64 98    	sub    $0x9864e321,%ecx
  4019b1:	51                   	push   %ecx
  4019b2:	8d 05 91 25 a7 98    	lea    0x98a72591,%eax
  4019b8:	2d 21 e3 64 98       	sub    $0x9864e321,%eax
  4019bd:	50                   	push   %eax
  4019be:	a1 78 00 42 00       	mov    0x420078,%eax
  4019c3:	ff d0                	call   *%eax
  4019c5:	85 c0                	test   %eax,%eax
  4019c7:	0f 85 33 a5 00 00    	jne    0x40bf00
  4019cd:	31 3d ca 41 42 00    	xor    %edi,0x4241ca
  4019d3:	19 df                	sbb    %ebx,%edi
  4019d5:	09 3d ad 40 42 00    	or     %edi,0x4240ad
  4019db:	ba 01 00 00 00       	mov    $0x1,%edx
  4019e0:	01 c2                	add    %eax,%edx
  4019e2:	13 15 2b 41 42 00    	adc    0x42412b,%edx
  4019e8:	8d 0d c0 25 a7 98    	lea    0x98a725c0,%ecx
  4019ee:	81 e9 21 e3 64 98    	sub    $0x9864e321,%ecx
  4019f4:	51                   	push   %ecx
  4019f5:	8d 1d b1 25 a7 98    	lea    0x98a725b1,%ebx
  4019fb:	81 eb 21 e3 64 98    	sub    $0x9864e321,%ebx
  401a01:	53                   	push   %ebx
  401a02:	a1 84 00 42 00       	mov    0x420084,%eax
  401a07:	ff d0                	call   *%eax
  401a09:	c7 05 dd 41 42 00 4a 	movl   $0x4a,0x4241dd
  401a10:	00 00 00 
  401a13:	2e e9 23 a0 00 00    	cs jmp 0x40ba3c
  401a19:	81 15 20 40 42 00 84 	adcl   $0x84,0x424020
  401a20:	00 00 00 
  401a23:	83 35 87 41 42 00 71 	xorl   $0x71,0x424187
	...
  401a36:	b9 01 00 00 00       	mov    $0x1,%ecx
  401a3b:	01 f1                	add    %esi,%ecx
  401a3d:	12 1d 10 40 42 00    	adc    0x424010,%bl
  401a43:	83 d9 48             	sbb    $0x48,%ecx
  401a46:	10 2d bc 40 42 00    	adc    %ch,0x4240bc
  401a4c:	ba 01 00 00 00       	mov    $0x1,%edx
  401a51:	13 15 1b 41 42 00    	adc    0x42411b,%edx
  401a57:	8d 1d c0 25 a7 98    	lea    0x98a725c0,%ebx
  401a5d:	81 eb 21 e3 64 98    	sub    $0x9864e321,%ebx
  401a63:	53                   	push   %ebx
  401a64:	8d 1d b1 25 a7 98    	lea    0x98a725b1,%ebx
  401a6a:	81 eb 21 e3 64 98    	sub    $0x9864e321,%ebx
  401a70:	53                   	push   %ebx
  401a71:	a1 84 00 42 00       	mov    0x420084,%eax
  401a76:	ff d0                	call   *%eax
  401a78:	6a 0f                	push   $0xf
  401a7a:	ff 0c 24             	decl   (%esp)
  401a7d:	8d 05 a3 25 a7 98    	lea    0x98a725a3,%eax
  401a83:	2d 21 e3 64 98       	sub    $0x9864e321,%eax
  401a88:	50                   	push   %eax
  401a89:	8d 05 91 25 a7 98    	lea    0x98a72591,%eax
  401a8f:	2d 21 e3 64 98       	sub    $0x9864e321,%eax
  401a94:	50                   	push   %eax
  401a95:	a1 78 00 42 00       	mov    0x420078,%eax
  401a9a:	ff d0                	call   *%eax
  401a9c:	83 f8 00             	cmp    $0x0,%eax
  401a9f:	0f 85 5b a4 00 00    	jne    0x40bf00
  401aa5:	ba 01 00 00 00       	mov    $0x1,%edx
  401aaa:	01 fa                	add    %edi,%edx
  401aac:	6a 0f                	push   $0xf
  401aae:	ff 0c 24             	decl   (%esp)
  401ab1:	8d 1d a3 25 a7 98    	lea    0x98a725a3,%ebx
  401ab7:	81 eb 21 e3 64 98    	sub    $0x9864e321,%ebx
  401abd:	53                   	push   %ebx
  401abe:	8d 35 91 25 a7 98    	lea    0x98a72591,%esi
  401ac4:	81 ee 21 e3 64 98    	sub    $0x9864e321,%esi
  401aca:	56                   	push   %esi
  401acb:	a1 78 00 42 00       	mov    0x420078,%eax
  401ad0:	ff d0                	call   *%eax
  401ad2:	85 c0                	test   %eax,%eax
  401ad4:	0f 85 26 a4 00 00    	jne    0x40bf00
  401ada:	6a 0f                	push   $0xf
  401adc:	ff 0c 24             	decl   (%esp)
  401adf:	8d 15 a3 25 a7 98    	lea    0x98a725a3,%edx
  401ae5:	81 ea 21 e3 64 98    	sub    $0x9864e321,%edx
  401aeb:	52                   	push   %edx
  401aec:	8d 05 91 25 a7 98    	lea    0x98a72591,%eax
  401af2:	2d 21 e3 64 98       	sub    $0x9864e321,%eax
  401af7:	50                   	push   %eax
  401af8:	a1 78 00 42 00       	mov    0x420078,%eax
  401afd:	ff d0                	call   *%eax
  401aff:	83 f8 00             	cmp    $0x0,%eax
  401b02:	0f 85 f8 a3 00 00    	jne    0x40bf00
  401b08:	8d 35 c0 25 a7 98    	lea    0x98a725c0,%esi
  401b0e:	81 ee 21 e3 64 98    	sub    $0x9864e321,%esi
  401b14:	56                   	push   %esi
  401b15:	8d 3d b1 25 a7 98    	lea    0x98a725b1,%edi
  401b1b:	81 ef 21 e3 64 98    	sub    $0x9864e321,%edi
  401b21:	57                   	push   %edi
  401b22:	a1 84 00 42 00       	mov    0x420084,%eax
  401b27:	ff d0                	call   *%eax
  401b29:	12 05 e3 41 42 00    	adc    0x4241e3,%al
  401b2f:	13 3d 0d 40 42 00    	adc    0x42400d,%edi
  401b35:	6a 0f                	push   $0xf
  401b37:	ff 0c 24             	decl   (%esp)
  401b3a:	8d 1d a3 25 a7 98    	lea    0x98a725a3,%ebx
  401b40:	81 eb 21 e3 64 98    	sub    $0x9864e321,%ebx
  401b46:	53                   	push   %ebx
  401b47:	8d 0d 91 25 a7 98    	lea    0x98a72591,%ecx
  401b4d:	81 e9 21 e3 64 98    	sub    $0x9864e321,%ecx
  401b53:	51                   	push   %ecx
  401b54:	a1 78 00 42 00       	mov    0x420078,%eax
  401b59:	ff d0                	call   *%eax
  401b5b:	83 f8 00             	cmp    $0x0,%eax
  401b5e:	0f 85 9c a3 00 00    	jne    0x40bf00
  401b64:	6a 0f                	push   $0xf
  401b66:	ff 0c 24             	decl   (%esp)
  401b69:	8d 15 a3 25 a7 98    	lea    0x98a725a3,%edx
  401b6f:	81 ea 21 e3 64 98    	sub    $0x9864e321,%edx
  401b75:	52                   	push   %edx
  401b76:	8d 0d 91 25 a7 98    	lea    0x98a72591,%ecx
  401b7c:	81 e9 21 e3 64 98    	sub    $0x9864e321,%ecx
  401b82:	51                   	push   %ecx
  401b83:	a1 78 00 42 00       	mov    0x420078,%eax
  401b88:	ff d0                	call   *%eax
  401b8a:	83 f8 00             	cmp    $0x0,%eax
  401b8d:	0f 85 6d a3 00 00    	jne    0x40bf00
  401b93:	01 1d 58 41 42 00    	add    %ebx,0x424158
  401b99:	09 35 a3 40 42 00    	or     %esi,0x4240a3
  401b9f:	c7 05 46 41 42 00 b0 	movl   $0xb0,0x424146
  401ba6:	00 00 00 
  401ba9:	ba 01 00 00 00       	mov    $0x1,%edx
  401bae:	83 c2 92             	add    $0xffffff92,%edx
  401bb1:	8d 1d c0 25 a7 98    	lea    0x98a725c0,%ebx
  401bb7:	81 eb 21 e3 64 98    	sub    $0x9864e321,%ebx
  401bbd:	53                   	push   %ebx
  401bbe:	8d 0d b1 25 a7 98    	lea    0x98a725b1,%ecx
  401bc4:	81 e9 21 e3 64 98    	sub    $0x9864e321,%ecx
  401bca:	51                   	push   %ecx
  401bcb:	a1 84 00 42 00       	mov    0x420084,%eax
  401bd0:	ff d0                	call   *%eax
  401bd2:	13 1d 1c 40 42 00    	adc    0x42401c,%ebx
  401bd8:	6a 0f                	push   $0xf
  401bda:	ff 0c 24             	decl   (%esp)
  401bdd:	8d 0d a3 25 a7 98    	lea    0x98a725a3,%ecx
  401be3:	81 e9 21 e3 64 98    	sub    $0x9864e321,%ecx
  401be9:	51                   	push   %ecx
  401bea:	8d 05 91 25 a7 98    	lea    0x98a72591,%eax
  401bf0:	2d 21 e3 64 98       	sub    $0x9864e321,%eax
  401bf5:	50                   	push   %eax
  401bf6:	a1 78 00 42 00       	mov    0x420078,%eax
  401bfb:	ff d0                	call   *%eax
  401bfd:	85 c0                	test   %eax,%eax
  401bff:	0f 85 fb a2 00 00    	jne    0x40bf00
  401c05:	8d 3d c0 25 a7 98    	lea    0x98a725c0,%edi
  401c0b:	81 ef 21 e3 64 98    	sub    $0x9864e321,%edi
  401c11:	57                   	push   %edi
  401c12:	8d 1d b1 25 a7 98    	lea    0x98a725b1,%ebx
  401c18:	81 eb 21 e3 64 98    	sub    $0x9864e321,%ebx
  401c1e:	53                   	push   %ebx
  401c1f:	a1 84 00 42 00       	mov    0x420084,%eax
  401c24:	ff d0                	call   *%eax
  401c26:	2e e9 10 9e 00 00    	cs jmp 0x40ba3c
  401c2c:	83 25 b9 40 42 00 15 	andl   $0x15,0x4240b9
  401c33:	83 ef e3             	sub    $0xffffffe3,%edi
  401c36:	b5 01                	mov    $0x1,%ch
  401c38:	00 fd                	add    %bh,%ch
  401c3a:	29 3d ee 40 42 00    	sub    %edi,0x4240ee
	...
  401c48:	00 00                	add    %al,(%eax)
  401c4a:	00 12                	add    %dl,(%edx)
  401c4c:	1d 3e 41 42 00       	sbb    $0x42413e,%eax
  401c51:	11 fe                	adc    %edi,%esi
  401c53:	21 05 65 41 42 00    	and    %eax,0x424165
  401c59:	11 1d ec 40 42 00    	adc    %ebx,0x4240ec
  401c5f:	8d 15 c0 25 a7 98    	lea    0x98a725c0,%edx
  401c65:	81 ea 21 e3 64 98    	sub    $0x9864e321,%edx
  401c6b:	52                   	push   %edx
  401c6c:	8d 05 b1 25 a7 98    	lea    0x98a725b1,%eax
  401c72:	2d 21 e3 64 98       	sub    $0x9864e321,%eax
  401c77:	50                   	push   %eax
  401c78:	a1 84 00 42 00       	mov    0x420084,%eax
  401c7d:	ff d0                	call   *%eax
  401c7f:	01 05 f5 40 42 00    	add    %eax,0x4240f5
  401c85:	83 cb d4             	or     $0xffffffd4,%ebx
  401c88:	28 25 4f 40 42 00    	sub    %ah,0x42404f
  401c8e:	8d 1d c0 25 a7 98    	lea    0x98a725c0,%ebx
  401c94:	81 eb 21 e3 64 98    	sub    $0x9864e321,%ebx
  401c9a:	53                   	push   %ebx
  401c9b:	8d 15 b1 25 a7 98    	lea    0x98a725b1,%edx
  401ca1:	81 ea 21 e3 64 98    	sub    $0x9864e321,%edx
  401ca7:	52                   	push   %edx
  401ca8:	a1 84 00 42 00       	mov    0x420084,%eax
  401cad:	ff d0                	call   *%eax
  401caf:	83 35 d6 40 42 00 7f 	xorl   $0x7f,0x4240d6
  401cb6:	6a 0f                	push   $0xf
  401cb8:	ff 0c 24             	decl   (%esp)
  401cbb:	8d 1d a3 25 a7 98    	lea    0x98a725a3,%ebx
  401cc1:	81 eb 21 e3 64 98    	sub    $0x9864e321,%ebx
  401cc7:	53                   	push   %ebx
  401cc8:	8d 3d 91 25 a7 98    	lea    0x98a72591,%edi
  401cce:	81 ef 21 e3 64 98    	sub    $0x9864e321,%edi
  401cd4:	57                   	push   %edi
  401cd5:	a1 78 00 42 00       	mov    0x420078,%eax
  401cda:	ff d0                	call   *%eax
  401cdc:	85 c0                	test   %eax,%eax
  401cde:	0f 85 1c a2 00 00    	jne    0x40bf00
  401ce4:	6a 0f                	push   $0xf
  401ce6:	ff 0c 24             	decl   (%esp)
  401ce9:	8d 15 a3 25 a7 98    	lea    0x98a725a3,%edx
  401cef:	81 ea 21 e3 64 98    	sub    $0x9864e321,%edx
  401cf5:	52                   	push   %edx
  401cf6:	8d 1d 91 25 a7 98    	lea    0x98a72591,%ebx
  401cfc:	81 eb 21 e3 64 98    	sub    $0x9864e321,%ebx
  401d02:	53                   	push   %ebx
  401d03:	a1 78 00 42 00       	mov    0x420078,%eax
  401d08:	ff d0                	call   *%eax
  401d0a:	85 c0                	test   %eax,%eax
  401d0c:	0f 85 ee a1 00 00    	jne    0x40bf00
  401d12:	ba 01 00 00 00       	mov    $0x1,%edx
  401d17:	01 da                	add    %ebx,%edx
  401d19:	6a 0f                	push   $0xf
  401d1b:	ff 0c 24             	decl   (%esp)
  401d1e:	8d 3d a3 25 a7 98    	lea    0x98a725a3,%edi
  401d24:	81 ef 21 e3 64 98    	sub    $0x9864e321,%edi
  401d2a:	57                   	push   %edi
  401d2b:	8d 15 91 25 a7 98    	lea    0x98a72591,%edx
  401d31:	81 ea 21 e3 64 98    	sub    $0x9864e321,%edx
  401d37:	52                   	push   %edx
  401d38:	a1 78 00 42 00       	mov    0x420078,%eax
  401d3d:	ff d0                	call   *%eax
  401d3f:	85 c0                	test   %eax,%eax
  401d41:	0f 85 b9 a1 00 00    	jne    0x40bf00
  401d47:	82 2d c7 41 42 00 a3 	subb   $0xa3,0x4241c7
  401d4e:	82 2d 41 40 42 00 49 	subb   $0x49,0x424041
  401d55:	6a 0f                	push   $0xf
  401d57:	ff 0c 24             	decl   (%esp)
  401d5a:	8d 15 a3 25 a7 98    	lea    0x98a725a3,%edx
  401d60:	81 ea 21 e3 64 98    	sub    $0x9864e321,%edx
  401d66:	52                   	push   %edx
  401d67:	8d 0d 91 25 a7 98    	lea    0x98a72591,%ecx
  401d6d:	81 e9 21 e3 64 98    	sub    $0x9864e321,%ecx
  401d73:	51                   	push   %ecx
  401d74:	a1 78 00 42 00       	mov    0x420078,%eax
  401d79:	ff d0                	call   *%eax
  401d7b:	85 c0                	test   %eax,%eax
  401d7d:	0f 85 7d a1 00 00    	jne    0x40bf00
  401d83:	18 05 bf 40 42 00    	sbb    %al,0x4240bf
  401d89:	13 1d 9b 40 42 00    	adc    0x42409b,%ebx
  401d8f:	13 05 a7 41 42 00    	adc    0x4241a7,%eax
  401d95:	83 ef a3             	sub    $0xffffffa3,%edi
  401d98:	83 1d 4a 40 42 00 6f 	sbbl   $0x6f,0x42404a
  401d9f:	8d 05 c0 25 a7 98    	lea    0x98a725c0,%eax
  401da5:	2d 21 e3 64 98       	sub    $0x9864e321,%eax
  401daa:	50                   	push   %eax
  401dab:	8d 05 b1 25 a7 98    	lea    0x98a725b1,%eax
  401db1:	2d 21 e3 64 98       	sub    $0x9864e321,%eax
  401db6:	50                   	push   %eax
  401db7:	a1 84 00 42 00       	mov    0x420084,%eax
  401dbc:	ff d0                	call   *%eax
  401dbe:	8d 1d c0 25 a7 98    	lea    0x98a725c0,%ebx
  401dc4:	81 eb 21 e3 64 98    	sub    $0x9864e321,%ebx
  401dca:	53                   	push   %ebx
  401dcb:	8d 3d b1 25 a7 98    	lea    0x98a725b1,%edi
  401dd1:	81 ef 21 e3 64 98    	sub    $0x9864e321,%edi
  401dd7:	57                   	push   %edi
  401dd8:	a1 84 00 42 00       	mov    0x420084,%eax
  401ddd:	ff d0                	call   *%eax
  401ddf:	18 3d 23 40 42 00    	sbb    %bh,0x424023
  401de5:	09 3d 3d 40 42 00    	or     %edi,0x42403d
  401deb:	2a 3d fb 41 42 00    	sub    0x4241fb,%bh
  401df1:	6a 0f                	push   $0xf
  401df3:	ff 0c 24             	decl   (%esp)
  401df6:	8d 15 a3 25 a7 98    	lea    0x98a725a3,%edx
  401dfc:	81 ea 21 e3 64 98    	sub    $0x9864e321,%edx
  401e02:	52                   	push   %edx
  401e03:	8d 05 91 25 a7 98    	lea    0x98a72591,%eax
  401e09:	2d 21 e3 64 98       	sub    $0x9864e321,%eax
  401e0e:	50                   	push   %eax
  401e0f:	a1 78 00 42 00       	mov    0x420078,%eax
  401e14:	ff d0                	call   *%eax
  401e16:	83 f8 00             	cmp    $0x0,%eax
  401e19:	0f 85 e1 a0 00 00    	jne    0x40bf00
  401e1f:	08 1d 0d 41 42 00    	or     %bl,0x42410d
  401e25:	12 1d 2f 41 42 00    	adc    0x42412f,%bl
  401e2b:	29 f3                	sub    %esi,%ebx
  401e2d:	82 2d 22 41 42 00 74 	subb   $0x74,0x424122
  401e34:	6a 0f                	push   $0xf
  401e36:	ff 0c 24             	decl   (%esp)
  401e39:	8d 3d a3 25 a7 98    	lea    0x98a725a3,%edi
  401e3f:	81 ef 21 e3 64 98    	sub    $0x9864e321,%edi
  401e45:	57                   	push   %edi
  401e46:	8d 1d 91 25 a7 98    	lea    0x98a72591,%ebx
  401e4c:	81 eb 21 e3 64 98    	sub    $0x9864e321,%ebx
  401e52:	53                   	push   %ebx
  401e53:	a1 78 00 42 00       	mov    0x420078,%eax
  401e58:	ff d0                	call   *%eax
  401e5a:	85 c0                	test   %eax,%eax
  401e5c:	0f 85 9e a0 00 00    	jne    0x40bf00
  401e62:	11 1d 6d 40 42 00    	adc    %ebx,0x42406d
  401e68:	0b 35 55 41 42 00    	or     0x424155,%esi
  401e6e:	13 1d 07 41 42 00    	adc    0x424107,%ebx
  401e74:	81 35 ea 41 42 00 d8 	xorl   $0xd8,0x4241ea
  401e7b:	00 00 00 
  401e7e:	b9 01 00 00 00       	mov    $0x1,%ecx
  401e83:	83 c1 bb             	add    $0xffffffbb,%ecx
  401e86:	2e e9 b0 9b 00 00    	cs jmp 0x40ba3c
  401e8c:	13 35 27 40 42 00    	adc    0x424027,%esi
  401e92:	83 25 b9 41 42 00 47 	andl   $0x47,0x4241b9
	...
  401ea5:	00 00                	add    %al,(%eax)
  401ea7:	00 29                	add    %ch,(%ecx)
  401ea9:	3d d2 41 42 00       	cmp    $0x4241d2,%eax
  401eae:	12 05 20 41 42 00    	adc    0x424120,%al
  401eb4:	81 15 8f 40 42 00 93 	adcl   $0x93,0x42408f
  401ebb:	00 00 00 
  401ebe:	13 05 ee 40 42 00    	adc    0x4240ee,%eax
  401ec4:	6a 0f                	push   $0xf
  401ec6:	ff 0c 24             	decl   (%esp)
  401ec9:	8d 15 a3 25 a7 98    	lea    0x98a725a3,%edx
  401ecf:	81 ea 21 e3 64 98    	sub    $0x9864e321,%edx
  401ed5:	52                   	push   %edx
  401ed6:	8d 0d 91 25 a7 98    	lea    0x98a72591,%ecx
  401edc:	81 e9 21 e3 64 98    	sub    $0x9864e321,%ecx
  401ee2:	51                   	push   %ecx
  401ee3:	a1 78 00 42 00       	mov    0x420078,%eax
  401ee8:	ff d0                	call   *%eax
  401eea:	83 f8 00             	cmp    $0x0,%eax
  401eed:	0f 85 0d a0 00 00    	jne    0x40bf00
  401ef3:	01 fe                	add    %edi,%esi
  401ef5:	81 35 5b 40 42 00 bf 	xorl   $0xbf,0x42405b
  401efc:	00 00 00 
  401eff:	01 c0                	add    %eax,%eax
  401f01:	b6 01                	mov    $0x1,%dh
  401f03:	00 de                	add    %bl,%dh
  401f05:	01 c7                	add    %eax,%edi
  401f07:	6a 0f                	push   $0xf
  401f09:	ff 0c 24             	decl   (%esp)
  401f0c:	8d 35 a3 25 a7 98    	lea    0x98a725a3,%esi
  401f12:	81 ee 21 e3 64 98    	sub    $0x9864e321,%esi
  401f18:	56                   	push   %esi
  401f19:	8d 35 91 25 a7 98    	lea    0x98a72591,%esi
  401f1f:	81 ee 21 e3 64 98    	sub    $0x9864e321,%esi
  401f25:	56                   	push   %esi
  401f26:	a1 78 00 42 00       	mov    0x420078,%eax
  401f2b:	ff d0                	call   *%eax
  401f2d:	85 c0                	test   %eax,%eax
  401f2f:	0f 85 cb 9f 00 00    	jne    0x40bf00
  401f35:	83 eb 75             	sub    $0x75,%ebx
  401f38:	0b 1d e6 40 42 00    	or     0x4240e6,%ebx
  401f3e:	b9 01 00 00 00       	mov    $0x1,%ecx
  401f43:	01 c1                	add    %eax,%ecx
  401f45:	8d 1d c0 25 a7 98    	lea    0x98a725c0,%ebx
  401f4b:	81 eb 21 e3 64 98    	sub    $0x9864e321,%ebx
  401f51:	53                   	push   %ebx
  401f52:	8d 0d b1 25 a7 98    	lea    0x98a725b1,%ecx
  401f58:	81 e9 21 e3 64 98    	sub    $0x9864e321,%ecx
  401f5e:	51                   	push   %ecx
  401f5f:	a1 84 00 42 00       	mov    0x420084,%eax
  401f64:	ff d0                	call   *%eax
  401f66:	01 35 ce 40 42 00    	add    %esi,0x4240ce
  401f6c:	11 c3                	adc    %eax,%ebx
  401f6e:	83 c6 01             	add    $0x1,%esi
  401f71:	12 1d 64 40 42 00    	adc    0x424064,%bl
  401f77:	8d 1d c0 25 a7 98    	lea    0x98a725c0,%ebx
  401f7d:	81 eb 21 e3 64 98    	sub    $0x9864e321,%ebx
  401f83:	53                   	push   %ebx
  401f84:	8d 1d b1 25 a7 98    	lea    0x98a725b1,%ebx
  401f8a:	81 eb 21 e3 64 98    	sub    $0x9864e321,%ebx
  401f90:	53                   	push   %ebx
  401f91:	a1 84 00 42 00       	mov    0x420084,%eax
  401f96:	ff d0                	call   *%eax
  401f98:	13 3d 3c 41 42 00    	adc    0x42413c,%edi
  401f9e:	31 db                	xor    %ebx,%ebx
  401fa0:	11 3d c2 40 42 00    	adc    %edi,0x4240c2
  401fa6:	6a 0f                	push   $0xf
  401fa8:	ff 0c 24             	decl   (%esp)
  401fab:	8d 05 a3 25 a7 98    	lea    0x98a725a3,%eax
  401fb1:	2d 21 e3 64 98       	sub    $0x9864e321,%eax
  401fb6:	50                   	push   %eax
  401fb7:	8d 3d 91 25 a7 98    	lea    0x98a72591,%edi
  401fbd:	81 ef 21 e3 64 98    	sub    $0x9864e321,%edi
  401fc3:	57                   	push   %edi
  401fc4:	a1 78 00 42 00       	mov    0x420078,%eax
  401fc9:	ff d0                	call   *%eax
  401fcb:	85 c0                	test   %eax,%eax
  401fcd:	0f 85 2d 9f 00 00    	jne    0x40bf00
  401fd3:	31 d8                	xor    %ebx,%eax
  401fd5:	13 3d ee 41 42 00    	adc    0x4241ee,%edi
  401fdb:	c7 05 c1 40 42 00 7f 	movl   $0x7f,0x4240c1
  401fe2:	00 00 00 
  401fe5:	b9 01 00 00 00       	mov    $0x1,%ecx
  401fea:	83 c1 91             	add    $0xffffff91,%ecx
  401fed:	83 15 1d 41 42 00 69 	adcl   $0x69,0x42411d
  401ff4:	8d 3d c0 25 a7 98    	lea    0x98a725c0,%edi
  401ffa:	81 ef 21 e3 64 98    	sub    $0x9864e321,%edi
  402000:	57                   	push   %edi
  402001:	8d 1d b1 25 a7 98    	lea    0x98a725b1,%ebx
  402007:	81 eb 21 e3 64 98    	sub    $0x9864e321,%ebx
  40200d:	53                   	push   %ebx
  40200e:	a1 84 00 42 00       	mov    0x420084,%eax
  402013:	ff d0                	call   *%eax
  402015:	82 c3 47             	add    $0x47,%bl
  402018:	6a 0f                	push   $0xf
  40201a:	ff 0c 24             	decl   (%esp)
  40201d:	8d 15 a3 25 a7 98    	lea    0x98a725a3,%edx
  402023:	81 ea 21 e3 64 98    	sub    $0x9864e321,%edx
  402029:	52                   	push   %edx
  40202a:	8d 3d 91 25 a7 98    	lea    0x98a72591,%edi
  402030:	81 ef 21 e3 64 98    	sub    $0x9864e321,%edi
  402036:	57                   	push   %edi
  402037:	a1 78 00 42 00       	mov    0x420078,%eax
  40203c:	ff d0                	call   *%eax
  40203e:	83 f8 00             	cmp    $0x0,%eax
  402041:	0f 85 b9 9e 00 00    	jne    0x40bf00
  402047:	19 1d bc 40 42 00    	sbb    %ebx,0x4240bc
  40204d:	c7 05 4f 40 42 00 f4 	movl   $0xf4,0x42404f
  402054:	00 00 00 
  402057:	0a 3d 4f 40 42 00    	or     0x42404f,%bh
  40205d:	83 d0 f4             	adc    $0xfffffff4,%eax
  402060:	8d 3d c0 25 a7 98    	lea    0x98a725c0,%edi
  402066:	81 ef 21 e3 64 98    	sub    $0x9864e321,%edi
  40206c:	57                   	push   %edi
  40206d:	8d 0d b1 25 a7 98    	lea    0x98a725b1,%ecx
  402073:	81 e9 21 e3 64 98    	sub    $0x9864e321,%ecx
  402079:	51                   	push   %ecx
  40207a:	a1 84 00 42 00       	mov    0x420084,%eax
  40207f:	ff d0                	call   *%eax
  402081:	28 1d 2d 40 42 00    	sub    %bl,0x42402d
  402087:	09 35 13 40 42 00    	or     %esi,0x424013
  40208d:	13 1d 7e 40 42 00    	adc    0x42407e,%ebx
  402093:	0b 05 e6 41 42 00    	or     0x4241e6,%eax
  402099:	83 c3 73             	add    $0x73,%ebx
  40209c:	8d 0d c0 25 a7 98    	lea    0x98a725c0,%ecx
  4020a2:	81 e9 21 e3 64 98    	sub    $0x9864e321,%ecx
  4020a8:	51                   	push   %ecx
  4020a9:	8d 1d b1 25 a7 98    	lea    0x98a725b1,%ebx
  4020af:	81 eb 21 e3 64 98    	sub    $0x9864e321,%ebx
  4020b5:	53                   	push   %ebx
  4020b6:	a1 84 00 42 00       	mov    0x420084,%eax
  4020bb:	ff d0                	call   *%eax
  4020bd:	83 f3 11             	xor    $0x11,%ebx
  4020c0:	0a 05 a9 41 42 00    	or     0x4241a9,%al
  4020c6:	81 15 9c 41 42 00 dc 	adcl   $0xdc,0x42419c
  4020cd:	00 00 00 
  4020d0:	ba 01 00 00 00       	mov    $0x1,%edx
  4020d5:	01 fa                	add    %edi,%edx
  4020d7:	83 25 4d 40 42 00 6f 	andl   $0x6f,0x42404d
  4020de:	8d 05 c0 25 a7 98    	lea    0x98a725c0,%eax
  4020e4:	2d 21 e3 64 98       	sub    $0x9864e321,%eax
  4020e9:	50                   	push   %eax
  4020ea:	8d 15 b1 25 a7 98    	lea    0x98a725b1,%edx
  4020f0:	81 ea 21 e3 64 98    	sub    $0x9864e321,%edx
  4020f6:	52                   	push   %edx
  4020f7:	a1 84 00 42 00       	mov    0x420084,%eax
  4020fc:	ff d0                	call   *%eax
  4020fe:	6a 0f                	push   $0xf
  402100:	ff 0c 24             	decl   (%esp)
  402103:	8d 3d a3 25 a7 98    	lea    0x98a725a3,%edi
  402109:	81 ef 21 e3 64 98    	sub    $0x9864e321,%edi
  40210f:	57                   	push   %edi
  402110:	8d 3d 91 25 a7 98    	lea    0x98a72591,%edi
  402116:	81 ef 21 e3 64 98    	sub    $0x9864e321,%edi
  40211c:	57                   	push   %edi
  40211d:	a1 78 00 42 00       	mov    0x420078,%eax
  402122:	ff d0                	call   *%eax
  402124:	83 f8 00             	cmp    $0x0,%eax
  402127:	0f 85 d3 9d 00 00    	jne    0x40bf00
  40212d:	83 1d 19 40 42 00 42 	sbbl   $0x42,0x424019
  402134:	21 3d 5d 40 42 00    	and    %edi,0x42405d
  40213a:	6a 0f                	push   $0xf
  40213c:	ff 0c 24             	decl   (%esp)
  40213f:	8d 3d a3 25 a7 98    	lea    0x98a725a3,%edi
  402145:	81 ef 21 e3 64 98    	sub    $0x9864e321,%edi
  40214b:	57                   	push   %edi
  40214c:	8d 0d 91 25 a7 98    	lea    0x98a72591,%ecx
  402152:	81 e9 21 e3 64 98    	sub    $0x9864e321,%ecx
  402158:	51                   	push   %ecx
  402159:	a1 78 00 42 00       	mov    0x420078,%eax
  40215e:	ff d0                	call   *%eax
  402160:	85 c0                	test   %eax,%eax
  402162:	0f 85 98 9d 00 00    	jne    0x40bf00
  402168:	29 f6                	sub    %esi,%esi
  40216a:	ba 01 00 00 00       	mov    $0x1,%edx
  40216f:	01 f2                	add    %esi,%edx
  402171:	01 d6                	add    %edx,%esi
  402173:	09 1d 7e 41 42 00    	or     %ebx,0x42417e
  402179:	2e e9 bd 98 00 00    	cs jmp 0x40ba3c
  40217f:	01 05 06 41 42 00    	add    %eax,0x424106
  402185:	01 fe                	add    %edi,%esi
  402187:	83 35 53 40 42 00 2d 	xorl   $0x2d,0x424053
  40218e:	0b 15 6c 41 42 00    	or     0x42416c,%edx
  402194:	83 d2 16             	adc    $0x16,%edx
	...
  4021a7:	81 25 40 41 42 00 c3 	andl   $0xc3,0x424140
  4021ae:	00 00 00 
  4021b1:	6a 0f                	push   $0xf
  4021b3:	ff 0c 24             	decl   (%esp)
  4021b6:	8d 0d a3 25 a7 98    	lea    0x98a725a3,%ecx
  4021bc:	81 e9 21 e3 64 98    	sub    $0x9864e321,%ecx
  4021c2:	51                   	push   %ecx
  4021c3:	8d 1d 91 25 a7 98    	lea    0x98a72591,%ebx
  4021c9:	81 eb 21 e3 64 98    	sub    $0x9864e321,%ebx
  4021cf:	53                   	push   %ebx
  4021d0:	a1 78 00 42 00       	mov    0x420078,%eax
  4021d5:	ff d0                	call   *%eax
  4021d7:	85 c0                	test   %eax,%eax
  4021d9:	0f 85 21 9d 00 00    	jne    0x40bf00
  4021df:	ba 01 00 00 00       	mov    $0x1,%edx
  4021e4:	83 c2 05             	add    $0x5,%edx
  4021e7:	c7 05 a6 40 42 00 dc 	movl   $0xdc,0x4240a6
  4021ee:	00 00 00 
  4021f1:	6a 0f                	push   $0xf
  4021f3:	ff 0c 24             	decl   (%esp)
  4021f6:	8d 35 a3 25 a7 98    	lea    0x98a725a3,%esi
  4021fc:	81 ee 21 e3 64 98    	sub    $0x9864e321,%esi
  402202:	56                   	push   %esi
  402203:	8d 3d 91 25 a7 98    	lea    0x98a72591,%edi
  402209:	81 ef 21 e3 64 98    	sub    $0x9864e321,%edi
  40220f:	57                   	push   %edi
  402210:	a1 78 00 42 00       	mov    0x420078,%eax
  402215:	ff d0                	call   *%eax
  402217:	85 c0                	test   %eax,%eax
  402219:	0f 85 e1 9c 00 00    	jne    0x40bf00
  40221f:	6a 0f                	push   $0xf
  402221:	ff 0c 24             	decl   (%esp)
  402224:	8d 3d a3 25 a7 98    	lea    0x98a725a3,%edi
  40222a:	81 ef 21 e3 64 98    	sub    $0x9864e321,%edi
  402230:	57                   	push   %edi
  402231:	8d 0d 91 25 a7 98    	lea    0x98a72591,%ecx
  402237:	81 e9 21 e3 64 98    	sub    $0x9864e321,%ecx
  40223d:	51                   	push   %ecx
  40223e:	a1 78 00 42 00       	mov    0x420078,%eax
  402243:	ff d0                	call   *%eax
  402245:	83 f8 00             	cmp    $0x0,%eax
  402248:	0f 85 b2 9c 00 00    	jne    0x40bf00
  40224e:	b6 01                	mov    $0x1,%dh
  402250:	82 c6 4d             	add    $0x4d,%dh
  402253:	29 fe                	sub    %edi,%esi
  402255:	11 15 92 40 42 00    	adc    %edx,0x424092
  40225b:	8d 3d c0 25 a7 98    	lea    0x98a725c0,%edi
  402261:	81 ef 21 e3 64 98    	sub    $0x9864e321,%edi
  402267:	57                   	push   %edi
  402268:	8d 0d b1 25 a7 98    	lea    0x98a725b1,%ecx
  40226e:	81 e9 21 e3 64 98    	sub    $0x9864e321,%ecx
  402274:	51                   	push   %ecx
  402275:	a1 84 00 42 00       	mov    0x420084,%eax
  40227a:	ff d0                	call   *%eax
  40227c:	83 cb d0             	or     $0xffffffd0,%ebx
  40227f:	13 05 65 40 42 00    	adc    0x424065,%eax
  402285:	12 3d d7 41 42 00    	adc    0x4241d7,%bh
  40228b:	8d 35 c0 25 a7 98    	lea    0x98a725c0,%esi
  402291:	81 ee 21 e3 64 98    	sub    $0x9864e321,%esi
  402297:	56                   	push   %esi
  402298:	8d 15 b1 25 a7 98    	lea    0x98a725b1,%edx
  40229e:	81 ea 21 e3 64 98    	sub    $0x9864e321,%edx
  4022a4:	52                   	push   %edx
  4022a5:	a1 84 00 42 00       	mov    0x420084,%eax
  4022aa:	ff d0                	call   *%eax
  4022ac:	8d 1d c0 25 a7 98    	lea    0x98a725c0,%ebx
  4022b2:	81 eb 21 e3 64 98    	sub    $0x9864e321,%ebx
  4022b8:	53                   	push   %ebx
  4022b9:	8d 0d b1 25 a7 98    	lea    0x98a725b1,%ecx
  4022bf:	81 e9 21 e3 64 98    	sub    $0x9864e321,%ecx
  4022c5:	51                   	push   %ecx
  4022c6:	a1 84 00 42 00       	mov    0x420084,%eax
  4022cb:	ff d0                	call   *%eax
  4022cd:	b5 01                	mov    $0x1,%ch
  4022cf:	00 c5                	add    %al,%ch
  4022d1:	8d 3d c0 25 a7 98    	lea    0x98a725c0,%edi
  4022d7:	81 ef 21 e3 64 98    	sub    $0x9864e321,%edi
  4022dd:	57                   	push   %edi
  4022de:	8d 1d b1 25 a7 98    	lea    0x98a725b1,%ebx
  4022e4:	81 eb 21 e3 64 98    	sub    $0x9864e321,%ebx
  4022ea:	53                   	push   %ebx
  4022eb:	a1 84 00 42 00       	mov    0x420084,%eax
  4022f0:	ff d0                	call   *%eax
  4022f2:	12 3d 2c 40 42 00    	adc    0x42402c,%bh
  4022f8:	01 3d c1 41 42 00    	add    %edi,0x4241c1
  4022fe:	83 d8 c4             	sbb    $0xffffffc4,%eax
  402301:	83 eb a4             	sub    $0xffffffa4,%ebx
  402304:	0b 1d ef 40 42 00    	or     0x4240ef,%ebx
  40230a:	8d 3d c0 25 a7 98    	lea    0x98a725c0,%edi
  402310:	81 ef 21 e3 64 98    	sub    $0x9864e321,%edi
  402316:	57                   	push   %edi
  402317:	8d 1d b1 25 a7 98    	lea    0x98a725b1,%ebx
  40231d:	81 eb 21 e3 64 98    	sub    $0x9864e321,%ebx
  402323:	53                   	push   %ebx
  402324:	a1 84 00 42 00       	mov    0x420084,%eax
  402329:	ff d0                	call   *%eax
  40232b:	6a 0f                	push   $0xf
  40232d:	ff 0c 24             	decl   (%esp)
  402330:	8d 0d a3 25 a7 98    	lea    0x98a725a3,%ecx
  402336:	81 e9 21 e3 64 98    	sub    $0x9864e321,%ecx
  40233c:	51                   	push   %ecx
  40233d:	8d 05 91 25 a7 98    	lea    0x98a72591,%eax
  402343:	2d 21 e3 64 98       	sub    $0x9864e321,%eax
  402348:	50                   	push   %eax
  402349:	a1 78 00 42 00       	mov    0x420078,%eax
  40234e:	ff d0                	call   *%eax
  402350:	83 f8 00             	cmp    $0x0,%eax
  402353:	0f 85 a7 9b 00 00    	jne    0x40bf00
  402359:	13 3d 1b 40 42 00    	adc    0x42401b,%edi
  40235f:	01 ff                	add    %edi,%edi
  402361:	81 15 7a 40 42 00 98 	adcl   $0x98,0x42407a
  402368:	00 00 00 
  40236b:	83 c7 ea             	add    $0xffffffea,%edi
  40236e:	8d 0d c0 25 a7 98    	lea    0x98a725c0,%ecx
  402374:	81 e9 21 e3 64 98    	sub    $0x9864e321,%ecx
  40237a:	51                   	push   %ecx
  40237b:	8d 05 b1 25 a7 98    	lea    0x98a725b1,%eax
  402381:	2d 21 e3 64 98       	sub    $0x9864e321,%eax
  402386:	50                   	push   %eax
  402387:	a1 84 00 42 00       	mov    0x420084,%eax
  40238c:	ff d0                	call   *%eax
  40238e:	00 1d 46 40 42 00    	add    %bl,0x424046
  402394:	b9 01 00 00 00       	mov    $0x1,%ecx
  402399:	01 d9                	add    %ebx,%ecx
  40239b:	83 ce b9             	or     $0xffffffb9,%esi
  40239e:	8d 35 c0 25 a7 98    	lea    0x98a725c0,%esi
  4023a4:	81 ee 21 e3 64 98    	sub    $0x9864e321,%esi
  4023aa:	56                   	push   %esi
  4023ab:	8d 1d b1 25 a7 98    	lea    0x98a725b1,%ebx
  4023b1:	81 eb 21 e3 64 98    	sub    $0x9864e321,%ebx
  4023b7:	53                   	push   %ebx
  4023b8:	a1 84 00 42 00       	mov    0x420084,%eax
  4023bd:	ff d0                	call   *%eax
  4023bf:	ba 01 00 00 00       	mov    $0x1,%edx
  4023c4:	01 c2                	add    %eax,%edx
  4023c6:	b9 01 00 00 00       	mov    $0x1,%ecx
  4023cb:	83 c1 18             	add    $0x18,%ecx
  4023ce:	21 05 9d 41 42 00    	and    %eax,0x42419d
  4023d4:	31 c7                	xor    %eax,%edi
  4023d6:	8d 1d c0 25 a7 98    	lea    0x98a725c0,%ebx
  4023dc:	81 eb 21 e3 64 98    	sub    $0x9864e321,%ebx
  4023e2:	53                   	push   %ebx
  4023e3:	8d 3d b1 25 a7 98    	lea    0x98a725b1,%edi
  4023e9:	81 ef 21 e3 64 98    	sub    $0x9864e321,%edi
  4023ef:	57                   	push   %edi
  4023f0:	a1 84 00 42 00       	mov    0x420084,%eax
  4023f5:	ff d0                	call   *%eax
  4023f7:	2e e9 3f 96 00 00    	cs jmp 0x40ba3c
  4023fd:	29 05 5a 40 42 00    	sub    %eax,0x42405a
	...
  40240f:	00 29                	add    %ch,(%ecx)
  402411:	35 8f 41 42 00       	xor    $0x42418f,%eax
  402416:	8d 3d c0 25 a7 98    	lea    0x98a725c0,%edi
  40241c:	81 ef 21 e3 64 98    	sub    $0x9864e321,%edi
  402422:	57                   	push   %edi
  402423:	8d 35 b1 25 a7 98    	lea    0x98a725b1,%esi
  402429:	81 ee 21 e3 64 98    	sub    $0x9864e321,%esi
  40242f:	56                   	push   %esi
  402430:	a1 84 00 42 00       	mov    0x420084,%eax
  402435:	ff d0                	call   *%eax
  402437:	18 e3                	sbb    %ah,%bl
  402439:	6a 0f                	push   $0xf
  40243b:	ff 0c 24             	decl   (%esp)
  40243e:	8d 15 a3 25 a7 98    	lea    0x98a725a3,%edx
  402444:	81 ea 21 e3 64 98    	sub    $0x9864e321,%edx
  40244a:	52                   	push   %edx
  40244b:	8d 0d 91 25 a7 98    	lea    0x98a72591,%ecx
  402451:	81 e9 21 e3 64 98    	sub    $0x9864e321,%ecx
  402457:	51                   	push   %ecx
  402458:	a1 78 00 42 00       	mov    0x420078,%eax
  40245d:	ff d0                	call   *%eax
  40245f:	83 f8 00             	cmp    $0x0,%eax
  402462:	0f 85 98 9a 00 00    	jne    0x40bf00
  402468:	01 35 79 41 42 00    	add    %esi,0x424179
  40246e:	6a 0f                	push   $0xf
  402470:	ff 0c 24             	decl   (%esp)
  402473:	8d 15 a3 25 a7 98    	lea    0x98a725a3,%edx
  402479:	81 ea 21 e3 64 98    	sub    $0x9864e321,%edx
  40247f:	52                   	push   %edx
  402480:	8d 15 91 25 a7 98    	lea    0x98a72591,%edx
  402486:	81 ea 21 e3 64 98    	sub    $0x9864e321,%edx
  40248c:	52                   	push   %edx
  40248d:	a1 78 00 42 00       	mov    0x420078,%eax
  402492:	ff d0                	call   *%eax
  402494:	85 c0                	test   %eax,%eax
  402496:	0f 85 64 9a 00 00    	jne    0x40bf00
  40249c:	8d 3d c0 25 a7 98    	lea    0x98a725c0,%edi
  4024a2:	81 ef 21 e3 64 98    	sub    $0x9864e321,%edi
  4024a8:	57                   	push   %edi
  4024a9:	8d 15 b1 25 a7 98    	lea    0x98a725b1,%edx
  4024af:	81 ea 21 e3 64 98    	sub    $0x9864e321,%edx
  4024b5:	52                   	push   %edx
  4024b6:	a1 84 00 42 00       	mov    0x420084,%eax
  4024bb:	ff d0                	call   *%eax
  4024bd:	18 1d 14 40 42 00    	sbb    %bl,0x424014
  4024c3:	83 f3 de             	xor    $0xffffffde,%ebx
  4024c6:	01 35 9c 40 42 00    	add    %esi,0x42409c
  4024cc:	b9 01 00 00 00       	mov    $0x1,%ecx
  4024d1:	01 c1                	add    %eax,%ecx
  4024d3:	83 15 66 40 42 00 28 	adcl   $0x28,0x424066
  4024da:	6a 0f                	push   $0xf
  4024dc:	ff 0c 24             	decl   (%esp)
  4024df:	8d 1d a3 25 a7 98    	lea    0x98a725a3,%ebx
  4024e5:	81 eb 21 e3 64 98    	sub    $0x9864e321,%ebx
  4024eb:	53                   	push   %ebx
  4024ec:	8d 3d 91 25 a7 98    	lea    0x98a72591,%edi
  4024f2:	81 ef 21 e3 64 98    	sub    $0x9864e321,%edi
  4024f8:	57                   	push   %edi
  4024f9:	a1 78 00 42 00       	mov    0x420078,%eax
  4024fe:	ff d0                	call   *%eax
  402500:	85 c0                	test   %eax,%eax
  402502:	0f 85 f8 99 00 00    	jne    0x40bf00
  402508:	29 c6                	sub    %eax,%esi
  40250a:	c7 05 53 41 42 00 72 	movl   $0x72,0x424153
  402511:	00 00 00 
  402514:	13 35 dc 41 42 00    	adc    0x4241dc,%esi
  40251a:	c7 05 dd 40 42 00 48 	movl   $0x48,0x4240dd
  402521:	00 00 00 
  402524:	8d 35 c0 25 a7 98    	lea    0x98a725c0,%esi
  40252a:	81 ee 21 e3 64 98    	sub    $0x9864e321,%esi
  402530:	56                   	push   %esi
  402531:	8d 0d b1 25 a7 98    	lea    0x98a725b1,%ecx
  402537:	81 e9 21 e3 64 98    	sub    $0x9864e321,%ecx
  40253d:	51                   	push   %ecx
  40253e:	a1 84 00 42 00       	mov    0x420084,%eax
  402543:	ff d0                	call   *%eax
  402545:	b1 01                	mov    $0x1,%cl
  402547:	82 c1 0d             	add    $0xd,%cl
  40254a:	8d 0d c0 25 a7 98    	lea    0x98a725c0,%ecx
  402550:	81 e9 21 e3 64 98    	sub    $0x9864e321,%ecx
  402556:	51                   	push   %ecx
  402557:	8d 3d b1 25 a7 98    	lea    0x98a725b1,%edi
  40255d:	81 ef 21 e3 64 98    	sub    $0x9864e321,%edi
  402563:	57                   	push   %edi
  402564:	a1 84 00 42 00       	mov    0x420084,%eax
  402569:	ff d0                	call   *%eax
  40256b:	83 1d 67 40 42 00 35 	sbbl   $0x35,0x424067
  402572:	81 15 48 40 42 00 c9 	adcl   $0xc9,0x424048
  402579:	00 00 00 
  40257c:	12 1d e8 40 42 00    	adc    0x4240e8,%bl
  402582:	c7 05 99 41 42 00 ed 	movl   $0xed,0x424199
  402589:	00 00 00 
  40258c:	6a 0f                	push   $0xf
  40258e:	ff 0c 24             	decl   (%esp)
  402591:	8d 15 a3 25 a7 98    	lea    0x98a725a3,%edx
  402597:	81 ea 21 e3 64 98    	sub    $0x9864e321,%edx
  40259d:	52                   	push   %edx
  40259e:	8d 15 91 25 a7 98    	lea    0x98a72591,%edx
  4025a4:	81 ea 21 e3 64 98    	sub    $0x9864e321,%edx
  4025aa:	52                   	push   %edx
  4025ab:	a1 78 00 42 00       	mov    0x420078,%eax
  4025b0:	ff d0                	call   *%eax
  4025b2:	85 c0                	test   %eax,%eax
  4025b4:	0f 85 46 99 00 00    	jne    0x40bf00
  4025ba:	ba 01 00 00 00       	mov    $0x1,%edx
  4025bf:	83 c2 eb             	add    $0xffffffeb,%edx
  4025c2:	83 c2 6a             	add    $0x6a,%edx
  4025c5:	83 c2 f9             	add    $0xfffffff9,%edx
  4025c8:	6a 0f                	push   $0xf
  4025ca:	ff 0c 24             	decl   (%esp)
  4025cd:	8d 15 a3 25 a7 98    	lea    0x98a725a3,%edx
  4025d3:	81 ea 21 e3 64 98    	sub    $0x9864e321,%edx
  4025d9:	52                   	push   %edx
  4025da:	8d 1d 91 25 a7 98    	lea    0x98a72591,%ebx
  4025e0:	81 eb 21 e3 64 98    	sub    $0x9864e321,%ebx
  4025e6:	53                   	push   %ebx
  4025e7:	a1 78 00 42 00       	mov    0x420078,%eax
  4025ec:	ff d0                	call   *%eax
  4025ee:	83 f8 00             	cmp    $0x0,%eax
  4025f1:	0f 85 09 99 00 00    	jne    0x40bf00
  4025f7:	21 1d c5 40 42 00    	and    %ebx,0x4240c5
  4025fd:	83 15 37 40 42 00 27 	adcl   $0x27,0x424037
  402604:	83 1d b8 41 42 00 7b 	sbbl   $0x7b,0x4241b8
  40260b:	6a 0f                	push   $0xf
  40260d:	ff 0c 24             	decl   (%esp)
  402610:	8d 3d a3 25 a7 98    	lea    0x98a725a3,%edi
  402616:	81 ef 21 e3 64 98    	sub    $0x9864e321,%edi
  40261c:	57                   	push   %edi
  40261d:	8d 3d 91 25 a7 98    	lea    0x98a72591,%edi
  402623:	81 ef 21 e3 64 98    	sub    $0x9864e321,%edi
  402629:	57                   	push   %edi
  40262a:	a1 78 00 42 00       	mov    0x420078,%eax
  40262f:	ff d0                	call   *%eax
  402631:	85 c0                	test   %eax,%eax
  402633:	0f 85 c7 98 00 00    	jne    0x40bf00
  402639:	19 fb                	sbb    %edi,%ebx
  40263b:	83 f0 9d             	xor    $0xffffff9d,%eax
  40263e:	83 35 1c 40 42 00 00 	xorl   $0x0,0x42401c
  402645:	82 db 93             	sbb    $0x93,%bl
  402648:	11 df                	adc    %ebx,%edi
  40264a:	8d 0d c0 25 a7 98    	lea    0x98a725c0,%ecx
  402650:	81 e9 21 e3 64 98    	sub    $0x9864e321,%ecx
  402656:	51                   	push   %ecx
  402657:	8d 0d b1 25 a7 98    	lea    0x98a725b1,%ecx
  40265d:	81 e9 21 e3 64 98    	sub    $0x9864e321,%ecx
  402663:	51                   	push   %ecx
  402664:	a1 84 00 42 00       	mov    0x420084,%eax
  402669:	ff d0                	call   *%eax
  40266b:	6a 0f                	push   $0xf
  40266d:	ff 0c 24             	decl   (%esp)
  402670:	8d 3d a3 25 a7 98    	lea    0x98a725a3,%edi
  402676:	81 ef 21 e3 64 98    	sub    $0x9864e321,%edi
  40267c:	57                   	push   %edi
  40267d:	8d 15 91 25 a7 98    	lea    0x98a72591,%edx
  402683:	81 ea 21 e3 64 98    	sub    $0x9864e321,%edx
  402689:	52                   	push   %edx
  40268a:	a1 78 00 42 00       	mov    0x420078,%eax
  40268f:	ff d0                	call   *%eax
  402691:	83 f8 00             	cmp    $0x0,%eax
  402694:	0f 85 66 98 00 00    	jne    0x40bf00
  40269a:	83 d8 67             	sbb    $0x67,%eax
  40269d:	81 15 8e 40 42 00 f7 	adcl   $0xf7,0x42408e
  4026a4:	00 00 00 
  4026a7:	2e e9 8f 93 00 00    	cs jmp 0x40ba3c
  4026ad:	ba 01 00 00 00       	mov    $0x1,%edx
  4026b2:	13 15 22 41 42 00    	adc    0x424122,%edx
  4026b8:	c7 05 65 41 42 00 b9 	movl   $0xb9,0x424165
  4026bf:	00 00 00 
  4026c2:	01 c2                	add    %eax,%edx
  4026c4:	29 35 dc 40 42 00    	sub    %esi,0x4240dc
  4026ca:	31 3d 99 41 42 00    	xor    %edi,0x424199
  4026d0:	00 81 35 37 40 42    	add    %al,0x42403735(%ecx)
  4026d6:	00 aa 00 00 00 01    	add    %ch,0x1000000(%edx)
  4026dc:	f0 83 c0 9f          	lock add $0xffffff9f,%eax
  4026e0:	6a 0f                	push   $0xf
  4026e2:	ff 0c 24             	decl   (%esp)
  4026e5:	8d 15 a3 25 a7 98    	lea    0x98a725a3,%edx
  4026eb:	81 ea 21 e3 64 98    	sub    $0x9864e321,%edx
  4026f1:	52                   	push   %edx
  4026f2:	8d 15 91 25 a7 98    	lea    0x98a72591,%edx
  4026f8:	81 ea 21 e3 64 98    	sub    $0x9864e321,%edx
  4026fe:	52                   	push   %edx
  4026ff:	a1 78 00 42 00       	mov    0x420078,%eax
  402704:	ff d0                	call   *%eax
  402706:	85 c0                	test   %eax,%eax
  402708:	0f 85 f2 97 00 00    	jne    0x40bf00
  40270e:	83 f6 8a             	xor    $0xffffff8a,%esi
  402711:	83 ee 03             	sub    $0x3,%esi
  402714:	19 fb                	sbb    %edi,%ebx
  402716:	11 1d 64 40 42 00    	adc    %ebx,0x424064
  40271c:	81 15 3a 40 42 00 be 	adcl   $0xbe,0x42403a
  402723:	00 00 00 
  402726:	8d 35 c0 25 a7 98    	lea    0x98a725c0,%esi
  40272c:	81 ee 21 e3 64 98    	sub    $0x9864e321,%esi
  402732:	56                   	push   %esi
  402733:	8d 0d b1 25 a7 98    	lea    0x98a725b1,%ecx
  402739:	81 e9 21 e3 64 98    	sub    $0x9864e321,%ecx
  40273f:	51                   	push   %ecx
  402740:	a1 84 00 42 00       	mov    0x420084,%eax
  402745:	ff d0                	call   *%eax
  402747:	83 e6 0f             	and    $0xf,%esi
  40274a:	b9 01 00 00 00       	mov    $0x1,%ecx
  40274f:	83 c1 6b             	add    $0x6b,%ecx
  402752:	83 db b9             	sbb    $0xffffffb9,%ebx
  402755:	29 f8                	sub    %edi,%eax
  402757:	8d 3d c0 25 a7 98    	lea    0x98a725c0,%edi
  40275d:	81 ef 21 e3 64 98    	sub    $0x9864e321,%edi
  402763:	57                   	push   %edi
  402764:	8d 0d b1 25 a7 98    	lea    0x98a725b1,%ecx
  40276a:	81 e9 21 e3 64 98    	sub    $0x9864e321,%ecx
  402770:	51                   	push   %ecx
  402771:	a1 84 00 42 00       	mov    0x420084,%eax
  402776:	ff d0                	call   *%eax
  402778:	2b 35 32 41 42 00    	sub    0x424132,%esi
  40277e:	83 15 8c 41 42 00 7c 	adcl   $0x7c,0x42418c
  402785:	6a 0f                	push   $0xf
  402787:	ff 0c 24             	decl   (%esp)
  40278a:	8d 05 a3 25 a7 98    	lea    0x98a725a3,%eax
  402790:	2d 21 e3 64 98       	sub    $0x9864e321,%eax
  402795:	50                   	push   %eax
  402796:	8d 0d 91 25 a7 98    	lea    0x98a72591,%ecx
  40279c:	81 e9 21 e3 64 98    	sub    $0x9864e321,%ecx
  4027a2:	51                   	push   %ecx
  4027a3:	a1 78 00 42 00       	mov    0x420078,%eax
  4027a8:	ff d0                	call   *%eax
  4027aa:	83 f8 00             	cmp    $0x0,%eax
  4027ad:	0f 85 4d 97 00 00    	jne    0x40bf00
  4027b3:	8d 35 c0 25 a7 98    	lea    0x98a725c0,%esi
  4027b9:	81 ee 21 e3 64 98    	sub    $0x9864e321,%esi
  4027bf:	56                   	push   %esi
  4027c0:	8d 0d b1 25 a7 98    	lea    0x98a725b1,%ecx
  4027c6:	81 e9 21 e3 64 98    	sub    $0x9864e321,%ecx
  4027cc:	51                   	push   %ecx
  4027cd:	a1 84 00 42 00       	mov    0x420084,%eax
  4027d2:	ff d0                	call   *%eax
  4027d4:	31 05 5c 41 42 00    	xor    %eax,0x42415c
  4027da:	09 05 89 41 42 00    	or     %eax,0x424189
  4027e0:	8d 05 c0 25 a7 98    	lea    0x98a725c0,%eax
  4027e6:	2d 21 e3 64 98       	sub    $0x9864e321,%eax
  4027eb:	50                   	push   %eax
  4027ec:	8d 1d b1 25 a7 98    	lea    0x98a725b1,%ebx
  4027f2:	81 eb 21 e3 64 98    	sub    $0x9864e321,%ebx
  4027f8:	53                   	push   %ebx
  4027f9:	a1 84 00 42 00       	mov    0x420084,%eax
  4027fe:	ff d0                	call   *%eax
  402800:	29 c7                	sub    %eax,%edi
  402802:	ba 01 00 00 00       	mov    $0x1,%edx
  402807:	01 da                	add    %ebx,%edx
  402809:	0b 1d ff 41 42 00    	or     0x4241ff,%ebx
  40280f:	29 05 a3 40 42 00    	sub    %eax,0x4240a3
  402815:	6a 0f                	push   $0xf
  402817:	ff 0c 24             	decl   (%esp)
  40281a:	8d 15 a3 25 a7 98    	lea    0x98a725a3,%edx
  402820:	81 ea 21 e3 64 98    	sub    $0x9864e321,%edx
  402826:	52                   	push   %edx
  402827:	8d 15 91 25 a7 98    	lea    0x98a72591,%edx
  40282d:	81 ea 21 e3 64 98    	sub    $0x9864e321,%edx
  402833:	52                   	push   %edx
  402834:	a1 78 00 42 00       	mov    0x420078,%eax
  402839:	ff d0                	call   *%eax
  40283b:	83 f8 00             	cmp    $0x0,%eax
  40283e:	0f 85 bc 96 00 00    	jne    0x40bf00
  402844:	6a 0f                	push   $0xf
  402846:	ff 0c 24             	decl   (%esp)
  402849:	8d 15 a3 25 a7 98    	lea    0x98a725a3,%edx
  40284f:	81 ea 21 e3 64 98    	sub    $0x9864e321,%edx
  402855:	52                   	push   %edx
  402856:	8d 35 91 25 a7 98    	lea    0x98a72591,%esi
  40285c:	81 ee 21 e3 64 98    	sub    $0x9864e321,%esi
  402862:	56                   	push   %esi
  402863:	a1 78 00 42 00       	mov    0x420078,%eax
  402868:	ff d0                	call   *%eax
  40286a:	85 c0                	test   %eax,%eax
  40286c:	0f 85 8e 96 00 00    	jne    0x40bf00
  402872:	8d 05 c0 25 a7 98    	lea    0x98a725c0,%eax
  402878:	2d 21 e3 64 98       	sub    $0x9864e321,%eax
  40287d:	50                   	push   %eax
  40287e:	8d 0d b1 25 a7 98    	lea    0x98a725b1,%ecx
  402884:	81 e9 21 e3 64 98    	sub    $0x9864e321,%ecx
  40288a:	51                   	push   %ecx
  40288b:	a1 84 00 42 00       	mov    0x420084,%eax
  402890:	ff d0                	call   *%eax
  402892:	28 ff                	sub    %bh,%bh
  402894:	11 ff                	adc    %edi,%edi
  402896:	8d 0d c0 25 a7 98    	lea    0x98a725c0,%ecx
  40289c:	81 e9 21 e3 64 98    	sub    $0x9864e321,%ecx
  4028a2:	51                   	push   %ecx
  4028a3:	8d 15 b1 25 a7 98    	lea    0x98a725b1,%edx
  4028a9:	81 ea 21 e3 64 98    	sub    $0x9864e321,%edx
  4028af:	52                   	push   %edx
  4028b0:	a1 84 00 42 00       	mov    0x420084,%eax
  4028b5:	ff d0                	call   *%eax
  4028b7:	19 f8                	sbb    %edi,%eax
  4028b9:	81 15 21 40 42 00 e5 	adcl   $0xe5,0x424021
  4028c0:	00 00 00 
  4028c3:	83 d7 ad             	adc    $0xffffffad,%edi
  4028c6:	13 05 09 41 42 00    	adc    0x424109,%eax
  4028cc:	b9 01 00 00 00       	mov    $0x1,%ecx
  4028d1:	01 f9                	add    %edi,%ecx
  4028d3:	8d 1d c0 25 a7 98    	lea    0x98a725c0,%ebx
  4028d9:	81 eb 21 e3 64 98    	sub    $0x9864e321,%ebx
  4028df:	53                   	push   %ebx
  4028e0:	8d 35 b1 25 a7 98    	lea    0x98a725b1,%esi
  4028e6:	81 ee 21 e3 64 98    	sub    $0x9864e321,%esi
  4028ec:	56                   	push   %esi
  4028ed:	a1 84 00 42 00       	mov    0x420084,%eax
  4028f2:	ff d0                	call   *%eax
  4028f4:	30 1d 7a 41 42 00    	xor    %bl,0x42417a
  4028fa:	08 3d 03 41 42 00    	or     %bh,0x424103
  402900:	01 05 51 40 42 00    	add    %eax,0x424051
  402906:	2e e9 30 91 00 00    	cs jmp 0x40ba3c
	...
  402918:	83 25 84 41 42 00 46 	andl   $0x46,0x424184
  40291f:	c7 05 79 40 42 00 7c 	movl   $0x7c,0x424079
  402926:	00 00 00 
  402929:	8d 35 c0 25 a7 98    	lea    0x98a725c0,%esi
  40292f:	81 ee 21 e3 64 98    	sub    $0x9864e321,%esi
  402935:	56                   	push   %esi
  402936:	8d 05 b1 25 a7 98    	lea    0x98a725b1,%eax
  40293c:	2d 21 e3 64 98       	sub    $0x9864e321,%eax
  402941:	50                   	push   %eax
  402942:	a1 84 00 42 00       	mov    0x420084,%eax
  402947:	ff d0                	call   *%eax
  402949:	ba 01 00 00 00       	mov    $0x1,%edx
  40294e:	13 15 d1 40 42 00    	adc    0x4240d1,%edx
  402954:	01 3d 62 40 42 00    	add    %edi,0x424062
  40295a:	01 35 d1 40 42 00    	add    %esi,0x4240d1
  402960:	8d 35 c0 25 a7 98    	lea    0x98a725c0,%esi
  402966:	81 ee 21 e3 64 98    	sub    $0x9864e321,%esi
  40296c:	56                   	push   %esi
  40296d:	8d 05 b1 25 a7 98    	lea    0x98a725b1,%eax
  402973:	2d 21 e3 64 98       	sub    $0x9864e321,%eax
  402978:	50                   	push   %eax
  402979:	a1 84 00 42 00       	mov    0x420084,%eax
  40297e:	ff d0                	call   *%eax
  402980:	19 05 8a 40 42 00    	sbb    %eax,0x42408a
  402986:	83 c7 d3             	add    $0xffffffd3,%edi
  402989:	b9 01 00 00 00       	mov    $0x1,%ecx
  40298e:	13 0d 3c 40 42 00    	adc    0x42403c,%ecx
  402994:	6a 0f                	push   $0xf
  402996:	ff 0c 24             	decl   (%esp)
  402999:	8d 1d a3 25 a7 98    	lea    0x98a725a3,%ebx
  40299f:	81 eb 21 e3 64 98    	sub    $0x9864e321,%ebx
  4029a5:	53                   	push   %ebx
  4029a6:	8d 1d 91 25 a7 98    	lea    0x98a72591,%ebx
  4029ac:	81 eb 21 e3 64 98    	sub    $0x9864e321,%ebx
  4029b2:	53                   	push   %ebx
  4029b3:	a1 78 00 42 00       	mov    0x420078,%eax
  4029b8:	ff d0                	call   *%eax
  4029ba:	83 f8 00             	cmp    $0x0,%eax
  4029bd:	0f 85 3d 95 00 00    	jne    0x40bf00
  4029c3:	81 35 2a 41 42 00 a7 	xorl   $0xa7,0x42412a
  4029ca:	00 00 00 
  4029cd:	83 f0 a7             	xor    $0xffffffa7,%eax
  4029d0:	13 35 0e 41 42 00    	adc    0x42410e,%esi
  4029d6:	8d 05 c0 25 a7 98    	lea    0x98a725c0,%eax
  4029dc:	2d 21 e3 64 98       	sub    $0x9864e321,%eax
  4029e1:	50                   	push   %eax
  4029e2:	8d 1d b1 25 a7 98    	lea    0x98a725b1,%ebx
  4029e8:	81 eb 21 e3 64 98    	sub    $0x9864e321,%ebx
  4029ee:	53                   	push   %ebx
  4029ef:	a1 84 00 42 00       	mov    0x420084,%eax
  4029f4:	ff d0                	call   *%eax
  4029f6:	83 15 3f 40 42 00 0c 	adcl   $0xc,0x42403f
  4029fd:	ba 01 00 00 00       	mov    $0x1,%edx
  402a02:	01 c2                	add    %eax,%edx
  402a04:	81 1d 18 41 42 00 c8 	sbbl   $0xc8,0x424118
  402a0b:	00 00 00 
  402a0e:	11 05 65 41 42 00    	adc    %eax,0x424165
  402a14:	6a 0f                	push   $0xf
  402a16:	ff 0c 24             	decl   (%esp)
  402a19:	8d 05 a3 25 a7 98    	lea    0x98a725a3,%eax
  402a1f:	2d 21 e3 64 98       	sub    $0x9864e321,%eax
  402a24:	50                   	push   %eax
  402a25:	8d 1d 91 25 a7 98    	lea    0x98a72591,%ebx
  402a2b:	81 eb 21 e3 64 98    	sub    $0x9864e321,%ebx
  402a31:	53                   	push   %ebx
  402a32:	a1 78 00 42 00       	mov    0x420078,%eax
  402a37:	ff d0                	call   *%eax
  402a39:	83 f8 00             	cmp    $0x0,%eax
  402a3c:	0f 85 be 94 00 00    	jne    0x40bf00
  402a42:	b9 01 00 00 00       	mov    $0x1,%ecx
  402a47:	83 c1 77             	add    $0x77,%ecx
  402a4a:	83 c6 64             	add    $0x64,%esi
  402a4d:	83 1d f2 41 42 00 14 	sbbl   $0x14,0x4241f2
  402a54:	6a 0f                	push   $0xf
  402a56:	ff 0c 24             	decl   (%esp)
  402a59:	8d 35 a3 25 a7 98    	lea    0x98a725a3,%esi
  402a5f:	81 ee 21 e3 64 98    	sub    $0x9864e321,%esi
  402a65:	56                   	push   %esi
  402a66:	8d 0d 91 25 a7 98    	lea    0x98a72591,%ecx
  402a6c:	81 e9 21 e3 64 98    	sub    $0x9864e321,%ecx
  402a72:	51                   	push   %ecx
  402a73:	a1 78 00 42 00       	mov    0x420078,%eax
  402a78:	ff d0                	call   *%eax
  402a7a:	83 f8 00             	cmp    $0x0,%eax
  402a7d:	0f 85 7d 94 00 00    	jne    0x40bf00
  402a83:	b9 01 00 00 00       	mov    $0x1,%ecx
  402a88:	01 d9                	add    %ebx,%ecx
  402a8a:	2b 3d b5 40 42 00    	sub    0x4240b5,%edi
  402a90:	01 35 02 41 42 00    	add    %esi,0x424102
  402a96:	83 d3 32             	adc    $0x32,%ebx
  402a99:	6a 0f                	push   $0xf
  402a9b:	ff 0c 24             	decl   (%esp)
  402a9e:	8d 05 a3 25 a7 98    	lea    0x98a725a3,%eax
  402aa4:	2d 21 e3 64 98       	sub    $0x9864e321,%eax
  402aa9:	50                   	push   %eax
  402aaa:	8d 3d 91 25 a7 98    	lea    0x98a72591,%edi
  402ab0:	81 ef 21 e3 64 98    	sub    $0x9864e321,%edi
  402ab6:	57                   	push   %edi
  402ab7:	a1 78 00 42 00       	mov    0x420078,%eax
  402abc:	ff d0                	call   *%eax
  402abe:	85 c0                	test   %eax,%eax
  402ac0:	0f 85 3a 94 00 00    	jne    0x40bf00
  402ac6:	04 8c                	add    $0x8c,%al
  402ac8:	b2 01                	mov    $0x1,%dl
  402aca:	00 c2                	add    %al,%dl
  402acc:	6a 0f                	push   $0xf
  402ace:	ff 0c 24             	decl   (%esp)
  402ad1:	8d 0d a3 25 a7 98    	lea    0x98a725a3,%ecx
  402ad7:	81 e9 21 e3 64 98    	sub    $0x9864e321,%ecx
  402add:	51                   	push   %ecx
  402ade:	8d 0d 91 25 a7 98    	lea    0x98a72591,%ecx
  402ae4:	81 e9 21 e3 64 98    	sub    $0x9864e321,%ecx
  402aea:	51                   	push   %ecx
  402aeb:	a1 78 00 42 00       	mov    0x420078,%eax
  402af0:	ff d0                	call   *%eax
  402af2:	83 f8 00             	cmp    $0x0,%eax
  402af5:	0f 85 05 94 00 00    	jne    0x40bf00
  402afb:	21 1d 30 40 42 00    	and    %ebx,0x424030
  402b01:	82 2d 20 41 42 00 da 	subb   $0xda,0x424120
  402b08:	6a 0f                	push   $0xf
  402b0a:	ff 0c 24             	decl   (%esp)
  402b0d:	8d 05 a3 25 a7 98    	lea    0x98a725a3,%eax
  402b13:	2d 21 e3 64 98       	sub    $0x9864e321,%eax
  402b18:	50                   	push   %eax
  402b19:	8d 35 91 25 a7 98    	lea    0x98a72591,%esi
  402b1f:	81 ee 21 e3 64 98    	sub    $0x9864e321,%esi
  402b25:	56                   	push   %esi
  402b26:	a1 78 00 42 00       	mov    0x420078,%eax
  402b2b:	ff d0                	call   *%eax
  402b2d:	85 c0                	test   %eax,%eax
  402b2f:	0f 85 cb 93 00 00    	jne    0x40bf00
  402b35:	31 3d 93 41 42 00    	xor    %edi,0x424193
  402b3b:	12 1d 59 41 42 00    	adc    0x424159,%bl
  402b41:	6a 0f                	push   $0xf
  402b43:	ff 0c 24             	decl   (%esp)
  402b46:	8d 1d a3 25 a7 98    	lea    0x98a725a3,%ebx
  402b4c:	81 eb 21 e3 64 98    	sub    $0x9864e321,%ebx
  402b52:	53                   	push   %ebx
  402b53:	8d 35 91 25 a7 98    	lea    0x98a72591,%esi
  402b59:	81 ee 21 e3 64 98    	sub    $0x9864e321,%esi
  402b5f:	56                   	push   %esi
  402b60:	a1 78 00 42 00       	mov    0x420078,%eax
  402b65:	ff d0                	call   *%eax
  402b67:	83 f8 00             	cmp    $0x0,%eax
  402b6a:	0f 85 90 93 00 00    	jne    0x40bf00
  402b70:	c7 05 32 40 42 00 f2 	movl   $0xf2,0x424032
  402b77:	00 00 00 
  402b7a:	31 3d d1 41 42 00    	xor    %edi,0x4241d1
  402b80:	8d 35 c0 25 a7 98    	lea    0x98a725c0,%esi
  402b86:	81 ee 21 e3 64 98    	sub    $0x9864e321,%esi
  402b8c:	56                   	push   %esi
  402b8d:	8d 05 b1 25 a7 98    	lea    0x98a725b1,%eax
  402b93:	2d 21 e3 64 98       	sub    $0x9864e321,%eax
  402b98:	50                   	push   %eax
  402b99:	a1 84 00 42 00       	mov    0x420084,%eax
  402b9e:	ff d0                	call   *%eax
  402ba0:	19 3d ef 40 42 00    	sbb    %edi,0x4240ef
  402ba6:	b9 01 00 00 00       	mov    $0x1,%ecx
  402bab:	13 0d 4f 40 42 00    	adc    0x42404f,%ecx
  402bb1:	ba 01 00 00 00       	mov    $0x1,%edx
  402bb6:	83 c2 7b             	add    $0x7b,%edx
  402bb9:	2e e9 7d 8e 00 00    	cs jmp 0x40ba3c
  402bbf:	11 f0                	adc    %esi,%eax
  402bc1:	83 d8 e6             	sbb    $0xffffffe6,%eax
  402bc4:	11 fa                	adc    %edi,%edx
  402bc6:	11 35 be 41 42 00    	adc    %esi,0x4241be
  402bcc:	00 00                	add    %al,(%eax)
  402bce:	00 00                	add    %al,(%eax)
  402bd0:	00 01                	add    %al,(%ecx)
  402bd2:	05 9c 41 42 00       	add    $0x42419c,%eax
  402bd7:	29 3d cd 40 42 00    	sub    %edi,0x4240cd
  402bdd:	2b 1d fd 41 42 00    	sub    0x4241fd,%ebx
  402be3:	83 d3 5d             	adc    $0x5d,%ebx
  402be6:	83 35 fb 40 42 00 6d 	xorl   $0x6d,0x4240fb
  402bed:	6a 0f                	push   $0xf
  402bef:	ff 0c 24             	decl   (%esp)
  402bf2:	8d 1d a3 25 a7 98    	lea    0x98a725a3,%ebx
  402bf8:	81 eb 21 e3 64 98    	sub    $0x9864e321,%ebx
  402bfe:	53                   	push   %ebx
  402bff:	8d 35 91 25 a7 98    	lea    0x98a72591,%esi
  402c05:	81 ee 21 e3 64 98    	sub    $0x9864e321,%esi
  402c0b:	56                   	push   %esi
  402c0c:	a1 78 00 42 00       	mov    0x420078,%eax
  402c11:	ff d0                	call   *%eax
  402c13:	83 f8 00             	cmp    $0x0,%eax
  402c16:	0f 85 e4 92 00 00    	jne    0x40bf00
  402c1c:	ba 01 00 00 00       	mov    $0x1,%edx
  402c21:	83 c2 45             	add    $0x45,%edx
  402c24:	0b 35 40 41 42 00    	or     0x424140,%esi
  402c2a:	83 15 ee 41 42 00 42 	adcl   $0x42,0x4241ee
  402c31:	11 1d 89 40 42 00    	adc    %ebx,0x424089
  402c37:	83 c6 b8             	add    $0xffffffb8,%esi
  402c3a:	6a 0f                	push   $0xf
  402c3c:	ff 0c 24             	decl   (%esp)
  402c3f:	8d 15 a3 25 a7 98    	lea    0x98a725a3,%edx
  402c45:	81 ea 21 e3 64 98    	sub    $0x9864e321,%edx
  402c4b:	52                   	push   %edx
  402c4c:	8d 15 91 25 a7 98    	lea    0x98a72591,%edx
  402c52:	81 ea 21 e3 64 98    	sub    $0x9864e321,%edx
  402c58:	52                   	push   %edx
  402c59:	a1 78 00 42 00       	mov    0x420078,%eax
  402c5e:	ff d0                	call   *%eax
  402c60:	85 c0                	test   %eax,%eax
  402c62:	0f 85 98 92 00 00    	jne    0x40bf00
  402c68:	b9 01 00 00 00       	mov    $0x1,%ecx
  402c6d:	01 d9                	add    %ebx,%ecx
  402c6f:	31 3d 7b 40 42 00    	xor    %edi,0x42407b
  402c75:	ba 01 00 00 00       	mov    $0x1,%edx
  402c7a:	83 c2 62             	add    $0x62,%edx
  402c7d:	8d 35 c0 25 a7 98    	lea    0x98a725c0,%esi
  402c83:	81 ee 21 e3 64 98    	sub    $0x9864e321,%esi
  402c89:	56                   	push   %esi
  402c8a:	8d 05 b1 25 a7 98    	lea    0x98a725b1,%eax
  402c90:	2d 21 e3 64 98       	sub    $0x9864e321,%eax
  402c95:	50                   	push   %eax
  402c96:	a1 84 00 42 00       	mov    0x420084,%eax
  402c9b:	ff d0                	call   *%eax
  402c9d:	29 c3                	sub    %eax,%ebx
  402c9f:	11 05 c8 41 42 00    	adc    %eax,0x4241c8
  402ca5:	0b 35 fd 40 42 00    	or     0x4240fd,%esi
  402cab:	13 1d 5f 40 42 00    	adc    0x42405f,%ebx
  402cb1:	83 d0 3d             	adc    $0x3d,%eax
  402cb4:	6a 0f                	push   $0xf
  402cb6:	ff 0c 24             	decl   (%esp)
  402cb9:	8d 35 a3 25 a7 98    	lea    0x98a725a3,%esi
  402cbf:	81 ee 21 e3 64 98    	sub    $0x9864e321,%esi
  402cc5:	56                   	push   %esi
  402cc6:	8d 1d 91 25 a7 98    	lea    0x98a72591,%ebx
  402ccc:	81 eb 21 e3 64 98    	sub    $0x9864e321,%ebx
  402cd2:	53                   	push   %ebx
  402cd3:	a1 78 00 42 00       	mov    0x420078,%eax
  402cd8:	ff d0                	call   *%eax
  402cda:	85 c0                	test   %eax,%eax
  402cdc:	0f 85 1e 92 00 00    	jne    0x40bf00
  402ce2:	83 15 f8 40 42 00 6a 	adcl   $0x6a,0x4240f8
  402ce9:	b5 01                	mov    $0x1,%ch
  402ceb:	00 fd                	add    %bh,%ch
  402ced:	81 0d 85 40 42 00 f5 	orl    $0xf5,0x424085
  402cf4:	00 00 00 
  402cf7:	6a 0f                	push   $0xf
  402cf9:	ff 0c 24             	decl   (%esp)
  402cfc:	8d 15 a3 25 a7 98    	lea    0x98a725a3,%edx
  402d02:	81 ea 21 e3 64 98    	sub    $0x9864e321,%edx
  402d08:	52                   	push   %edx
  402d09:	8d 05 91 25 a7 98    	lea    0x98a72591,%eax
  402d0f:	2d 21 e3 64 98       	sub    $0x9864e321,%eax
  402d14:	50                   	push   %eax
  402d15:	a1 78 00 42 00       	mov    0x420078,%eax
  402d1a:	ff d0                	call   *%eax
  402d1c:	85 c0                	test   %eax,%eax
  402d1e:	0f 85 dc 91 00 00    	jne    0x40bf00
  402d24:	ba 01 00 00 00       	mov    $0x1,%edx
  402d29:	01 da                	add    %ebx,%edx
  402d2b:	b9 01 00 00 00       	mov    $0x1,%ecx
  402d30:	01 f1                	add    %esi,%ecx
  402d32:	81 25 a4 41 42 00 db 	andl   $0xdb,0x4241a4
  402d39:	00 00 00 
  402d3c:	83 cb 44             	or     $0x44,%ebx
  402d3f:	82 2d db 41 42 00 06 	subb   $0x6,0x4241db
  402d46:	6a 0f                	push   $0xf
  402d48:	ff 0c 24             	decl   (%esp)
  402d4b:	8d 0d a3 25 a7 98    	lea    0x98a725a3,%ecx
  402d51:	81 e9 21 e3 64 98    	sub    $0x9864e321,%ecx
  402d57:	51                   	push   %ecx
  402d58:	8d 15 91 25 a7 98    	lea    0x98a72591,%edx
  402d5e:	81 ea 21 e3 64 98    	sub    $0x9864e321,%edx
  402d64:	52                   	push   %edx
  402d65:	a1 78 00 42 00       	mov    0x420078,%eax
  402d6a:	ff d0                	call   *%eax
  402d6c:	85 c0                	test   %eax,%eax
  402d6e:	0f 85 8c 91 00 00    	jne    0x40bf00
  402d74:	8d 05 c0 25 a7 98    	lea    0x98a725c0,%eax
  402d7a:	2d 21 e3 64 98       	sub    $0x9864e321,%eax
  402d7f:	50                   	push   %eax
  402d80:	8d 1d b1 25 a7 98    	lea    0x98a725b1,%ebx
  402d86:	81 eb 21 e3 64 98    	sub    $0x9864e321,%ebx
  402d8c:	53                   	push   %ebx
  402d8d:	a1 84 00 42 00       	mov    0x420084,%eax
  402d92:	ff d0                	call   *%eax
  402d94:	83 15 f8 41 42 00 50 	adcl   $0x50,0x4241f8
  402d9b:	ba 01 00 00 00       	mov    $0x1,%edx
  402da0:	13 15 63 41 42 00    	adc    0x424163,%edx
  402da6:	6a 0f                	push   $0xf
  402da8:	ff 0c 24             	decl   (%esp)
  402dab:	8d 0d a3 25 a7 98    	lea    0x98a725a3,%ecx
  402db1:	81 e9 21 e3 64 98    	sub    $0x9864e321,%ecx
  402db7:	51                   	push   %ecx
  402db8:	8d 3d 91 25 a7 98    	lea    0x98a72591,%edi
  402dbe:	81 ef 21 e3 64 98    	sub    $0x9864e321,%edi
  402dc4:	57                   	push   %edi
  402dc5:	a1 78 00 42 00       	mov    0x420078,%eax
  402dca:	ff d0                	call   *%eax
  402dcc:	83 f8 00             	cmp    $0x0,%eax
  402dcf:	0f 85 2b 91 00 00    	jne    0x40bf00
  402dd5:	b9 01 00 00 00       	mov    $0x1,%ecx
  402dda:	01 c1                	add    %eax,%ecx
  402ddc:	13 3d 13 41 42 00    	adc    0x424113,%edi
  402de2:	83 c8 52             	or     $0x52,%eax
  402de5:	ba 01 00 00 00       	mov    $0x1,%edx
  402dea:	01 da                	add    %ebx,%edx
  402dec:	6a 0f                	push   $0xf
  402dee:	ff 0c 24             	decl   (%esp)
  402df1:	8d 0d a3 25 a7 98    	lea    0x98a725a3,%ecx
  402df7:	81 e9 21 e3 64 98    	sub    $0x9864e321,%ecx
  402dfd:	51                   	push   %ecx
  402dfe:	8d 35 91 25 a7 98    	lea    0x98a72591,%esi
  402e04:	81 ee 21 e3 64 98    	sub    $0x9864e321,%esi
  402e0a:	56                   	push   %esi
  402e0b:	a1 78 00 42 00       	mov    0x420078,%eax
  402e10:	ff d0                	call   *%eax
  402e12:	85 c0                	test   %eax,%eax
  402e14:	0f 85 e6 90 00 00    	jne    0x40bf00
  402e1a:	83 0d f1 40 42 00 49 	orl    $0x49,0x4240f1
  402e21:	01 3d bf 41 42 00    	add    %edi,0x4241bf
  402e27:	8d 3d c0 25 a7 98    	lea    0x98a725c0,%edi
  402e2d:	81 ef 21 e3 64 98    	sub    $0x9864e321,%edi
  402e33:	57                   	push   %edi
  402e34:	8d 15 b1 25 a7 98    	lea    0x98a725b1,%edx
  402e3a:	81 ea 21 e3 64 98    	sub    $0x9864e321,%edx
  402e40:	52                   	push   %edx
  402e41:	a1 84 00 42 00       	mov    0x420084,%eax
  402e46:	ff d0                	call   *%eax
  402e48:	01 f3                	add    %esi,%ebx
  402e4a:	6a 0f                	push   $0xf
  402e4c:	ff 0c 24             	decl   (%esp)
  402e4f:	8d 35 a3 25 a7 98    	lea    0x98a725a3,%esi
  402e55:	81 ee 21 e3 64 98    	sub    $0x9864e321,%esi
  402e5b:	56                   	push   %esi
  402e5c:	8d 05 91 25 a7 98    	lea    0x98a72591,%eax
  402e62:	2d 21 e3 64 98       	sub    $0x9864e321,%eax
  402e67:	50                   	push   %eax
  402e68:	a1 78 00 42 00       	mov    0x420078,%eax
  402e6d:	ff d0                	call   *%eax
  402e6f:	83 f8 00             	cmp    $0x0,%eax
  402e72:	0f 85 88 90 00 00    	jne    0x40bf00
  402e78:	2e e9 be 8b 00 00    	cs jmp 0x40ba3c
  402e7e:	13 35 3e 41 42 00    	adc    0x42413e,%esi
  402e84:	31 1d b3 41 42 00    	xor    %ebx,0x4241b3
  402e8a:	13 1d 55 41 42 00    	adc    0x424155,%ebx
  402e90:	81 1d 91 40 42 00 c1 	sbbl   $0xc1,0x424091
  402e97:	00 00 00 
  402e9a:	81 15 32 40 42 00 ae 	adcl   $0xae,0x424032
  402ea1:	00 00 00 
  402ea4:	00 00                	add    %al,(%eax)
  402ea6:	00 00                	add    %al,(%eax)
  402ea8:	ba 01 00 00 00       	mov    $0x1,%edx
  402ead:	01 c2                	add    %eax,%edx
  402eaf:	0b 05 10 40 42 00    	or     0x424010,%eax
  402eb5:	8d 05 c0 25 a7 98    	lea    0x98a725c0,%eax
  402ebb:	2d 21 e3 64 98       	sub    $0x9864e321,%eax
  402ec0:	50                   	push   %eax
  402ec1:	8d 0d b1 25 a7 98    	lea    0x98a725b1,%ecx
  402ec7:	81 e9 21 e3 64 98    	sub    $0x9864e321,%ecx
  402ecd:	51                   	push   %ecx
  402ece:	a1 84 00 42 00       	mov    0x420084,%eax
  402ed3:	ff d0                	call   *%eax
  402ed5:	ba 01 00 00 00       	mov    $0x1,%edx
  402eda:	83 c2 94             	add    $0xffffff94,%edx
  402edd:	29 05 40 41 42 00    	sub    %eax,0x424140
  402ee3:	19 da                	sbb    %ebx,%edx
  402ee5:	83 da 20             	sbb    $0x20,%edx
  402ee8:	8d 15 c0 25 a7 98    	lea    0x98a725c0,%edx
  402eee:	81 ea 21 e3 64 98    	sub    $0x9864e321,%edx
  402ef4:	52                   	push   %edx
  402ef5:	8d 3d b1 25 a7 98    	lea    0x98a725b1,%edi
  402efb:	81 ef 21 e3 64 98    	sub    $0x9864e321,%edi
  402f01:	57                   	push   %edi
  402f02:	a1 84 00 42 00       	mov    0x420084,%eax
  402f07:	ff d0                	call   *%eax
  402f09:	01 3d c7 40 42 00    	add    %edi,0x4240c7
  402f0f:	83 0d a9 40 42 00 47 	orl    $0x47,0x4240a9
  402f16:	09 35 71 41 42 00    	or     %esi,0x424171
  402f1c:	83 35 3c 41 42 00 0d 	xorl   $0xd,0x42413c
  402f23:	6a 0f                	push   $0xf
  402f25:	ff 0c 24             	decl   (%esp)
  402f28:	8d 0d a3 25 a7 98    	lea    0x98a725a3,%ecx
  402f2e:	81 e9 21 e3 64 98    	sub    $0x9864e321,%ecx
  402f34:	51                   	push   %ecx
  402f35:	8d 05 91 25 a7 98    	lea    0x98a72591,%eax
  402f3b:	2d 21 e3 64 98       	sub    $0x9864e321,%eax
  402f40:	50                   	push   %eax
  402f41:	a1 78 00 42 00       	mov    0x420078,%eax
  402f46:	ff d0                	call   *%eax
  402f48:	83 f8 00             	cmp    $0x0,%eax
  402f4b:	0f 85 af 8f 00 00    	jne    0x40bf00
  402f51:	31 1d a6 41 42 00    	xor    %ebx,0x4241a6
  402f57:	6a 0f                	push   $0xf
  402f59:	ff 0c 24             	decl   (%esp)
  402f5c:	8d 15 a3 25 a7 98    	lea    0x98a725a3,%edx
  402f62:	81 ea 21 e3 64 98    	sub    $0x9864e321,%edx
  402f68:	52                   	push   %edx
  402f69:	8d 35 91 25 a7 98    	lea    0x98a72591,%esi
  402f6f:	81 ee 21 e3 64 98    	sub    $0x9864e321,%esi
  402f75:	56                   	push   %esi
  402f76:	a1 78 00 42 00       	mov    0x420078,%eax
  402f7b:	ff d0                	call   *%eax
  402f7d:	85 c0                	test   %eax,%eax
  402f7f:	0f 85 7b 8f 00 00    	jne    0x40bf00
  402f85:	83 c6 6b             	add    $0x6b,%esi
  402f88:	01 3d b8 40 42 00    	add    %edi,0x4240b8
  402f8e:	12 25 1d 40 42 00    	adc    0x42401d,%ah
  402f94:	6a 0f                	push   $0xf
  402f96:	ff 0c 24             	decl   (%esp)
  402f99:	8d 3d a3 25 a7 98    	lea    0x98a725a3,%edi
  402f9f:	81 ef 21 e3 64 98    	sub    $0x9864e321,%edi
  402fa5:	57                   	push   %edi
  402fa6:	8d 35 91 25 a7 98    	lea    0x98a72591,%esi
  402fac:	81 ee 21 e3 64 98    	sub    $0x9864e321,%esi
  402fb2:	56                   	push   %esi
  402fb3:	a1 78 00 42 00       	mov    0x420078,%eax
  402fb8:	ff d0                	call   *%eax
  402fba:	83 f8 00             	cmp    $0x0,%eax
  402fbd:	0f 85 3d 8f 00 00    	jne    0x40bf00
  402fc3:	6a 0f                	push   $0xf
  402fc5:	ff 0c 24             	decl   (%esp)
  402fc8:	8d 1d a3 25 a7 98    	lea    0x98a725a3,%ebx
  402fce:	81 eb 21 e3 64 98    	sub    $0x9864e321,%ebx
  402fd4:	53                   	push   %ebx
  402fd5:	8d 0d 91 25 a7 98    	lea    0x98a72591,%ecx
  402fdb:	81 e9 21 e3 64 98    	sub    $0x9864e321,%ecx
  402fe1:	51                   	push   %ecx
  402fe2:	a1 78 00 42 00       	mov    0x420078,%eax
  402fe7:	ff d0                	call   *%eax
  402fe9:	85 c0                	test   %eax,%eax
  402feb:	0f 85 0f 8f 00 00    	jne    0x40bf00
  402ff1:	01 d8                	add    %ebx,%eax
  402ff3:	b9 01 00 00 00       	mov    $0x1,%ecx
  402ff8:	13 0d 17 41 42 00    	adc    0x424117,%ecx
  402ffe:	13 0d bc 41 42 00    	adc    0x4241bc,%ecx
  403004:	01 db                	add    %ebx,%ebx
  403006:	6a 0f                	push   $0xf
  403008:	ff 0c 24             	decl   (%esp)
  40300b:	8d 1d a3 25 a7 98    	lea    0x98a725a3,%ebx
  403011:	81 eb 21 e3 64 98    	sub    $0x9864e321,%ebx
  403017:	53                   	push   %ebx
  403018:	8d 05 91 25 a7 98    	lea    0x98a72591,%eax
  40301e:	2d 21 e3 64 98       	sub    $0x9864e321,%eax
  403023:	50                   	push   %eax
  403024:	a1 78 00 42 00       	mov    0x420078,%eax
  403029:	ff d0                	call   *%eax
  40302b:	83 f8 00             	cmp    $0x0,%eax
  40302e:	0f 85 cc 8e 00 00    	jne    0x40bf00
  403034:	8d 1d c0 25 a7 98    	lea    0x98a725c0,%ebx
  40303a:	81 eb 21 e3 64 98    	sub    $0x9864e321,%ebx
  403040:	53                   	push   %ebx
  403041:	8d 15 b1 25 a7 98    	lea    0x98a725b1,%edx
  403047:	81 ea 21 e3 64 98    	sub    $0x9864e321,%edx
  40304d:	52                   	push   %edx
  40304e:	a1 84 00 42 00       	mov    0x420084,%eax
  403053:	ff d0                	call   *%eax
  403055:	09 05 a6 40 42 00    	or     %eax,0x4240a6
  40305b:	c7 05 28 41 42 00 66 	movl   $0x66,0x424128
  403062:	00 00 00 
  403065:	2a 25 cf 41 42 00    	sub    0x4241cf,%ah
  40306b:	8d 3d c0 25 a7 98    	lea    0x98a725c0,%edi
  403071:	81 ef 21 e3 64 98    	sub    $0x9864e321,%edi
  403077:	57                   	push   %edi
  403078:	8d 15 b1 25 a7 98    	lea    0x98a725b1,%edx
  40307e:	81 ea 21 e3 64 98    	sub    $0x9864e321,%edx
  403084:	52                   	push   %edx
  403085:	a1 84 00 42 00       	mov    0x420084,%eax
  40308a:	ff d0                	call   *%eax
  40308c:	29 fb                	sub    %edi,%ebx
  40308e:	ba 01 00 00 00       	mov    $0x1,%edx
  403093:	13 15 5c 40 42 00    	adc    0x42405c,%edx
  403099:	83 f0 54             	xor    $0x54,%eax
  40309c:	b9 01 00 00 00       	mov    $0x1,%ecx
  4030a1:	13 0d d5 40 42 00    	adc    0x4240d5,%ecx
  4030a7:	6a 0f                	push   $0xf
  4030a9:	ff 0c 24             	decl   (%esp)
  4030ac:	8d 1d a3 25 a7 98    	lea    0x98a725a3,%ebx
  4030b2:	81 eb 21 e3 64 98    	sub    $0x9864e321,%ebx
  4030b8:	53                   	push   %ebx
  4030b9:	8d 15 91 25 a7 98    	lea    0x98a72591,%edx
  4030bf:	81 ea 21 e3 64 98    	sub    $0x9864e321,%edx
  4030c5:	52                   	push   %edx
  4030c6:	a1 78 00 42 00       	mov    0x420078,%eax
  4030cb:	ff d0                	call   *%eax
  4030cd:	83 f8 00             	cmp    $0x0,%eax
  4030d0:	0f 85 2a 8e 00 00    	jne    0x40bf00
  4030d6:	83 35 33 41 42 00 1e 	xorl   $0x1e,0x424133
  4030dd:	01 3d 96 40 42 00    	add    %edi,0x424096
  4030e3:	83 e0 57             	and    $0x57,%eax
  4030e6:	c7 05 69 40 42 00 a3 	movl   $0xa3,0x424069
  4030ed:	00 00 00 
  4030f0:	2e e9 46 89 00 00    	cs jmp 0x40ba3c
  4030f6:	83 15 26 41 42 00 02 	adcl   $0x2,0x424126
  4030fd:	01 05 37 41 42 00    	add    %eax,0x424137
  403103:	21 05 20 41 42 00    	and    %eax,0x424120
  403109:	09 1d ba 41 42 00    	or     %ebx,0x4241ba
  40310f:	13 1d bd 40 42 00    	adc    0x4240bd,%ebx
	...
  403121:	00 00                	add    %al,(%eax)
  403123:	09 05 63 41 42 00    	or     %eax,0x424163
  403129:	ba 01 00 00 00       	mov    $0x1,%edx
  40312e:	83 c2 e5             	add    $0xffffffe5,%edx
  403131:	b9 01 00 00 00       	mov    $0x1,%ecx
  403136:	83 c1 a6             	add    $0xffffffa6,%ecx
  403139:	6a 0f                	push   $0xf
  40313b:	ff 0c 24             	decl   (%esp)
  40313e:	8d 3d a3 25 a7 98    	lea    0x98a725a3,%edi
  403144:	81 ef 21 e3 64 98    	sub    $0x9864e321,%edi
  40314a:	57                   	push   %edi
  40314b:	8d 0d 91 25 a7 98    	lea    0x98a72591,%ecx
  403151:	81 e9 21 e3 64 98    	sub    $0x9864e321,%ecx
  403157:	51                   	push   %ecx
  403158:	a1 78 00 42 00       	mov    0x420078,%eax
  40315d:	ff d0                	call   *%eax
  40315f:	85 c0                	test   %eax,%eax
  403161:	0f 85 99 8d 00 00    	jne    0x40bf00
  403167:	01 1d 2d 41 42 00    	add    %ebx,0x42412d
  40316d:	6a 0f                	push   $0xf
  40316f:	ff 0c 24             	decl   (%esp)
  403172:	8d 1d a3 25 a7 98    	lea    0x98a725a3,%ebx
  403178:	81 eb 21 e3 64 98    	sub    $0x9864e321,%ebx
  40317e:	53                   	push   %ebx
  40317f:	8d 1d 91 25 a7 98    	lea    0x98a72591,%ebx
  403185:	81 eb 21 e3 64 98    	sub    $0x9864e321,%ebx
  40318b:	53                   	push   %ebx
  40318c:	a1 78 00 42 00       	mov    0x420078,%eax
  403191:	ff d0                	call   *%eax
  403193:	85 c0                	test   %eax,%eax
  403195:	0f 85 65 8d 00 00    	jne    0x40bf00
  40319b:	13 3d 7e 40 42 00    	adc    0x42407e,%edi
  4031a1:	29 1d fc 41 42 00    	sub    %ebx,0x4241fc
  4031a7:	83 f3 46             	xor    $0x46,%ebx
  4031aa:	11 35 87 40 42 00    	adc    %esi,0x424087
  4031b0:	b1 01                	mov    $0x1,%cl
  4031b2:	82 c1 f6             	add    $0xf6,%cl
  4031b5:	6a 0f                	push   $0xf
  4031b7:	ff 0c 24             	decl   (%esp)
  4031ba:	8d 05 a3 25 a7 98    	lea    0x98a725a3,%eax
  4031c0:	2d 21 e3 64 98       	sub    $0x9864e321,%eax
  4031c5:	50                   	push   %eax
  4031c6:	8d 0d 91 25 a7 98    	lea    0x98a72591,%ecx
  4031cc:	81 e9 21 e3 64 98    	sub    $0x9864e321,%ecx
  4031d2:	51                   	push   %ecx
  4031d3:	a1 78 00 42 00       	mov    0x420078,%eax
  4031d8:	ff d0                	call   *%eax
  4031da:	85 c0                	test   %eax,%eax
  4031dc:	0f 85 1e 8d 00 00    	jne    0x40bf00
  4031e2:	83 d3 46             	adc    $0x46,%ebx
  4031e5:	8d 0d c0 25 a7 98    	lea    0x98a725c0,%ecx
  4031eb:	81 e9 21 e3 64 98    	sub    $0x9864e321,%ecx
  4031f1:	51                   	push   %ecx
  4031f2:	8d 1d b1 25 a7 98    	lea    0x98a725b1,%ebx
  4031f8:	81 eb 21 e3 64 98    	sub    $0x9864e321,%ebx
  4031fe:	53                   	push   %ebx
  4031ff:	a1 84 00 42 00       	mov    0x420084,%eax
  403204:	ff d0                	call   *%eax
  403206:	b9 01 00 00 00       	mov    $0x1,%ecx
  40320b:	13 0d a8 40 42 00    	adc    0x4240a8,%ecx
  403211:	13 35 13 41 42 00    	adc    0x424113,%esi
  403217:	0b 0d 23 40 42 00    	or     0x424023,%ecx
  40321d:	83 f6 92             	xor    $0xffffff92,%esi
  403220:	ba 01 00 00 00       	mov    $0x1,%edx
  403225:	83 c2 a1             	add    $0xffffffa1,%edx
  403228:	6a 0f                	push   $0xf
  40322a:	ff 0c 24             	decl   (%esp)
  40322d:	8d 05 a3 25 a7 98    	lea    0x98a725a3,%eax
  403233:	2d 21 e3 64 98       	sub    $0x9864e321,%eax
  403238:	50                   	push   %eax
  403239:	8d 15 91 25 a7 98    	lea    0x98a72591,%edx
  40323f:	81 ea 21 e3 64 98    	sub    $0x9864e321,%edx
  403245:	52                   	push   %edx
  403246:	a1 78 00 42 00       	mov    0x420078,%eax
  40324b:	ff d0                	call   *%eax
  40324d:	83 f8 00             	cmp    $0x0,%eax
  403250:	0f 85 aa 8c 00 00    	jne    0x40bf00
  403256:	83 1d 93 40 42 00 42 	sbbl   $0x42,0x424093
  40325d:	6a 0f                	push   $0xf
  40325f:	ff 0c 24             	decl   (%esp)
  403262:	8d 05 a3 25 a7 98    	lea    0x98a725a3,%eax
  403268:	2d 21 e3 64 98       	sub    $0x9864e321,%eax
  40326d:	50                   	push   %eax
  40326e:	8d 0d 91 25 a7 98    	lea    0x98a72591,%ecx
  403274:	81 e9 21 e3 64 98    	sub    $0x9864e321,%ecx
  40327a:	51                   	push   %ecx
  40327b:	a1 78 00 42 00       	mov    0x420078,%eax
  403280:	ff d0                	call   *%eax
  403282:	85 c0                	test   %eax,%eax
  403284:	0f 85 76 8c 00 00    	jne    0x40bf00
  40328a:	6a 0f                	push   $0xf
  40328c:	ff 0c 24             	decl   (%esp)
  40328f:	8d 0d a3 25 a7 98    	lea    0x98a725a3,%ecx
  403295:	81 e9 21 e3 64 98    	sub    $0x9864e321,%ecx
  40329b:	51                   	push   %ecx
  40329c:	8d 1d 91 25 a7 98    	lea    0x98a72591,%ebx
  4032a2:	81 eb 21 e3 64 98    	sub    $0x9864e321,%ebx
  4032a8:	53                   	push   %ebx
  4032a9:	a1 78 00 42 00       	mov    0x420078,%eax
  4032ae:	ff d0                	call   *%eax
  4032b0:	83 f8 00             	cmp    $0x0,%eax
  4032b3:	0f 85 47 8c 00 00    	jne    0x40bf00
  4032b9:	b9 01 00 00 00       	mov    $0x1,%ecx
  4032be:	01 d9                	add    %ebx,%ecx
  4032c0:	29 0d d8 41 42 00    	sub    %ecx,0x4241d8
  4032c6:	83 f3 1b             	xor    $0x1b,%ebx
  4032c9:	6a 0f                	push   $0xf
  4032cb:	ff 0c 24             	decl   (%esp)
  4032ce:	8d 3d a3 25 a7 98    	lea    0x98a725a3,%edi
  4032d4:	81 ef 21 e3 64 98    	sub    $0x9864e321,%edi
  4032da:	57                   	push   %edi
  4032db:	8d 0d 91 25 a7 98    	lea    0x98a72591,%ecx
  4032e1:	81 e9 21 e3 64 98    	sub    $0x9864e321,%ecx
  4032e7:	51                   	push   %ecx
  4032e8:	a1 78 00 42 00       	mov    0x420078,%eax
  4032ed:	ff d0                	call   *%eax
  4032ef:	83 f8 00             	cmp    $0x0,%eax
  4032f2:	0f 85 08 8c 00 00    	jne    0x40bf00
  4032f8:	83 f7 28             	xor    $0x28,%edi
  4032fb:	6a 0f                	push   $0xf
  4032fd:	ff 0c 24             	decl   (%esp)
  403300:	8d 0d a3 25 a7 98    	lea    0x98a725a3,%ecx
  403306:	81 e9 21 e3 64 98    	sub    $0x9864e321,%ecx
  40330c:	51                   	push   %ecx
  40330d:	8d 05 91 25 a7 98    	lea    0x98a72591,%eax
  403313:	2d 21 e3 64 98       	sub    $0x9864e321,%eax
  403318:	50                   	push   %eax
  403319:	a1 78 00 42 00       	mov    0x420078,%eax
  40331e:	ff d0                	call   *%eax
  403320:	83 f8 00             	cmp    $0x0,%eax
  403323:	0f 85 d7 8b 00 00    	jne    0x40bf00
  403329:	83 cf 41             	or     $0x41,%edi
  40332c:	09 35 07 40 42 00    	or     %esi,0x424007
  403332:	8d 1d c0 25 a7 98    	lea    0x98a725c0,%ebx
  403338:	81 eb 21 e3 64 98    	sub    $0x9864e321,%ebx
  40333e:	53                   	push   %ebx
  40333f:	8d 1d b1 25 a7 98    	lea    0x98a725b1,%ebx
  403345:	81 eb 21 e3 64 98    	sub    $0x9864e321,%ebx
  40334b:	53                   	push   %ebx
  40334c:	a1 84 00 42 00       	mov    0x420084,%eax
  403351:	ff d0                	call   *%eax
  403353:	83 cb 72             	or     $0x72,%ebx
  403356:	6a 0f                	push   $0xf
  403358:	ff 0c 24             	decl   (%esp)
  40335b:	8d 1d a3 25 a7 98    	lea    0x98a725a3,%ebx
  403361:	81 eb 21 e3 64 98    	sub    $0x9864e321,%ebx
  403367:	53                   	push   %ebx
  403368:	8d 35 91 25 a7 98    	lea    0x98a72591,%esi
  40336e:	81 ee 21 e3 64 98    	sub    $0x9864e321,%esi
  403374:	56                   	push   %esi
  403375:	a1 78 00 42 00       	mov    0x420078,%eax
  40337a:	ff d0                	call   *%eax
  40337c:	85 c0                	test   %eax,%eax
  40337e:	0f 85 7c 8b 00 00    	jne    0x40bf00
  403384:	12 25 5b 41 42 00    	adc    0x42415b,%ah
  40338a:	81 15 a4 40 42 00 f4 	adcl   $0xf4,0x4240a4
  403391:	00 00 00 
  403394:	2e e9 a2 86 00 00    	cs jmp 0x40ba3c
  40339a:	b6 01                	mov    $0x1,%dh
  40339c:	82 c6 a3             	add    $0xa3,%dh
  40339f:	09 15 6a 40 42 00    	or     %edx,0x42406a
  4033a5:	11 d6                	adc    %edx,%esi
  4033a7:	83 d6 9a             	adc    $0xffffff9a,%esi
	...
  4033b2:	6a 0f                	push   $0xf
  4033b4:	ff 0c 24             	decl   (%esp)
  4033b7:	8d 3d a3 25 a7 98    	lea    0x98a725a3,%edi
  4033bd:	81 ef 21 e3 64 98    	sub    $0x9864e321,%edi
  4033c3:	57                   	push   %edi
  4033c4:	8d 3d 91 25 a7 98    	lea    0x98a72591,%edi
  4033ca:	81 ef 21 e3 64 98    	sub    $0x9864e321,%edi
  4033d0:	57                   	push   %edi
  4033d1:	a1 78 00 42 00       	mov    0x420078,%eax
  4033d6:	ff d0                	call   *%eax
  4033d8:	85 c0                	test   %eax,%eax
  4033da:	0f 85 20 8b 00 00    	jne    0x40bf00
  4033e0:	83 15 6c 41 42 00 1d 	adcl   $0x1d,0x42416c
  4033e7:	b9 01 00 00 00       	mov    $0x1,%ecx
  4033ec:	13 0d 82 41 42 00    	adc    0x424182,%ecx
  4033f2:	2b 0d c7 41 42 00    	sub    0x4241c7,%ecx
  4033f8:	83 15 71 41 42 00 53 	adcl   $0x53,0x424171
  4033ff:	81 1d 79 41 42 00 9f 	sbbl   $0x9f,0x424179
  403406:	00 00 00 
  403409:	6a 0f                	push   $0xf
  40340b:	ff 0c 24             	decl   (%esp)
  40340e:	8d 35 a3 25 a7 98    	lea    0x98a725a3,%esi
  403414:	81 ee 21 e3 64 98    	sub    $0x9864e321,%esi
  40341a:	56                   	push   %esi
  40341b:	8d 35 91 25 a7 98    	lea    0x98a72591,%esi
  403421:	81 ee 21 e3 64 98    	sub    $0x9864e321,%esi
  403427:	56                   	push   %esi
  403428:	a1 78 00 42 00       	mov    0x420078,%eax
  40342d:	ff d0                	call   *%eax
  40342f:	83 f8 00             	cmp    $0x0,%eax
  403432:	0f 85 c8 8a 00 00    	jne    0x40bf00
  403438:	8d 1d c0 25 a7 98    	lea    0x98a725c0,%ebx
  40343e:	81 eb 21 e3 64 98    	sub    $0x9864e321,%ebx
  403444:	53                   	push   %ebx
  403445:	8d 05 b1 25 a7 98    	lea    0x98a725b1,%eax
  40344b:	2d 21 e3 64 98       	sub    $0x9864e321,%eax
  403450:	50                   	push   %eax
  403451:	a1 84 00 42 00       	mov    0x420084,%eax
  403456:	ff d0                	call   *%eax
  403458:	8d 35 c0 25 a7 98    	lea    0x98a725c0,%esi
  40345e:	81 ee 21 e3 64 98    	sub    $0x9864e321,%esi
  403464:	56                   	push   %esi
  403465:	8d 1d b1 25 a7 98    	lea    0x98a725b1,%ebx
  40346b:	81 eb 21 e3 64 98    	sub    $0x9864e321,%ebx
  403471:	53                   	push   %ebx
  403472:	a1 84 00 42 00       	mov    0x420084,%eax
  403477:	ff d0                	call   *%eax
  403479:	c7 05 7f 40 42 00 1e 	movl   $0x1e,0x42407f
  403480:	00 00 00 
  403483:	c7 05 d0 40 42 00 b2 	movl   $0xb2,0x4240d0
  40348a:	00 00 00 
  40348d:	8d 1d c0 25 a7 98    	lea    0x98a725c0,%ebx
  403493:	81 eb 21 e3 64 98    	sub    $0x9864e321,%ebx
  403499:	53                   	push   %ebx
  40349a:	8d 3d b1 25 a7 98    	lea    0x98a725b1,%edi
  4034a0:	81 ef 21 e3 64 98    	sub    $0x9864e321,%edi
  4034a6:	57                   	push   %edi
  4034a7:	a1 84 00 42 00       	mov    0x420084,%eax
  4034ac:	ff d0                	call   *%eax
  4034ae:	2a 1d 38 41 42 00    	sub    0x424138,%bl
  4034b4:	83 15 71 40 42 00 21 	adcl   $0x21,0x424071
  4034bb:	6a 0f                	push   $0xf
  4034bd:	ff 0c 24             	decl   (%esp)
  4034c0:	8d 0d a3 25 a7 98    	lea    0x98a725a3,%ecx
  4034c6:	81 e9 21 e3 64 98    	sub    $0x9864e321,%ecx
  4034cc:	51                   	push   %ecx
  4034cd:	8d 35 91 25 a7 98    	lea    0x98a72591,%esi
  4034d3:	81 ee 21 e3 64 98    	sub    $0x9864e321,%esi
  4034d9:	56                   	push   %esi
  4034da:	a1 78 00 42 00       	mov    0x420078,%eax
  4034df:	ff d0                	call   *%eax
  4034e1:	83 f8 00             	cmp    $0x0,%eax
  4034e4:	0f 85 16 8a 00 00    	jne    0x40bf00
  4034ea:	83 c3 5d             	add    $0x5d,%ebx
  4034ed:	81 15 bb 41 42 00 de 	adcl   $0xde,0x4241bb
  4034f4:	00 00 00 
  4034f7:	82 2d 94 40 42 00 be 	subb   $0xbe,0x424094
  4034fe:	6a 0f                	push   $0xf
  403500:	ff 0c 24             	decl   (%esp)
  403503:	8d 0d a3 25 a7 98    	lea    0x98a725a3,%ecx
  403509:	81 e9 21 e3 64 98    	sub    $0x9864e321,%ecx
  40350f:	51                   	push   %ecx
  403510:	8d 3d 91 25 a7 98    	lea    0x98a72591,%edi
  403516:	81 ef 21 e3 64 98    	sub    $0x9864e321,%edi
  40351c:	57                   	push   %edi
  40351d:	a1 78 00 42 00       	mov    0x420078,%eax
  403522:	ff d0                	call   *%eax
  403524:	85 c0                	test   %eax,%eax
  403526:	0f 85 d4 89 00 00    	jne    0x40bf00
  40352c:	82 c7 69             	add    $0x69,%bh
  40352f:	21 1d 28 40 42 00    	and    %ebx,0x424028
  403535:	08 3d 09 41 42 00    	or     %bh,0x424109
  40353b:	83 15 48 40 42 00 38 	adcl   $0x38,0x424048
  403542:	01 f0                	add    %esi,%eax
  403544:	8d 15 c0 25 a7 98    	lea    0x98a725c0,%edx
  40354a:	81 ea 21 e3 64 98    	sub    $0x9864e321,%edx
  403550:	52                   	push   %edx
  403551:	8d 0d b1 25 a7 98    	lea    0x98a725b1,%ecx
  403557:	81 e9 21 e3 64 98    	sub    $0x9864e321,%ecx
  40355d:	51                   	push   %ecx
  40355e:	a1 84 00 42 00       	mov    0x420084,%eax
  403563:	ff d0                	call   *%eax
  403565:	01 1d ea 40 42 00    	add    %ebx,0x4240ea
  40356b:	b9 01 00 00 00       	mov    $0x1,%ecx
  403570:	13 0d 03 41 42 00    	adc    0x424103,%ecx
  403576:	01 05 88 41 42 00    	add    %eax,0x424188
  40357c:	6a 0f                	push   $0xf
  40357e:	ff 0c 24             	decl   (%esp)
  403581:	8d 15 a3 25 a7 98    	lea    0x98a725a3,%edx
  403587:	81 ea 21 e3 64 98    	sub    $0x9864e321,%edx
  40358d:	52                   	push   %edx
  40358e:	8d 15 91 25 a7 98    	lea    0x98a72591,%edx
  403594:	81 ea 21 e3 64 98    	sub    $0x9864e321,%edx
  40359a:	52                   	push   %edx
  40359b:	a1 78 00 42 00       	mov    0x420078,%eax
  4035a0:	ff d0                	call   *%eax
  4035a2:	83 f8 00             	cmp    $0x0,%eax
  4035a5:	0f 85 55 89 00 00    	jne    0x40bf00
  4035ab:	2a 3d 3e 40 42 00    	sub    0x42403e,%bh
  4035b1:	83 c3 c1             	add    $0xffffffc1,%ebx
  4035b4:	83 d0 58             	adc    $0x58,%eax
  4035b7:	6a 0f                	push   $0xf
  4035b9:	ff 0c 24             	decl   (%esp)
  4035bc:	8d 3d a3 25 a7 98    	lea    0x98a725a3,%edi
  4035c2:	81 ef 21 e3 64 98    	sub    $0x9864e321,%edi
  4035c8:	57                   	push   %edi
  4035c9:	8d 0d 91 25 a7 98    	lea    0x98a72591,%ecx
  4035cf:	81 e9 21 e3 64 98    	sub    $0x9864e321,%ecx
  4035d5:	51                   	push   %ecx
  4035d6:	a1 78 00 42 00       	mov    0x420078,%eax
  4035db:	ff d0                	call   *%eax
  4035dd:	85 c0                	test   %eax,%eax
  4035df:	0f 85 1b 89 00 00    	jne    0x40bf00
  4035e5:	19 c7                	sbb    %eax,%edi
  4035e7:	2a 25 54 40 42 00    	sub    0x424054,%ah
  4035ed:	12 25 16 41 42 00    	adc    0x424116,%ah
  4035f3:	2e e9 43 84 00 00    	cs jmp 0x40ba3c
  4035f9:	11 c7                	adc    %eax,%edi
  4035fb:	ba 01 00 00 00       	mov    $0x1,%edx
  403600:	01 da                	add    %ebx,%edx
  403602:	31 35 76 41 42 00    	xor    %esi,0x424176
  403608:	0b 3d 42 41 42 00    	or     0x424142,%edi
  40360e:	01 d0                	add    %edx,%eax
	...
  40361c:	00 00                	add    %al,(%eax)
  40361e:	00 01                	add    %al,(%ecx)
  403620:	35 27 41 42 00       	xor    $0x424127,%eax
  403625:	13 1d e2 41 42 00    	adc    0x4241e2,%ebx
  40362b:	8d 05 c0 25 a7 98    	lea    0x98a725c0,%eax
  403631:	2d 21 e3 64 98       	sub    $0x9864e321,%eax
  403636:	50                   	push   %eax
  403637:	8d 05 b1 25 a7 98    	lea    0x98a725b1,%eax
  40363d:	2d 21 e3 64 98       	sub    $0x9864e321,%eax
  403642:	50                   	push   %eax
  403643:	a1 84 00 42 00       	mov    0x420084,%eax
  403648:	ff d0                	call   *%eax
  40364a:	b9 01 00 00 00       	mov    $0x1,%ecx
  40364f:	83 c1 12             	add    $0x12,%ecx
  403652:	8d 15 c0 25 a7 98    	lea    0x98a725c0,%edx
  403658:	81 ea 21 e3 64 98    	sub    $0x9864e321,%edx
  40365e:	52                   	push   %edx
  40365f:	8d 1d b1 25 a7 98    	lea    0x98a725b1,%ebx
  403665:	81 eb 21 e3 64 98    	sub    $0x9864e321,%ebx
  40366b:	53                   	push   %ebx
  40366c:	a1 84 00 42 00       	mov    0x420084,%eax
  403671:	ff d0                	call   *%eax
  403673:	13 1d 4d 40 42 00    	adc    0x42404d,%ebx
  403679:	6a 0f                	push   $0xf
  40367b:	ff 0c 24             	decl   (%esp)
  40367e:	8d 35 a3 25 a7 98    	lea    0x98a725a3,%esi
  403684:	81 ee 21 e3 64 98    	sub    $0x9864e321,%esi
  40368a:	56                   	push   %esi
  40368b:	8d 15 91 25 a7 98    	lea    0x98a72591,%edx
  403691:	81 ea 21 e3 64 98    	sub    $0x9864e321,%edx
  403697:	52                   	push   %edx
  403698:	a1 78 00 42 00       	mov    0x420078,%eax
  40369d:	ff d0                	call   *%eax
  40369f:	83 f8 00             	cmp    $0x0,%eax
  4036a2:	0f 85 58 88 00 00    	jne    0x40bf00
  4036a8:	6a 0f                	push   $0xf
  4036aa:	ff 0c 24             	decl   (%esp)
  4036ad:	8d 0d a3 25 a7 98    	lea    0x98a725a3,%ecx
  4036b3:	81 e9 21 e3 64 98    	sub    $0x9864e321,%ecx
  4036b9:	51                   	push   %ecx
  4036ba:	8d 1d 91 25 a7 98    	lea    0x98a72591,%ebx
  4036c0:	81 eb 21 e3 64 98    	sub    $0x9864e321,%ebx
  4036c6:	53                   	push   %ebx
  4036c7:	a1 78 00 42 00       	mov    0x420078,%eax
  4036cc:	ff d0                	call   *%eax
  4036ce:	85 c0                	test   %eax,%eax
  4036d0:	0f 85 2a 88 00 00    	jne    0x40bf00
  4036d6:	14 4b                	adc    $0x4b,%al
  4036d8:	0b 1d 29 41 42 00    	or     0x424129,%ebx
  4036de:	13 35 11 40 42 00    	adc    0x424011,%esi
  4036e4:	6a 0f                	push   $0xf
  4036e6:	ff 0c 24             	decl   (%esp)
  4036e9:	8d 1d a3 25 a7 98    	lea    0x98a725a3,%ebx
  4036ef:	81 eb 21 e3 64 98    	sub    $0x9864e321,%ebx
  4036f5:	53                   	push   %ebx
  4036f6:	8d 1d 91 25 a7 98    	lea    0x98a72591,%ebx
  4036fc:	81 eb 21 e3 64 98    	sub    $0x9864e321,%ebx
  403702:	53                   	push   %ebx
  403703:	a1 78 00 42 00       	mov    0x420078,%eax
  403708:	ff d0                	call   *%eax
  40370a:	85 c0                	test   %eax,%eax
  40370c:	0f 85 ee 87 00 00    	jne    0x40bf00
  403712:	ba 01 00 00 00       	mov    $0x1,%edx
  403717:	01 da                	add    %ebx,%edx
  403719:	0b 1d 9d 41 42 00    	or     0x42419d,%ebx
  40371f:	12 35 8f 40 42 00    	adc    0x42408f,%dh
  403725:	09 3d b6 40 42 00    	or     %edi,0x4240b6
  40372b:	6a 0f                	push   $0xf
  40372d:	ff 0c 24             	decl   (%esp)
  403730:	8d 05 a3 25 a7 98    	lea    0x98a725a3,%eax
  403736:	2d 21 e3 64 98       	sub    $0x9864e321,%eax
  40373b:	50                   	push   %eax
  40373c:	8d 1d 91 25 a7 98    	lea    0x98a72591,%ebx
  403742:	81 eb 21 e3 64 98    	sub    $0x9864e321,%ebx
  403748:	53                   	push   %ebx
  403749:	a1 78 00 42 00       	mov    0x420078,%eax
  40374e:	ff d0                	call   *%eax
  403750:	85 c0                	test   %eax,%eax
  403752:	0f 85 a8 87 00 00    	jne    0x40bf00
  403758:	83 15 1f 40 42 00 06 	adcl   $0x6,0x42401f
  40375f:	6a 0f                	push   $0xf
  403761:	ff 0c 24             	decl   (%esp)
  403764:	8d 3d a3 25 a7 98    	lea    0x98a725a3,%edi
  40376a:	81 ef 21 e3 64 98    	sub    $0x9864e321,%edi
  403770:	57                   	push   %edi
  403771:	8d 05 91 25 a7 98    	lea    0x98a72591,%eax
  403777:	2d 21 e3 64 98       	sub    $0x9864e321,%eax
  40377c:	50                   	push   %eax
  40377d:	a1 78 00 42 00       	mov    0x420078,%eax
  403782:	ff d0                	call   *%eax
  403784:	83 f8 00             	cmp    $0x0,%eax
  403787:	0f 85 73 87 00 00    	jne    0x40bf00
  40378d:	19 05 e1 41 42 00    	sbb    %eax,0x4241e1
  403793:	31 d8                	xor    %ebx,%eax
  403795:	8d 35 c0 25 a7 98    	lea    0x98a725c0,%esi
  40379b:	81 ee 21 e3 64 98    	sub    $0x9864e321,%esi
  4037a1:	56                   	push   %esi
  4037a2:	8d 15 b1 25 a7 98    	lea    0x98a725b1,%edx
  4037a8:	81 ea 21 e3 64 98    	sub    $0x9864e321,%edx
  4037ae:	52                   	push   %edx
  4037af:	a1 84 00 42 00       	mov    0x420084,%eax
  4037b4:	ff d0                	call   *%eax
  4037b6:	ba 01 00 00 00       	mov    $0x1,%edx
  4037bb:	13 15 5a 40 42 00    	adc    0x42405a,%edx
  4037c1:	11 3d 79 41 42 00    	adc    %edi,0x424179
  4037c7:	83 35 e5 41 42 00 1c 	xorl   $0x1c,0x4241e5
  4037ce:	6a 0f                	push   $0xf
  4037d0:	ff 0c 24             	decl   (%esp)
  4037d3:	8d 3d a3 25 a7 98    	lea    0x98a725a3,%edi
  4037d9:	81 ef 21 e3 64 98    	sub    $0x9864e321,%edi
  4037df:	57                   	push   %edi
  4037e0:	8d 1d 91 25 a7 98    	lea    0x98a72591,%ebx
  4037e6:	81 eb 21 e3 64 98    	sub    $0x9864e321,%ebx
  4037ec:	53                   	push   %ebx
  4037ed:	a1 78 00 42 00       	mov    0x420078,%eax
  4037f2:	ff d0                	call   *%eax
  4037f4:	85 c0                	test   %eax,%eax
  4037f6:	0f 85 04 87 00 00    	jne    0x40bf00
  4037fc:	6a 0f                	push   $0xf
  4037fe:	ff 0c 24             	decl   (%esp)
  403801:	8d 0d a3 25 a7 98    	lea    0x98a725a3,%ecx
  403807:	81 e9 21 e3 64 98    	sub    $0x9864e321,%ecx
  40380d:	51                   	push   %ecx
  40380e:	8d 15 91 25 a7 98    	lea    0x98a72591,%edx
  403814:	81 ea 21 e3 64 98    	sub    $0x9864e321,%edx
  40381a:	52                   	push   %edx
  40381b:	a1 78 00 42 00       	mov    0x420078,%eax
  403820:	ff d0                	call   *%eax
  403822:	85 c0                	test   %eax,%eax
  403824:	0f 85 d6 86 00 00    	jne    0x40bf00
  40382a:	8d 05 c0 25 a7 98    	lea    0x98a725c0,%eax
  403830:	2d 21 e3 64 98       	sub    $0x9864e321,%eax
  403835:	50                   	push   %eax
  403836:	8d 0d b1 25 a7 98    	lea    0x98a725b1,%ecx
  40383c:	81 e9 21 e3 64 98    	sub    $0x9864e321,%ecx
  403842:	51                   	push   %ecx
  403843:	a1 84 00 42 00       	mov    0x420084,%eax
  403848:	ff d0                	call   *%eax
  40384a:	13 3d 83 41 42 00    	adc    0x424183,%edi
  403850:	c7 05 c5 40 42 00 bb 	movl   $0xbb,0x4240c5
  403857:	00 00 00 
  40385a:	6a 0f                	push   $0xf
  40385c:	ff 0c 24             	decl   (%esp)
  40385f:	8d 15 a3 25 a7 98    	lea    0x98a725a3,%edx
  403865:	81 ea 21 e3 64 98    	sub    $0x9864e321,%edx
  40386b:	52                   	push   %edx
  40386c:	8d 1d 91 25 a7 98    	lea    0x98a72591,%ebx
  403872:	81 eb 21 e3 64 98    	sub    $0x9864e321,%ebx
  403878:	53                   	push   %ebx
  403879:	a1 78 00 42 00       	mov    0x420078,%eax
  40387e:	ff d0                	call   *%eax
  403880:	85 c0                	test   %eax,%eax
  403882:	0f 85 78 86 00 00    	jne    0x40bf00
  403888:	13 1d 26 40 42 00    	adc    0x424026,%ebx
  40388e:	ba 01 00 00 00       	mov    $0x1,%edx
  403893:	13 15 65 41 42 00    	adc    0x424165,%edx
  403899:	2e e9 9d 81 00 00    	cs jmp 0x40ba3c
  40389f:	19 c2                	sbb    %eax,%edx
  4038a1:	01 fb                	add    %edi,%ebx
  4038a3:	0a 35 24 41 42 00    	or     0x424124,%dh
  4038a9:	13 15 ba 40 42 00    	adc    0x4240ba,%edx
  4038af:	b9 01 00 00 00       	mov    $0x1,%ecx
  4038b4:	01 f9                	add    %edi,%ecx
	...
  4038be:	6a 0f                	push   $0xf
  4038c0:	ff 0c 24             	decl   (%esp)
  4038c3:	8d 0d a3 25 a7 98    	lea    0x98a725a3,%ecx
  4038c9:	81 e9 21 e3 64 98    	sub    $0x9864e321,%ecx
  4038cf:	51                   	push   %ecx
  4038d0:	8d 15 91 25 a7 98    	lea    0x98a72591,%edx
  4038d6:	81 ea 21 e3 64 98    	sub    $0x9864e321,%edx
  4038dc:	52                   	push   %edx
  4038dd:	a1 78 00 42 00       	mov    0x420078,%eax
  4038e2:	ff d0                	call   *%eax
  4038e4:	83 f8 00             	cmp    $0x0,%eax
  4038e7:	0f 85 13 86 00 00    	jne    0x40bf00
  4038ed:	0a 1d 5f 40 42 00    	or     0x42405f,%bl
  4038f3:	6a 0f                	push   $0xf
  4038f5:	ff 0c 24             	decl   (%esp)
  4038f8:	8d 15 a3 25 a7 98    	lea    0x98a725a3,%edx
  4038fe:	81 ea 21 e3 64 98    	sub    $0x9864e321,%edx
  403904:	52                   	push   %edx
  403905:	8d 3d 91 25 a7 98    	lea    0x98a72591,%edi
  40390b:	81 ef 21 e3 64 98    	sub    $0x9864e321,%edi
  403911:	57                   	push   %edi
  403912:	a1 78 00 42 00       	mov    0x420078,%eax
  403917:	ff d0                	call   *%eax
  403919:	85 c0                	test   %eax,%eax
  40391b:	0f 85 df 85 00 00    	jne    0x40bf00
  403921:	01 f8                	add    %edi,%eax
  403923:	01 35 88 40 42 00    	add    %esi,0x424088
  403929:	29 de                	sub    %ebx,%esi
  40392b:	8d 1d c0 25 a7 98    	lea    0x98a725c0,%ebx
  403931:	81 eb 21 e3 64 98    	sub    $0x9864e321,%ebx
  403937:	53                   	push   %ebx
  403938:	8d 15 b1 25 a7 98    	lea    0x98a725b1,%edx
  40393e:	81 ea 21 e3 64 98    	sub    $0x9864e321,%edx
  403944:	52                   	push   %edx
  403945:	a1 84 00 42 00       	mov    0x420084,%eax
  40394a:	ff d0                	call   *%eax
  40394c:	83 c0 d8             	add    $0xffffffd8,%eax
  40394f:	09 1d e8 40 42 00    	or     %ebx,0x4240e8
  403955:	0b 1d 87 41 42 00    	or     0x424187,%ebx
  40395b:	13 1d 2c 40 42 00    	adc    0x42402c,%ebx
  403961:	31 1d 74 41 42 00    	xor    %ebx,0x424174
  403967:	6a 0f                	push   $0xf
  403969:	ff 0c 24             	decl   (%esp)
  40396c:	8d 0d a3 25 a7 98    	lea    0x98a725a3,%ecx
  403972:	81 e9 21 e3 64 98    	sub    $0x9864e321,%ecx
  403978:	51                   	push   %ecx
  403979:	8d 15 91 25 a7 98    	lea    0x98a72591,%edx
  40397f:	81 ea 21 e3 64 98    	sub    $0x9864e321,%edx
  403985:	52                   	push   %edx
  403986:	a1 78 00 42 00       	mov    0x420078,%eax
  40398b:	ff d0                	call   *%eax
  40398d:	85 c0                	test   %eax,%eax
  40398f:	0f 85 6b 85 00 00    	jne    0x40bf00
  403995:	b9 01 00 00 00       	mov    $0x1,%ecx
  40399a:	13 0d ab 40 42 00    	adc    0x4240ab,%ecx
  4039a0:	2a 25 f5 41 42 00    	sub    0x4241f5,%ah
  4039a6:	83 cf 78             	or     $0x78,%edi
  4039a9:	83 25 fe 40 42 00 0d 	andl   $0xd,0x4240fe
  4039b0:	8d 3d c0 25 a7 98    	lea    0x98a725c0,%edi
  4039b6:	81 ef 21 e3 64 98    	sub    $0x9864e321,%edi
  4039bc:	57                   	push   %edi
  4039bd:	8d 35 b1 25 a7 98    	lea    0x98a725b1,%esi
  4039c3:	81 ee 21 e3 64 98    	sub    $0x9864e321,%esi
  4039c9:	56                   	push   %esi
  4039ca:	a1 84 00 42 00       	mov    0x420084,%eax
  4039cf:	ff d0                	call   *%eax
  4039d1:	8d 3d c0 25 a7 98    	lea    0x98a725c0,%edi
  4039d7:	81 ef 21 e3 64 98    	sub    $0x9864e321,%edi
  4039dd:	57                   	push   %edi
  4039de:	8d 0d b1 25 a7 98    	lea    0x98a725b1,%ecx
  4039e4:	81 e9 21 e3 64 98    	sub    $0x9864e321,%ecx
  4039ea:	51                   	push   %ecx
  4039eb:	a1 84 00 42 00       	mov    0x420084,%eax
  4039f0:	ff d0                	call   *%eax
  4039f2:	2b 05 4e 41 42 00    	sub    0x42414e,%eax
  4039f8:	01 c3                	add    %eax,%ebx
  4039fa:	2b 35 03 41 42 00    	sub    0x424103,%esi
  403a00:	c7 05 8c 41 42 00 6d 	movl   $0x6d,0x42418c
  403a07:	00 00 00 
  403a0a:	8d 15 c0 25 a7 98    	lea    0x98a725c0,%edx
  403a10:	81 ea 21 e3 64 98    	sub    $0x9864e321,%edx
  403a16:	52                   	push   %edx
  403a17:	8d 05 b1 25 a7 98    	lea    0x98a725b1,%eax
  403a1d:	2d 21 e3 64 98       	sub    $0x9864e321,%eax
  403a22:	50                   	push   %eax
  403a23:	a1 84 00 42 00       	mov    0x420084,%eax
  403a28:	ff d0                	call   *%eax
  403a2a:	82 2d 5e 40 42 00 d3 	subb   $0xd3,0x42405e
  403a31:	10 f8                	adc    %bh,%al
  403a33:	21 1d 92 40 42 00    	and    %ebx,0x424092
  403a39:	6a 0f                	push   $0xf
  403a3b:	ff 0c 24             	decl   (%esp)
  403a3e:	8d 05 a3 25 a7 98    	lea    0x98a725a3,%eax
  403a44:	2d 21 e3 64 98       	sub    $0x9864e321,%eax
  403a49:	50                   	push   %eax
  403a4a:	8d 3d 91 25 a7 98    	lea    0x98a72591,%edi
  403a50:	81 ef 21 e3 64 98    	sub    $0x9864e321,%edi
  403a56:	57                   	push   %edi
  403a57:	a1 78 00 42 00       	mov    0x420078,%eax
  403a5c:	ff d0                	call   *%eax
  403a5e:	83 f8 00             	cmp    $0x0,%eax
  403a61:	0f 85 99 84 00 00    	jne    0x40bf00
  403a67:	b9 01 00 00 00       	mov    $0x1,%ecx
  403a6c:	83 c1 d3             	add    $0xffffffd3,%ecx
  403a6f:	83 25 f8 40 42 00 5c 	andl   $0x5c,0x4240f8
  403a76:	81 15 04 41 42 00 f0 	adcl   $0xf0,0x424104
  403a7d:	00 00 00 
  403a80:	83 0d 85 41 42 00 01 	orl    $0x1,0x424185
  403a87:	19 f3                	sbb    %esi,%ebx
  403a89:	8d 1d c0 25 a7 98    	lea    0x98a725c0,%ebx
  403a8f:	81 eb 21 e3 64 98    	sub    $0x9864e321,%ebx
  403a95:	53                   	push   %ebx
  403a96:	8d 05 b1 25 a7 98    	lea    0x98a725b1,%eax
  403a9c:	2d 21 e3 64 98       	sub    $0x9864e321,%eax
  403aa1:	50                   	push   %eax
  403aa2:	a1 84 00 42 00       	mov    0x420084,%eax
  403aa7:	ff d0                	call   *%eax
  403aa9:	01 05 0b 40 42 00    	add    %eax,0x42400b
  403aaf:	2a 3d 12 40 42 00    	sub    0x424012,%bh
  403ab5:	81 0d 3a 41 42 00 ac 	orl    $0xac,0x42413a
  403abc:	00 00 00 
  403abf:	8d 3d c0 25 a7 98    	lea    0x98a725c0,%edi
  403ac5:	81 ef 21 e3 64 98    	sub    $0x9864e321,%edi
  403acb:	57                   	push   %edi
  403acc:	8d 35 b1 25 a7 98    	lea    0x98a725b1,%esi
  403ad2:	81 ee 21 e3 64 98    	sub    $0x9864e321,%esi
  403ad8:	56                   	push   %esi
  403ad9:	a1 84 00 42 00       	mov    0x420084,%eax
  403ade:	ff d0                	call   *%eax
  403ae0:	10 1d 21 41 42 00    	adc    %bl,0x424121
  403ae6:	13 05 1d 40 42 00    	adc    0x42401d,%eax
  403aec:	19 f6                	sbb    %esi,%esi
  403aee:	13 05 8e 41 42 00    	adc    0x42418e,%eax
  403af4:	2e e9 42 7f 00 00    	cs jmp 0x40ba3c
  403afa:	29 c3                	sub    %eax,%ebx
  403afc:	b9 01 00 00 00       	mov    $0x1,%ecx
  403b01:	83 c1 a8             	add    $0xffffffa8,%ecx
  403b04:	31 35 ea 40 42 00    	xor    %esi,0x4240ea
  403b0a:	13 35 77 40 42 00    	adc    0x424077,%esi
  403b10:	11 de                	adc    %ebx,%esi
  403b12:	00 00                	add    %al,(%eax)
  403b14:	00 00                	add    %al,(%eax)
  403b16:	00 19                	add    %bl,(%ecx)
  403b18:	f0 ba 01 00 00 00    	lock mov $0x1,%edx
  403b1e:	13 15 f3 41 42 00    	adc    0x4241f3,%edx
  403b24:	83 de 9d             	sbb    $0xffffff9d,%esi
  403b27:	b9 01 00 00 00       	mov    $0x1,%ecx
  403b2c:	01 c1                	add    %eax,%ecx
  403b2e:	6a 0f                	push   $0xf
  403b30:	ff 0c 24             	decl   (%esp)
  403b33:	8d 0d a3 25 a7 98    	lea    0x98a725a3,%ecx
  403b39:	81 e9 21 e3 64 98    	sub    $0x9864e321,%ecx
  403b3f:	51                   	push   %ecx
  403b40:	8d 05 91 25 a7 98    	lea    0x98a72591,%eax
  403b46:	2d 21 e3 64 98       	sub    $0x9864e321,%eax
  403b4b:	50                   	push   %eax
  403b4c:	a1 78 00 42 00       	mov    0x420078,%eax
  403b51:	ff d0                	call   *%eax
  403b53:	83 f8 00             	cmp    $0x0,%eax
  403b56:	0f 85 a4 83 00 00    	jne    0x40bf00
  403b5c:	10 1d e2 41 42 00    	adc    %bl,0x4241e2
  403b62:	0b 3d a5 40 42 00    	or     0x4240a5,%edi
  403b68:	13 05 0b 41 42 00    	adc    0x42410b,%eax
  403b6e:	b9 01 00 00 00       	mov    $0x1,%ecx
  403b73:	83 c1 d4             	add    $0xffffffd4,%ecx
  403b76:	82 2d 33 41 42 00 35 	subb   $0x35,0x424133
  403b7d:	6a 0f                	push   $0xf
  403b7f:	ff 0c 24             	decl   (%esp)
  403b82:	8d 35 a3 25 a7 98    	lea    0x98a725a3,%esi
  403b88:	81 ee 21 e3 64 98    	sub    $0x9864e321,%esi
  403b8e:	56                   	push   %esi
  403b8f:	8d 0d 91 25 a7 98    	lea    0x98a72591,%ecx
  403b95:	81 e9 21 e3 64 98    	sub    $0x9864e321,%ecx
  403b9b:	51                   	push   %ecx
  403b9c:	a1 78 00 42 00       	mov    0x420078,%eax
  403ba1:	ff d0                	call   *%eax
  403ba3:	83 f8 00             	cmp    $0x0,%eax
  403ba6:	0f 85 54 83 00 00    	jne    0x40bf00
  403bac:	ba 01 00 00 00       	mov    $0x1,%edx
  403bb1:	13 15 a8 40 42 00    	adc    0x4240a8,%edx
  403bb7:	81 15 ab 40 42 00 ef 	adcl   $0xef,0x4240ab
  403bbe:	00 00 00 
  403bc1:	29 15 d7 41 42 00    	sub    %edx,0x4241d7
  403bc7:	82 d2 00             	adc    $0x0,%dl
  403bca:	6a 0f                	push   $0xf
  403bcc:	ff 0c 24             	decl   (%esp)
  403bcf:	8d 3d a3 25 a7 98    	lea    0x98a725a3,%edi
  403bd5:	81 ef 21 e3 64 98    	sub    $0x9864e321,%edi
  403bdb:	57                   	push   %edi
  403bdc:	8d 35 91 25 a7 98    	lea    0x98a72591,%esi
  403be2:	81 ee 21 e3 64 98    	sub    $0x9864e321,%esi
  403be8:	56                   	push   %esi
  403be9:	a1 78 00 42 00       	mov    0x420078,%eax
  403bee:	ff d0                	call   *%eax
  403bf0:	85 c0                	test   %eax,%eax
  403bf2:	0f 85 08 83 00 00    	jne    0x40bf00
  403bf8:	83 15 47 40 42 00 0d 	adcl   $0xd,0x424047
  403bff:	83 15 13 41 42 00 15 	adcl   $0x15,0x424113
  403c06:	6a 0f                	push   $0xf
  403c08:	ff 0c 24             	decl   (%esp)
  403c0b:	8d 05 a3 25 a7 98    	lea    0x98a725a3,%eax
  403c11:	2d 21 e3 64 98       	sub    $0x9864e321,%eax
  403c16:	50                   	push   %eax
  403c17:	8d 0d 91 25 a7 98    	lea    0x98a72591,%ecx
  403c1d:	81 e9 21 e3 64 98    	sub    $0x9864e321,%ecx
  403c23:	51                   	push   %ecx
  403c24:	a1 78 00 42 00       	mov    0x420078,%eax
  403c29:	ff d0                	call   *%eax
  403c2b:	85 c0                	test   %eax,%eax
  403c2d:	0f 85 cd 82 00 00    	jne    0x40bf00
  403c33:	83 0d 5e 41 42 00 41 	orl    $0x41,0x42415e
  403c3a:	b1 01                	mov    $0x1,%cl
  403c3c:	00 f9                	add    %bh,%cl
  403c3e:	29 0d 0f 40 42 00    	sub    %ecx,0x42400f
  403c44:	6a 0f                	push   $0xf
  403c46:	ff 0c 24             	decl   (%esp)
  403c49:	8d 05 a3 25 a7 98    	lea    0x98a725a3,%eax
  403c4f:	2d 21 e3 64 98       	sub    $0x9864e321,%eax
  403c54:	50                   	push   %eax
  403c55:	8d 05 91 25 a7 98    	lea    0x98a72591,%eax
  403c5b:	2d 21 e3 64 98       	sub    $0x9864e321,%eax
  403c60:	50                   	push   %eax
  403c61:	a1 78 00 42 00       	mov    0x420078,%eax
  403c66:	ff d0                	call   *%eax
  403c68:	85 c0                	test   %eax,%eax
  403c6a:	0f 85 90 82 00 00    	jne    0x40bf00
  403c70:	29 3d d2 41 42 00    	sub    %edi,0x4241d2
  403c76:	19 fb                	sbb    %edi,%ebx
  403c78:	83 15 35 41 42 00 1a 	adcl   $0x1a,0x424135
  403c7f:	83 e7 f3             	and    $0xfffffff3,%edi
  403c82:	8d 3d c0 25 a7 98    	lea    0x98a725c0,%edi
  403c88:	81 ef 21 e3 64 98    	sub    $0x9864e321,%edi
  403c8e:	57                   	push   %edi
  403c8f:	8d 3d b1 25 a7 98    	lea    0x98a725b1,%edi
  403c95:	81 ef 21 e3 64 98    	sub    $0x9864e321,%edi
  403c9b:	57                   	push   %edi
  403c9c:	a1 84 00 42 00       	mov    0x420084,%eax
  403ca1:	ff d0                	call   *%eax
  403ca3:	13 1d 06 41 42 00    	adc    0x424106,%ebx
  403ca9:	81 1d b4 41 42 00 f9 	sbbl   $0xf9,0x4241b4
  403cb0:	00 00 00 
  403cb3:	c7 05 1c 40 42 00 50 	movl   $0x50,0x42401c
  403cba:	00 00 00 
  403cbd:	82 2d fe 40 42 00 19 	subb   $0x19,0x4240fe
  403cc4:	c7 05 0a 41 42 00 f6 	movl   $0xf6,0x42410a
  403ccb:	00 00 00 
  403cce:	6a 0f                	push   $0xf
  403cd0:	ff 0c 24             	decl   (%esp)
  403cd3:	8d 15 a3 25 a7 98    	lea    0x98a725a3,%edx
  403cd9:	81 ea 21 e3 64 98    	sub    $0x9864e321,%edx
  403cdf:	52                   	push   %edx
  403ce0:	8d 1d 91 25 a7 98    	lea    0x98a72591,%ebx
  403ce6:	81 eb 21 e3 64 98    	sub    $0x9864e321,%ebx
  403cec:	53                   	push   %ebx
  403ced:	a1 78 00 42 00       	mov    0x420078,%eax
  403cf2:	ff d0                	call   *%eax
  403cf4:	85 c0                	test   %eax,%eax
  403cf6:	0f 85 04 82 00 00    	jne    0x40bf00
  403cfc:	21 35 77 41 42 00    	and    %esi,0x424177
  403d02:	09 35 90 40 42 00    	or     %esi,0x424090
  403d08:	6a 0f                	push   $0xf
  403d0a:	ff 0c 24             	decl   (%esp)
  403d0d:	8d 05 a3 25 a7 98    	lea    0x98a725a3,%eax
  403d13:	2d 21 e3 64 98       	sub    $0x9864e321,%eax
  403d18:	50                   	push   %eax
  403d19:	8d 15 91 25 a7 98    	lea    0x98a72591,%edx
  403d1f:	81 ea 21 e3 64 98    	sub    $0x9864e321,%edx
  403d25:	52                   	push   %edx
  403d26:	a1 78 00 42 00       	mov    0x420078,%eax
  403d2b:	ff d0                	call   *%eax
  403d2d:	85 c0                	test   %eax,%eax
  403d2f:	0f 85 cb 81 00 00    	jne    0x40bf00
  403d35:	83 15 36 41 42 00 7c 	adcl   $0x7c,0x424136
  403d3c:	ba 01 00 00 00       	mov    $0x1,%edx
  403d41:	83 c2 3f             	add    $0x3f,%edx
  403d44:	83 d3 77             	adc    $0x77,%ebx
  403d47:	83 35 5e 40 42 00 0e 	xorl   $0xe,0x42405e
  403d4e:	29 1d ef 40 42 00    	sub    %ebx,0x4240ef
  403d54:	8d 35 c0 25 a7 98    	lea    0x98a725c0,%esi
  403d5a:	81 ee 21 e3 64 98    	sub    $0x9864e321,%esi
  403d60:	56                   	push   %esi
  403d61:	8d 35 b1 25 a7 98    	lea    0x98a725b1,%esi
  403d67:	81 ee 21 e3 64 98    	sub    $0x9864e321,%esi
  403d6d:	56                   	push   %esi
  403d6e:	a1 84 00 42 00       	mov    0x420084,%eax
  403d73:	ff d0                	call   *%eax
  403d75:	29 f6                	sub    %esi,%esi
  403d77:	ba 01 00 00 00       	mov    $0x1,%edx
  403d7c:	83 c2 1a             	add    $0x1a,%edx
  403d7f:	81 0d 54 41 42 00 bb 	orl    $0xbb,0x424154
  403d86:	00 00 00 
  403d89:	13 35 a7 40 42 00    	adc    0x4240a7,%esi
  403d8f:	13 1d 98 40 42 00    	adc    0x424098,%ebx
  403d95:	6a 0f                	push   $0xf
  403d97:	ff 0c 24             	decl   (%esp)
  403d9a:	8d 15 a3 25 a7 98    	lea    0x98a725a3,%edx
  403da0:	81 ea 21 e3 64 98    	sub    $0x9864e321,%edx
  403da6:	52                   	push   %edx
  403da7:	8d 1d 91 25 a7 98    	lea    0x98a72591,%ebx
  403dad:	81 eb 21 e3 64 98    	sub    $0x9864e321,%ebx
  403db3:	53                   	push   %ebx
  403db4:	a1 78 00 42 00       	mov    0x420078,%eax
  403db9:	ff d0                	call   *%eax
  403dbb:	85 c0                	test   %eax,%eax
  403dbd:	0f 85 3d 81 00 00    	jne    0x40bf00
  403dc3:	ba 01 00 00 00       	mov    $0x1,%edx
  403dc8:	01 da                	add    %ebx,%edx
  403dca:	8d 15 c0 25 a7 98    	lea    0x98a725c0,%edx
  403dd0:	81 ea 21 e3 64 98    	sub    $0x9864e321,%edx
  403dd6:	52                   	push   %edx
  403dd7:	8d 1d b1 25 a7 98    	lea    0x98a725b1,%ebx
  403ddd:	81 eb 21 e3 64 98    	sub    $0x9864e321,%ebx
  403de3:	53                   	push   %ebx
  403de4:	a1 84 00 42 00       	mov    0x420084,%eax
  403de9:	ff d0                	call   *%eax
  403deb:	b1 01                	mov    $0x1,%cl
  403ded:	82 c1 3a             	add    $0x3a,%cl
  403df0:	2e e9 46 7c 00 00    	cs jmp 0x40ba3c
	...
  403e06:	83 35 4d 41 42 00 48 	xorl   $0x48,0x42414d
  403e0d:	11 1d 5a 41 42 00    	adc    %ebx,0x42415a
  403e13:	ba 01 00 00 00       	mov    $0x1,%edx
  403e18:	01 c2                	add    %eax,%edx
  403e1a:	8d 3d c0 25 a7 98    	lea    0x98a725c0,%edi
  403e20:	81 ef 21 e3 64 98    	sub    $0x9864e321,%edi
  403e26:	57                   	push   %edi
  403e27:	8d 35 b1 25 a7 98    	lea    0x98a725b1,%esi
  403e2d:	81 ee 21 e3 64 98    	sub    $0x9864e321,%esi
  403e33:	56                   	push   %esi
  403e34:	a1 84 00 42 00       	mov    0x420084,%eax
  403e39:	ff d0                	call   *%eax
  403e3b:	8d 1d c0 25 a7 98    	lea    0x98a725c0,%ebx
  403e41:	81 eb 21 e3 64 98    	sub    $0x9864e321,%ebx
  403e47:	53                   	push   %ebx
  403e48:	8d 05 b1 25 a7 98    	lea    0x98a725b1,%eax
  403e4e:	2d 21 e3 64 98       	sub    $0x9864e321,%eax
  403e53:	50                   	push   %eax
  403e54:	a1 84 00 42 00       	mov    0x420084,%eax
  403e59:	ff d0                	call   *%eax
  403e5b:	10 25 1a 40 42 00    	adc    %ah,0x42401a
  403e61:	13 05 23 40 42 00    	adc    0x424023,%eax
  403e67:	21 3d 0c 40 42 00    	and    %edi,0x42400c
  403e6d:	31 1d 22 41 42 00    	xor    %ebx,0x424122
  403e73:	13 35 74 40 42 00    	adc    0x424074,%esi
  403e79:	6a 0f                	push   $0xf
  403e7b:	ff 0c 24             	decl   (%esp)
  403e7e:	8d 1d a3 25 a7 98    	lea    0x98a725a3,%ebx
  403e84:	81 eb 21 e3 64 98    	sub    $0x9864e321,%ebx
  403e8a:	53                   	push   %ebx
  403e8b:	8d 15 91 25 a7 98    	lea    0x98a72591,%edx
  403e91:	81 ea 21 e3 64 98    	sub    $0x9864e321,%edx
  403e97:	52                   	push   %edx
  403e98:	a1 78 00 42 00       	mov    0x420078,%eax
  403e9d:	ff d0                	call   *%eax
  403e9f:	85 c0                	test   %eax,%eax
  403ea1:	0f 85 59 80 00 00    	jne    0x40bf00
  403ea7:	83 35 68 40 42 00 78 	xorl   $0x78,0x424068
  403eae:	b2 01                	mov    $0x1,%dl
  403eb0:	00 da                	add    %bl,%dl
  403eb2:	b9 01 00 00 00       	mov    $0x1,%ecx
  403eb7:	13 0d 83 40 42 00    	adc    0x424083,%ecx
  403ebd:	13 1d 8b 41 42 00    	adc    0x42418b,%ebx
  403ec3:	82 c1 13             	add    $0x13,%cl
  403ec6:	8d 35 c0 25 a7 98    	lea    0x98a725c0,%esi
  403ecc:	81 ee 21 e3 64 98    	sub    $0x9864e321,%esi
  403ed2:	56                   	push   %esi
  403ed3:	8d 35 b1 25 a7 98    	lea    0x98a725b1,%esi
  403ed9:	81 ee 21 e3 64 98    	sub    $0x9864e321,%esi
  403edf:	56                   	push   %esi
  403ee0:	a1 84 00 42 00       	mov    0x420084,%eax
  403ee5:	ff d0                	call   *%eax
  403ee7:	b9 01 00 00 00       	mov    $0x1,%ecx
  403eec:	83 c1 fe             	add    $0xfffffffe,%ecx
  403eef:	31 c1                	xor    %eax,%ecx
  403ef1:	83 0d 9f 41 42 00 4b 	orl    $0x4b,0x42419f
  403ef8:	81 0d 10 41 42 00 96 	orl    $0x96,0x424110
  403eff:	00 00 00 
  403f02:	ba 01 00 00 00       	mov    $0x1,%edx
  403f07:	01 da                	add    %ebx,%edx
  403f09:	6a 0f                	push   $0xf
  403f0b:	ff 0c 24             	decl   (%esp)
  403f0e:	8d 3d a3 25 a7 98    	lea    0x98a725a3,%edi
  403f14:	81 ef 21 e3 64 98    	sub    $0x9864e321,%edi
  403f1a:	57                   	push   %edi
  403f1b:	8d 1d 91 25 a7 98    	lea    0x98a72591,%ebx
  403f21:	81 eb 21 e3 64 98    	sub    $0x9864e321,%ebx
  403f27:	53                   	push   %ebx
  403f28:	a1 78 00 42 00       	mov    0x420078,%eax
  403f2d:	ff d0                	call   *%eax
  403f2f:	85 c0                	test   %eax,%eax
  403f31:	0f 85 c9 7f 00 00    	jne    0x40bf00
  403f37:	82 2d c9 40 42 00 ea 	subb   $0xea,0x4240c9
  403f3e:	12 3d d7 40 42 00    	adc    0x4240d7,%bh
  403f44:	8d 05 c0 25 a7 98    	lea    0x98a725c0,%eax
  403f4a:	2d 21 e3 64 98       	sub    $0x9864e321,%eax
  403f4f:	50                   	push   %eax
  403f50:	8d 15 b1 25 a7 98    	lea    0x98a725b1,%edx
  403f56:	81 ea 21 e3 64 98    	sub    $0x9864e321,%edx
  403f5c:	52                   	push   %edx
  403f5d:	a1 84 00 42 00       	mov    0x420084,%eax
  403f62:	ff d0                	call   *%eax
  403f64:	6a 0f                	push   $0xf
  403f66:	ff 0c 24             	decl   (%esp)
  403f69:	8d 1d a3 25 a7 98    	lea    0x98a725a3,%ebx
  403f6f:	81 eb 21 e3 64 98    	sub    $0x9864e321,%ebx
  403f75:	53                   	push   %ebx
  403f76:	8d 3d 91 25 a7 98    	lea    0x98a72591,%edi
  403f7c:	81 ef 21 e3 64 98    	sub    $0x9864e321,%edi
  403f82:	57                   	push   %edi
  403f83:	a1 78 00 42 00       	mov    0x420078,%eax
  403f88:	ff d0                	call   *%eax
  403f8a:	83 f8 00             	cmp    $0x0,%eax
  403f8d:	0f 85 6d 7f 00 00    	jne    0x40bf00
  403f93:	83 ef bb             	sub    $0xffffffbb,%edi
  403f96:	83 15 f1 40 42 00 24 	adcl   $0x24,0x4240f1
  403f9d:	01 1d a1 40 42 00    	add    %ebx,0x4240a1
  403fa3:	81 35 3c 40 42 00 88 	xorl   $0x88,0x42403c
  403faa:	00 00 00 
  403fad:	12 25 e2 40 42 00    	adc    0x4240e2,%ah
  403fb3:	8d 15 c0 25 a7 98    	lea    0x98a725c0,%edx
  403fb9:	81 ea 21 e3 64 98    	sub    $0x9864e321,%edx
  403fbf:	52                   	push   %edx
  403fc0:	8d 15 b1 25 a7 98    	lea    0x98a725b1,%edx
  403fc6:	81 ea 21 e3 64 98    	sub    $0x9864e321,%edx
  403fcc:	52                   	push   %edx
  403fcd:	a1 84 00 42 00       	mov    0x420084,%eax
  403fd2:	ff d0                	call   *%eax
  403fd4:	ba 01 00 00 00       	mov    $0x1,%edx
  403fd9:	13 15 16 40 42 00    	adc    0x424016,%edx
  403fdf:	83 ee cf             	sub    $0xffffffcf,%esi
  403fe2:	83 25 11 41 42 00 06 	andl   $0x6,0x424111
  403fe9:	83 15 8f 41 42 00 06 	adcl   $0x6,0x42418f
  403ff0:	6a 0f                	push   $0xf
  403ff2:	ff 0c 24             	decl   (%esp)
  403ff5:	8d 3d a3 25 a7 98    	lea    0x98a725a3,%edi
  403ffb:	81 ef 21 e3 64 98    	sub    $0x9864e321,%edi
  404001:	57                   	push   %edi
  404002:	8d 15 91 25 a7 98    	lea    0x98a72591,%edx
  404008:	81 ea 21 e3 64 98    	sub    $0x9864e321,%edx
  40400e:	52                   	push   %edx
  40400f:	a1 78 00 42 00       	mov    0x420078,%eax
  404014:	ff d0                	call   *%eax
  404016:	85 c0                	test   %eax,%eax
  404018:	0f 85 e2 7e 00 00    	jne    0x40bf00
  40401e:	83 15 92 41 42 00 2e 	adcl   $0x2e,0x424192
  404025:	11 3d 55 40 42 00    	adc    %edi,0x424055
  40402b:	6a 0f                	push   $0xf
  40402d:	ff 0c 24             	decl   (%esp)
  404030:	8d 15 a3 25 a7 98    	lea    0x98a725a3,%edx
  404036:	81 ea 21 e3 64 98    	sub    $0x9864e321,%edx
  40403c:	52                   	push   %edx
  40403d:	8d 05 91 25 a7 98    	lea    0x98a72591,%eax
  404043:	2d 21 e3 64 98       	sub    $0x9864e321,%eax
  404048:	50                   	push   %eax
  404049:	a1 78 00 42 00       	mov    0x420078,%eax
  40404e:	ff d0                	call   *%eax
  404050:	83 f8 00             	cmp    $0x0,%eax
  404053:	0f 85 a7 7e 00 00    	jne    0x40bf00
  404059:	29 c6                	sub    %eax,%esi
  40405b:	83 0d 3e 40 42 00 16 	orl    $0x16,0x42403e
  404062:	81 15 e3 40 42 00 9c 	adcl   $0x9c,0x4240e3
  404069:	00 00 00 
  40406c:	00 e0                	add    %ah,%al
  40406e:	b9 01 00 00 00       	mov    $0x1,%ecx
  404073:	13 0d e6 40 42 00    	adc    0x4240e6,%ecx
  404079:	2e e9 bd 79 00 00    	cs jmp 0x40ba3c
  40407f:	09 3d 67 40 42 00    	or     %edi,0x424067
  404085:	30 fc                	xor    %bh,%ah
  404087:	00 00                	add    %al,(%eax)
  404089:	8d 05 c0 25 a7 98    	lea    0x98a725c0,%eax
  40408f:	2d 21 e3 64 98       	sub    $0x9864e321,%eax
  404094:	50                   	push   %eax
  404095:	8d 05 b1 25 a7 98    	lea    0x98a725b1,%eax
  40409b:	2d 21 e3 64 98       	sub    $0x9864e321,%eax
  4040a0:	50                   	push   %eax
  4040a1:	a1 84 00 42 00       	mov    0x420084,%eax
  4040a6:	ff d0                	call   *%eax
  4040a8:	c7 05 07 40 42 00 bf 	movl   $0xbf,0x424007
  4040af:	00 00 00 
  4040b2:	01 05 ed 41 42 00    	add    %eax,0x4241ed
  4040b8:	83 d3 9c             	adc    $0xffffff9c,%ebx
  4040bb:	6a 0f                	push   $0xf
  4040bd:	ff 0c 24             	decl   (%esp)
  4040c0:	8d 1d a3 25 a7 98    	lea    0x98a725a3,%ebx
  4040c6:	81 eb 21 e3 64 98    	sub    $0x9864e321,%ebx
  4040cc:	53                   	push   %ebx
  4040cd:	8d 3d 91 25 a7 98    	lea    0x98a72591,%edi
  4040d3:	81 ef 21 e3 64 98    	sub    $0x9864e321,%edi
  4040d9:	57                   	push   %edi
  4040da:	a1 78 00 42 00       	mov    0x420078,%eax
  4040df:	ff d0                	call   *%eax
  4040e1:	85 c0                	test   %eax,%eax
  4040e3:	0f 85 17 7e 00 00    	jne    0x40bf00
  4040e9:	8d 1d c0 25 a7 98    	lea    0x98a725c0,%ebx
  4040ef:	81 eb 21 e3 64 98    	sub    $0x9864e321,%ebx
  4040f5:	53                   	push   %ebx
  4040f6:	8d 35 b1 25 a7 98    	lea    0x98a725b1,%esi
  4040fc:	81 ee 21 e3 64 98    	sub    $0x9864e321,%esi
  404102:	56                   	push   %esi
  404103:	a1 84 00 42 00       	mov    0x420084,%eax
  404108:	ff d0                	call   *%eax
  40410a:	6a 0f                	push   $0xf
  40410c:	ff 0c 24             	decl   (%esp)
  40410f:	8d 0d a3 25 a7 98    	lea    0x98a725a3,%ecx
  404115:	81 e9 21 e3 64 98    	sub    $0x9864e321,%ecx
  40411b:	51                   	push   %ecx
  40411c:	8d 1d 91 25 a7 98    	lea    0x98a72591,%ebx
  404122:	81 eb 21 e3 64 98    	sub    $0x9864e321,%ebx
  404128:	53                   	push   %ebx
  404129:	a1 78 00 42 00       	mov    0x420078,%eax
  40412e:	ff d0                	call   *%eax
  404130:	85 c0                	test   %eax,%eax
  404132:	0f 85 c8 7d 00 00    	jne    0x40bf00
  404138:	31 c6                	xor    %eax,%esi
  40413a:	ba 01 00 00 00       	mov    $0x1,%edx
  40413f:	01 c2                	add    %eax,%edx
  404141:	83 e0 c5             	and    $0xffffffc5,%eax
  404144:	83 c8 75             	or     $0x75,%eax
  404147:	8d 3d c0 25 a7 98    	lea    0x98a725c0,%edi
  40414d:	81 ef 21 e3 64 98    	sub    $0x9864e321,%edi
  404153:	57                   	push   %edi
  404154:	8d 05 b1 25 a7 98    	lea    0x98a725b1,%eax
  40415a:	2d 21 e3 64 98       	sub    $0x9864e321,%eax
  40415f:	50                   	push   %eax
  404160:	a1 84 00 42 00       	mov    0x420084,%eax
  404165:	ff d0                	call   *%eax
  404167:	21 3d c6 41 42 00    	and    %edi,0x4241c6
  40416d:	01 c7                	add    %eax,%edi
  40416f:	29 1d 54 40 42 00    	sub    %ebx,0x424054
  404175:	83 0d c5 41 42 00 34 	orl    $0x34,0x4241c5
  40417c:	6a 0f                	push   $0xf
  40417e:	ff 0c 24             	decl   (%esp)
  404181:	8d 0d a3 25 a7 98    	lea    0x98a725a3,%ecx
  404187:	81 e9 21 e3 64 98    	sub    $0x9864e321,%ecx
  40418d:	51                   	push   %ecx
  40418e:	8d 35 91 25 a7 98    	lea    0x98a72591,%esi
  404194:	81 ee 21 e3 64 98    	sub    $0x9864e321,%esi
  40419a:	56                   	push   %esi
  40419b:	a1 78 00 42 00       	mov    0x420078,%eax
  4041a0:	ff d0                	call   *%eax
  4041a2:	85 c0                	test   %eax,%eax
  4041a4:	0f 85 56 7d 00 00    	jne    0x40bf00
  4041aa:	b9 01 00 00 00       	mov    $0x1,%ecx
  4041af:	83 c1 1b             	add    $0x1b,%ecx
  4041b2:	12 05 37 41 42 00    	adc    0x424137,%al
  4041b8:	09 35 f8 41 42 00    	or     %esi,0x4241f8
  4041be:	8d 15 c0 25 a7 98    	lea    0x98a725c0,%edx
  4041c4:	81 ea 21 e3 64 98    	sub    $0x9864e321,%edx
  4041ca:	52                   	push   %edx
  4041cb:	8d 35 b1 25 a7 98    	lea    0x98a725b1,%esi
  4041d1:	81 ee 21 e3 64 98    	sub    $0x9864e321,%esi
  4041d7:	56                   	push   %esi
  4041d8:	a1 84 00 42 00       	mov    0x420084,%eax
  4041dd:	ff d0                	call   *%eax
  4041df:	31 05 ce 41 42 00    	xor    %eax,0x4241ce
  4041e5:	83 15 da 41 42 00 3a 	adcl   $0x3a,0x4241da
  4041ec:	83 25 05 41 42 00 7d 	andl   $0x7d,0x424105
  4041f3:	83 c3 ef             	add    $0xffffffef,%ebx
  4041f6:	6a 0f                	push   $0xf
  4041f8:	ff 0c 24             	decl   (%esp)
  4041fb:	8d 05 a3 25 a7 98    	lea    0x98a725a3,%eax
  404201:	2d 21 e3 64 98       	sub    $0x9864e321,%eax
  404206:	50                   	push   %eax
  404207:	8d 35 91 25 a7 98    	lea    0x98a72591,%esi
  40420d:	81 ee 21 e3 64 98    	sub    $0x9864e321,%esi
  404213:	56                   	push   %esi
  404214:	a1 78 00 42 00       	mov    0x420078,%eax
  404219:	ff d0                	call   *%eax
  40421b:	83 f8 00             	cmp    $0x0,%eax
  40421e:	0f 85 dc 7c 00 00    	jne    0x40bf00
  404224:	8d 3d c0 25 a7 98    	lea    0x98a725c0,%edi
  40422a:	81 ef 21 e3 64 98    	sub    $0x9864e321,%edi
  404230:	57                   	push   %edi
  404231:	8d 0d b1 25 a7 98    	lea    0x98a725b1,%ecx
  404237:	81 e9 21 e3 64 98    	sub    $0x9864e321,%ecx
  40423d:	51                   	push   %ecx
  40423e:	a1 84 00 42 00       	mov    0x420084,%eax
  404243:	ff d0                	call   *%eax
  404245:	83 c8 9d             	or     $0xffffff9d,%eax
  404248:	13 05 44 40 42 00    	adc    0x424044,%eax
  40424e:	ba 01 00 00 00       	mov    $0x1,%edx
  404253:	13 15 e0 40 42 00    	adc    0x4240e0,%edx
  404259:	8d 05 c0 25 a7 98    	lea    0x98a725c0,%eax
  40425f:	2d 21 e3 64 98       	sub    $0x9864e321,%eax
  404264:	50                   	push   %eax
  404265:	8d 3d b1 25 a7 98    	lea    0x98a725b1,%edi
  40426b:	81 ef 21 e3 64 98    	sub    $0x9864e321,%edi
  404271:	57                   	push   %edi
  404272:	a1 84 00 42 00       	mov    0x420084,%eax
  404277:	ff d0                	call   *%eax
  404279:	c7 05 92 40 42 00 1a 	movl   $0x1a,0x424092
  404280:	00 00 00 
  404283:	c7 05 96 40 42 00 9f 	movl   $0x9f,0x424096
  40428a:	00 00 00 
  40428d:	0b 35 4d 41 42 00    	or     0x42414d,%esi
  404293:	2e e9 a3 77 00 00    	cs jmp 0x40ba3c
  404299:	82 2d 80 40 42 00 c0 	subb   $0xc0,0x424080
	...
  4042a8:	09 05 0e 41 42 00    	or     %eax,0x42410e
  4042ae:	82 c3 dc             	add    $0xdc,%bl
  4042b1:	19 f0                	sbb    %esi,%eax
  4042b3:	29 35 f6 40 42 00    	sub    %esi,0x4240f6
  4042b9:	01 d8                	add    %ebx,%eax
  4042bb:	8d 3d c0 25 a7 98    	lea    0x98a725c0,%edi
  4042c1:	81 ef 21 e3 64 98    	sub    $0x9864e321,%edi
  4042c7:	57                   	push   %edi
  4042c8:	8d 1d b1 25 a7 98    	lea    0x98a725b1,%ebx
  4042ce:	81 eb 21 e3 64 98    	sub    $0x9864e321,%ebx
  4042d4:	53                   	push   %ebx
  4042d5:	a1 84 00 42 00       	mov    0x420084,%eax
  4042da:	ff d0                	call   *%eax
  4042dc:	31 f6                	xor    %esi,%esi
  4042de:	13 3d d9 40 42 00    	adc    0x4240d9,%edi
  4042e4:	81 1d 9d 41 42 00 c9 	sbbl   $0xc9,0x42419d
  4042eb:	00 00 00 
  4042ee:	2b 35 d0 40 42 00    	sub    0x4240d0,%esi
  4042f4:	31 35 08 40 42 00    	xor    %esi,0x424008
  4042fa:	8d 15 c0 25 a7 98    	lea    0x98a725c0,%edx
  404300:	81 ea 21 e3 64 98    	sub    $0x9864e321,%edx
  404306:	52                   	push   %edx
  404307:	8d 1d b1 25 a7 98    	lea    0x98a725b1,%ebx
  40430d:	81 eb 21 e3 64 98    	sub    $0x9864e321,%ebx
  404313:	53                   	push   %ebx
  404314:	a1 84 00 42 00       	mov    0x420084,%eax
  404319:	ff d0                	call   *%eax
  40431b:	8d 35 c0 25 a7 98    	lea    0x98a725c0,%esi
  404321:	81 ee 21 e3 64 98    	sub    $0x9864e321,%esi
  404327:	56                   	push   %esi
  404328:	8d 1d b1 25 a7 98    	lea    0x98a725b1,%ebx
  40432e:	81 eb 21 e3 64 98    	sub    $0x9864e321,%ebx
  404334:	53                   	push   %ebx
  404335:	a1 84 00 42 00       	mov    0x420084,%eax
  40433a:	ff d0                	call   *%eax
  40433c:	ba 01 00 00 00       	mov    $0x1,%edx
  404341:	83 c2 84             	add    $0xffffff84,%edx
  404344:	31 1d 83 41 42 00    	xor    %ebx,0x424183
  40434a:	83 0d 62 41 42 00 02 	orl    $0x2,0x424162
  404351:	83 f7 ba             	xor    $0xffffffba,%edi
  404354:	29 05 53 40 42 00    	sub    %eax,0x424053
  40435a:	8d 15 c0 25 a7 98    	lea    0x98a725c0,%edx
  404360:	81 ea 21 e3 64 98    	sub    $0x9864e321,%edx
  404366:	52                   	push   %edx
  404367:	8d 05 b1 25 a7 98    	lea    0x98a725b1,%eax
  40436d:	2d 21 e3 64 98       	sub    $0x9864e321,%eax
  404372:	50                   	push   %eax
  404373:	a1 84 00 42 00       	mov    0x420084,%eax
  404378:	ff d0                	call   *%eax
  40437a:	81 35 99 40 42 00 d0 	xorl   $0xd0,0x424099
  404381:	00 00 00 
  404384:	81 25 2b 40 42 00 a2 	andl   $0xa2,0x42402b
  40438b:	00 00 00 
  40438e:	6a 0f                	push   $0xf
  404390:	ff 0c 24             	decl   (%esp)
  404393:	8d 1d a3 25 a7 98    	lea    0x98a725a3,%ebx
  404399:	81 eb 21 e3 64 98    	sub    $0x9864e321,%ebx
  40439f:	53                   	push   %ebx
  4043a0:	8d 0d 91 25 a7 98    	lea    0x98a72591,%ecx
  4043a6:	81 e9 21 e3 64 98    	sub    $0x9864e321,%ecx
  4043ac:	51                   	push   %ecx
  4043ad:	a1 78 00 42 00       	mov    0x420078,%eax
  4043b2:	ff d0                	call   *%eax
  4043b4:	83 f8 00             	cmp    $0x0,%eax
  4043b7:	0f 85 43 7b 00 00    	jne    0x40bf00
  4043bd:	b9 01 00 00 00       	mov    $0x1,%ecx
  4043c2:	83 c1 27             	add    $0x27,%ecx
  4043c5:	83 c9 46             	or     $0x46,%ecx
  4043c8:	01 c9                	add    %ecx,%ecx
  4043ca:	31 cb                	xor    %ecx,%ebx
  4043cc:	6a 0f                	push   $0xf
  4043ce:	ff 0c 24             	decl   (%esp)
  4043d1:	8d 3d a3 25 a7 98    	lea    0x98a725a3,%edi
  4043d7:	81 ef 21 e3 64 98    	sub    $0x9864e321,%edi
  4043dd:	57                   	push   %edi
  4043de:	8d 15 91 25 a7 98    	lea    0x98a72591,%edx
  4043e4:	81 ea 21 e3 64 98    	sub    $0x9864e321,%edx
  4043ea:	52                   	push   %edx
  4043eb:	a1 78 00 42 00       	mov    0x420078,%eax
  4043f0:	ff d0                	call   *%eax
  4043f2:	83 f8 00             	cmp    $0x0,%eax
  4043f5:	0f 85 05 7b 00 00    	jne    0x40bf00
  4043fb:	6a 0f                	push   $0xf
  4043fd:	ff 0c 24             	decl   (%esp)
  404400:	8d 0d a3 25 a7 98    	lea    0x98a725a3,%ecx
  404406:	81 e9 21 e3 64 98    	sub    $0x9864e321,%ecx
  40440c:	51                   	push   %ecx
  40440d:	8d 15 91 25 a7 98    	lea    0x98a72591,%edx
  404413:	81 ea 21 e3 64 98    	sub    $0x9864e321,%edx
  404419:	52                   	push   %edx
  40441a:	a1 78 00 42 00       	mov    0x420078,%eax
  40441f:	ff d0                	call   *%eax
  404421:	83 f8 00             	cmp    $0x0,%eax
  404424:	0f 85 d6 7a 00 00    	jne    0x40bf00
  40442a:	6a 0f                	push   $0xf
  40442c:	ff 0c 24             	decl   (%esp)
  40442f:	8d 15 a3 25 a7 98    	lea    0x98a725a3,%edx
  404435:	81 ea 21 e3 64 98    	sub    $0x9864e321,%edx
  40443b:	52                   	push   %edx
  40443c:	8d 05 91 25 a7 98    	lea    0x98a72591,%eax
  404442:	2d 21 e3 64 98       	sub    $0x9864e321,%eax
  404447:	50                   	push   %eax
  404448:	a1 78 00 42 00       	mov    0x420078,%eax
  40444d:	ff d0                	call   *%eax
  40444f:	85 c0                	test   %eax,%eax
  404451:	0f 85 a9 7a 00 00    	jne    0x40bf00
  404457:	c7 05 3b 40 42 00 98 	movl   $0x98,0x42403b
  40445e:	00 00 00 
  404461:	31 3d 26 40 42 00    	xor    %edi,0x424026
  404467:	19 c6                	sbb    %eax,%esi
  404469:	81 25 a8 41 42 00 84 	andl   $0x84,0x4241a8
  404470:	00 00 00 
  404473:	83 cb 00             	or     $0x0,%ebx
  404476:	6a 0f                	push   $0xf
  404478:	ff 0c 24             	decl   (%esp)
  40447b:	8d 15 a3 25 a7 98    	lea    0x98a725a3,%edx
  404481:	81 ea 21 e3 64 98    	sub    $0x9864e321,%edx
  404487:	52                   	push   %edx
  404488:	8d 35 91 25 a7 98    	lea    0x98a72591,%esi
  40448e:	81 ee 21 e3 64 98    	sub    $0x9864e321,%esi
  404494:	56                   	push   %esi
  404495:	a1 78 00 42 00       	mov    0x420078,%eax
  40449a:	ff d0                	call   *%eax
  40449c:	83 f8 00             	cmp    $0x0,%eax
  40449f:	0f 85 5b 7a 00 00    	jne    0x40bf00
  4044a5:	c7 05 1d 41 42 00 08 	movl   $0x8,0x42411d
  4044ac:	00 00 00 
  4044af:	29 c3                	sub    %eax,%ebx
  4044b1:	6a 0f                	push   $0xf
  4044b3:	ff 0c 24             	decl   (%esp)
  4044b6:	8d 15 a3 25 a7 98    	lea    0x98a725a3,%edx
  4044bc:	81 ea 21 e3 64 98    	sub    $0x9864e321,%edx
  4044c2:	52                   	push   %edx
  4044c3:	8d 0d 91 25 a7 98    	lea    0x98a72591,%ecx
  4044c9:	81 e9 21 e3 64 98    	sub    $0x9864e321,%ecx
  4044cf:	51                   	push   %ecx
  4044d0:	a1 78 00 42 00       	mov    0x420078,%eax
  4044d5:	ff d0                	call   *%eax
  4044d7:	83 f8 00             	cmp    $0x0,%eax
  4044da:	0f 85 20 7a 00 00    	jne    0x40bf00
  4044e0:	83 15 2b 41 42 00 0e 	adcl   $0xe,0x42412b
  4044e7:	2a 05 80 40 42 00    	sub    0x424080,%al
  4044ed:	ba 01 00 00 00       	mov    $0x1,%edx
  4044f2:	01 c2                	add    %eax,%edx
  4044f4:	83 1d eb 40 42 00 53 	sbbl   $0x53,0x4240eb
  4044fb:	8d 35 c0 25 a7 98    	lea    0x98a725c0,%esi
  404501:	81 ee 21 e3 64 98    	sub    $0x9864e321,%esi
  404507:	56                   	push   %esi
  404508:	8d 1d b1 25 a7 98    	lea    0x98a725b1,%ebx
  40450e:	81 eb 21 e3 64 98    	sub    $0x9864e321,%ebx
  404514:	53                   	push   %ebx
  404515:	a1 84 00 42 00       	mov    0x420084,%eax
  40451a:	ff d0                	call   *%eax
  40451c:	81 1d 10 41 42 00 e2 	sbbl   $0xe2,0x424110
  404523:	00 00 00 
  404526:	01 fe                	add    %edi,%esi
  404528:	2e e9 0e 75 00 00    	cs jmp 0x40ba3c
  40452e:	00 00                	add    %al,(%eax)
  404530:	00 00                	add    %al,(%eax)
  404532:	00 00                	add    %al,(%eax)
  404534:	00 8d 05 c0 25 a7    	add    %cl,-0x58da3ffb(%ebp)
  40453a:	98                   	cwtl
  40453b:	2d 21 e3 64 98       	sub    $0x9864e321,%eax
  404540:	50                   	push   %eax
  404541:	8d 35 b1 25 a7 98    	lea    0x98a725b1,%esi
  404547:	81 ee 21 e3 64 98    	sub    $0x9864e321,%esi
  40454d:	56                   	push   %esi
  40454e:	a1 84 00 42 00       	mov    0x420084,%eax
  404553:	ff d0                	call   *%eax
  404555:	29 3d aa 40 42 00    	sub    %edi,0x4240aa
  40455b:	0a 1d e9 40 42 00    	or     0x4240e9,%bl
  404561:	8d 15 c0 25 a7 98    	lea    0x98a725c0,%edx
  404567:	81 ea 21 e3 64 98    	sub    $0x9864e321,%edx
  40456d:	52                   	push   %edx
  40456e:	8d 1d b1 25 a7 98    	lea    0x98a725b1,%ebx
  404574:	81 eb 21 e3 64 98    	sub    $0x9864e321,%ebx
  40457a:	53                   	push   %ebx
  40457b:	a1 84 00 42 00       	mov    0x420084,%eax
  404580:	ff d0                	call   *%eax
  404582:	83 d7 97             	adc    $0xffffff97,%edi
  404585:	11 c7                	adc    %eax,%edi
  404587:	81 25 79 40 42 00 a4 	andl   $0xa4,0x424079
  40458e:	00 00 00 
  404591:	83 15 0d 40 42 00 3a 	adcl   $0x3a,0x42400d
  404598:	ba 01 00 00 00       	mov    $0x1,%edx
  40459d:	13 15 96 41 42 00    	adc    0x424196,%edx
  4045a3:	6a 0f                	push   $0xf
  4045a5:	ff 0c 24             	decl   (%esp)
  4045a8:	8d 1d a3 25 a7 98    	lea    0x98a725a3,%ebx
  4045ae:	81 eb 21 e3 64 98    	sub    $0x9864e321,%ebx
  4045b4:	53                   	push   %ebx
  4045b5:	8d 0d 91 25 a7 98    	lea    0x98a72591,%ecx
  4045bb:	81 e9 21 e3 64 98    	sub    $0x9864e321,%ecx
  4045c1:	51                   	push   %ecx
  4045c2:	a1 78 00 42 00       	mov    0x420078,%eax
  4045c7:	ff d0                	call   *%eax
  4045c9:	85 c0                	test   %eax,%eax
  4045cb:	0f 85 2f 79 00 00    	jne    0x40bf00
  4045d1:	ba 01 00 00 00       	mov    $0x1,%edx
  4045d6:	01 c2                	add    %eax,%edx
  4045d8:	13 05 3d 40 42 00    	adc    0x42403d,%eax
  4045de:	8d 1d c0 25 a7 98    	lea    0x98a725c0,%ebx
  4045e4:	81 eb 21 e3 64 98    	sub    $0x9864e321,%ebx
  4045ea:	53                   	push   %ebx
  4045eb:	8d 05 b1 25 a7 98    	lea    0x98a725b1,%eax
  4045f1:	2d 21 e3 64 98       	sub    $0x9864e321,%eax
  4045f6:	50                   	push   %eax
  4045f7:	a1 84 00 42 00       	mov    0x420084,%eax
  4045fc:	ff d0                	call   *%eax
  4045fe:	09 05 6a 41 42 00    	or     %eax,0x42416a
  404604:	ba 01 00 00 00       	mov    $0x1,%edx
  404609:	13 15 a2 40 42 00    	adc    0x4240a2,%edx
  40460f:	31 05 99 41 42 00    	xor    %eax,0x424199
  404615:	b5 01                	mov    $0x1,%ch
  404617:	00 f5                	add    %dh,%ch
  404619:	8d 05 c0 25 a7 98    	lea    0x98a725c0,%eax
  40461f:	2d 21 e3 64 98       	sub    $0x9864e321,%eax
  404624:	50                   	push   %eax
  404625:	8d 35 b1 25 a7 98    	lea    0x98a725b1,%esi
  40462b:	81 ee 21 e3 64 98    	sub    $0x9864e321,%esi
  404631:	56                   	push   %esi
  404632:	a1 84 00 42 00       	mov    0x420084,%eax
  404637:	ff d0                	call   *%eax
  404639:	01 f0                	add    %esi,%eax
  40463b:	ba 01 00 00 00       	mov    $0x1,%edx
  404640:	13 15 ab 41 42 00    	adc    0x4241ab,%edx
  404646:	6a 0f                	push   $0xf
  404648:	ff 0c 24             	decl   (%esp)
  40464b:	8d 0d a3 25 a7 98    	lea    0x98a725a3,%ecx
  404651:	81 e9 21 e3 64 98    	sub    $0x9864e321,%ecx
  404657:	51                   	push   %ecx
  404658:	8d 15 91 25 a7 98    	lea    0x98a72591,%edx
  40465e:	81 ea 21 e3 64 98    	sub    $0x9864e321,%edx
  404664:	52                   	push   %edx
  404665:	a1 78 00 42 00       	mov    0x420078,%eax
  40466a:	ff d0                	call   *%eax
  40466c:	83 f8 00             	cmp    $0x0,%eax
  40466f:	0f 85 8b 78 00 00    	jne    0x40bf00
  404675:	83 d6 7b             	adc    $0x7b,%esi
  404678:	83 35 1f 40 42 00 7f 	xorl   $0x7f,0x42401f
  40467f:	6a 0f                	push   $0xf
  404681:	ff 0c 24             	decl   (%esp)
  404684:	8d 05 a3 25 a7 98    	lea    0x98a725a3,%eax
  40468a:	2d 21 e3 64 98       	sub    $0x9864e321,%eax
  40468f:	50                   	push   %eax
  404690:	8d 3d 91 25 a7 98    	lea    0x98a72591,%edi
  404696:	81 ef 21 e3 64 98    	sub    $0x9864e321,%edi
  40469c:	57                   	push   %edi
  40469d:	a1 78 00 42 00       	mov    0x420078,%eax
  4046a2:	ff d0                	call   *%eax
  4046a4:	85 c0                	test   %eax,%eax
  4046a6:	0f 85 54 78 00 00    	jne    0x40bf00
  4046ac:	b9 01 00 00 00       	mov    $0x1,%ecx
  4046b1:	83 c1 08             	add    $0x8,%ecx
  4046b4:	8d 0d c0 25 a7 98    	lea    0x98a725c0,%ecx
  4046ba:	81 e9 21 e3 64 98    	sub    $0x9864e321,%ecx
  4046c0:	51                   	push   %ecx
  4046c1:	8d 0d b1 25 a7 98    	lea    0x98a725b1,%ecx
  4046c7:	81 e9 21 e3 64 98    	sub    $0x9864e321,%ecx
  4046cd:	51                   	push   %ecx
  4046ce:	a1 84 00 42 00       	mov    0x420084,%eax
  4046d3:	ff d0                	call   *%eax
  4046d5:	8d 1d c0 25 a7 98    	lea    0x98a725c0,%ebx
  4046db:	81 eb 21 e3 64 98    	sub    $0x9864e321,%ebx
  4046e1:	53                   	push   %ebx
  4046e2:	8d 1d b1 25 a7 98    	lea    0x98a725b1,%ebx
  4046e8:	81 eb 21 e3 64 98    	sub    $0x9864e321,%ebx
  4046ee:	53                   	push   %ebx
  4046ef:	a1 84 00 42 00       	mov    0x420084,%eax
  4046f4:	ff d0                	call   *%eax
  4046f6:	c7 05 4b 40 42 00 f0 	movl   $0xf0,0x42404b
  4046fd:	00 00 00 
  404700:	8d 0d c0 25 a7 98    	lea    0x98a725c0,%ecx
  404706:	81 e9 21 e3 64 98    	sub    $0x9864e321,%ecx
  40470c:	51                   	push   %ecx
  40470d:	8d 35 b1 25 a7 98    	lea    0x98a725b1,%esi
  404713:	81 ee 21 e3 64 98    	sub    $0x9864e321,%esi
  404719:	56                   	push   %esi
  40471a:	a1 84 00 42 00       	mov    0x420084,%eax
  40471f:	ff d0                	call   *%eax
  404721:	2e e9 15 73 00 00    	cs jmp 0x40ba3c
  404727:	ba 01 00 00 00       	mov    $0x1,%edx
  40472c:	83 c2 ca             	add    $0xffffffca,%edx
  40472f:	01 1d 80 41 42 00    	add    %ebx,0x424180
  404735:	00 ba 01 00 00 00    	add    %bh,0x1(%edx)
  40473b:	01 da                	add    %ebx,%edx
  40473d:	31 c7                	xor    %eax,%edi
  40473f:	11 db                	adc    %ebx,%ebx
  404741:	83 1d ac 41 42 00 77 	sbbl   $0x77,0x4241ac
  404748:	6a 0f                	push   $0xf
  40474a:	ff 0c 24             	decl   (%esp)
  40474d:	8d 1d a3 25 a7 98    	lea    0x98a725a3,%ebx
  404753:	81 eb 21 e3 64 98    	sub    $0x9864e321,%ebx
  404759:	53                   	push   %ebx
  40475a:	8d 15 91 25 a7 98    	lea    0x98a72591,%edx
  404760:	81 ea 21 e3 64 98    	sub    $0x9864e321,%edx
  404766:	52                   	push   %edx
  404767:	a1 78 00 42 00       	mov    0x420078,%eax
  40476c:	ff d0                	call   *%eax
  40476e:	83 f8 00             	cmp    $0x0,%eax
  404771:	0f 85 89 77 00 00    	jne    0x40bf00
  404777:	31 c7                	xor    %eax,%edi
  404779:	8d 05 c0 25 a7 98    	lea    0x98a725c0,%eax
  40477f:	2d 21 e3 64 98       	sub    $0x9864e321,%eax
  404784:	50                   	push   %eax
  404785:	8d 15 b1 25 a7 98    	lea    0x98a725b1,%edx
  40478b:	81 ea 21 e3 64 98    	sub    $0x9864e321,%edx
  404791:	52                   	push   %edx
  404792:	a1 84 00 42 00       	mov    0x420084,%eax
  404797:	ff d0                	call   *%eax
  404799:	83 cf 97             	or     $0xffffff97,%edi
  40479c:	11 05 07 41 42 00    	adc    %eax,0x424107
  4047a2:	14 b3                	adc    $0xb3,%al
  4047a4:	8d 05 c0 25 a7 98    	lea    0x98a725c0,%eax
  4047aa:	2d 21 e3 64 98       	sub    $0x9864e321,%eax
  4047af:	50                   	push   %eax
  4047b0:	8d 05 b1 25 a7 98    	lea    0x98a725b1,%eax
  4047b6:	2d 21 e3 64 98       	sub    $0x9864e321,%eax
  4047bb:	50                   	push   %eax
  4047bc:	a1 84 00 42 00       	mov    0x420084,%eax
  4047c1:	ff d0                	call   *%eax
  4047c3:	81 35 22 41 42 00 93 	xorl   $0x93,0x424122
  4047ca:	00 00 00 
  4047cd:	81 35 94 41 42 00 c2 	xorl   $0xc2,0x424194
  4047d4:	00 00 00 
  4047d7:	10 25 c9 40 42 00    	adc    %ah,0x4240c9
  4047dd:	8d 0d c0 25 a7 98    	lea    0x98a725c0,%ecx
  4047e3:	81 e9 21 e3 64 98    	sub    $0x9864e321,%ecx
  4047e9:	51                   	push   %ecx
  4047ea:	8d 0d b1 25 a7 98    	lea    0x98a725b1,%ecx
  4047f0:	81 e9 21 e3 64 98    	sub    $0x9864e321,%ecx
  4047f6:	51                   	push   %ecx
  4047f7:	a1 84 00 42 00       	mov    0x420084,%eax
  4047fc:	ff d0                	call   *%eax
  4047fe:	81 25 32 41 42 00 e4 	andl   $0xe4,0x424132
  404805:	00 00 00 
  404808:	83 c7 8a             	add    $0xffffff8a,%edi
  40480b:	83 25 22 41 42 00 50 	andl   $0x50,0x424122
  404812:	8d 15 c0 25 a7 98    	lea    0x98a725c0,%edx
  404818:	81 ea 21 e3 64 98    	sub    $0x9864e321,%edx
  40481e:	52                   	push   %edx
  40481f:	8d 05 b1 25 a7 98    	lea    0x98a725b1,%eax
  404825:	2d 21 e3 64 98       	sub    $0x9864e321,%eax
  40482a:	50                   	push   %eax
  40482b:	a1 84 00 42 00       	mov    0x420084,%eax
  404830:	ff d0                	call   *%eax
  404832:	01 1d 9a 41 42 00    	add    %ebx,0x42419a
  404838:	8d 15 c0 25 a7 98    	lea    0x98a725c0,%edx
  40483e:	81 ea 21 e3 64 98    	sub    $0x9864e321,%edx
  404844:	52                   	push   %edx
  404845:	8d 15 b1 25 a7 98    	lea    0x98a725b1,%edx
  40484b:	81 ea 21 e3 64 98    	sub    $0x9864e321,%edx
  404851:	52                   	push   %edx
  404852:	a1 84 00 42 00       	mov    0x420084,%eax
  404857:	ff d0                	call   *%eax
  404859:	82 e3 1f             	and    $0x1f,%bl
  40485c:	6a 0f                	push   $0xf
  40485e:	ff 0c 24             	decl   (%esp)
  404861:	8d 1d a3 25 a7 98    	lea    0x98a725a3,%ebx
  404867:	81 eb 21 e3 64 98    	sub    $0x9864e321,%ebx
  40486d:	53                   	push   %ebx
  40486e:	8d 0d 91 25 a7 98    	lea    0x98a72591,%ecx
  404874:	81 e9 21 e3 64 98    	sub    $0x9864e321,%ecx
  40487a:	51                   	push   %ecx
  40487b:	a1 78 00 42 00       	mov    0x420078,%eax
  404880:	ff d0                	call   *%eax
  404882:	83 f8 00             	cmp    $0x0,%eax
  404885:	0f 85 75 76 00 00    	jne    0x40bf00
  40488b:	31 ff                	xor    %edi,%edi
  40488d:	09 05 57 41 42 00    	or     %eax,0x424157
  404893:	ba 01 00 00 00       	mov    $0x1,%edx
  404898:	13 15 87 41 42 00    	adc    0x424187,%edx
  40489e:	12 35 e5 41 42 00    	adc    0x4241e5,%dh
  4048a4:	19 fb                	sbb    %edi,%ebx
  4048a6:	8d 35 c0 25 a7 98    	lea    0x98a725c0,%esi
  4048ac:	81 ee 21 e3 64 98    	sub    $0x9864e321,%esi
  4048b2:	56                   	push   %esi
  4048b3:	8d 15 b1 25 a7 98    	lea    0x98a725b1,%edx
  4048b9:	81 ea 21 e3 64 98    	sub    $0x9864e321,%edx
  4048bf:	52                   	push   %edx
  4048c0:	a1 84 00 42 00       	mov    0x420084,%eax
  4048c5:	ff d0                	call   *%eax
  4048c7:	b9 01 00 00 00       	mov    $0x1,%ecx
  4048cc:	83 c1 53             	add    $0x53,%ecx
  4048cf:	09 3d 1a 40 42 00    	or     %edi,0x42401a
  4048d5:	c7 05 b8 41 42 00 53 	movl   $0x53,0x4241b8
  4048dc:	00 00 00 
  4048df:	83 f1 29             	xor    $0x29,%ecx
  4048e2:	81 1d 79 41 42 00 98 	sbbl   $0x98,0x424179
  4048e9:	00 00 00 
  4048ec:	8d 3d c0 25 a7 98    	lea    0x98a725c0,%edi
  4048f2:	81 ef 21 e3 64 98    	sub    $0x9864e321,%edi
  4048f8:	57                   	push   %edi
  4048f9:	8d 0d b1 25 a7 98    	lea    0x98a725b1,%ecx
  4048ff:	81 e9 21 e3 64 98    	sub    $0x9864e321,%ecx
  404905:	51                   	push   %ecx
  404906:	a1 84 00 42 00       	mov    0x420084,%eax
  40490b:	ff d0                	call   *%eax
  40490d:	ba 01 00 00 00       	mov    $0x1,%edx
  404912:	83 c2 d0             	add    $0xffffffd0,%edx
  404915:	b9 01 00 00 00       	mov    $0x1,%ecx
  40491a:	83 c1 b8             	add    $0xffffffb8,%ecx
  40491d:	81 0d c1 41 42 00 fc 	orl    $0xfc,0x4241c1
  404924:	00 00 00 
  404927:	82 da 65             	sbb    $0x65,%dl
  40492a:	8d 05 c0 25 a7 98    	lea    0x98a725c0,%eax
  404930:	2d 21 e3 64 98       	sub    $0x9864e321,%eax
  404935:	50                   	push   %eax
  404936:	8d 05 b1 25 a7 98    	lea    0x98a725b1,%eax
  40493c:	2d 21 e3 64 98       	sub    $0x9864e321,%eax
  404941:	50                   	push   %eax
  404942:	a1 84 00 42 00       	mov    0x420084,%eax
  404947:	ff d0                	call   *%eax
  404949:	13 3d d0 40 42 00    	adc    0x4240d0,%edi
  40494f:	83 f7 dd             	xor    $0xffffffdd,%edi
  404952:	83 25 8d 40 42 00 22 	andl   $0x22,0x42408d
  404959:	8d 3d c0 25 a7 98    	lea    0x98a725c0,%edi
  40495f:	81 ef 21 e3 64 98    	sub    $0x9864e321,%edi
  404965:	57                   	push   %edi
  404966:	8d 05 b1 25 a7 98    	lea    0x98a725b1,%eax
  40496c:	2d 21 e3 64 98       	sub    $0x9864e321,%eax
  404971:	50                   	push   %eax
  404972:	a1 84 00 42 00       	mov    0x420084,%eax
  404977:	ff d0                	call   *%eax
  404979:	8d 05 c0 25 a7 98    	lea    0x98a725c0,%eax
  40497f:	2d 21 e3 64 98       	sub    $0x9864e321,%eax
  404984:	50                   	push   %eax
  404985:	8d 1d b1 25 a7 98    	lea    0x98a725b1,%ebx
  40498b:	81 eb 21 e3 64 98    	sub    $0x9864e321,%ebx
  404991:	53                   	push   %ebx
  404992:	a1 84 00 42 00       	mov    0x420084,%eax
  404997:	ff d0                	call   *%eax
  404999:	2e e9 9d 70 00 00    	cs jmp 0x40ba3c
  40499f:	31 c7                	xor    %eax,%edi
  4049a1:	ba 01 00 00 00       	mov    $0x1,%edx
  4049a6:	01 fa                	add    %edi,%edx
  4049a8:	00 00                	add    %al,(%eax)
  4049aa:	00 31                	add    %dh,(%ecx)
  4049ac:	c3                   	ret
  4049ad:	83 f7 aa             	xor    $0xffffffaa,%edi
  4049b0:	82 2d 3b 40 42 00 24 	subb   $0x24,0x42403b
  4049b7:	12 05 97 41 42 00    	adc    0x424197,%al
  4049bd:	13 05 53 41 42 00    	adc    0x424153,%eax
  4049c3:	8d 1d c0 25 a7 98    	lea    0x98a725c0,%ebx
  4049c9:	81 eb 21 e3 64 98    	sub    $0x9864e321,%ebx
  4049cf:	53                   	push   %ebx
  4049d0:	8d 0d b1 25 a7 98    	lea    0x98a725b1,%ecx
  4049d6:	81 e9 21 e3 64 98    	sub    $0x9864e321,%ecx
  4049dc:	51                   	push   %ecx
  4049dd:	a1 84 00 42 00       	mov    0x420084,%eax
  4049e2:	ff d0                	call   *%eax
  4049e4:	31 ff                	xor    %edi,%edi
  4049e6:	28 05 91 40 42 00    	sub    %al,0x424091
  4049ec:	31 f7                	xor    %esi,%edi
  4049ee:	8d 0d c0 25 a7 98    	lea    0x98a725c0,%ecx
  4049f4:	81 e9 21 e3 64 98    	sub    $0x9864e321,%ecx
  4049fa:	51                   	push   %ecx
  4049fb:	8d 1d b1 25 a7 98    	lea    0x98a725b1,%ebx
  404a01:	81 eb 21 e3 64 98    	sub    $0x9864e321,%ebx
  404a07:	53                   	push   %ebx
  404a08:	a1 84 00 42 00       	mov    0x420084,%eax
  404a0d:	ff d0                	call   *%eax
  404a0f:	83 d3 98             	adc    $0xffffff98,%ebx
  404a12:	8d 1d c0 25 a7 98    	lea    0x98a725c0,%ebx
  404a18:	81 eb 21 e3 64 98    	sub    $0x9864e321,%ebx
  404a1e:	53                   	push   %ebx
  404a1f:	8d 0d b1 25 a7 98    	lea    0x98a725b1,%ecx
  404a25:	81 e9 21 e3 64 98    	sub    $0x9864e321,%ecx
  404a2b:	51                   	push   %ecx
  404a2c:	a1 84 00 42 00       	mov    0x420084,%eax
  404a31:	ff d0                	call   *%eax
  404a33:	ba 01 00 00 00       	mov    $0x1,%edx
  404a38:	83 c2 99             	add    $0xffffff99,%edx
  404a3b:	2b 15 85 40 42 00    	sub    0x424085,%edx
  404a41:	8d 15 c0 25 a7 98    	lea    0x98a725c0,%edx
  404a47:	81 ea 21 e3 64 98    	sub    $0x9864e321,%edx
  404a4d:	52                   	push   %edx
  404a4e:	8d 1d b1 25 a7 98    	lea    0x98a725b1,%ebx
  404a54:	81 eb 21 e3 64 98    	sub    $0x9864e321,%ebx
  404a5a:	53                   	push   %ebx
  404a5b:	a1 84 00 42 00       	mov    0x420084,%eax
  404a60:	ff d0                	call   *%eax
  404a62:	01 35 cf 41 42 00    	add    %esi,0x4241cf
  404a68:	8d 0d c0 25 a7 98    	lea    0x98a725c0,%ecx
  404a6e:	81 e9 21 e3 64 98    	sub    $0x9864e321,%ecx
  404a74:	51                   	push   %ecx
  404a75:	8d 1d b1 25 a7 98    	lea    0x98a725b1,%ebx
  404a7b:	81 eb 21 e3 64 98    	sub    $0x9864e321,%ebx
  404a81:	53                   	push   %ebx
  404a82:	a1 84 00 42 00       	mov    0x420084,%eax
  404a87:	ff d0                	call   *%eax
  404a89:	6a 0f                	push   $0xf
  404a8b:	ff 0c 24             	decl   (%esp)
  404a8e:	8d 05 a3 25 a7 98    	lea    0x98a725a3,%eax
  404a94:	2d 21 e3 64 98       	sub    $0x9864e321,%eax
  404a99:	50                   	push   %eax
  404a9a:	8d 3d 91 25 a7 98    	lea    0x98a72591,%edi
  404aa0:	81 ef 21 e3 64 98    	sub    $0x9864e321,%edi
  404aa6:	57                   	push   %edi
  404aa7:	a1 78 00 42 00       	mov    0x420078,%eax
  404aac:	ff d0                	call   *%eax
  404aae:	83 f8 00             	cmp    $0x0,%eax
  404ab1:	0f 85 49 74 00 00    	jne    0x40bf00
  404ab7:	29 3d 86 41 42 00    	sub    %edi,0x424186
  404abd:	8d 3d c0 25 a7 98    	lea    0x98a725c0,%edi
  404ac3:	81 ef 21 e3 64 98    	sub    $0x9864e321,%edi
  404ac9:	57                   	push   %edi
  404aca:	8d 15 b1 25 a7 98    	lea    0x98a725b1,%edx
  404ad0:	81 ea 21 e3 64 98    	sub    $0x9864e321,%edx
  404ad6:	52                   	push   %edx
  404ad7:	a1 84 00 42 00       	mov    0x420084,%eax
  404adc:	ff d0                	call   *%eax
  404ade:	83 c3 d5             	add    $0xffffffd5,%ebx
  404ae1:	b9 01 00 00 00       	mov    $0x1,%ecx
  404ae6:	13 0d 6c 40 42 00    	adc    0x42406c,%ecx
  404aec:	2b 1d 1f 40 42 00    	sub    0x42401f,%ebx
  404af2:	8d 0d c0 25 a7 98    	lea    0x98a725c0,%ecx
  404af8:	81 e9 21 e3 64 98    	sub    $0x9864e321,%ecx
  404afe:	51                   	push   %ecx
  404aff:	8d 1d b1 25 a7 98    	lea    0x98a725b1,%ebx
  404b05:	81 eb 21 e3 64 98    	sub    $0x9864e321,%ebx
  404b0b:	53                   	push   %ebx
  404b0c:	a1 84 00 42 00       	mov    0x420084,%eax
  404b11:	ff d0                	call   *%eax
  404b13:	00 c0                	add    %al,%al
  404b15:	b9 01 00 00 00       	mov    $0x1,%ecx
  404b1a:	83 c1 12             	add    $0x12,%ecx
  404b1d:	6a 0f                	push   $0xf
  404b1f:	ff 0c 24             	decl   (%esp)
  404b22:	8d 3d a3 25 a7 98    	lea    0x98a725a3,%edi
  404b28:	81 ef 21 e3 64 98    	sub    $0x9864e321,%edi
  404b2e:	57                   	push   %edi
  404b2f:	8d 35 91 25 a7 98    	lea    0x98a72591,%esi
  404b35:	81 ee 21 e3 64 98    	sub    $0x9864e321,%esi
  404b3b:	56                   	push   %esi
  404b3c:	a1 78 00 42 00       	mov    0x420078,%eax
  404b41:	ff d0                	call   *%eax
  404b43:	83 f8 00             	cmp    $0x0,%eax
  404b46:	0f 85 b4 73 00 00    	jne    0x40bf00
  404b4c:	83 e3 6a             	and    $0x6a,%ebx
  404b4f:	8d 0d c0 25 a7 98    	lea    0x98a725c0,%ecx
  404b55:	81 e9 21 e3 64 98    	sub    $0x9864e321,%ecx
  404b5b:	51                   	push   %ecx
  404b5c:	8d 3d b1 25 a7 98    	lea    0x98a725b1,%edi
  404b62:	81 ef 21 e3 64 98    	sub    $0x9864e321,%edi
  404b68:	57                   	push   %edi
  404b69:	a1 84 00 42 00       	mov    0x420084,%eax
  404b6e:	ff d0                	call   *%eax
  404b70:	83 25 df 41 42 00 32 	andl   $0x32,0x4241df
  404b77:	2e e9 bf 6e 00 00    	cs jmp 0x40ba3c
  404b7d:	83 25 26 40 42 00 7f 	andl   $0x7f,0x424026
	...
  404b8c:	00 00                	add    %al,(%eax)
  404b8e:	83 c8 99             	or     $0xffffff99,%eax
  404b91:	0b 35 4a 40 42 00    	or     0x42404a,%esi
  404b97:	b9 01 00 00 00       	mov    $0x1,%ecx
  404b9c:	83 c1 ae             	add    $0xffffffae,%ecx
  404b9f:	6a 0f                	push   $0xf
  404ba1:	ff 0c 24             	decl   (%esp)
  404ba4:	8d 1d a3 25 a7 98    	lea    0x98a725a3,%ebx
  404baa:	81 eb 21 e3 64 98    	sub    $0x9864e321,%ebx
  404bb0:	53                   	push   %ebx
  404bb1:	8d 05 91 25 a7 98    	lea    0x98a72591,%eax
  404bb7:	2d 21 e3 64 98       	sub    $0x9864e321,%eax
  404bbc:	50                   	push   %eax
  404bbd:	a1 78 00 42 00       	mov    0x420078,%eax
  404bc2:	ff d0                	call   *%eax
  404bc4:	83 f8 00             	cmp    $0x0,%eax
  404bc7:	0f 85 33 73 00 00    	jne    0x40bf00
  404bcd:	0b 35 21 40 42 00    	or     0x424021,%esi
  404bd3:	83 ef ac             	sub    $0xffffffac,%edi
  404bd6:	b9 01 00 00 00       	mov    $0x1,%ecx
  404bdb:	01 f9                	add    %edi,%ecx
  404bdd:	8d 15 c0 25 a7 98    	lea    0x98a725c0,%edx
  404be3:	81 ea 21 e3 64 98    	sub    $0x9864e321,%edx
  404be9:	52                   	push   %edx
  404bea:	8d 3d b1 25 a7 98    	lea    0x98a725b1,%edi
  404bf0:	81 ef 21 e3 64 98    	sub    $0x9864e321,%edi
  404bf6:	57                   	push   %edi
  404bf7:	a1 84 00 42 00       	mov    0x420084,%eax
  404bfc:	ff d0                	call   *%eax
  404bfe:	2b 1d 67 40 42 00    	sub    0x424067,%ebx
  404c04:	8d 05 c0 25 a7 98    	lea    0x98a725c0,%eax
  404c0a:	2d 21 e3 64 98       	sub    $0x9864e321,%eax
  404c0f:	50                   	push   %eax
  404c10:	8d 1d b1 25 a7 98    	lea    0x98a725b1,%ebx
  404c16:	81 eb 21 e3 64 98    	sub    $0x9864e321,%ebx
  404c1c:	53                   	push   %ebx
  404c1d:	a1 84 00 42 00       	mov    0x420084,%eax
  404c22:	ff d0                	call   *%eax
  404c24:	8d 1d c0 25 a7 98    	lea    0x98a725c0,%ebx
  404c2a:	81 eb 21 e3 64 98    	sub    $0x9864e321,%ebx
  404c30:	53                   	push   %ebx
  404c31:	8d 1d b1 25 a7 98    	lea    0x98a725b1,%ebx
  404c37:	81 eb 21 e3 64 98    	sub    $0x9864e321,%ebx
  404c3d:	53                   	push   %ebx
  404c3e:	a1 84 00 42 00       	mov    0x420084,%eax
  404c43:	ff d0                	call   *%eax
  404c45:	b9 01 00 00 00       	mov    $0x1,%ecx
  404c4a:	83 c1 d2             	add    $0xffffffd2,%ecx
  404c4d:	83 d7 33             	adc    $0x33,%edi
  404c50:	83 e3 51             	and    $0x51,%ebx
  404c53:	19 f6                	sbb    %esi,%esi
  404c55:	8d 05 c0 25 a7 98    	lea    0x98a725c0,%eax
  404c5b:	2d 21 e3 64 98       	sub    $0x9864e321,%eax
  404c60:	50                   	push   %eax
  404c61:	8d 35 b1 25 a7 98    	lea    0x98a725b1,%esi
  404c67:	81 ee 21 e3 64 98    	sub    $0x9864e321,%esi
  404c6d:	56                   	push   %esi
  404c6e:	a1 84 00 42 00       	mov    0x420084,%eax
  404c73:	ff d0                	call   *%eax
  404c75:	19 c7                	sbb    %eax,%edi
  404c77:	83 35 60 40 42 00 69 	xorl   $0x69,0x424060
  404c7e:	83 15 fc 40 42 00 7b 	adcl   $0x7b,0x4240fc
  404c85:	c7 05 64 41 42 00 62 	movl   $0x62,0x424164
  404c8c:	00 00 00 
  404c8f:	31 c6                	xor    %eax,%esi
  404c91:	8d 05 c0 25 a7 98    	lea    0x98a725c0,%eax
  404c97:	2d 21 e3 64 98       	sub    $0x9864e321,%eax
  404c9c:	50                   	push   %eax
  404c9d:	8d 05 b1 25 a7 98    	lea    0x98a725b1,%eax
  404ca3:	2d 21 e3 64 98       	sub    $0x9864e321,%eax
  404ca8:	50                   	push   %eax
  404ca9:	a1 84 00 42 00       	mov    0x420084,%eax
  404cae:	ff d0                	call   *%eax
  404cb0:	83 c8 67             	or     $0x67,%eax
  404cb3:	01 d8                	add    %ebx,%eax
  404cb5:	8d 05 c0 25 a7 98    	lea    0x98a725c0,%eax
  404cbb:	2d 21 e3 64 98       	sub    $0x9864e321,%eax
  404cc0:	50                   	push   %eax
  404cc1:	8d 1d b1 25 a7 98    	lea    0x98a725b1,%ebx
  404cc7:	81 eb 21 e3 64 98    	sub    $0x9864e321,%ebx
  404ccd:	53                   	push   %ebx
  404cce:	a1 84 00 42 00       	mov    0x420084,%eax
  404cd3:	ff d0                	call   *%eax
  404cd5:	83 15 d8 41 42 00 3a 	adcl   $0x3a,0x4241d8
  404cdc:	31 df                	xor    %ebx,%edi
  404cde:	21 1d 8b 41 42 00    	and    %ebx,0x42418b
  404ce4:	81 0d c0 41 42 00 98 	orl    $0x98,0x4241c0
  404ceb:	00 00 00 
  404cee:	28 3d 07 41 42 00    	sub    %bh,0x424107
  404cf4:	6a 0f                	push   $0xf
  404cf6:	ff 0c 24             	decl   (%esp)
  404cf9:	8d 0d a3 25 a7 98    	lea    0x98a725a3,%ecx
  404cff:	81 e9 21 e3 64 98    	sub    $0x9864e321,%ecx
  404d05:	51                   	push   %ecx
  404d06:	8d 3d 91 25 a7 98    	lea    0x98a72591,%edi
  404d0c:	81 ef 21 e3 64 98    	sub    $0x9864e321,%edi
  404d12:	57                   	push   %edi
  404d13:	a1 78 00 42 00       	mov    0x420078,%eax
  404d18:	ff d0                	call   *%eax
  404d1a:	85 c0                	test   %eax,%eax
  404d1c:	0f 85 de 71 00 00    	jne    0x40bf00
  404d22:	8d 0d c0 25 a7 98    	lea    0x98a725c0,%ecx
  404d28:	81 e9 21 e3 64 98    	sub    $0x9864e321,%ecx
  404d2e:	51                   	push   %ecx
  404d2f:	8d 05 b1 25 a7 98    	lea    0x98a725b1,%eax
  404d35:	2d 21 e3 64 98       	sub    $0x9864e321,%eax
  404d3a:	50                   	push   %eax
  404d3b:	a1 84 00 42 00       	mov    0x420084,%eax
  404d40:	ff d0                	call   *%eax
  404d42:	31 35 d1 41 42 00    	xor    %esi,0x4241d1
  404d48:	29 c6                	sub    %eax,%esi
  404d4a:	2a 3d ea 41 42 00    	sub    0x4241ea,%bh
  404d50:	2b 05 50 41 42 00    	sub    0x424150,%eax
  404d56:	6a 0f                	push   $0xf
  404d58:	ff 0c 24             	decl   (%esp)
  404d5b:	8d 15 a3 25 a7 98    	lea    0x98a725a3,%edx
  404d61:	81 ea 21 e3 64 98    	sub    $0x9864e321,%edx
  404d67:	52                   	push   %edx
  404d68:	8d 35 91 25 a7 98    	lea    0x98a72591,%esi
  404d6e:	81 ee 21 e3 64 98    	sub    $0x9864e321,%esi
  404d74:	56                   	push   %esi
  404d75:	a1 78 00 42 00       	mov    0x420078,%eax
  404d7a:	ff d0                	call   *%eax
  404d7c:	83 f8 00             	cmp    $0x0,%eax
  404d7f:	0f 85 7b 71 00 00    	jne    0x40bf00
  404d85:	21 1d cc 40 42 00    	and    %ebx,0x4240cc
  404d8b:	c7 05 d9 40 42 00 3a 	movl   $0x3a,0x4240d9
  404d92:	00 00 00 
  404d95:	83 1d 96 40 42 00 7c 	sbbl   $0x7c,0x424096
  404d9c:	2e e9 9a 6c 00 00    	cs jmp 0x40ba3c
  404da2:	00 00                	add    %al,(%eax)
  404da4:	00 00                	add    %al,(%eax)
  404da6:	00 ba 01 00 00 00    	add    %bh,0x1(%edx)
  404dac:	01 da                	add    %ebx,%edx
  404dae:	6a 0f                	push   $0xf
  404db0:	ff 0c 24             	decl   (%esp)
  404db3:	8d 0d a3 25 a7 98    	lea    0x98a725a3,%ecx
  404db9:	81 e9 21 e3 64 98    	sub    $0x9864e321,%ecx
  404dbf:	51                   	push   %ecx
  404dc0:	8d 15 91 25 a7 98    	lea    0x98a72591,%edx
  404dc6:	81 ea 21 e3 64 98    	sub    $0x9864e321,%edx
  404dcc:	52                   	push   %edx
  404dcd:	a1 78 00 42 00       	mov    0x420078,%eax
  404dd2:	ff d0                	call   *%eax
  404dd4:	85 c0                	test   %eax,%eax
  404dd6:	0f 85 24 71 00 00    	jne    0x40bf00
  404ddc:	19 fb                	sbb    %edi,%ebx
  404dde:	12 05 e7 40 42 00    	adc    0x4240e7,%al
  404de4:	19 05 3d 41 42 00    	sbb    %eax,0x42413d
  404dea:	11 d8                	adc    %ebx,%eax
  404dec:	81 15 ec 41 42 00 89 	adcl   $0x89,0x4241ec
  404df3:	00 00 00 
  404df6:	6a 0f                	push   $0xf
  404df8:	ff 0c 24             	decl   (%esp)
  404dfb:	8d 0d a3 25 a7 98    	lea    0x98a725a3,%ecx
  404e01:	81 e9 21 e3 64 98    	sub    $0x9864e321,%ecx
  404e07:	51                   	push   %ecx
  404e08:	8d 15 91 25 a7 98    	lea    0x98a72591,%edx
  404e0e:	81 ea 21 e3 64 98    	sub    $0x9864e321,%edx
  404e14:	52                   	push   %edx
  404e15:	a1 78 00 42 00       	mov    0x420078,%eax
  404e1a:	ff d0                	call   *%eax
  404e1c:	85 c0                	test   %eax,%eax
  404e1e:	0f 85 dc 70 00 00    	jne    0x40bf00
  404e24:	82 2d c7 41 42 00 09 	subb   $0x9,0x4241c7
  404e2b:	c7 05 4f 40 42 00 a7 	movl   $0xa7,0x42404f
  404e32:	00 00 00 
  404e35:	8d 0d c0 25 a7 98    	lea    0x98a725c0,%ecx
  404e3b:	81 e9 21 e3 64 98    	sub    $0x9864e321,%ecx
  404e41:	51                   	push   %ecx
  404e42:	8d 15 b1 25 a7 98    	lea    0x98a725b1,%edx
  404e48:	81 ea 21 e3 64 98    	sub    $0x9864e321,%edx
  404e4e:	52                   	push   %edx
  404e4f:	a1 84 00 42 00       	mov    0x420084,%eax
  404e54:	ff d0                	call   *%eax
  404e56:	21 05 40 41 42 00    	and    %eax,0x424140
  404e5c:	6a 0f                	push   $0xf
  404e5e:	ff 0c 24             	decl   (%esp)
  404e61:	8d 35 a3 25 a7 98    	lea    0x98a725a3,%esi
  404e67:	81 ee 21 e3 64 98    	sub    $0x9864e321,%esi
  404e6d:	56                   	push   %esi
  404e6e:	8d 15 91 25 a7 98    	lea    0x98a72591,%edx
  404e74:	81 ea 21 e3 64 98    	sub    $0x9864e321,%edx
  404e7a:	52                   	push   %edx
  404e7b:	a1 78 00 42 00       	mov    0x420078,%eax
  404e80:	ff d0                	call   *%eax
  404e82:	85 c0                	test   %eax,%eax
  404e84:	0f 85 76 70 00 00    	jne    0x40bf00
  404e8a:	01 ff                	add    %edi,%edi
  404e8c:	8d 3d c0 25 a7 98    	lea    0x98a725c0,%edi
  404e92:	81 ef 21 e3 64 98    	sub    $0x9864e321,%edi
  404e98:	57                   	push   %edi
  404e99:	8d 35 b1 25 a7 98    	lea    0x98a725b1,%esi
  404e9f:	81 ee 21 e3 64 98    	sub    $0x9864e321,%esi
  404ea5:	56                   	push   %esi
  404ea6:	a1 84 00 42 00       	mov    0x420084,%eax
  404eab:	ff d0                	call   *%eax
  404ead:	11 3d ae 40 42 00    	adc    %edi,0x4240ae
  404eb3:	ba 01 00 00 00       	mov    $0x1,%edx
  404eb8:	13 15 60 40 42 00    	adc    0x424060,%edx
  404ebe:	8d 35 c0 25 a7 98    	lea    0x98a725c0,%esi
  404ec4:	81 ee 21 e3 64 98    	sub    $0x9864e321,%esi
  404eca:	56                   	push   %esi
  404ecb:	8d 1d b1 25 a7 98    	lea    0x98a725b1,%ebx
  404ed1:	81 eb 21 e3 64 98    	sub    $0x9864e321,%ebx
  404ed7:	53                   	push   %ebx
  404ed8:	a1 84 00 42 00       	mov    0x420084,%eax
  404edd:	ff d0                	call   *%eax
  404edf:	b9 01 00 00 00       	mov    $0x1,%ecx
  404ee4:	01 c1                	add    %eax,%ecx
  404ee6:	29 0d b7 41 42 00    	sub    %ecx,0x4241b7
  404eec:	82 2d 30 40 42 00 17 	subb   $0x17,0x424030
  404ef3:	8d 15 c0 25 a7 98    	lea    0x98a725c0,%edx
  404ef9:	81 ea 21 e3 64 98    	sub    $0x9864e321,%edx
  404eff:	52                   	push   %edx
  404f00:	8d 15 b1 25 a7 98    	lea    0x98a725b1,%edx
  404f06:	81 ea 21 e3 64 98    	sub    $0x9864e321,%edx
  404f0c:	52                   	push   %edx
  404f0d:	a1 84 00 42 00       	mov    0x420084,%eax
  404f12:	ff d0                	call   *%eax
  404f14:	20 3d ca 40 42 00    	and    %bh,0x4240ca
  404f1a:	6a 0f                	push   $0xf
  404f1c:	ff 0c 24             	decl   (%esp)
  404f1f:	8d 3d a3 25 a7 98    	lea    0x98a725a3,%edi
  404f25:	81 ef 21 e3 64 98    	sub    $0x9864e321,%edi
  404f2b:	57                   	push   %edi
  404f2c:	8d 0d 91 25 a7 98    	lea    0x98a72591,%ecx
  404f32:	81 e9 21 e3 64 98    	sub    $0x9864e321,%ecx
  404f38:	51                   	push   %ecx
  404f39:	a1 78 00 42 00       	mov    0x420078,%eax
  404f3e:	ff d0                	call   *%eax
  404f40:	85 c0                	test   %eax,%eax
  404f42:	0f 85 b8 6f 00 00    	jne    0x40bf00
  404f48:	08 3d e0 40 42 00    	or     %bh,0x4240e0
  404f4e:	13 05 fb 41 42 00    	adc    0x4241fb,%eax
  404f54:	83 25 cf 40 42 00 4f 	andl   $0x4f,0x4240cf
  404f5b:	09 05 bb 41 42 00    	or     %eax,0x4241bb
  404f61:	6a 0f                	push   $0xf
  404f63:	ff 0c 24             	decl   (%esp)
  404f66:	8d 15 a3 25 a7 98    	lea    0x98a725a3,%edx
  404f6c:	81 ea 21 e3 64 98    	sub    $0x9864e321,%edx
  404f72:	52                   	push   %edx
  404f73:	8d 15 91 25 a7 98    	lea    0x98a72591,%edx
  404f79:	81 ea 21 e3 64 98    	sub    $0x9864e321,%edx
  404f7f:	52                   	push   %edx
  404f80:	a1 78 00 42 00       	mov    0x420078,%eax
  404f85:	ff d0                	call   *%eax
  404f87:	85 c0                	test   %eax,%eax
  404f89:	0f 85 71 6f 00 00    	jne    0x40bf00
  404f8f:	19 df                	sbb    %ebx,%edi
  404f91:	01 df                	add    %ebx,%edi
  404f93:	c7 05 d2 40 42 00 67 	movl   $0x67,0x4240d2
  404f9a:	00 00 00 
  404f9d:	8d 0d c0 25 a7 98    	lea    0x98a725c0,%ecx
  404fa3:	81 e9 21 e3 64 98    	sub    $0x9864e321,%ecx
  404fa9:	51                   	push   %ecx
  404faa:	8d 35 b1 25 a7 98    	lea    0x98a725b1,%esi
  404fb0:	81 ee 21 e3 64 98    	sub    $0x9864e321,%esi
  404fb6:	56                   	push   %esi
  404fb7:	a1 84 00 42 00       	mov    0x420084,%eax
  404fbc:	ff d0                	call   *%eax
  404fbe:	c7 05 5e 41 42 00 b3 	movl   $0xb3,0x42415e
  404fc5:	00 00 00 
  404fc8:	81 0d 06 40 42 00 fa 	orl    $0xfa,0x424006
  404fcf:	00 00 00 
  404fd2:	19 f3                	sbb    %esi,%ebx
  404fd4:	ba 01 00 00 00       	mov    $0x1,%edx
  404fd9:	83 c2 83             	add    $0xffffff83,%edx
  404fdc:	81 25 3e 41 42 00 cf 	andl   $0xcf,0x42413e
  404fe3:	00 00 00 
  404fe6:	8d 05 c0 25 a7 98    	lea    0x98a725c0,%eax
  404fec:	2d 21 e3 64 98       	sub    $0x9864e321,%eax
  404ff1:	50                   	push   %eax
  404ff2:	8d 0d b1 25 a7 98    	lea    0x98a725b1,%ecx
  404ff8:	81 e9 21 e3 64 98    	sub    $0x9864e321,%ecx
  404ffe:	51                   	push   %ecx
  404fff:	a1 84 00 42 00       	mov    0x420084,%eax
  405004:	ff d0                	call   *%eax
  405006:	b5 01                	mov    $0x1,%ch
  405008:	00 c5                	add    %al,%ch
  40500a:	ba 01 00 00 00       	mov    $0x1,%edx
  40500f:	01 c2                	add    %eax,%edx
  405011:	c7 05 c4 40 42 00 e4 	movl   $0xe4,0x4240c4
  405018:	00 00 00 
  40501b:	6a 0f                	push   $0xf
  40501d:	ff 0c 24             	decl   (%esp)
  405020:	8d 3d a3 25 a7 98    	lea    0x98a725a3,%edi
  405026:	81 ef 21 e3 64 98    	sub    $0x9864e321,%edi
  40502c:	57                   	push   %edi
  40502d:	8d 15 91 25 a7 98    	lea    0x98a72591,%edx
  405033:	81 ea 21 e3 64 98    	sub    $0x9864e321,%edx
  405039:	52                   	push   %edx
  40503a:	a1 78 00 42 00       	mov    0x420078,%eax
  40503f:	ff d0                	call   *%eax
  405041:	85 c0                	test   %eax,%eax
  405043:	0f 85 b7 6e 00 00    	jne    0x40bf00
  405049:	01 3d 31 40 42 00    	add    %edi,0x424031
  40504f:	13 1d 6c 41 42 00    	adc    0x42416c,%ebx
  405055:	2e e9 e1 69 00 00    	cs jmp 0x40ba3c
  40505b:	08 1d 7e 41 42 00    	or     %bl,0x42417e
  405061:	b2 01                	mov    $0x1,%dl
  405063:	82 c2 53             	add    $0x53,%dl
  405066:	83 ca 0e             	or     $0xe,%edx
  405069:	01 db                	add    %ebx,%ebx
  40506b:	00 00                	add    %al,(%eax)
  40506d:	00 00                	add    %al,(%eax)
  40506f:	00 82 2d 14 41 42    	add    %al,0x4241142d(%edx)
  405075:	00 df                	add    %bl,%bh
  405077:	b9 01 00 00 00       	mov    $0x1,%ecx
  40507c:	01 f9                	add    %edi,%ecx
  40507e:	ba 01 00 00 00       	mov    $0x1,%edx
  405083:	83 c2 df             	add    $0xffffffdf,%edx
  405086:	6a 0f                	push   $0xf
  405088:	ff 0c 24             	decl   (%esp)
  40508b:	8d 05 a3 25 a7 98    	lea    0x98a725a3,%eax
  405091:	2d 21 e3 64 98       	sub    $0x9864e321,%eax
  405096:	50                   	push   %eax
  405097:	8d 15 91 25 a7 98    	lea    0x98a72591,%edx
  40509d:	81 ea 21 e3 64 98    	sub    $0x9864e321,%edx
  4050a3:	52                   	push   %edx
  4050a4:	a1 78 00 42 00       	mov    0x420078,%eax
  4050a9:	ff d0                	call   *%eax
  4050ab:	85 c0                	test   %eax,%eax
  4050ad:	0f 85 4d 6e 00 00    	jne    0x40bf00
  4050b3:	81 15 26 41 42 00 ee 	adcl   $0xee,0x424126
  4050ba:	00 00 00 
  4050bd:	ba 01 00 00 00       	mov    $0x1,%edx
  4050c2:	13 15 f5 40 42 00    	adc    0x4240f5,%edx
  4050c8:	83 15 ce 40 42 00 0d 	adcl   $0xd,0x4240ce
  4050cf:	28 e0                	sub    %ah,%al
  4050d1:	6a 0f                	push   $0xf
  4050d3:	ff 0c 24             	decl   (%esp)
  4050d6:	8d 3d a3 25 a7 98    	lea    0x98a725a3,%edi
  4050dc:	81 ef 21 e3 64 98    	sub    $0x9864e321,%edi
  4050e2:	57                   	push   %edi
  4050e3:	8d 0d 91 25 a7 98    	lea    0x98a72591,%ecx
  4050e9:	81 e9 21 e3 64 98    	sub    $0x9864e321,%ecx
  4050ef:	51                   	push   %ecx
  4050f0:	a1 78 00 42 00       	mov    0x420078,%eax
  4050f5:	ff d0                	call   *%eax
  4050f7:	85 c0                	test   %eax,%eax
  4050f9:	0f 85 01 6e 00 00    	jne    0x40bf00
  4050ff:	0b 05 ba 41 42 00    	or     0x4241ba,%eax
  405105:	8d 3d c0 25 a7 98    	lea    0x98a725c0,%edi
  40510b:	81 ef 21 e3 64 98    	sub    $0x9864e321,%edi
  405111:	57                   	push   %edi
  405112:	8d 0d b1 25 a7 98    	lea    0x98a725b1,%ecx
  405118:	81 e9 21 e3 64 98    	sub    $0x9864e321,%ecx
  40511e:	51                   	push   %ecx
  40511f:	a1 84 00 42 00       	mov    0x420084,%eax
  405124:	ff d0                	call   *%eax
  405126:	b9 01 00 00 00       	mov    $0x1,%ecx
  40512b:	83 c1 1b             	add    $0x1b,%ecx
  40512e:	83 f6 d0             	xor    $0xffffffd0,%esi
  405131:	29 05 e6 41 42 00    	sub    %eax,0x4241e6
  405137:	ba 01 00 00 00       	mov    $0x1,%edx
  40513c:	01 da                	add    %ebx,%edx
  40513e:	8d 3d c0 25 a7 98    	lea    0x98a725c0,%edi
  405144:	81 ef 21 e3 64 98    	sub    $0x9864e321,%edi
  40514a:	57                   	push   %edi
  40514b:	8d 35 b1 25 a7 98    	lea    0x98a725b1,%esi
  405151:	81 ee 21 e3 64 98    	sub    $0x9864e321,%esi
  405157:	56                   	push   %esi
  405158:	a1 84 00 42 00       	mov    0x420084,%eax
  40515d:	ff d0                	call   *%eax
  40515f:	19 1d c3 41 42 00    	sbb    %ebx,0x4241c3
  405165:	83 0d 13 41 42 00 11 	orl    $0x11,0x424113
  40516c:	12 3d 85 41 42 00    	adc    0x424185,%bh
  405172:	6a 0f                	push   $0xf
  405174:	ff 0c 24             	decl   (%esp)
  405177:	8d 15 a3 25 a7 98    	lea    0x98a725a3,%edx
  40517d:	81 ea 21 e3 64 98    	sub    $0x9864e321,%edx
  405183:	52                   	push   %edx
  405184:	8d 0d 91 25 a7 98    	lea    0x98a72591,%ecx
  40518a:	81 e9 21 e3 64 98    	sub    $0x9864e321,%ecx
  405190:	51                   	push   %ecx
  405191:	a1 78 00 42 00       	mov    0x420078,%eax
  405196:	ff d0                	call   *%eax
  405198:	83 f8 00             	cmp    $0x0,%eax
  40519b:	0f 85 5f 6d 00 00    	jne    0x40bf00
  4051a1:	31 d8                	xor    %ebx,%eax
  4051a3:	09 05 13 40 42 00    	or     %eax,0x424013
  4051a9:	8d 05 c0 25 a7 98    	lea    0x98a725c0,%eax
  4051af:	2d 21 e3 64 98       	sub    $0x9864e321,%eax
  4051b4:	50                   	push   %eax
  4051b5:	8d 3d b1 25 a7 98    	lea    0x98a725b1,%edi
  4051bb:	81 ef 21 e3 64 98    	sub    $0x9864e321,%edi
  4051c1:	57                   	push   %edi
  4051c2:	a1 84 00 42 00       	mov    0x420084,%eax
  4051c7:	ff d0                	call   *%eax
  4051c9:	ba 01 00 00 00       	mov    $0x1,%edx
  4051ce:	83 c2 0b             	add    $0xb,%edx
  4051d1:	01 35 ef 40 42 00    	add    %esi,0x4240ef
  4051d7:	83 d7 cf             	adc    $0xffffffcf,%edi
  4051da:	01 fa                	add    %edi,%edx
  4051dc:	6a 0f                	push   $0xf
  4051de:	ff 0c 24             	decl   (%esp)
  4051e1:	8d 0d a3 25 a7 98    	lea    0x98a725a3,%ecx
  4051e7:	81 e9 21 e3 64 98    	sub    $0x9864e321,%ecx
  4051ed:	51                   	push   %ecx
  4051ee:	8d 35 91 25 a7 98    	lea    0x98a72591,%esi
  4051f4:	81 ee 21 e3 64 98    	sub    $0x9864e321,%esi
  4051fa:	56                   	push   %esi
  4051fb:	a1 78 00 42 00       	mov    0x420078,%eax
  405200:	ff d0                	call   *%eax
  405202:	83 f8 00             	cmp    $0x0,%eax
  405205:	0f 85 f5 6c 00 00    	jne    0x40bf00
  40520b:	01 35 62 41 42 00    	add    %esi,0x424162
  405211:	ba 01 00 00 00       	mov    $0x1,%edx
  405216:	01 fa                	add    %edi,%edx
  405218:	83 ea f5             	sub    $0xfffffff5,%edx
  40521b:	81 35 11 40 42 00 eb 	xorl   $0xeb,0x424011
  405222:	00 00 00 
  405225:	c7 05 32 40 42 00 e1 	movl   $0xe1,0x424032
  40522c:	00 00 00 
  40522f:	6a 0f                	push   $0xf
  405231:	ff 0c 24             	decl   (%esp)
  405234:	8d 1d a3 25 a7 98    	lea    0x98a725a3,%ebx
  40523a:	81 eb 21 e3 64 98    	sub    $0x9864e321,%ebx
  405240:	53                   	push   %ebx
  405241:	8d 0d 91 25 a7 98    	lea    0x98a72591,%ecx
  405247:	81 e9 21 e3 64 98    	sub    $0x9864e321,%ecx
  40524d:	51                   	push   %ecx
  40524e:	a1 78 00 42 00       	mov    0x420078,%eax
  405253:	ff d0                	call   *%eax
  405255:	83 f8 00             	cmp    $0x0,%eax
  405258:	0f 85 a2 6c 00 00    	jne    0x40bf00
  40525e:	83 f0 56             	xor    $0x56,%eax
  405261:	83 1d 38 41 42 00 76 	sbbl   $0x76,0x424138
  405268:	19 3d 37 40 42 00    	sbb    %edi,0x424037
  40526e:	c7 05 c5 41 42 00 65 	movl   $0x65,0x4241c5
  405275:	00 00 00 
  405278:	19 db                	sbb    %ebx,%ebx
  40527a:	8d 05 c0 25 a7 98    	lea    0x98a725c0,%eax
  405280:	2d 21 e3 64 98       	sub    $0x9864e321,%eax
  405285:	50                   	push   %eax
  405286:	8d 1d b1 25 a7 98    	lea    0x98a725b1,%ebx
  40528c:	81 eb 21 e3 64 98    	sub    $0x9864e321,%ebx
  405292:	53                   	push   %ebx
  405293:	a1 84 00 42 00       	mov    0x420084,%eax
  405298:	ff d0                	call   *%eax
  40529a:	01 f0                	add    %esi,%eax
  40529c:	6a 0f                	push   $0xf
  40529e:	ff 0c 24             	decl   (%esp)
  4052a1:	8d 1d a3 25 a7 98    	lea    0x98a725a3,%ebx
  4052a7:	81 eb 21 e3 64 98    	sub    $0x9864e321,%ebx
  4052ad:	53                   	push   %ebx
  4052ae:	8d 15 91 25 a7 98    	lea    0x98a72591,%edx
  4052b4:	81 ea 21 e3 64 98    	sub    $0x9864e321,%edx
  4052ba:	52                   	push   %edx
  4052bb:	a1 78 00 42 00       	mov    0x420078,%eax
  4052c0:	ff d0                	call   *%eax
  4052c2:	85 c0                	test   %eax,%eax
  4052c4:	0f 85 36 6c 00 00    	jne    0x40bf00
  4052ca:	81 25 17 40 42 00 f4 	andl   $0xf4,0x424017
  4052d1:	00 00 00 
  4052d4:	2e e9 62 67 00 00    	cs jmp 0x40ba3c
	...
  4052e2:	00 00                	add    %al,(%eax)
  4052e4:	00 8d 05 c0 25 a7    	add    %cl,-0x58da3ffb(%ebp)
  4052ea:	98                   	cwtl
  4052eb:	2d 21 e3 64 98       	sub    $0x9864e321,%eax
  4052f0:	50                   	push   %eax
  4052f1:	8d 3d b1 25 a7 98    	lea    0x98a725b1,%edi
  4052f7:	81 ef 21 e3 64 98    	sub    $0x9864e321,%edi
  4052fd:	57                   	push   %edi
  4052fe:	a1 84 00 42 00       	mov    0x420084,%eax
  405303:	ff d0                	call   *%eax
  405305:	81 35 83 41 42 00 ba 	xorl   $0xba,0x424183
  40530c:	00 00 00 
  40530f:	01 f8                	add    %edi,%eax
  405311:	8d 35 c0 25 a7 98    	lea    0x98a725c0,%esi
  405317:	81 ee 21 e3 64 98    	sub    $0x9864e321,%esi
  40531d:	56                   	push   %esi
  40531e:	8d 05 b1 25 a7 98    	lea    0x98a725b1,%eax
  405324:	2d 21 e3 64 98       	sub    $0x9864e321,%eax
  405329:	50                   	push   %eax
  40532a:	a1 84 00 42 00       	mov    0x420084,%eax
  40532f:	ff d0                	call   *%eax
  405331:	31 05 a1 41 42 00    	xor    %eax,0x4241a1
  405337:	12 3d 0a 41 42 00    	adc    0x42410a,%bh
  40533d:	01 f8                	add    %edi,%eax
  40533f:	c7 05 7b 40 42 00 d7 	movl   $0xd7,0x42407b
  405346:	00 00 00 
  405349:	6a 0f                	push   $0xf
  40534b:	ff 0c 24             	decl   (%esp)
  40534e:	8d 15 a3 25 a7 98    	lea    0x98a725a3,%edx
  405354:	81 ea 21 e3 64 98    	sub    $0x9864e321,%edx
  40535a:	52                   	push   %edx
  40535b:	8d 05 91 25 a7 98    	lea    0x98a72591,%eax
  405361:	2d 21 e3 64 98       	sub    $0x9864e321,%eax
  405366:	50                   	push   %eax
  405367:	a1 78 00 42 00       	mov    0x420078,%eax
  40536c:	ff d0                	call   *%eax
  40536e:	85 c0                	test   %eax,%eax
  405370:	0f 85 8a 6b 00 00    	jne    0x40bf00
  405376:	83 15 5c 41 42 00 28 	adcl   $0x28,0x42415c
  40537d:	12 25 8b 41 42 00    	adc    0x42418b,%ah
  405383:	6a 0f                	push   $0xf
  405385:	ff 0c 24             	decl   (%esp)
  405388:	8d 0d a3 25 a7 98    	lea    0x98a725a3,%ecx
  40538e:	81 e9 21 e3 64 98    	sub    $0x9864e321,%ecx
  405394:	51                   	push   %ecx
  405395:	8d 05 91 25 a7 98    	lea    0x98a72591,%eax
  40539b:	2d 21 e3 64 98       	sub    $0x9864e321,%eax
  4053a0:	50                   	push   %eax
  4053a1:	a1 78 00 42 00       	mov    0x420078,%eax
  4053a6:	ff d0                	call   *%eax
  4053a8:	83 f8 00             	cmp    $0x0,%eax
  4053ab:	0f 85 4f 6b 00 00    	jne    0x40bf00
  4053b1:	2b 05 f6 41 42 00    	sub    0x4241f6,%eax
  4053b7:	8d 3d c0 25 a7 98    	lea    0x98a725c0,%edi
  4053bd:	81 ef 21 e3 64 98    	sub    $0x9864e321,%edi
  4053c3:	57                   	push   %edi
  4053c4:	8d 0d b1 25 a7 98    	lea    0x98a725b1,%ecx
  4053ca:	81 e9 21 e3 64 98    	sub    $0x9864e321,%ecx
  4053d0:	51                   	push   %ecx
  4053d1:	a1 84 00 42 00       	mov    0x420084,%eax
  4053d6:	ff d0                	call   *%eax
  4053d8:	b9 01 00 00 00       	mov    $0x1,%ecx
  4053dd:	13 0d fe 41 42 00    	adc    0x4241fe,%ecx
  4053e3:	19 3d 83 40 42 00    	sbb    %edi,0x424083
  4053e9:	09 05 0a 40 42 00    	or     %eax,0x42400a
  4053ef:	8d 05 c0 25 a7 98    	lea    0x98a725c0,%eax
  4053f5:	2d 21 e3 64 98       	sub    $0x9864e321,%eax
  4053fa:	50                   	push   %eax
  4053fb:	8d 3d b1 25 a7 98    	lea    0x98a725b1,%edi
  405401:	81 ef 21 e3 64 98    	sub    $0x9864e321,%edi
  405407:	57                   	push   %edi
  405408:	a1 84 00 42 00       	mov    0x420084,%eax
  40540d:	ff d0                	call   *%eax
  40540f:	ba 01 00 00 00       	mov    $0x1,%edx
  405414:	01 fa                	add    %edi,%edx
  405416:	83 c0 8b             	add    $0xffffff8b,%eax
  405419:	8d 15 c0 25 a7 98    	lea    0x98a725c0,%edx
  40541f:	81 ea 21 e3 64 98    	sub    $0x9864e321,%edx
  405425:	52                   	push   %edx
  405426:	8d 15 b1 25 a7 98    	lea    0x98a725b1,%edx
  40542c:	81 ea 21 e3 64 98    	sub    $0x9864e321,%edx
  405432:	52                   	push   %edx
  405433:	a1 84 00 42 00       	mov    0x420084,%eax
  405438:	ff d0                	call   *%eax
  40543a:	6a 0f                	push   $0xf
  40543c:	ff 0c 24             	decl   (%esp)
  40543f:	8d 0d a3 25 a7 98    	lea    0x98a725a3,%ecx
  405445:	81 e9 21 e3 64 98    	sub    $0x9864e321,%ecx
  40544b:	51                   	push   %ecx
  40544c:	8d 0d 91 25 a7 98    	lea    0x98a72591,%ecx
  405452:	81 e9 21 e3 64 98    	sub    $0x9864e321,%ecx
  405458:	51                   	push   %ecx
  405459:	a1 78 00 42 00       	mov    0x420078,%eax
  40545e:	ff d0                	call   *%eax
  405460:	83 f8 00             	cmp    $0x0,%eax
  405463:	0f 85 97 6a 00 00    	jne    0x40bf00
  405469:	01 f0                	add    %esi,%eax
  40546b:	6a 0f                	push   $0xf
  40546d:	ff 0c 24             	decl   (%esp)
  405470:	8d 0d a3 25 a7 98    	lea    0x98a725a3,%ecx
  405476:	81 e9 21 e3 64 98    	sub    $0x9864e321,%ecx
  40547c:	51                   	push   %ecx
  40547d:	8d 35 91 25 a7 98    	lea    0x98a72591,%esi
  405483:	81 ee 21 e3 64 98    	sub    $0x9864e321,%esi
  405489:	56                   	push   %esi
  40548a:	a1 78 00 42 00       	mov    0x420078,%eax
  40548f:	ff d0                	call   *%eax
  405491:	83 f8 00             	cmp    $0x0,%eax
  405494:	0f 85 66 6a 00 00    	jne    0x40bf00
  40549a:	83 35 e1 41 42 00 31 	xorl   $0x31,0x4241e1
  4054a1:	83 0d 7e 41 42 00 6e 	orl    $0x6e,0x42417e
  4054a8:	19 1d 0a 41 42 00    	sbb    %ebx,0x42410a
  4054ae:	21 05 53 41 42 00    	and    %eax,0x424153
  4054b4:	8d 3d c0 25 a7 98    	lea    0x98a725c0,%edi
  4054ba:	81 ef 21 e3 64 98    	sub    $0x9864e321,%edi
  4054c0:	57                   	push   %edi
  4054c1:	8d 3d b1 25 a7 98    	lea    0x98a725b1,%edi
  4054c7:	81 ef 21 e3 64 98    	sub    $0x9864e321,%edi
  4054cd:	57                   	push   %edi
  4054ce:	a1 84 00 42 00       	mov    0x420084,%eax
  4054d3:	ff d0                	call   *%eax
  4054d5:	01 05 97 41 42 00    	add    %eax,0x424197
  4054db:	13 1d c6 40 42 00    	adc    0x4240c6,%ebx
  4054e1:	b9 01 00 00 00       	mov    $0x1,%ecx
  4054e6:	83 c1 52             	add    $0x52,%ecx
  4054e9:	6a 0f                	push   $0xf
  4054eb:	ff 0c 24             	decl   (%esp)
  4054ee:	8d 15 a3 25 a7 98    	lea    0x98a725a3,%edx
  4054f4:	81 ea 21 e3 64 98    	sub    $0x9864e321,%edx
  4054fa:	52                   	push   %edx
  4054fb:	8d 1d 91 25 a7 98    	lea    0x98a72591,%ebx
  405501:	81 eb 21 e3 64 98    	sub    $0x9864e321,%ebx
  405507:	53                   	push   %ebx
  405508:	a1 78 00 42 00       	mov    0x420078,%eax
  40550d:	ff d0                	call   *%eax
  40550f:	83 f8 00             	cmp    $0x0,%eax
  405512:	0f 85 e8 69 00 00    	jne    0x40bf00
  405518:	29 05 d4 40 42 00    	sub    %eax,0x4240d4
  40551e:	0b 35 b2 40 42 00    	or     0x4240b2,%esi
  405524:	83 1d d7 40 42 00 13 	sbbl   $0x13,0x4240d7
  40552b:	2e e9 0b 65 00 00    	cs jmp 0x40ba3c
  405531:	ba 01 00 00 00       	mov    $0x1,%edx
  405536:	01 fa                	add    %edi,%edx
  405538:	00 00                	add    %al,(%eax)
  40553a:	00 00                	add    %al,(%eax)
  40553c:	6a 0f                	push   $0xf
  40553e:	ff 0c 24             	decl   (%esp)
  405541:	8d 3d a3 25 a7 98    	lea    0x98a725a3,%edi
  405547:	81 ef 21 e3 64 98    	sub    $0x9864e321,%edi
  40554d:	57                   	push   %edi
  40554e:	8d 0d 91 25 a7 98    	lea    0x98a72591,%ecx
  405554:	81 e9 21 e3 64 98    	sub    $0x9864e321,%ecx
  40555a:	51                   	push   %ecx
  40555b:	a1 78 00 42 00       	mov    0x420078,%eax
  405560:	ff d0                	call   *%eax
  405562:	83 f8 00             	cmp    $0x0,%eax
  405565:	0f 85 95 69 00 00    	jne    0x40bf00
  40556b:	31 1d 6f 41 42 00    	xor    %ebx,0x42416f
  405571:	83 1d 9a 40 42 00 6c 	sbbl   $0x6c,0x42409a
  405578:	31 c7                	xor    %eax,%edi
  40557a:	21 35 1a 41 42 00    	and    %esi,0x42411a
  405580:	82 2d 0c 41 42 00 31 	subb   $0x31,0x42410c
  405587:	8d 0d c0 25 a7 98    	lea    0x98a725c0,%ecx
  40558d:	81 e9 21 e3 64 98    	sub    $0x9864e321,%ecx
  405593:	51                   	push   %ecx
  405594:	8d 0d b1 25 a7 98    	lea    0x98a725b1,%ecx
  40559a:	81 e9 21 e3 64 98    	sub    $0x9864e321,%ecx
  4055a0:	51                   	push   %ecx
  4055a1:	a1 84 00 42 00       	mov    0x420084,%eax
  4055a6:	ff d0                	call   *%eax
  4055a8:	12 05 5e 41 42 00    	adc    0x42415e,%al
  4055ae:	6a 0f                	push   $0xf
  4055b0:	ff 0c 24             	decl   (%esp)
  4055b3:	8d 35 a3 25 a7 98    	lea    0x98a725a3,%esi
  4055b9:	81 ee 21 e3 64 98    	sub    $0x9864e321,%esi
  4055bf:	56                   	push   %esi
  4055c0:	8d 0d 91 25 a7 98    	lea    0x98a72591,%ecx
  4055c6:	81 e9 21 e3 64 98    	sub    $0x9864e321,%ecx
  4055cc:	51                   	push   %ecx
  4055cd:	a1 78 00 42 00       	mov    0x420078,%eax
  4055d2:	ff d0                	call   *%eax
  4055d4:	85 c0                	test   %eax,%eax
  4055d6:	0f 85 24 69 00 00    	jne    0x40bf00
  4055dc:	81 25 88 40 42 00 b3 	andl   $0xb3,0x424088
  4055e3:	00 00 00 
  4055e6:	01 3d bb 40 42 00    	add    %edi,0x4240bb
  4055ec:	6a 0f                	push   $0xf
  4055ee:	ff 0c 24             	decl   (%esp)
  4055f1:	8d 0d a3 25 a7 98    	lea    0x98a725a3,%ecx
  4055f7:	81 e9 21 e3 64 98    	sub    $0x9864e321,%ecx
  4055fd:	51                   	push   %ecx
  4055fe:	8d 3d 91 25 a7 98    	lea    0x98a72591,%edi
  405604:	81 ef 21 e3 64 98    	sub    $0x9864e321,%edi
  40560a:	57                   	push   %edi
  40560b:	a1 78 00 42 00       	mov    0x420078,%eax
  405610:	ff d0                	call   *%eax
  405612:	83 f8 00             	cmp    $0x0,%eax
  405615:	0f 85 e5 68 00 00    	jne    0x40bf00
  40561b:	c7 05 8b 41 42 00 64 	movl   $0x64,0x42418b
  405622:	00 00 00 
  405625:	13 35 b2 41 42 00    	adc    0x4241b2,%esi
  40562b:	29 f8                	sub    %edi,%eax
  40562d:	31 fe                	xor    %edi,%esi
  40562f:	28 3d 54 40 42 00    	sub    %bh,0x424054
  405635:	8d 0d c0 25 a7 98    	lea    0x98a725c0,%ecx
  40563b:	81 e9 21 e3 64 98    	sub    $0x9864e321,%ecx
  405641:	51                   	push   %ecx
  405642:	8d 3d b1 25 a7 98    	lea    0x98a725b1,%edi
  405648:	81 ef 21 e3 64 98    	sub    $0x9864e321,%edi
  40564e:	57                   	push   %edi
  40564f:	a1 84 00 42 00       	mov    0x420084,%eax
  405654:	ff d0                	call   *%eax
  405656:	13 05 ac 41 42 00    	adc    0x4241ac,%eax
  40565c:	b9 01 00 00 00       	mov    $0x1,%ecx
  405661:	13 0d 7a 41 42 00    	adc    0x42417a,%ecx
  405667:	83 25 1d 41 42 00 16 	andl   $0x16,0x42411d
  40566e:	11 d8                	adc    %ebx,%eax
  405670:	6a 0f                	push   $0xf
  405672:	ff 0c 24             	decl   (%esp)
  405675:	8d 1d a3 25 a7 98    	lea    0x98a725a3,%ebx
  40567b:	81 eb 21 e3 64 98    	sub    $0x9864e321,%ebx
  405681:	53                   	push   %ebx
  405682:	8d 1d 91 25 a7 98    	lea    0x98a72591,%ebx
  405688:	81 eb 21 e3 64 98    	sub    $0x9864e321,%ebx
  40568e:	53                   	push   %ebx
  40568f:	a1 78 00 42 00       	mov    0x420078,%eax
  405694:	ff d0                	call   *%eax
  405696:	83 f8 00             	cmp    $0x0,%eax
  405699:	0f 85 61 68 00 00    	jne    0x40bf00
  40569f:	8d 3d c0 25 a7 98    	lea    0x98a725c0,%edi
  4056a5:	81 ef 21 e3 64 98    	sub    $0x9864e321,%edi
  4056ab:	57                   	push   %edi
  4056ac:	8d 15 b1 25 a7 98    	lea    0x98a725b1,%edx
  4056b2:	81 ea 21 e3 64 98    	sub    $0x9864e321,%edx
  4056b8:	52                   	push   %edx
  4056b9:	a1 84 00 42 00       	mov    0x420084,%eax
  4056be:	ff d0                	call   *%eax
  4056c0:	c7 05 44 41 42 00 5f 	movl   $0x5f,0x424144
  4056c7:	00 00 00 
  4056ca:	ba 01 00 00 00       	mov    $0x1,%edx
  4056cf:	01 c2                	add    %eax,%edx
  4056d1:	01 f8                	add    %edi,%eax
  4056d3:	13 35 88 40 42 00    	adc    0x424088,%esi
  4056d9:	29 35 43 40 42 00    	sub    %esi,0x424043
  4056df:	8d 3d c0 25 a7 98    	lea    0x98a725c0,%edi
  4056e5:	81 ef 21 e3 64 98    	sub    $0x9864e321,%edi
  4056eb:	57                   	push   %edi
  4056ec:	8d 35 b1 25 a7 98    	lea    0x98a725b1,%esi
  4056f2:	81 ee 21 e3 64 98    	sub    $0x9864e321,%esi
  4056f8:	56                   	push   %esi
  4056f9:	a1 84 00 42 00       	mov    0x420084,%eax
  4056fe:	ff d0                	call   *%eax
  405700:	13 35 2e 41 42 00    	adc    0x42412e,%esi
  405706:	c7 05 18 41 42 00 d5 	movl   $0xd5,0x424118
  40570d:	00 00 00 
  405710:	12 25 55 40 42 00    	adc    0x424055,%ah
  405716:	6a 0f                	push   $0xf
  405718:	ff 0c 24             	decl   (%esp)
  40571b:	8d 15 a3 25 a7 98    	lea    0x98a725a3,%edx
  405721:	81 ea 21 e3 64 98    	sub    $0x9864e321,%edx
  405727:	52                   	push   %edx
  405728:	8d 3d 91 25 a7 98    	lea    0x98a72591,%edi
  40572e:	81 ef 21 e3 64 98    	sub    $0x9864e321,%edi
  405734:	57                   	push   %edi
  405735:	a1 78 00 42 00       	mov    0x420078,%eax
  40573a:	ff d0                	call   *%eax
  40573c:	85 c0                	test   %eax,%eax
  40573e:	0f 85 bc 67 00 00    	jne    0x40bf00
  405744:	82 ef b1             	sub    $0xb1,%bh
  405747:	8d 3d c0 25 a7 98    	lea    0x98a725c0,%edi
  40574d:	81 ef 21 e3 64 98    	sub    $0x9864e321,%edi
  405753:	57                   	push   %edi
  405754:	8d 3d b1 25 a7 98    	lea    0x98a725b1,%edi
  40575a:	81 ef 21 e3 64 98    	sub    $0x9864e321,%edi
  405760:	57                   	push   %edi
  405761:	a1 84 00 42 00       	mov    0x420084,%eax
  405766:	ff d0                	call   *%eax
  405768:	2b 35 51 41 42 00    	sub    0x424151,%esi
  40576e:	6a 0f                	push   $0xf
  405770:	ff 0c 24             	decl   (%esp)
  405773:	8d 15 a3 25 a7 98    	lea    0x98a725a3,%edx
  405779:	81 ea 21 e3 64 98    	sub    $0x9864e321,%edx
  40577f:	52                   	push   %edx
  405780:	8d 15 91 25 a7 98    	lea    0x98a72591,%edx
  405786:	81 ea 21 e3 64 98    	sub    $0x9864e321,%edx
  40578c:	52                   	push   %edx
  40578d:	a1 78 00 42 00       	mov    0x420078,%eax
  405792:	ff d0                	call   *%eax
  405794:	85 c0                	test   %eax,%eax
  405796:	0f 85 64 67 00 00    	jne    0x40bf00
  40579c:	19 f8                	sbb    %edi,%eax
  40579e:	01 3d 7d 40 42 00    	add    %edi,0x42407d
  4057a4:	01 c3                	add    %eax,%ebx
  4057a6:	01 d8                	add    %ebx,%eax
  4057a8:	b9 01 00 00 00       	mov    $0x1,%ecx
  4057ad:	13 0d cb 41 42 00    	adc    0x4241cb,%ecx
  4057b3:	6a 0f                	push   $0xf
  4057b5:	ff 0c 24             	decl   (%esp)
  4057b8:	8d 35 a3 25 a7 98    	lea    0x98a725a3,%esi
  4057be:	81 ee 21 e3 64 98    	sub    $0x9864e321,%esi
  4057c4:	56                   	push   %esi
  4057c5:	8d 3d 91 25 a7 98    	lea    0x98a72591,%edi
  4057cb:	81 ef 21 e3 64 98    	sub    $0x9864e321,%edi
  4057d1:	57                   	push   %edi
  4057d2:	a1 78 00 42 00       	mov    0x420078,%eax
  4057d7:	ff d0                	call   *%eax
  4057d9:	83 f8 00             	cmp    $0x0,%eax
  4057dc:	0f 85 1e 67 00 00    	jne    0x40bf00
  4057e2:	83 25 69 40 42 00 30 	andl   $0x30,0x424069
  4057e9:	12 05 13 41 42 00    	adc    0x424113,%al
  4057ef:	31 3d 96 40 42 00    	xor    %edi,0x424096
  4057f5:	19 35 1c 40 42 00    	sbb    %esi,0x42401c
  4057fb:	2e e9 3b 62 00 00    	cs jmp 0x40ba3c
  405801:	81 15 3b 41 42 00 e2 	adcl   $0xe2,0x42413b
  405808:	00 00 00 
	...
  40581b:	13 1d b0 41 42 00    	adc    0x4241b0,%ebx
  405821:	82 2d 8b 40 42 00 d6 	subb   $0xd6,0x42408b
  405828:	81 0d 4c 40 42 00 f1 	orl    $0xf1,0x42404c
  40582f:	00 00 00 
  405832:	29 05 c0 40 42 00    	sub    %eax,0x4240c0
  405838:	b5 01                	mov    $0x1,%ch
  40583a:	82 c5 05             	add    $0x5,%ch
  40583d:	8d 1d c0 25 a7 98    	lea    0x98a725c0,%ebx
  405843:	81 eb 21 e3 64 98    	sub    $0x9864e321,%ebx
  405849:	53                   	push   %ebx
  40584a:	8d 3d b1 25 a7 98    	lea    0x98a725b1,%edi
  405850:	81 ef 21 e3 64 98    	sub    $0x9864e321,%edi
  405856:	57                   	push   %edi
  405857:	a1 84 00 42 00       	mov    0x420084,%eax
  40585c:	ff d0                	call   *%eax
  40585e:	ba 01 00 00 00       	mov    $0x1,%edx
  405863:	13 15 4a 40 42 00    	adc    0x42404a,%edx
  405869:	83 ef 59             	sub    $0x59,%edi
  40586c:	b9 01 00 00 00       	mov    $0x1,%ecx
  405871:	13 0d d4 40 42 00    	adc    0x4240d4,%ecx
  405877:	8d 05 c0 25 a7 98    	lea    0x98a725c0,%eax
  40587d:	2d 21 e3 64 98       	sub    $0x9864e321,%eax
  405882:	50                   	push   %eax
  405883:	8d 35 b1 25 a7 98    	lea    0x98a725b1,%esi
  405889:	81 ee 21 e3 64 98    	sub    $0x9864e321,%esi
  40588f:	56                   	push   %esi
  405890:	a1 84 00 42 00       	mov    0x420084,%eax
  405895:	ff d0                	call   *%eax
  405897:	13 3d b2 41 42 00    	adc    0x4241b2,%edi
  40589d:	b9 01 00 00 00       	mov    $0x1,%ecx
  4058a2:	01 d9                	add    %ebx,%ecx
  4058a4:	0b 0d de 40 42 00    	or     0x4240de,%ecx
  4058aa:	ba 01 00 00 00       	mov    $0x1,%edx
  4058af:	01 ca                	add    %ecx,%edx
  4058b1:	29 3d 01 41 42 00    	sub    %edi,0x424101
  4058b7:	8d 1d c0 25 a7 98    	lea    0x98a725c0,%ebx
  4058bd:	81 eb 21 e3 64 98    	sub    $0x9864e321,%ebx
  4058c3:	53                   	push   %ebx
  4058c4:	8d 1d b1 25 a7 98    	lea    0x98a725b1,%ebx
  4058ca:	81 eb 21 e3 64 98    	sub    $0x9864e321,%ebx
  4058d0:	53                   	push   %ebx
  4058d1:	a1 84 00 42 00       	mov    0x420084,%eax
  4058d6:	ff d0                	call   *%eax
  4058d8:	29 1d 7c 40 42 00    	sub    %ebx,0x42407c
  4058de:	b9 01 00 00 00       	mov    $0x1,%ecx
  4058e3:	13 0d dd 40 42 00    	adc    0x4240dd,%ecx
  4058e9:	21 05 81 41 42 00    	and    %eax,0x424181
  4058ef:	83 ef 2f             	sub    $0x2f,%edi
  4058f2:	11 cb                	adc    %ecx,%ebx
  4058f4:	6a 0f                	push   $0xf
  4058f6:	ff 0c 24             	decl   (%esp)
  4058f9:	8d 35 a3 25 a7 98    	lea    0x98a725a3,%esi
  4058ff:	81 ee 21 e3 64 98    	sub    $0x9864e321,%esi
  405905:	56                   	push   %esi
  405906:	8d 15 91 25 a7 98    	lea    0x98a72591,%edx
  40590c:	81 ea 21 e3 64 98    	sub    $0x9864e321,%edx
  405912:	52                   	push   %edx
  405913:	a1 78 00 42 00       	mov    0x420078,%eax
  405918:	ff d0                	call   *%eax
  40591a:	85 c0                	test   %eax,%eax
  40591c:	0f 85 de 65 00 00    	jne    0x40bf00
  405922:	83 db cd             	sbb    $0xffffffcd,%ebx
  405925:	c7 05 7d 41 42 00 36 	movl   $0x36,0x42417d
  40592c:	00 00 00 
  40592f:	21 3d c9 41 42 00    	and    %edi,0x4241c9
  405935:	b6 01                	mov    $0x1,%dh
  405937:	82 c6 35             	add    $0x35,%dh
  40593a:	8d 1d c0 25 a7 98    	lea    0x98a725c0,%ebx
  405940:	81 eb 21 e3 64 98    	sub    $0x9864e321,%ebx
  405946:	53                   	push   %ebx
  405947:	8d 05 b1 25 a7 98    	lea    0x98a725b1,%eax
  40594d:	2d 21 e3 64 98       	sub    $0x9864e321,%eax
  405952:	50                   	push   %eax
  405953:	a1 84 00 42 00       	mov    0x420084,%eax
  405958:	ff d0                	call   *%eax
  40595a:	8d 0d c0 25 a7 98    	lea    0x98a725c0,%ecx
  405960:	81 e9 21 e3 64 98    	sub    $0x9864e321,%ecx
  405966:	51                   	push   %ecx
  405967:	8d 05 b1 25 a7 98    	lea    0x98a725b1,%eax
  40596d:	2d 21 e3 64 98       	sub    $0x9864e321,%eax
  405972:	50                   	push   %eax
  405973:	a1 84 00 42 00       	mov    0x420084,%eax
  405978:	ff d0                	call   *%eax
  40597a:	0b 1d 10 41 42 00    	or     0x424110,%ebx
  405980:	19 35 f1 41 42 00    	sbb    %esi,0x4241f1
  405986:	b2 01                	mov    $0x1,%dl
  405988:	00 e2                	add    %ah,%dl
  40598a:	6a 0f                	push   $0xf
  40598c:	ff 0c 24             	decl   (%esp)
  40598f:	8d 0d a3 25 a7 98    	lea    0x98a725a3,%ecx
  405995:	81 e9 21 e3 64 98    	sub    $0x9864e321,%ecx
  40599b:	51                   	push   %ecx
  40599c:	8d 35 91 25 a7 98    	lea    0x98a72591,%esi
  4059a2:	81 ee 21 e3 64 98    	sub    $0x9864e321,%esi
  4059a8:	56                   	push   %esi
  4059a9:	a1 78 00 42 00       	mov    0x420078,%eax
  4059ae:	ff d0                	call   *%eax
  4059b0:	83 f8 00             	cmp    $0x0,%eax
  4059b3:	0f 85 47 65 00 00    	jne    0x40bf00
  4059b9:	83 35 20 40 42 00 06 	xorl   $0x6,0x424020
  4059c0:	8d 1d c0 25 a7 98    	lea    0x98a725c0,%ebx
  4059c6:	81 eb 21 e3 64 98    	sub    $0x9864e321,%ebx
  4059cc:	53                   	push   %ebx
  4059cd:	8d 1d b1 25 a7 98    	lea    0x98a725b1,%ebx
  4059d3:	81 eb 21 e3 64 98    	sub    $0x9864e321,%ebx
  4059d9:	53                   	push   %ebx
  4059da:	a1 84 00 42 00       	mov    0x420084,%eax
  4059df:	ff d0                	call   *%eax
  4059e1:	c7 05 f8 41 42 00 ba 	movl   $0xba,0x4241f8
  4059e8:	00 00 00 
  4059eb:	ba 01 00 00 00       	mov    $0x1,%edx
  4059f0:	01 da                	add    %ebx,%edx
  4059f2:	21 3d 04 40 42 00    	and    %edi,0x424004
  4059f8:	6a 0f                	push   $0xf
  4059fa:	ff 0c 24             	decl   (%esp)
  4059fd:	8d 05 a3 25 a7 98    	lea    0x98a725a3,%eax
  405a03:	2d 21 e3 64 98       	sub    $0x9864e321,%eax
  405a08:	50                   	push   %eax
  405a09:	8d 1d 91 25 a7 98    	lea    0x98a72591,%ebx
  405a0f:	81 eb 21 e3 64 98    	sub    $0x9864e321,%ebx
  405a15:	53                   	push   %ebx
  405a16:	a1 78 00 42 00       	mov    0x420078,%eax
  405a1b:	ff d0                	call   *%eax
  405a1d:	85 c0                	test   %eax,%eax
  405a1f:	0f 85 db 64 00 00    	jne    0x40bf00
  405a25:	0b 05 51 41 42 00    	or     0x424151,%eax
  405a2b:	13 05 ed 40 42 00    	adc    0x4240ed,%eax
  405a31:	31 c3                	xor    %eax,%ebx
  405a33:	8d 1d c0 25 a7 98    	lea    0x98a725c0,%ebx
  405a39:	81 eb 21 e3 64 98    	sub    $0x9864e321,%ebx
  405a3f:	53                   	push   %ebx
  405a40:	8d 05 b1 25 a7 98    	lea    0x98a725b1,%eax
  405a46:	2d 21 e3 64 98       	sub    $0x9864e321,%eax
  405a4b:	50                   	push   %eax
  405a4c:	a1 84 00 42 00       	mov    0x420084,%eax
  405a51:	ff d0                	call   *%eax
  405a53:	b9 01 00 00 00       	mov    $0x1,%ecx
  405a58:	01 c1                	add    %eax,%ecx
  405a5a:	0b 3d 16 40 42 00    	or     0x424016,%edi
  405a60:	83 c3 a4             	add    $0xffffffa4,%ebx
  405a63:	13 3d 8c 41 42 00    	adc    0x42418c,%edi
  405a69:	8d 35 c0 25 a7 98    	lea    0x98a725c0,%esi
  405a6f:	81 ee 21 e3 64 98    	sub    $0x9864e321,%esi
  405a75:	56                   	push   %esi
  405a76:	8d 15 b1 25 a7 98    	lea    0x98a725b1,%edx
  405a7c:	81 ea 21 e3 64 98    	sub    $0x9864e321,%edx
  405a82:	52                   	push   %edx
  405a83:	a1 84 00 42 00       	mov    0x420084,%eax
  405a88:	ff d0                	call   *%eax
  405a8a:	21 05 c7 41 42 00    	and    %eax,0x4241c7
  405a90:	19 ff                	sbb    %edi,%edi
  405a92:	83 15 b7 40 42 00 17 	adcl   $0x17,0x4240b7
  405a99:	b9 01 00 00 00       	mov    $0x1,%ecx
  405a9e:	83 c1 af             	add    $0xffffffaf,%ecx
  405aa1:	82 2d 2a 41 42 00 37 	subb   $0x37,0x42412a
  405aa8:	2e e9 8e 5f 00 00    	cs jmp 0x40ba3c
  405aae:	12 25 fc 40 42 00    	adc    0x4240fc,%ah
  405ab4:	31 35 6b 41 42 00    	xor    %esi,0x42416b
  405aba:	83 c8 61             	or     $0x61,%eax
  405abd:	00 00                	add    %al,(%eax)
  405abf:	00 8d 1d c0 25 a7    	add    %cl,-0x58da3fe3(%ebp)
  405ac5:	98                   	cwtl
  405ac6:	81 eb 21 e3 64 98    	sub    $0x9864e321,%ebx
  405acc:	53                   	push   %ebx
  405acd:	8d 15 b1 25 a7 98    	lea    0x98a725b1,%edx
  405ad3:	81 ea 21 e3 64 98    	sub    $0x9864e321,%edx
  405ad9:	52                   	push   %edx
  405ada:	a1 84 00 42 00       	mov    0x420084,%eax
  405adf:	ff d0                	call   *%eax
  405ae1:	ba 01 00 00 00       	mov    $0x1,%edx
  405ae6:	83 c2 87             	add    $0xffffff87,%edx
  405ae9:	81 15 4d 40 42 00 d2 	adcl   $0xd2,0x42404d
  405af0:	00 00 00 
  405af3:	0b 15 3a 40 42 00    	or     0x42403a,%edx
  405af9:	82 2d 37 40 42 00 28 	subb   $0x28,0x424037
  405b00:	6a 0f                	push   $0xf
  405b02:	ff 0c 24             	decl   (%esp)
  405b05:	8d 15 a3 25 a7 98    	lea    0x98a725a3,%edx
  405b0b:	81 ea 21 e3 64 98    	sub    $0x9864e321,%edx
  405b11:	52                   	push   %edx
  405b12:	8d 3d 91 25 a7 98    	lea    0x98a72591,%edi
  405b18:	81 ef 21 e3 64 98    	sub    $0x9864e321,%edi
  405b1e:	57                   	push   %edi
  405b1f:	a1 78 00 42 00       	mov    0x420078,%eax
  405b24:	ff d0                	call   *%eax
  405b26:	85 c0                	test   %eax,%eax
  405b28:	0f 85 d2 63 00 00    	jne    0x40bf00
  405b2e:	ba 01 00 00 00       	mov    $0x1,%edx
  405b33:	83 c2 7e             	add    $0x7e,%edx
  405b36:	83 15 d3 40 42 00 6a 	adcl   $0x6a,0x4240d3
  405b3d:	01 15 3e 40 42 00    	add    %edx,0x42403e
  405b43:	6a 0f                	push   $0xf
  405b45:	ff 0c 24             	decl   (%esp)
  405b48:	8d 35 a3 25 a7 98    	lea    0x98a725a3,%esi
  405b4e:	81 ee 21 e3 64 98    	sub    $0x9864e321,%esi
  405b54:	56                   	push   %esi
  405b55:	8d 0d 91 25 a7 98    	lea    0x98a72591,%ecx
  405b5b:	81 e9 21 e3 64 98    	sub    $0x9864e321,%ecx
  405b61:	51                   	push   %ecx
  405b62:	a1 78 00 42 00       	mov    0x420078,%eax
  405b67:	ff d0                	call   *%eax
  405b69:	85 c0                	test   %eax,%eax
  405b6b:	0f 85 8f 63 00 00    	jne    0x40bf00
  405b71:	8d 3d c0 25 a7 98    	lea    0x98a725c0,%edi
  405b77:	81 ef 21 e3 64 98    	sub    $0x9864e321,%edi
  405b7d:	57                   	push   %edi
  405b7e:	8d 0d b1 25 a7 98    	lea    0x98a725b1,%ecx
  405b84:	81 e9 21 e3 64 98    	sub    $0x9864e321,%ecx
  405b8a:	51                   	push   %ecx
  405b8b:	a1 84 00 42 00       	mov    0x420084,%eax
  405b90:	ff d0                	call   *%eax
  405b92:	19 f3                	sbb    %esi,%ebx
  405b94:	8d 0d c0 25 a7 98    	lea    0x98a725c0,%ecx
  405b9a:	81 e9 21 e3 64 98    	sub    $0x9864e321,%ecx
  405ba0:	51                   	push   %ecx
  405ba1:	8d 15 b1 25 a7 98    	lea    0x98a725b1,%edx
  405ba7:	81 ea 21 e3 64 98    	sub    $0x9864e321,%edx
  405bad:	52                   	push   %edx
  405bae:	a1 84 00 42 00       	mov    0x420084,%eax
  405bb3:	ff d0                	call   *%eax
  405bb5:	6a 0f                	push   $0xf
  405bb7:	ff 0c 24             	decl   (%esp)
  405bba:	8d 3d a3 25 a7 98    	lea    0x98a725a3,%edi
  405bc0:	81 ef 21 e3 64 98    	sub    $0x9864e321,%edi
  405bc6:	57                   	push   %edi
  405bc7:	8d 0d 91 25 a7 98    	lea    0x98a72591,%ecx
  405bcd:	81 e9 21 e3 64 98    	sub    $0x9864e321,%ecx
  405bd3:	51                   	push   %ecx
  405bd4:	a1 78 00 42 00       	mov    0x420078,%eax
  405bd9:	ff d0                	call   *%eax
  405bdb:	85 c0                	test   %eax,%eax
  405bdd:	0f 85 1d 63 00 00    	jne    0x40bf00
  405be3:	13 05 2b 41 42 00    	adc    0x42412b,%eax
  405be9:	83 35 cf 41 42 00 50 	xorl   $0x50,0x4241cf
  405bf0:	83 f6 e7             	xor    $0xffffffe7,%esi
  405bf3:	ba 01 00 00 00       	mov    $0x1,%edx
  405bf8:	01 f2                	add    %esi,%edx
  405bfa:	8d 05 c0 25 a7 98    	lea    0x98a725c0,%eax
  405c00:	2d 21 e3 64 98       	sub    $0x9864e321,%eax
  405c05:	50                   	push   %eax
  405c06:	8d 3d b1 25 a7 98    	lea    0x98a725b1,%edi
  405c0c:	81 ef 21 e3 64 98    	sub    $0x9864e321,%edi
  405c12:	57                   	push   %edi
  405c13:	a1 84 00 42 00       	mov    0x420084,%eax
  405c18:	ff d0                	call   *%eax
  405c1a:	83 25 0f 40 42 00 33 	andl   $0x33,0x42400f
  405c21:	8d 35 c0 25 a7 98    	lea    0x98a725c0,%esi
  405c27:	81 ee 21 e3 64 98    	sub    $0x9864e321,%esi
  405c2d:	56                   	push   %esi
  405c2e:	8d 1d b1 25 a7 98    	lea    0x98a725b1,%ebx
  405c34:	81 eb 21 e3 64 98    	sub    $0x9864e321,%ebx
  405c3a:	53                   	push   %ebx
  405c3b:	a1 84 00 42 00       	mov    0x420084,%eax
  405c40:	ff d0                	call   *%eax
  405c42:	13 35 9b 40 42 00    	adc    0x42409b,%esi
  405c48:	01 35 d8 40 42 00    	add    %esi,0x4240d8
  405c4e:	31 c6                	xor    %eax,%esi
  405c50:	19 05 fc 40 42 00    	sbb    %eax,0x4240fc
  405c56:	6a 0f                	push   $0xf
  405c58:	ff 0c 24             	decl   (%esp)
  405c5b:	8d 1d a3 25 a7 98    	lea    0x98a725a3,%ebx
  405c61:	81 eb 21 e3 64 98    	sub    $0x9864e321,%ebx
  405c67:	53                   	push   %ebx
  405c68:	8d 15 91 25 a7 98    	lea    0x98a72591,%edx
  405c6e:	81 ea 21 e3 64 98    	sub    $0x9864e321,%edx
  405c74:	52                   	push   %edx
  405c75:	a1 78 00 42 00       	mov    0x420078,%eax
  405c7a:	ff d0                	call   *%eax
  405c7c:	83 f8 00             	cmp    $0x0,%eax
  405c7f:	0f 85 7b 62 00 00    	jne    0x40bf00
  405c85:	b9 01 00 00 00       	mov    $0x1,%ecx
  405c8a:	83 c1 d0             	add    $0xffffffd0,%ecx
  405c8d:	2a 1d 4e 40 42 00    	sub    0x42404e,%bl
  405c93:	19 35 fe 40 42 00    	sbb    %esi,0x4240fe
  405c99:	13 0d cf 40 42 00    	adc    0x4240cf,%ecx
  405c9f:	8d 15 c0 25 a7 98    	lea    0x98a725c0,%edx
  405ca5:	81 ea 21 e3 64 98    	sub    $0x9864e321,%edx
  405cab:	52                   	push   %edx
  405cac:	8d 3d b1 25 a7 98    	lea    0x98a725b1,%edi
  405cb2:	81 ef 21 e3 64 98    	sub    $0x9864e321,%edi
  405cb8:	57                   	push   %edi
  405cb9:	a1 84 00 42 00       	mov    0x420084,%eax
  405cbe:	ff d0                	call   *%eax
  405cc0:	2e e9 76 5d 00 00    	cs jmp 0x40ba3c
  405cc6:	00 00                	add    %al,(%eax)
  405cc8:	00 00                	add    %al,(%eax)
  405cca:	00 00                	add    %al,(%eax)
  405ccc:	00 b9 01 00 00 00    	add    %bh,0x1(%ecx)
  405cd2:	83 c1 bd             	add    $0xffffffbd,%ecx
  405cd5:	83 e0 96             	and    $0xffffff96,%eax
  405cd8:	8d 35 c0 25 a7 98    	lea    0x98a725c0,%esi
  405cde:	81 ee 21 e3 64 98    	sub    $0x9864e321,%esi
  405ce4:	56                   	push   %esi
  405ce5:	8d 15 b1 25 a7 98    	lea    0x98a725b1,%edx
  405ceb:	81 ea 21 e3 64 98    	sub    $0x9864e321,%edx
  405cf1:	52                   	push   %edx
  405cf2:	a1 84 00 42 00       	mov    0x420084,%eax
  405cf7:	ff d0                	call   *%eax
  405cf9:	83 15 11 40 42 00 43 	adcl   $0x43,0x424011
  405d00:	31 3d 3f 40 42 00    	xor    %edi,0x42403f
  405d06:	31 35 b8 40 42 00    	xor    %esi,0x4240b8
  405d0c:	0a 1d e0 41 42 00    	or     0x4241e0,%bl
  405d12:	11 1d c1 40 42 00    	adc    %ebx,0x4240c1
  405d18:	6a 0f                	push   $0xf
  405d1a:	ff 0c 24             	decl   (%esp)
  405d1d:	8d 1d a3 25 a7 98    	lea    0x98a725a3,%ebx
  405d23:	81 eb 21 e3 64 98    	sub    $0x9864e321,%ebx
  405d29:	53                   	push   %ebx
  405d2a:	8d 15 91 25 a7 98    	lea    0x98a72591,%edx
  405d30:	81 ea 21 e3 64 98    	sub    $0x9864e321,%edx
  405d36:	52                   	push   %edx
  405d37:	a1 78 00 42 00       	mov    0x420078,%eax
  405d3c:	ff d0                	call   *%eax
  405d3e:	83 f8 00             	cmp    $0x0,%eax
  405d41:	0f 85 b9 61 00 00    	jne    0x40bf00
  405d47:	8d 15 c0 25 a7 98    	lea    0x98a725c0,%edx
  405d4d:	81 ea 21 e3 64 98    	sub    $0x9864e321,%edx
  405d53:	52                   	push   %edx
  405d54:	8d 3d b1 25 a7 98    	lea    0x98a725b1,%edi
  405d5a:	81 ef 21 e3 64 98    	sub    $0x9864e321,%edi
  405d60:	57                   	push   %edi
  405d61:	a1 84 00 42 00       	mov    0x420084,%eax
  405d66:	ff d0                	call   *%eax
  405d68:	6a 0f                	push   $0xf
  405d6a:	ff 0c 24             	decl   (%esp)
  405d6d:	8d 05 a3 25 a7 98    	lea    0x98a725a3,%eax
  405d73:	2d 21 e3 64 98       	sub    $0x9864e321,%eax
  405d78:	50                   	push   %eax
  405d79:	8d 15 91 25 a7 98    	lea    0x98a72591,%edx
  405d7f:	81 ea 21 e3 64 98    	sub    $0x9864e321,%edx
  405d85:	52                   	push   %edx
  405d86:	a1 78 00 42 00       	mov    0x420078,%eax
  405d8b:	ff d0                	call   *%eax
  405d8d:	85 c0                	test   %eax,%eax
  405d8f:	0f 85 6b 61 00 00    	jne    0x40bf00
  405d95:	83 f0 0e             	xor    $0xe,%eax
  405d98:	6a 0f                	push   $0xf
  405d9a:	ff 0c 24             	decl   (%esp)
  405d9d:	8d 1d a3 25 a7 98    	lea    0x98a725a3,%ebx
  405da3:	81 eb 21 e3 64 98    	sub    $0x9864e321,%ebx
  405da9:	53                   	push   %ebx
  405daa:	8d 1d 91 25 a7 98    	lea    0x98a72591,%ebx
  405db0:	81 eb 21 e3 64 98    	sub    $0x9864e321,%ebx
  405db6:	53                   	push   %ebx
  405db7:	a1 78 00 42 00       	mov    0x420078,%eax
  405dbc:	ff d0                	call   *%eax
  405dbe:	85 c0                	test   %eax,%eax
  405dc0:	0f 85 3a 61 00 00    	jne    0x40bf00
  405dc6:	19 de                	sbb    %ebx,%esi
  405dc8:	83 cf 8c             	or     $0xffffff8c,%edi
  405dcb:	0a 1d a4 40 42 00    	or     0x4240a4,%bl
  405dd1:	6a 0f                	push   $0xf
  405dd3:	ff 0c 24             	decl   (%esp)
  405dd6:	8d 0d a3 25 a7 98    	lea    0x98a725a3,%ecx
  405ddc:	81 e9 21 e3 64 98    	sub    $0x9864e321,%ecx
  405de2:	51                   	push   %ecx
  405de3:	8d 1d 91 25 a7 98    	lea    0x98a72591,%ebx
  405de9:	81 eb 21 e3 64 98    	sub    $0x9864e321,%ebx
  405def:	53                   	push   %ebx
  405df0:	a1 78 00 42 00       	mov    0x420078,%eax
  405df5:	ff d0                	call   *%eax
  405df7:	83 f8 00             	cmp    $0x0,%eax
  405dfa:	0f 85 00 61 00 00    	jne    0x40bf00
  405e00:	83 d8 43             	sbb    $0x43,%eax
  405e03:	13 05 8f 41 42 00    	adc    0x42418f,%eax
  405e09:	6a 0f                	push   $0xf
  405e0b:	ff 0c 24             	decl   (%esp)
  405e0e:	8d 1d a3 25 a7 98    	lea    0x98a725a3,%ebx
  405e14:	81 eb 21 e3 64 98    	sub    $0x9864e321,%ebx
  405e1a:	53                   	push   %ebx
  405e1b:	8d 0d 91 25 a7 98    	lea    0x98a72591,%ecx
  405e21:	81 e9 21 e3 64 98    	sub    $0x9864e321,%ecx
  405e27:	51                   	push   %ecx
  405e28:	a1 78 00 42 00       	mov    0x420078,%eax
  405e2d:	ff d0                	call   *%eax
  405e2f:	85 c0                	test   %eax,%eax
  405e31:	0f 85 c9 60 00 00    	jne    0x40bf00
  405e37:	82 df a8             	sbb    $0xa8,%bh
  405e3a:	6a 0f                	push   $0xf
  405e3c:	ff 0c 24             	decl   (%esp)
  405e3f:	8d 05 a3 25 a7 98    	lea    0x98a725a3,%eax
  405e45:	2d 21 e3 64 98       	sub    $0x9864e321,%eax
  405e4a:	50                   	push   %eax
  405e4b:	8d 35 91 25 a7 98    	lea    0x98a72591,%esi
  405e51:	81 ee 21 e3 64 98    	sub    $0x9864e321,%esi
  405e57:	56                   	push   %esi
  405e58:	a1 78 00 42 00       	mov    0x420078,%eax
  405e5d:	ff d0                	call   *%eax
  405e5f:	85 c0                	test   %eax,%eax
  405e61:	0f 85 99 60 00 00    	jne    0x40bf00
  405e67:	09 35 f9 40 42 00    	or     %esi,0x4240f9
  405e6d:	8d 15 c0 25 a7 98    	lea    0x98a725c0,%edx
  405e73:	81 ea 21 e3 64 98    	sub    $0x9864e321,%edx
  405e79:	52                   	push   %edx
  405e7a:	8d 0d b1 25 a7 98    	lea    0x98a725b1,%ecx
  405e80:	81 e9 21 e3 64 98    	sub    $0x9864e321,%ecx
  405e86:	51                   	push   %ecx
  405e87:	a1 84 00 42 00       	mov    0x420084,%eax
  405e8c:	ff d0                	call   *%eax
  405e8e:	83 0d 44 41 42 00 4d 	orl    $0x4d,0x424144
  405e95:	01 f3                	add    %esi,%ebx
  405e97:	8d 05 c0 25 a7 98    	lea    0x98a725c0,%eax
  405e9d:	2d 21 e3 64 98       	sub    $0x9864e321,%eax
  405ea2:	50                   	push   %eax
  405ea3:	8d 3d b1 25 a7 98    	lea    0x98a725b1,%edi
  405ea9:	81 ef 21 e3 64 98    	sub    $0x9864e321,%edi
  405eaf:	57                   	push   %edi
  405eb0:	a1 84 00 42 00       	mov    0x420084,%eax
  405eb5:	ff d0                	call   *%eax
  405eb7:	1c a2                	sbb    $0xa2,%al
  405eb9:	b9 01 00 00 00       	mov    $0x1,%ecx
  405ebe:	83 c1 d4             	add    $0xffffffd4,%ecx
  405ec1:	13 35 66 41 42 00    	adc    0x424166,%esi
  405ec7:	2e e9 6f 5b 00 00    	cs jmp 0x40ba3c
  405ecd:	0b 3d a7 40 42 00    	or     0x4240a7,%edi
  405ed3:	09 0d a0 41 42 00    	or     %ecx,0x4241a0
  405ed9:	31 1d cf 41 42 00    	xor    %ebx,0x4241cf
  405edf:	83 df b3             	sbb    $0xffffffb3,%edi
  405ee2:	ba 01 00 00 00       	mov    $0x1,%edx
  405ee7:	01 f2                	add    %esi,%edx
	...
  405ef5:	00 83 f6 81 8d 05    	add    %al,0x58d81f6(%ebx)
  405efb:	c0 25 a7 98 2d 21 e3 	shlb   $0xe3,0x212d98a7
  405f02:	64 98                	fs cwtl
  405f04:	50                   	push   %eax
  405f05:	8d 0d b1 25 a7 98    	lea    0x98a725b1,%ecx
  405f0b:	81 e9 21 e3 64 98    	sub    $0x9864e321,%ecx
  405f11:	51                   	push   %ecx
  405f12:	a1 84 00 42 00       	mov    0x420084,%eax
  405f17:	ff d0                	call   *%eax
  405f19:	c7 05 d0 40 42 00 0e 	movl   $0xe,0x4240d0
  405f20:	00 00 00 
  405f23:	8d 15 c0 25 a7 98    	lea    0x98a725c0,%edx
  405f29:	81 ea 21 e3 64 98    	sub    $0x9864e321,%edx
  405f2f:	52                   	push   %edx
  405f30:	8d 05 b1 25 a7 98    	lea    0x98a725b1,%eax
  405f36:	2d 21 e3 64 98       	sub    $0x9864e321,%eax
  405f3b:	50                   	push   %eax
  405f3c:	a1 84 00 42 00       	mov    0x420084,%eax
  405f41:	ff d0                	call   *%eax
  405f43:	12 25 63 41 42 00    	adc    0x424163,%ah
  405f49:	83 35 a4 40 42 00 5e 	xorl   $0x5e,0x4240a4
  405f50:	12 1d 29 40 42 00    	adc    0x424029,%bl
  405f56:	6a 0f                	push   $0xf
  405f58:	ff 0c 24             	decl   (%esp)
  405f5b:	8d 35 a3 25 a7 98    	lea    0x98a725a3,%esi
  405f61:	81 ee 21 e3 64 98    	sub    $0x9864e321,%esi
  405f67:	56                   	push   %esi
  405f68:	8d 05 91 25 a7 98    	lea    0x98a72591,%eax
  405f6e:	2d 21 e3 64 98       	sub    $0x9864e321,%eax
  405f73:	50                   	push   %eax
  405f74:	a1 78 00 42 00       	mov    0x420078,%eax
  405f79:	ff d0                	call   *%eax
  405f7b:	83 f8 00             	cmp    $0x0,%eax
  405f7e:	0f 85 7c 5f 00 00    	jne    0x40bf00
  405f84:	29 de                	sub    %ebx,%esi
  405f86:	11 3d ad 40 42 00    	adc    %edi,0x4240ad
  405f8c:	83 1d e1 40 42 00 34 	sbbl   $0x34,0x4240e1
  405f93:	6a 0f                	push   $0xf
  405f95:	ff 0c 24             	decl   (%esp)
  405f98:	8d 35 a3 25 a7 98    	lea    0x98a725a3,%esi
  405f9e:	81 ee 21 e3 64 98    	sub    $0x9864e321,%esi
  405fa4:	56                   	push   %esi
  405fa5:	8d 0d 91 25 a7 98    	lea    0x98a72591,%ecx
  405fab:	81 e9 21 e3 64 98    	sub    $0x9864e321,%ecx
  405fb1:	51                   	push   %ecx
  405fb2:	a1 78 00 42 00       	mov    0x420078,%eax
  405fb7:	ff d0                	call   *%eax
  405fb9:	85 c0                	test   %eax,%eax
  405fbb:	0f 85 3f 5f 00 00    	jne    0x40bf00
  405fc1:	21 05 62 41 42 00    	and    %eax,0x424162
  405fc7:	0b 35 b8 41 42 00    	or     0x4241b8,%esi
  405fcd:	31 05 4a 40 42 00    	xor    %eax,0x42404a
  405fd3:	8d 15 c0 25 a7 98    	lea    0x98a725c0,%edx
  405fd9:	81 ea 21 e3 64 98    	sub    $0x9864e321,%edx
  405fdf:	52                   	push   %edx
  405fe0:	8d 3d b1 25 a7 98    	lea    0x98a725b1,%edi
  405fe6:	81 ef 21 e3 64 98    	sub    $0x9864e321,%edi
  405fec:	57                   	push   %edi
  405fed:	a1 84 00 42 00       	mov    0x420084,%eax
  405ff2:	ff d0                	call   *%eax
  405ff4:	09 1d de 40 42 00    	or     %ebx,0x4240de
  405ffa:	11 fe                	adc    %edi,%esi
  405ffc:	83 c6 52             	add    $0x52,%esi
  405fff:	6a 0f                	push   $0xf
  406001:	ff 0c 24             	decl   (%esp)
  406004:	8d 15 a3 25 a7 98    	lea    0x98a725a3,%edx
  40600a:	81 ea 21 e3 64 98    	sub    $0x9864e321,%edx
  406010:	52                   	push   %edx
  406011:	8d 05 91 25 a7 98    	lea    0x98a72591,%eax
  406017:	2d 21 e3 64 98       	sub    $0x9864e321,%eax
  40601c:	50                   	push   %eax
  40601d:	a1 78 00 42 00       	mov    0x420078,%eax
  406022:	ff d0                	call   *%eax
  406024:	85 c0                	test   %eax,%eax
  406026:	0f 85 d4 5e 00 00    	jne    0x40bf00
  40602c:	11 35 b8 41 42 00    	adc    %esi,0x4241b8
  406032:	ba 01 00 00 00       	mov    $0x1,%edx
  406037:	01 da                	add    %ebx,%edx
  406039:	01 d0                	add    %edx,%eax
  40603b:	31 d7                	xor    %edx,%edi
  40603d:	6a 0f                	push   $0xf
  40603f:	ff 0c 24             	decl   (%esp)
  406042:	8d 15 a3 25 a7 98    	lea    0x98a725a3,%edx
  406048:	81 ea 21 e3 64 98    	sub    $0x9864e321,%edx
  40604e:	52                   	push   %edx
  40604f:	8d 35 91 25 a7 98    	lea    0x98a72591,%esi
  406055:	81 ee 21 e3 64 98    	sub    $0x9864e321,%esi
  40605b:	56                   	push   %esi
  40605c:	a1 78 00 42 00       	mov    0x420078,%eax
  406061:	ff d0                	call   *%eax
  406063:	83 f8 00             	cmp    $0x0,%eax
  406066:	0f 85 94 5e 00 00    	jne    0x40bf00
  40606c:	83 25 78 41 42 00 5a 	andl   $0x5a,0x424178
  406073:	8d 05 c0 25 a7 98    	lea    0x98a725c0,%eax
  406079:	2d 21 e3 64 98       	sub    $0x9864e321,%eax
  40607e:	50                   	push   %eax
  40607f:	8d 05 b1 25 a7 98    	lea    0x98a725b1,%eax
  406085:	2d 21 e3 64 98       	sub    $0x9864e321,%eax
  40608a:	50                   	push   %eax
  40608b:	a1 84 00 42 00       	mov    0x420084,%eax
  406090:	ff d0                	call   *%eax
  406092:	2a 25 74 40 42 00    	sub    0x424074,%ah
  406098:	6a 0f                	push   $0xf
  40609a:	ff 0c 24             	decl   (%esp)
  40609d:	8d 0d a3 25 a7 98    	lea    0x98a725a3,%ecx
  4060a3:	81 e9 21 e3 64 98    	sub    $0x9864e321,%ecx
  4060a9:	51                   	push   %ecx
  4060aa:	8d 1d 91 25 a7 98    	lea    0x98a72591,%ebx
  4060b0:	81 eb 21 e3 64 98    	sub    $0x9864e321,%ebx
  4060b6:	53                   	push   %ebx
  4060b7:	a1 78 00 42 00       	mov    0x420078,%eax
  4060bc:	ff d0                	call   *%eax
  4060be:	83 f8 00             	cmp    $0x0,%eax
  4060c1:	0f 85 39 5e 00 00    	jne    0x40bf00
  4060c7:	83 c7 5f             	add    $0x5f,%edi
  4060ca:	6a 0f                	push   $0xf
  4060cc:	ff 0c 24             	decl   (%esp)
  4060cf:	8d 3d a3 25 a7 98    	lea    0x98a725a3,%edi
  4060d5:	81 ef 21 e3 64 98    	sub    $0x9864e321,%edi
  4060db:	57                   	push   %edi
  4060dc:	8d 35 91 25 a7 98    	lea    0x98a72591,%esi
  4060e2:	81 ee 21 e3 64 98    	sub    $0x9864e321,%esi
  4060e8:	56                   	push   %esi
  4060e9:	a1 78 00 42 00       	mov    0x420078,%eax
  4060ee:	ff d0                	call   *%eax
  4060f0:	83 f8 00             	cmp    $0x0,%eax
  4060f3:	0f 85 07 5e 00 00    	jne    0x40bf00
  4060f9:	13 05 3a 41 42 00    	adc    0x42413a,%eax
  4060ff:	81 25 cb 41 42 00 a5 	andl   $0xa5,0x4241cb
  406106:	00 00 00 
  406109:	01 fe                	add    %edi,%esi
  40610b:	b9 01 00 00 00       	mov    $0x1,%ecx
  406110:	83 c1 2d             	add    $0x2d,%ecx
  406113:	ba 01 00 00 00       	mov    $0x1,%edx
  406118:	01 f2                	add    %esi,%edx
  40611a:	8d 1d c0 25 a7 98    	lea    0x98a725c0,%ebx
  406120:	81 eb 21 e3 64 98    	sub    $0x9864e321,%ebx
  406126:	53                   	push   %ebx
  406127:	8d 3d b1 25 a7 98    	lea    0x98a725b1,%edi
  40612d:	81 ef 21 e3 64 98    	sub    $0x9864e321,%edi
  406133:	57                   	push   %edi
  406134:	a1 84 00 42 00       	mov    0x420084,%eax
  406139:	ff d0                	call   *%eax
  40613b:	2e e9 fb 58 00 00    	cs jmp 0x40ba3c
  406141:	b9 01 00 00 00       	mov    $0x1,%ecx
  406146:	83 c1 cb             	add    $0xffffffcb,%ecx
  406149:	82 dc 2b             	sbb    $0x2b,%ah
  40614c:	81 15 25 40 42 00 90 	adcl   $0x90,0x424025
  406153:	00 00 00 
  406156:	29 df                	sub    %ebx,%edi
  406158:	00 00                	add    %al,(%eax)
  40615a:	00 6a 0f             	add    %ch,0xf(%edx)
  40615d:	ff 0c 24             	decl   (%esp)
  406160:	8d 1d a3 25 a7 98    	lea    0x98a725a3,%ebx
  406166:	81 eb 21 e3 64 98    	sub    $0x9864e321,%ebx
  40616c:	53                   	push   %ebx
  40616d:	8d 15 91 25 a7 98    	lea    0x98a72591,%edx
  406173:	81 ea 21 e3 64 98    	sub    $0x9864e321,%edx
  406179:	52                   	push   %edx
  40617a:	a1 78 00 42 00       	mov    0x420078,%eax
  40617f:	ff d0                	call   *%eax
  406181:	83 f8 00             	cmp    $0x0,%eax
  406184:	0f 85 76 5d 00 00    	jne    0x40bf00
  40618a:	11 db                	adc    %ebx,%ebx
  40618c:	6a 0f                	push   $0xf
  40618e:	ff 0c 24             	decl   (%esp)
  406191:	8d 15 a3 25 a7 98    	lea    0x98a725a3,%edx
  406197:	81 ea 21 e3 64 98    	sub    $0x9864e321,%edx
  40619d:	52                   	push   %edx
  40619e:	8d 1d 91 25 a7 98    	lea    0x98a72591,%ebx
  4061a4:	81 eb 21 e3 64 98    	sub    $0x9864e321,%ebx
