
sample10:     file format pei-i386


Disassembly of section .text:

00401000 <.text>:
  401000:	00 2a                	add    %ch,(%edx)
  401002:	00 00                	add    %al,(%eax)
  401004:	03 00                	add    (%eax),%eax
  401006:	00 00                	add    %al,(%eax)
  401008:	04 00                	add    $0x0,%al
  40100a:	00 00                	add    %al,(%eax)
  40100c:	00 0f                	add    %cl,(%edi)
  40100e:	00 00                	add    %al,(%eax)
  401010:	31 d2                	xor    %edx,%edx
  401012:	55                   	push   %ebp
  401013:	89 e5                	mov    %esp,%ebp
  401015:	6a 00                	push   $0x0
  401017:	8d 65 d4             	lea    -0x2c(%ebp),%esp
  40101a:	8d 0d 1d 01 00 00    	lea    0x11d,%ecx
  401020:	66 81 fd 00 fe       	cmp    $0xfe00,%bp
  401025:	0f 82 e5 ae 00 00    	jb     0x40bf10
  40102b:	be 01 00 00 00       	mov    $0x1,%esi
  401030:	13 35 45 40 42 00    	adc    0x424045,%esi
  401036:	b3 01                	mov    $0x1,%bl
  401038:	00 c3                	add    %al,%bl
  40103a:	83 25 5f 41 42 00 24 	andl   $0x24,0x42415f
  401041:	13 35 f7 41 42 00    	adc    0x4241f7,%esi
  401047:	8d 3d c6 25 a7 98    	lea    0x98a725c6,%edi
  40104d:	81 ef 21 e3 64 98    	sub    $0x9864e321,%edi
  401053:	57                   	push   %edi
  401054:	8d 15 b7 25 a7 98    	lea    0x98a725b7,%edx
  40105a:	81 ea 21 e3 64 98    	sub    $0x9864e321,%edx
  401060:	52                   	push   %edx
  401061:	a1 84 00 42 00       	mov    0x420084,%eax
  401066:	ff d0                	call   *%eax
  401068:	19 1d 32 40 42 00    	sbb    %ebx,0x424032
  40106e:	6a 0f                	push   $0xf
  401070:	ff 0c 24             	decl   (%esp)
  401073:	8d 0d a9 25 a7 98    	lea    0x98a725a9,%ecx
  401079:	81 e9 21 e3 64 98    	sub    $0x9864e321,%ecx
  40107f:	51                   	push   %ecx
  401080:	8d 15 97 25 a7 98    	lea    0x98a72597,%edx
  401086:	81 ea 21 e3 64 98    	sub    $0x9864e321,%edx
  40108c:	52                   	push   %edx
  40108d:	a1 78 00 42 00       	mov    0x420078,%eax
  401092:	ff d0                	call   *%eax
  401094:	85 c0                	test   %eax,%eax
  401096:	0f 85 74 ae 00 00    	jne    0x40bf10
  40109c:	6a 0f                	push   $0xf
  40109e:	ff 0c 24             	decl   (%esp)
  4010a1:	8d 15 a9 25 a7 98    	lea    0x98a725a9,%edx
  4010a7:	81 ea 21 e3 64 98    	sub    $0x9864e321,%edx
  4010ad:	52                   	push   %edx
  4010ae:	8d 15 97 25 a7 98    	lea    0x98a72597,%edx
  4010b4:	81 ea 21 e3 64 98    	sub    $0x9864e321,%edx
  4010ba:	52                   	push   %edx
  4010bb:	a1 78 00 42 00       	mov    0x420078,%eax
  4010c0:	ff d0                	call   *%eax
  4010c2:	85 c0                	test   %eax,%eax
  4010c4:	0f 85 46 ae 00 00    	jne    0x40bf10
  4010ca:	b0 01                	mov    $0x1,%al
  4010cc:	00 d8                	add    %bl,%al
  4010ce:	83 de 94             	sbb    $0xffffff94,%esi
  4010d1:	29 d8                	sub    %ebx,%eax
  4010d3:	8d 3d c6 25 a7 98    	lea    0x98a725c6,%edi
  4010d9:	81 ef 21 e3 64 98    	sub    $0x9864e321,%edi
  4010df:	57                   	push   %edi
  4010e0:	8d 15 b7 25 a7 98    	lea    0x98a725b7,%edx
  4010e6:	81 ea 21 e3 64 98    	sub    $0x9864e321,%edx
  4010ec:	52                   	push   %edx
  4010ed:	a1 84 00 42 00       	mov    0x420084,%eax
  4010f2:	ff d0                	call   *%eax
  4010f4:	01 1d b8 41 42 00    	add    %ebx,0x4241b8
  4010fa:	8d 0d c6 25 a7 98    	lea    0x98a725c6,%ecx
  401100:	81 e9 21 e3 64 98    	sub    $0x9864e321,%ecx
  401106:	51                   	push   %ecx
  401107:	8d 05 b7 25 a7 98    	lea    0x98a725b7,%eax
  40110d:	2d 21 e3 64 98       	sub    $0x9864e321,%eax
  401112:	50                   	push   %eax
  401113:	a1 84 00 42 00       	mov    0x420084,%eax
  401118:	ff d0                	call   *%eax
  40111a:	11 05 58 40 42 00    	adc    %eax,0x424058
  401120:	6a 0f                	push   $0xf
  401122:	ff 0c 24             	decl   (%esp)
  401125:	8d 3d a9 25 a7 98    	lea    0x98a725a9,%edi
  40112b:	81 ef 21 e3 64 98    	sub    $0x9864e321,%edi
  401131:	57                   	push   %edi
  401132:	8d 1d 97 25 a7 98    	lea    0x98a72597,%ebx
  401138:	81 eb 21 e3 64 98    	sub    $0x9864e321,%ebx
  40113e:	53                   	push   %ebx
  40113f:	a1 78 00 42 00       	mov    0x420078,%eax
  401144:	ff d0                	call   *%eax
  401146:	83 f8 00             	cmp    $0x0,%eax
  401149:	0f 85 c1 ad 00 00    	jne    0x40bf10
  40114f:	19 05 4f 41 42 00    	sbb    %eax,0x42414f
  401155:	31 1d 0b 40 42 00    	xor    %ebx,0x42400b
  40115b:	11 c6                	adc    %eax,%esi
  40115d:	6a 0f                	push   $0xf
  40115f:	ff 0c 24             	decl   (%esp)
  401162:	8d 05 a9 25 a7 98    	lea    0x98a725a9,%eax
  401168:	2d 21 e3 64 98       	sub    $0x9864e321,%eax
  40116d:	50                   	push   %eax
  40116e:	8d 1d 97 25 a7 98    	lea    0x98a72597,%ebx
  401174:	81 eb 21 e3 64 98    	sub    $0x9864e321,%ebx
  40117a:	53                   	push   %ebx
  40117b:	a1 78 00 42 00       	mov    0x420078,%eax
  401180:	ff d0                	call   *%eax
  401182:	85 c0                	test   %eax,%eax
  401184:	0f 85 86 ad 00 00    	jne    0x40bf10
  40118a:	81 1d 05 41 42 00 c0 	sbbl   $0xc0,0x424105
  401191:	00 00 00 
  401194:	6a 0f                	push   $0xf
  401196:	ff 0c 24             	decl   (%esp)
  401199:	8d 0d a9 25 a7 98    	lea    0x98a725a9,%ecx
  40119f:	81 e9 21 e3 64 98    	sub    $0x9864e321,%ecx
  4011a5:	51                   	push   %ecx
  4011a6:	8d 05 97 25 a7 98    	lea    0x98a72597,%eax
  4011ac:	2d 21 e3 64 98       	sub    $0x9864e321,%eax
  4011b1:	50                   	push   %eax
  4011b2:	a1 78 00 42 00       	mov    0x420078,%eax
  4011b7:	ff d0                	call   *%eax
  4011b9:	83 f8 00             	cmp    $0x0,%eax
  4011bc:	0f 85 4e ad 00 00    	jne    0x40bf10
  4011c2:	2a 05 58 40 42 00    	sub    0x424058,%al
  4011c8:	8d 0d c6 25 a7 98    	lea    0x98a725c6,%ecx
  4011ce:	81 e9 21 e3 64 98    	sub    $0x9864e321,%ecx
  4011d4:	51                   	push   %ecx
  4011d5:	8d 3d b7 25 a7 98    	lea    0x98a725b7,%edi
  4011db:	81 ef 21 e3 64 98    	sub    $0x9864e321,%edi
  4011e1:	57                   	push   %edi
  4011e2:	a1 84 00 42 00       	mov    0x420084,%eax
  4011e7:	ff d0                	call   *%eax
  4011e9:	09 05 2d 41 42 00    	or     %eax,0x42412d
  4011ef:	83 15 23 40 42 00 3b 	adcl   $0x3b,0x424023
  4011f6:	83 15 93 40 42 00 4d 	adcl   $0x4d,0x424093
  4011fd:	01 1d 10 41 42 00    	add    %ebx,0x424110
  401203:	8d 3d c6 25 a7 98    	lea    0x98a725c6,%edi
  401209:	81 ef 21 e3 64 98    	sub    $0x9864e321,%edi
  40120f:	57                   	push   %edi
  401210:	8d 1d b7 25 a7 98    	lea    0x98a725b7,%ebx
  401216:	81 eb 21 e3 64 98    	sub    $0x9864e321,%ebx
  40121c:	53                   	push   %ebx
  40121d:	a1 84 00 42 00       	mov    0x420084,%eax
  401222:	ff d0                	call   *%eax
  401224:	bf 01 00 00 00       	mov    $0x1,%edi
  401229:	13 3d 71 41 42 00    	adc    0x424171,%edi
  40122f:	6a 0f                	push   $0xf
  401231:	ff 0c 24             	decl   (%esp)
  401234:	8d 0d a9 25 a7 98    	lea    0x98a725a9,%ecx
  40123a:	81 e9 21 e3 64 98    	sub    $0x9864e321,%ecx
  401240:	51                   	push   %ecx
  401241:	8d 15 97 25 a7 98    	lea    0x98a72597,%edx
  401247:	81 ea 21 e3 64 98    	sub    $0x9864e321,%edx
  40124d:	52                   	push   %edx
  40124e:	a1 78 00 42 00       	mov    0x420078,%eax
  401253:	ff d0                	call   *%eax
  401255:	83 f8 00             	cmp    $0x0,%eax
  401258:	0f 85 b2 ac 00 00    	jne    0x40bf10
  40125e:	2e e9 e8 a7 00 00    	cs jmp 0x40ba4c
  401264:	83 cb d8             	or     $0xffffffd8,%ebx
  401267:	ba 01 00 00 00       	mov    $0x1,%edx
  40126c:	83 c2 93             	add    $0xffffff93,%edx
  40126f:	01 d0                	add    %edx,%eax
  401271:	01 15 09 40 42 00    	add    %edx,0x424009
  401277:	01 c6                	add    %eax,%esi
	...
  401281:	00 00                	add    %al,(%eax)
  401283:	83 d0 25             	adc    $0x25,%eax
  401286:	c7 05 e1 41 42 00 c3 	movl   $0xc3,0x4241e1
  40128d:	00 00 00 
  401290:	82 2d 4d 41 42 00 ce 	subb   $0xce,0x42414d
  401297:	82 f7 30             	xor    $0x30,%bh
  40129a:	0b 05 2c 40 42 00    	or     0x42402c,%eax
  4012a0:	6a 0f                	push   $0xf
  4012a2:	ff 0c 24             	decl   (%esp)
  4012a5:	8d 3d a9 25 a7 98    	lea    0x98a725a9,%edi
  4012ab:	81 ef 21 e3 64 98    	sub    $0x9864e321,%edi
  4012b1:	57                   	push   %edi
  4012b2:	8d 35 97 25 a7 98    	lea    0x98a72597,%esi
  4012b8:	81 ee 21 e3 64 98    	sub    $0x9864e321,%esi
  4012be:	56                   	push   %esi
  4012bf:	a1 78 00 42 00       	mov    0x420078,%eax
  4012c4:	ff d0                	call   *%eax
  4012c6:	83 f8 00             	cmp    $0x0,%eax
  4012c9:	0f 85 41 ac 00 00    	jne    0x40bf10
  4012cf:	83 0d 48 40 42 00 4c 	orl    $0x4c,0x424048
  4012d6:	29 1d aa 40 42 00    	sub    %ebx,0x4240aa
  4012dc:	6a 0f                	push   $0xf
  4012de:	ff 0c 24             	decl   (%esp)
  4012e1:	8d 0d a9 25 a7 98    	lea    0x98a725a9,%ecx
  4012e7:	81 e9 21 e3 64 98    	sub    $0x9864e321,%ecx
  4012ed:	51                   	push   %ecx
  4012ee:	8d 05 97 25 a7 98    	lea    0x98a72597,%eax
  4012f4:	2d 21 e3 64 98       	sub    $0x9864e321,%eax
  4012f9:	50                   	push   %eax
  4012fa:	a1 78 00 42 00       	mov    0x420078,%eax
  4012ff:	ff d0                	call   *%eax
  401301:	83 f8 00             	cmp    $0x0,%eax
  401304:	0f 85 06 ac 00 00    	jne    0x40bf10
  40130a:	83 eb 77             	sub    $0x77,%ebx
  40130d:	ba 01 00 00 00       	mov    $0x1,%edx
  401312:	13 15 e1 40 42 00    	adc    0x4240e1,%edx
  401318:	18 f7                	sbb    %dh,%bh
  40131a:	29 ff                	sub    %edi,%edi
  40131c:	6a 0f                	push   $0xf
  40131e:	ff 0c 24             	decl   (%esp)
  401321:	8d 35 a9 25 a7 98    	lea    0x98a725a9,%esi
  401327:	81 ee 21 e3 64 98    	sub    $0x9864e321,%esi
  40132d:	56                   	push   %esi
  40132e:	8d 05 97 25 a7 98    	lea    0x98a72597,%eax
  401334:	2d 21 e3 64 98       	sub    $0x9864e321,%eax
  401339:	50                   	push   %eax
  40133a:	a1 78 00 42 00       	mov    0x420078,%eax
  40133f:	ff d0                	call   *%eax
  401341:	85 c0                	test   %eax,%eax
  401343:	0f 85 c7 ab 00 00    	jne    0x40bf10
  401349:	8d 0d c6 25 a7 98    	lea    0x98a725c6,%ecx
  40134f:	81 e9 21 e3 64 98    	sub    $0x9864e321,%ecx
  401355:	51                   	push   %ecx
  401356:	8d 05 b7 25 a7 98    	lea    0x98a725b7,%eax
  40135c:	2d 21 e3 64 98       	sub    $0x9864e321,%eax
  401361:	50                   	push   %eax
  401362:	a1 84 00 42 00       	mov    0x420084,%eax
  401367:	ff d0                	call   *%eax
  401369:	19 c7                	sbb    %eax,%edi
  40136b:	83 c3 1b             	add    $0x1b,%ebx
  40136e:	83 15 1b 41 42 00 17 	adcl   $0x17,0x42411b
  401375:	13 1d fd 40 42 00    	adc    0x4240fd,%ebx
  40137b:	13 3d 20 40 42 00    	adc    0x424020,%edi
  401381:	6a 0f                	push   $0xf
  401383:	ff 0c 24             	decl   (%esp)
  401386:	8d 15 a9 25 a7 98    	lea    0x98a725a9,%edx
  40138c:	81 ea 21 e3 64 98    	sub    $0x9864e321,%edx
  401392:	52                   	push   %edx
  401393:	8d 15 97 25 a7 98    	lea    0x98a72597,%edx
  401399:	81 ea 21 e3 64 98    	sub    $0x9864e321,%edx
  40139f:	52                   	push   %edx
  4013a0:	a1 78 00 42 00       	mov    0x420078,%eax
  4013a5:	ff d0                	call   *%eax
  4013a7:	85 c0                	test   %eax,%eax
  4013a9:	0f 85 61 ab 00 00    	jne    0x40bf10
  4013af:	81 25 01 41 42 00 a5 	andl   $0xa5,0x424101
  4013b6:	00 00 00 
  4013b9:	81 15 db 41 42 00 a9 	adcl   $0xa9,0x4241db
  4013c0:	00 00 00 
  4013c3:	83 ef 1b             	sub    $0x1b,%edi
  4013c6:	6a 0f                	push   $0xf
  4013c8:	ff 0c 24             	decl   (%esp)
  4013cb:	8d 0d a9 25 a7 98    	lea    0x98a725a9,%ecx
  4013d1:	81 e9 21 e3 64 98    	sub    $0x9864e321,%ecx
  4013d7:	51                   	push   %ecx
  4013d8:	8d 15 97 25 a7 98    	lea    0x98a72597,%edx
  4013de:	81 ea 21 e3 64 98    	sub    $0x9864e321,%edx
  4013e4:	52                   	push   %edx
  4013e5:	a1 78 00 42 00       	mov    0x420078,%eax
  4013ea:	ff d0                	call   *%eax
  4013ec:	83 f8 00             	cmp    $0x0,%eax
  4013ef:	0f 85 1b ab 00 00    	jne    0x40bf10
  4013f5:	6a 0f                	push   $0xf
  4013f7:	ff 0c 24             	decl   (%esp)
  4013fa:	8d 3d a9 25 a7 98    	lea    0x98a725a9,%edi
  401400:	81 ef 21 e3 64 98    	sub    $0x9864e321,%edi
  401406:	57                   	push   %edi
  401407:	8d 35 97 25 a7 98    	lea    0x98a72597,%esi
  40140d:	81 ee 21 e3 64 98    	sub    $0x9864e321,%esi
  401413:	56                   	push   %esi
  401414:	a1 78 00 42 00       	mov    0x420078,%eax
  401419:	ff d0                	call   *%eax
  40141b:	85 c0                	test   %eax,%eax
  40141d:	0f 85 ed aa 00 00    	jne    0x40bf10
  401423:	81 15 2b 40 42 00 de 	adcl   $0xde,0x42402b
  40142a:	00 00 00 
  40142d:	8d 15 c6 25 a7 98    	lea    0x98a725c6,%edx
  401433:	81 ea 21 e3 64 98    	sub    $0x9864e321,%edx
  401439:	52                   	push   %edx
  40143a:	8d 15 b7 25 a7 98    	lea    0x98a725b7,%edx
  401440:	81 ea 21 e3 64 98    	sub    $0x9864e321,%edx
  401446:	52                   	push   %edx
  401447:	a1 84 00 42 00       	mov    0x420084,%eax
  40144c:	ff d0                	call   *%eax
  40144e:	b9 01 00 00 00       	mov    $0x1,%ecx
  401453:	01 c1                	add    %eax,%ecx
  401455:	81 25 a7 41 42 00 cc 	andl   $0xcc,0x4241a7
  40145c:	00 00 00 
  40145f:	29 0d ff 40 42 00    	sub    %ecx,0x4240ff
  401465:	31 0d 35 41 42 00    	xor    %ecx,0x424135
  40146b:	82 2d 9b 40 42 00 d9 	subb   $0xd9,0x42409b
  401472:	8d 35 c6 25 a7 98    	lea    0x98a725c6,%esi
  401478:	81 ee 21 e3 64 98    	sub    $0x9864e321,%esi
  40147e:	56                   	push   %esi
  40147f:	8d 1d b7 25 a7 98    	lea    0x98a725b7,%ebx
  401485:	81 eb 21 e3 64 98    	sub    $0x9864e321,%ebx
  40148b:	53                   	push   %ebx
  40148c:	a1 84 00 42 00       	mov    0x420084,%eax
  401491:	ff d0                	call   *%eax
  401493:	82 2d f4 41 42 00 31 	subb   $0x31,0x4241f4
  40149a:	2b 1d 88 41 42 00    	sub    0x424188,%ebx
  4014a0:	b9 01 00 00 00       	mov    $0x1,%ecx
  4014a5:	83 c1 2b             	add    $0x2b,%ecx
  4014a8:	12 1d fe 41 42 00    	adc    0x4241fe,%bl
  4014ae:	8d 05 c6 25 a7 98    	lea    0x98a725c6,%eax
  4014b4:	2d 21 e3 64 98       	sub    $0x9864e321,%eax
  4014b9:	50                   	push   %eax
  4014ba:	8d 1d b7 25 a7 98    	lea    0x98a725b7,%ebx
  4014c0:	81 eb 21 e3 64 98    	sub    $0x9864e321,%ebx
  4014c6:	53                   	push   %ebx
  4014c7:	a1 84 00 42 00       	mov    0x420084,%eax
  4014cc:	ff d0                	call   *%eax
  4014ce:	13 1d 03 41 42 00    	adc    0x424103,%ebx
  4014d4:	31 f7                	xor    %esi,%edi
  4014d6:	13 05 ee 41 42 00    	adc    0x4241ee,%eax
  4014dc:	6a 0f                	push   $0xf
  4014de:	ff 0c 24             	decl   (%esp)
  4014e1:	8d 1d a9 25 a7 98    	lea    0x98a725a9,%ebx
  4014e7:	81 eb 21 e3 64 98    	sub    $0x9864e321,%ebx
  4014ed:	53                   	push   %ebx
  4014ee:	8d 35 97 25 a7 98    	lea    0x98a72597,%esi
  4014f4:	81 ee 21 e3 64 98    	sub    $0x9864e321,%esi
  4014fa:	56                   	push   %esi
  4014fb:	a1 78 00 42 00       	mov    0x420078,%eax
  401500:	ff d0                	call   *%eax
  401502:	85 c0                	test   %eax,%eax
  401504:	0f 85 06 aa 00 00    	jne    0x40bf10
  40150a:	81 15 b5 41 42 00 ac 	adcl   $0xac,0x4241b5
  401511:	00 00 00 
  401514:	19 db                	sbb    %ebx,%ebx
  401516:	29 df                	sub    %ebx,%edi
  401518:	13 05 80 41 42 00    	adc    0x424180,%eax
  40151e:	2a 25 97 40 42 00    	sub    0x424097,%ah
  401524:	6a 0f                	push   $0xf
  401526:	ff 0c 24             	decl   (%esp)
  401529:	8d 35 a9 25 a7 98    	lea    0x98a725a9,%esi
  40152f:	81 ee 21 e3 64 98    	sub    $0x9864e321,%esi
  401535:	56                   	push   %esi
  401536:	8d 3d 97 25 a7 98    	lea    0x98a72597,%edi
  40153c:	81 ef 21 e3 64 98    	sub    $0x9864e321,%edi
  401542:	57                   	push   %edi
  401543:	a1 78 00 42 00       	mov    0x420078,%eax
  401548:	ff d0                	call   *%eax
  40154a:	85 c0                	test   %eax,%eax
  40154c:	0f 85 be a9 00 00    	jne    0x40bf10
  401552:	11 1d c7 41 42 00    	adc    %ebx,0x4241c7
  401558:	2e e9 ee a4 00 00    	cs jmp 0x40ba4c
  40155e:	83 c6 a4             	add    $0xffffffa4,%esi
	...
  40156d:	00 00                	add    %al,(%eax)
  40156f:	00 13                	add    %dl,(%ebx)
  401571:	3d f9 41 42 00       	cmp    $0x4241f9,%eax
  401576:	b9 01 00 00 00       	mov    $0x1,%ecx
  40157b:	83 c1 a2             	add    $0xffffffa2,%ecx
  40157e:	2b 1d e6 40 42 00    	sub    0x4240e6,%ebx
  401584:	ba 01 00 00 00       	mov    $0x1,%edx
  401589:	83 c2 8d             	add    $0xffffff8d,%edx
  40158c:	19 3d e2 40 42 00    	sbb    %edi,0x4240e2
  401592:	8d 35 c6 25 a7 98    	lea    0x98a725c6,%esi
  401598:	81 ee 21 e3 64 98    	sub    $0x9864e321,%esi
  40159e:	56                   	push   %esi
  40159f:	8d 1d b7 25 a7 98    	lea    0x98a725b7,%ebx
  4015a5:	81 eb 21 e3 64 98    	sub    $0x9864e321,%ebx
  4015ab:	53                   	push   %ebx
  4015ac:	a1 84 00 42 00       	mov    0x420084,%eax
  4015b1:	ff d0                	call   *%eax
  4015b3:	ba 01 00 00 00       	mov    $0x1,%edx
  4015b8:	13 15 b6 40 42 00    	adc    0x4240b6,%edx
  4015be:	8d 15 c6 25 a7 98    	lea    0x98a725c6,%edx
  4015c4:	81 ea 21 e3 64 98    	sub    $0x9864e321,%edx
  4015ca:	52                   	push   %edx
  4015cb:	8d 05 b7 25 a7 98    	lea    0x98a725b7,%eax
  4015d1:	2d 21 e3 64 98       	sub    $0x9864e321,%eax
  4015d6:	50                   	push   %eax
  4015d7:	a1 84 00 42 00       	mov    0x420084,%eax
  4015dc:	ff d0                	call   *%eax
  4015de:	01 f3                	add    %esi,%ebx
  4015e0:	6a 0f                	push   $0xf
  4015e2:	ff 0c 24             	decl   (%esp)
  4015e5:	8d 15 a9 25 a7 98    	lea    0x98a725a9,%edx
  4015eb:	81 ea 21 e3 64 98    	sub    $0x9864e321,%edx
  4015f1:	52                   	push   %edx
  4015f2:	8d 0d 97 25 a7 98    	lea    0x98a72597,%ecx
  4015f8:	81 e9 21 e3 64 98    	sub    $0x9864e321,%ecx
  4015fe:	51                   	push   %ecx
  4015ff:	a1 78 00 42 00       	mov    0x420078,%eax
  401604:	ff d0                	call   *%eax
  401606:	85 c0                	test   %eax,%eax
  401608:	0f 85 02 a9 00 00    	jne    0x40bf10
  40160e:	01 df                	add    %ebx,%edi
  401610:	8d 05 c6 25 a7 98    	lea    0x98a725c6,%eax
  401616:	2d 21 e3 64 98       	sub    $0x9864e321,%eax
  40161b:	50                   	push   %eax
  40161c:	8d 3d b7 25 a7 98    	lea    0x98a725b7,%edi
  401622:	81 ef 21 e3 64 98    	sub    $0x9864e321,%edi
  401628:	57                   	push   %edi
  401629:	a1 84 00 42 00       	mov    0x420084,%eax
  40162e:	ff d0                	call   *%eax
  401630:	01 c7                	add    %eax,%edi
  401632:	01 1d 27 41 42 00    	add    %ebx,0x424127
  401638:	8d 1d c6 25 a7 98    	lea    0x98a725c6,%ebx
  40163e:	81 eb 21 e3 64 98    	sub    $0x9864e321,%ebx
  401644:	53                   	push   %ebx
  401645:	8d 35 b7 25 a7 98    	lea    0x98a725b7,%esi
  40164b:	81 ee 21 e3 64 98    	sub    $0x9864e321,%esi
  401651:	56                   	push   %esi
  401652:	a1 84 00 42 00       	mov    0x420084,%eax
  401657:	ff d0                	call   *%eax
  401659:	6a 0f                	push   $0xf
  40165b:	ff 0c 24             	decl   (%esp)
  40165e:	8d 35 a9 25 a7 98    	lea    0x98a725a9,%esi
  401664:	81 ee 21 e3 64 98    	sub    $0x9864e321,%esi
  40166a:	56                   	push   %esi
  40166b:	8d 35 97 25 a7 98    	lea    0x98a72597,%esi
  401671:	81 ee 21 e3 64 98    	sub    $0x9864e321,%esi
  401677:	56                   	push   %esi
  401678:	a1 78 00 42 00       	mov    0x420078,%eax
  40167d:	ff d0                	call   *%eax
  40167f:	85 c0                	test   %eax,%eax
  401681:	0f 85 89 a8 00 00    	jne    0x40bf10
  401687:	81 35 ca 40 42 00 e5 	xorl   $0xe5,0x4240ca
  40168e:	00 00 00 
  401691:	19 f3                	sbb    %esi,%ebx
  401693:	6a 0f                	push   $0xf
  401695:	ff 0c 24             	decl   (%esp)
  401698:	8d 3d a9 25 a7 98    	lea    0x98a725a9,%edi
  40169e:	81 ef 21 e3 64 98    	sub    $0x9864e321,%edi
  4016a4:	57                   	push   %edi
  4016a5:	8d 05 97 25 a7 98    	lea    0x98a72597,%eax
  4016ab:	2d 21 e3 64 98       	sub    $0x9864e321,%eax
  4016b0:	50                   	push   %eax
  4016b1:	a1 78 00 42 00       	mov    0x420078,%eax
  4016b6:	ff d0                	call   *%eax
  4016b8:	83 f8 00             	cmp    $0x0,%eax
  4016bb:	0f 85 4f a8 00 00    	jne    0x40bf10
  4016c1:	01 3d a9 40 42 00    	add    %edi,0x4240a9
  4016c7:	13 35 9e 41 42 00    	adc    0x42419e,%esi
  4016cd:	8d 0d c6 25 a7 98    	lea    0x98a725c6,%ecx
  4016d3:	81 e9 21 e3 64 98    	sub    $0x9864e321,%ecx
  4016d9:	51                   	push   %ecx
  4016da:	8d 35 b7 25 a7 98    	lea    0x98a725b7,%esi
  4016e0:	81 ee 21 e3 64 98    	sub    $0x9864e321,%esi
  4016e6:	56                   	push   %esi
  4016e7:	a1 84 00 42 00       	mov    0x420084,%eax
  4016ec:	ff d0                	call   *%eax
  4016ee:	83 f6 41             	xor    $0x41,%esi
  4016f1:	83 0d f4 40 42 00 57 	orl    $0x57,0x4240f4
  4016f8:	c7 05 1c 40 42 00 6a 	movl   $0x6a,0x42401c
  4016ff:	00 00 00 
  401702:	8d 0d c6 25 a7 98    	lea    0x98a725c6,%ecx
  401708:	81 e9 21 e3 64 98    	sub    $0x9864e321,%ecx
  40170e:	51                   	push   %ecx
  40170f:	8d 3d b7 25 a7 98    	lea    0x98a725b7,%edi
  401715:	81 ef 21 e3 64 98    	sub    $0x9864e321,%edi
  40171b:	57                   	push   %edi
  40171c:	a1 84 00 42 00       	mov    0x420084,%eax
  401721:	ff d0                	call   *%eax
  401723:	11 3d 57 40 42 00    	adc    %edi,0x424057
  401729:	31 fb                	xor    %edi,%ebx
  40172b:	b9 01 00 00 00       	mov    $0x1,%ecx
  401730:	01 c1                	add    %eax,%ecx
  401732:	6a 0f                	push   $0xf
  401734:	ff 0c 24             	decl   (%esp)
  401737:	8d 05 a9 25 a7 98    	lea    0x98a725a9,%eax
  40173d:	2d 21 e3 64 98       	sub    $0x9864e321,%eax
  401742:	50                   	push   %eax
  401743:	8d 05 97 25 a7 98    	lea    0x98a72597,%eax
  401749:	2d 21 e3 64 98       	sub    $0x9864e321,%eax
  40174e:	50                   	push   %eax
  40174f:	a1 78 00 42 00       	mov    0x420078,%eax
  401754:	ff d0                	call   *%eax
  401756:	85 c0                	test   %eax,%eax
  401758:	0f 85 b2 a7 00 00    	jne    0x40bf10
  40175e:	2e e9 e8 a2 00 00    	cs jmp 0x40ba4c
  401764:	83 d0 64             	adc    $0x64,%eax
  401767:	ba 01 00 00 00       	mov    $0x1,%edx
  40176c:	83 c2 78             	add    $0x78,%edx
	...
  40177f:	6a 0f                	push   $0xf
  401781:	ff 0c 24             	decl   (%esp)
  401784:	8d 0d a9 25 a7 98    	lea    0x98a725a9,%ecx
  40178a:	81 e9 21 e3 64 98    	sub    $0x9864e321,%ecx
  401790:	51                   	push   %ecx
  401791:	8d 1d 97 25 a7 98    	lea    0x98a72597,%ebx
  401797:	81 eb 21 e3 64 98    	sub    $0x9864e321,%ebx
  40179d:	53                   	push   %ebx
  40179e:	a1 78 00 42 00       	mov    0x420078,%eax
  4017a3:	ff d0                	call   *%eax
  4017a5:	85 c0                	test   %eax,%eax
  4017a7:	0f 85 63 a7 00 00    	jne    0x40bf10
  4017ad:	01 3d 69 40 42 00    	add    %edi,0x424069
  4017b3:	0b 05 1a 41 42 00    	or     0x42411a,%eax
  4017b9:	c7 05 81 40 42 00 a0 	movl   $0xa0,0x424081
  4017c0:	00 00 00 
  4017c3:	6a 0f                	push   $0xf
  4017c5:	ff 0c 24             	decl   (%esp)
  4017c8:	8d 15 a9 25 a7 98    	lea    0x98a725a9,%edx
  4017ce:	81 ea 21 e3 64 98    	sub    $0x9864e321,%edx
  4017d4:	52                   	push   %edx
  4017d5:	8d 3d 97 25 a7 98    	lea    0x98a72597,%edi
  4017db:	81 ef 21 e3 64 98    	sub    $0x9864e321,%edi
  4017e1:	57                   	push   %edi
  4017e2:	a1 78 00 42 00       	mov    0x420078,%eax
  4017e7:	ff d0                	call   *%eax
  4017e9:	85 c0                	test   %eax,%eax
  4017eb:	0f 85 1f a7 00 00    	jne    0x40bf10
  4017f1:	2a 1d f8 41 42 00    	sub    0x4241f8,%bl
  4017f7:	19 3d cd 41 42 00    	sbb    %edi,0x4241cd
  4017fd:	8d 35 c6 25 a7 98    	lea    0x98a725c6,%esi
  401803:	81 ee 21 e3 64 98    	sub    $0x9864e321,%esi
  401809:	56                   	push   %esi
  40180a:	8d 0d b7 25 a7 98    	lea    0x98a725b7,%ecx
  401810:	81 e9 21 e3 64 98    	sub    $0x9864e321,%ecx
  401816:	51                   	push   %ecx
  401817:	a1 84 00 42 00       	mov    0x420084,%eax
  40181c:	ff d0                	call   *%eax
  40181e:	6a 0f                	push   $0xf
  401820:	ff 0c 24             	decl   (%esp)
  401823:	8d 35 a9 25 a7 98    	lea    0x98a725a9,%esi
  401829:	81 ee 21 e3 64 98    	sub    $0x9864e321,%esi
  40182f:	56                   	push   %esi
  401830:	8d 0d 97 25 a7 98    	lea    0x98a72597,%ecx
  401836:	81 e9 21 e3 64 98    	sub    $0x9864e321,%ecx
  40183c:	51                   	push   %ecx
  40183d:	a1 78 00 42 00       	mov    0x420078,%eax
  401842:	ff d0                	call   *%eax
  401844:	83 f8 00             	cmp    $0x0,%eax
  401847:	0f 85 c3 a6 00 00    	jne    0x40bf10
  40184d:	83 cf 85             	or     $0xffffff85,%edi
  401850:	01 3d ec 41 42 00    	add    %edi,0x4241ec
  401856:	82 c4 ec             	add    $0xec,%ah
  401859:	6a 0f                	push   $0xf
  40185b:	ff 0c 24             	decl   (%esp)
  40185e:	8d 3d a9 25 a7 98    	lea    0x98a725a9,%edi
  401864:	81 ef 21 e3 64 98    	sub    $0x9864e321,%edi
  40186a:	57                   	push   %edi
  40186b:	8d 05 97 25 a7 98    	lea    0x98a72597,%eax
  401871:	2d 21 e3 64 98       	sub    $0x9864e321,%eax
  401876:	50                   	push   %eax
  401877:	a1 78 00 42 00       	mov    0x420078,%eax
  40187c:	ff d0                	call   *%eax
  40187e:	85 c0                	test   %eax,%eax
  401880:	0f 85 8a a6 00 00    	jne    0x40bf10
  401886:	6a 0f                	push   $0xf
  401888:	ff 0c 24             	decl   (%esp)
  40188b:	8d 1d a9 25 a7 98    	lea    0x98a725a9,%ebx
  401891:	81 eb 21 e3 64 98    	sub    $0x9864e321,%ebx
  401897:	53                   	push   %ebx
  401898:	8d 15 97 25 a7 98    	lea    0x98a72597,%edx
  40189e:	81 ea 21 e3 64 98    	sub    $0x9864e321,%edx
  4018a4:	52                   	push   %edx
  4018a5:	a1 78 00 42 00       	mov    0x420078,%eax
  4018aa:	ff d0                	call   *%eax
  4018ac:	85 c0                	test   %eax,%eax
  4018ae:	0f 85 5c a6 00 00    	jne    0x40bf10
  4018b4:	83 c7 dd             	add    $0xffffffdd,%edi
  4018b7:	31 c7                	xor    %eax,%edi
  4018b9:	83 d6 93             	adc    $0xffffff93,%esi
  4018bc:	00 1d fc 41 42 00    	add    %bl,0x4241fc
  4018c2:	29 d8                	sub    %ebx,%eax
  4018c4:	6a 0f                	push   $0xf
  4018c6:	ff 0c 24             	decl   (%esp)
  4018c9:	8d 1d a9 25 a7 98    	lea    0x98a725a9,%ebx
  4018cf:	81 eb 21 e3 64 98    	sub    $0x9864e321,%ebx
  4018d5:	53                   	push   %ebx
  4018d6:	8d 1d 97 25 a7 98    	lea    0x98a72597,%ebx
  4018dc:	81 eb 21 e3 64 98    	sub    $0x9864e321,%ebx
  4018e2:	53                   	push   %ebx
  4018e3:	a1 78 00 42 00       	mov    0x420078,%eax
  4018e8:	ff d0                	call   *%eax
  4018ea:	83 f8 00             	cmp    $0x0,%eax
  4018ed:	0f 85 1d a6 00 00    	jne    0x40bf10
  4018f3:	29 c3                	sub    %eax,%ebx
  4018f5:	6a 0f                	push   $0xf
  4018f7:	ff 0c 24             	decl   (%esp)
  4018fa:	8d 3d a9 25 a7 98    	lea    0x98a725a9,%edi
  401900:	81 ef 21 e3 64 98    	sub    $0x9864e321,%edi
  401906:	57                   	push   %edi
  401907:	8d 0d 97 25 a7 98    	lea    0x98a72597,%ecx
  40190d:	81 e9 21 e3 64 98    	sub    $0x9864e321,%ecx
  401913:	51                   	push   %ecx
  401914:	a1 78 00 42 00       	mov    0x420078,%eax
  401919:	ff d0                	call   *%eax
  40191b:	83 f8 00             	cmp    $0x0,%eax
  40191e:	0f 85 ec a5 00 00    	jne    0x40bf10
  401924:	01 fe                	add    %edi,%esi
  401926:	11 f3                	adc    %esi,%ebx
  401928:	29 fb                	sub    %edi,%ebx
  40192a:	8d 15 c6 25 a7 98    	lea    0x98a725c6,%edx
  401930:	81 ea 21 e3 64 98    	sub    $0x9864e321,%edx
  401936:	52                   	push   %edx
  401937:	8d 3d b7 25 a7 98    	lea    0x98a725b7,%edi
  40193d:	81 ef 21 e3 64 98    	sub    $0x9864e321,%edi
  401943:	57                   	push   %edi
  401944:	a1 84 00 42 00       	mov    0x420084,%eax
  401949:	ff d0                	call   *%eax
  40194b:	13 35 87 41 42 00    	adc    0x424187,%esi
  401951:	31 35 14 40 42 00    	xor    %esi,0x424014
  401957:	b9 01 00 00 00       	mov    $0x1,%ecx
  40195c:	13 0d cc 41 42 00    	adc    0x4241cc,%ecx
  401962:	83 0d 0e 41 42 00 60 	orl    $0x60,0x42410e
  401969:	13 0d 4c 41 42 00    	adc    0x42414c,%ecx
  40196f:	8d 1d c6 25 a7 98    	lea    0x98a725c6,%ebx
  401975:	81 eb 21 e3 64 98    	sub    $0x9864e321,%ebx
  40197b:	53                   	push   %ebx
  40197c:	8d 0d b7 25 a7 98    	lea    0x98a725b7,%ecx
  401982:	81 e9 21 e3 64 98    	sub    $0x9864e321,%ecx
  401988:	51                   	push   %ecx
  401989:	a1 84 00 42 00       	mov    0x420084,%eax
  40198e:	ff d0                	call   *%eax
  401990:	81 25 28 41 42 00 cd 	andl   $0xcd,0x424128
  401997:	00 00 00 
  40199a:	2b 05 c3 40 42 00    	sub    0x4240c3,%eax
  4019a0:	30 1d e1 40 42 00    	xor    %bl,0x4240e1
  4019a6:	c7 05 a6 40 42 00 6b 	movl   $0x6b,0x4240a6
  4019ad:	00 00 00 
  4019b0:	6a 0f                	push   $0xf
  4019b2:	ff 0c 24             	decl   (%esp)
  4019b5:	8d 0d a9 25 a7 98    	lea    0x98a725a9,%ecx
  4019bb:	81 e9 21 e3 64 98    	sub    $0x9864e321,%ecx
  4019c1:	51                   	push   %ecx
  4019c2:	8d 05 97 25 a7 98    	lea    0x98a72597,%eax
  4019c8:	2d 21 e3 64 98       	sub    $0x9864e321,%eax
  4019cd:	50                   	push   %eax
  4019ce:	a1 78 00 42 00       	mov    0x420078,%eax
  4019d3:	ff d0                	call   *%eax
  4019d5:	85 c0                	test   %eax,%eax
  4019d7:	0f 85 33 a5 00 00    	jne    0x40bf10
  4019dd:	31 3d ca 41 42 00    	xor    %edi,0x4241ca
  4019e3:	19 df                	sbb    %ebx,%edi
  4019e5:	09 3d ad 40 42 00    	or     %edi,0x4240ad
  4019eb:	ba 01 00 00 00       	mov    $0x1,%edx
  4019f0:	01 c2                	add    %eax,%edx
  4019f2:	13 15 2b 41 42 00    	adc    0x42412b,%edx
  4019f8:	8d 0d c6 25 a7 98    	lea    0x98a725c6,%ecx
  4019fe:	81 e9 21 e3 64 98    	sub    $0x9864e321,%ecx
  401a04:	51                   	push   %ecx
  401a05:	8d 1d b7 25 a7 98    	lea    0x98a725b7,%ebx
  401a0b:	81 eb 21 e3 64 98    	sub    $0x9864e321,%ebx
  401a11:	53                   	push   %ebx
  401a12:	a1 84 00 42 00       	mov    0x420084,%eax
  401a17:	ff d0                	call   *%eax
  401a19:	c7 05 dd 41 42 00 4a 	movl   $0x4a,0x4241dd
  401a20:	00 00 00 
  401a23:	2e e9 23 a0 00 00    	cs jmp 0x40ba4c
  401a29:	81 15 20 40 42 00 84 	adcl   $0x84,0x424020
  401a30:	00 00 00 
  401a33:	83 35 87 41 42 00 71 	xorl   $0x71,0x424187
	...
  401a46:	b9 01 00 00 00       	mov    $0x1,%ecx
  401a4b:	01 f1                	add    %esi,%ecx
  401a4d:	12 1d 10 40 42 00    	adc    0x424010,%bl
  401a53:	83 d9 48             	sbb    $0x48,%ecx
  401a56:	10 2d bc 40 42 00    	adc    %ch,0x4240bc
  401a5c:	ba 01 00 00 00       	mov    $0x1,%edx
  401a61:	13 15 1b 41 42 00    	adc    0x42411b,%edx
  401a67:	8d 1d c6 25 a7 98    	lea    0x98a725c6,%ebx
  401a6d:	81 eb 21 e3 64 98    	sub    $0x9864e321,%ebx
  401a73:	53                   	push   %ebx
  401a74:	8d 1d b7 25 a7 98    	lea    0x98a725b7,%ebx
  401a7a:	81 eb 21 e3 64 98    	sub    $0x9864e321,%ebx
  401a80:	53                   	push   %ebx
  401a81:	a1 84 00 42 00       	mov    0x420084,%eax
  401a86:	ff d0                	call   *%eax
  401a88:	6a 0f                	push   $0xf
  401a8a:	ff 0c 24             	decl   (%esp)
  401a8d:	8d 05 a9 25 a7 98    	lea    0x98a725a9,%eax
  401a93:	2d 21 e3 64 98       	sub    $0x9864e321,%eax
  401a98:	50                   	push   %eax
  401a99:	8d 05 97 25 a7 98    	lea    0x98a72597,%eax
  401a9f:	2d 21 e3 64 98       	sub    $0x9864e321,%eax
  401aa4:	50                   	push   %eax
  401aa5:	a1 78 00 42 00       	mov    0x420078,%eax
  401aaa:	ff d0                	call   *%eax
  401aac:	83 f8 00             	cmp    $0x0,%eax
  401aaf:	0f 85 5b a4 00 00    	jne    0x40bf10
  401ab5:	ba 01 00 00 00       	mov    $0x1,%edx
  401aba:	01 fa                	add    %edi,%edx
  401abc:	6a 0f                	push   $0xf
  401abe:	ff 0c 24             	decl   (%esp)
  401ac1:	8d 1d a9 25 a7 98    	lea    0x98a725a9,%ebx
  401ac7:	81 eb 21 e3 64 98    	sub    $0x9864e321,%ebx
  401acd:	53                   	push   %ebx
  401ace:	8d 35 97 25 a7 98    	lea    0x98a72597,%esi
  401ad4:	81 ee 21 e3 64 98    	sub    $0x9864e321,%esi
  401ada:	56                   	push   %esi
  401adb:	a1 78 00 42 00       	mov    0x420078,%eax
  401ae0:	ff d0                	call   *%eax
  401ae2:	85 c0                	test   %eax,%eax
  401ae4:	0f 85 26 a4 00 00    	jne    0x40bf10
  401aea:	6a 0f                	push   $0xf
  401aec:	ff 0c 24             	decl   (%esp)
  401aef:	8d 15 a9 25 a7 98    	lea    0x98a725a9,%edx
  401af5:	81 ea 21 e3 64 98    	sub    $0x9864e321,%edx
  401afb:	52                   	push   %edx
  401afc:	8d 05 97 25 a7 98    	lea    0x98a72597,%eax
  401b02:	2d 21 e3 64 98       	sub    $0x9864e321,%eax
  401b07:	50                   	push   %eax
  401b08:	a1 78 00 42 00       	mov    0x420078,%eax
  401b0d:	ff d0                	call   *%eax
  401b0f:	83 f8 00             	cmp    $0x0,%eax
  401b12:	0f 85 f8 a3 00 00    	jne    0x40bf10
  401b18:	8d 35 c6 25 a7 98    	lea    0x98a725c6,%esi
  401b1e:	81 ee 21 e3 64 98    	sub    $0x9864e321,%esi
  401b24:	56                   	push   %esi
  401b25:	8d 3d b7 25 a7 98    	lea    0x98a725b7,%edi
  401b2b:	81 ef 21 e3 64 98    	sub    $0x9864e321,%edi
  401b31:	57                   	push   %edi
  401b32:	a1 84 00 42 00       	mov    0x420084,%eax
  401b37:	ff d0                	call   *%eax
  401b39:	12 05 e3 41 42 00    	adc    0x4241e3,%al
  401b3f:	13 3d 0d 40 42 00    	adc    0x42400d,%edi
  401b45:	6a 0f                	push   $0xf
  401b47:	ff 0c 24             	decl   (%esp)
  401b4a:	8d 1d a9 25 a7 98    	lea    0x98a725a9,%ebx
  401b50:	81 eb 21 e3 64 98    	sub    $0x9864e321,%ebx
  401b56:	53                   	push   %ebx
  401b57:	8d 0d 97 25 a7 98    	lea    0x98a72597,%ecx
  401b5d:	81 e9 21 e3 64 98    	sub    $0x9864e321,%ecx
  401b63:	51                   	push   %ecx
  401b64:	a1 78 00 42 00       	mov    0x420078,%eax
  401b69:	ff d0                	call   *%eax
  401b6b:	83 f8 00             	cmp    $0x0,%eax
  401b6e:	0f 85 9c a3 00 00    	jne    0x40bf10
  401b74:	6a 0f                	push   $0xf
  401b76:	ff 0c 24             	decl   (%esp)
  401b79:	8d 15 a9 25 a7 98    	lea    0x98a725a9,%edx
  401b7f:	81 ea 21 e3 64 98    	sub    $0x9864e321,%edx
  401b85:	52                   	push   %edx
  401b86:	8d 0d 97 25 a7 98    	lea    0x98a72597,%ecx
  401b8c:	81 e9 21 e3 64 98    	sub    $0x9864e321,%ecx
  401b92:	51                   	push   %ecx
  401b93:	a1 78 00 42 00       	mov    0x420078,%eax
  401b98:	ff d0                	call   *%eax
  401b9a:	83 f8 00             	cmp    $0x0,%eax
  401b9d:	0f 85 6d a3 00 00    	jne    0x40bf10
  401ba3:	01 1d 58 41 42 00    	add    %ebx,0x424158
  401ba9:	09 35 a3 40 42 00    	or     %esi,0x4240a3
  401baf:	c7 05 46 41 42 00 b0 	movl   $0xb0,0x424146
  401bb6:	00 00 00 
  401bb9:	ba 01 00 00 00       	mov    $0x1,%edx
  401bbe:	83 c2 92             	add    $0xffffff92,%edx
  401bc1:	8d 1d c6 25 a7 98    	lea    0x98a725c6,%ebx
  401bc7:	81 eb 21 e3 64 98    	sub    $0x9864e321,%ebx
  401bcd:	53                   	push   %ebx
  401bce:	8d 0d b7 25 a7 98    	lea    0x98a725b7,%ecx
  401bd4:	81 e9 21 e3 64 98    	sub    $0x9864e321,%ecx
  401bda:	51                   	push   %ecx
  401bdb:	a1 84 00 42 00       	mov    0x420084,%eax
  401be0:	ff d0                	call   *%eax
  401be2:	13 1d 1c 40 42 00    	adc    0x42401c,%ebx
  401be8:	6a 0f                	push   $0xf
  401bea:	ff 0c 24             	decl   (%esp)
  401bed:	8d 0d a9 25 a7 98    	lea    0x98a725a9,%ecx
  401bf3:	81 e9 21 e3 64 98    	sub    $0x9864e321,%ecx
  401bf9:	51                   	push   %ecx
  401bfa:	8d 05 97 25 a7 98    	lea    0x98a72597,%eax
  401c00:	2d 21 e3 64 98       	sub    $0x9864e321,%eax
  401c05:	50                   	push   %eax
  401c06:	a1 78 00 42 00       	mov    0x420078,%eax
  401c0b:	ff d0                	call   *%eax
  401c0d:	85 c0                	test   %eax,%eax
  401c0f:	0f 85 fb a2 00 00    	jne    0x40bf10
  401c15:	8d 3d c6 25 a7 98    	lea    0x98a725c6,%edi
  401c1b:	81 ef 21 e3 64 98    	sub    $0x9864e321,%edi
  401c21:	57                   	push   %edi
  401c22:	8d 1d b7 25 a7 98    	lea    0x98a725b7,%ebx
  401c28:	81 eb 21 e3 64 98    	sub    $0x9864e321,%ebx
  401c2e:	53                   	push   %ebx
  401c2f:	a1 84 00 42 00       	mov    0x420084,%eax
  401c34:	ff d0                	call   *%eax
  401c36:	2e e9 10 9e 00 00    	cs jmp 0x40ba4c
  401c3c:	83 25 b9 40 42 00 15 	andl   $0x15,0x4240b9
  401c43:	83 ef e3             	sub    $0xffffffe3,%edi
  401c46:	b5 01                	mov    $0x1,%ch
  401c48:	00 fd                	add    %bh,%ch
  401c4a:	29 3d ee 40 42 00    	sub    %edi,0x4240ee
	...
  401c58:	00 00                	add    %al,(%eax)
  401c5a:	00 12                	add    %dl,(%edx)
  401c5c:	1d 3e 41 42 00       	sbb    $0x42413e,%eax
  401c61:	11 fe                	adc    %edi,%esi
  401c63:	21 05 65 41 42 00    	and    %eax,0x424165
  401c69:	11 1d ec 40 42 00    	adc    %ebx,0x4240ec
  401c6f:	8d 15 c6 25 a7 98    	lea    0x98a725c6,%edx
  401c75:	81 ea 21 e3 64 98    	sub    $0x9864e321,%edx
  401c7b:	52                   	push   %edx
  401c7c:	8d 05 b7 25 a7 98    	lea    0x98a725b7,%eax
  401c82:	2d 21 e3 64 98       	sub    $0x9864e321,%eax
  401c87:	50                   	push   %eax
  401c88:	a1 84 00 42 00       	mov    0x420084,%eax
  401c8d:	ff d0                	call   *%eax
  401c8f:	01 05 f5 40 42 00    	add    %eax,0x4240f5
  401c95:	83 cb d4             	or     $0xffffffd4,%ebx
  401c98:	28 25 4f 40 42 00    	sub    %ah,0x42404f
  401c9e:	8d 1d c6 25 a7 98    	lea    0x98a725c6,%ebx
  401ca4:	81 eb 21 e3 64 98    	sub    $0x9864e321,%ebx
  401caa:	53                   	push   %ebx
  401cab:	8d 15 b7 25 a7 98    	lea    0x98a725b7,%edx
  401cb1:	81 ea 21 e3 64 98    	sub    $0x9864e321,%edx
  401cb7:	52                   	push   %edx
  401cb8:	a1 84 00 42 00       	mov    0x420084,%eax
  401cbd:	ff d0                	call   *%eax
  401cbf:	83 35 d6 40 42 00 7f 	xorl   $0x7f,0x4240d6
  401cc6:	6a 0f                	push   $0xf
  401cc8:	ff 0c 24             	decl   (%esp)
  401ccb:	8d 1d a9 25 a7 98    	lea    0x98a725a9,%ebx
  401cd1:	81 eb 21 e3 64 98    	sub    $0x9864e321,%ebx
  401cd7:	53                   	push   %ebx
  401cd8:	8d 3d 97 25 a7 98    	lea    0x98a72597,%edi
  401cde:	81 ef 21 e3 64 98    	sub    $0x9864e321,%edi
  401ce4:	57                   	push   %edi
  401ce5:	a1 78 00 42 00       	mov    0x420078,%eax
  401cea:	ff d0                	call   *%eax
  401cec:	85 c0                	test   %eax,%eax
  401cee:	0f 85 1c a2 00 00    	jne    0x40bf10
  401cf4:	6a 0f                	push   $0xf
  401cf6:	ff 0c 24             	decl   (%esp)
  401cf9:	8d 15 a9 25 a7 98    	lea    0x98a725a9,%edx
  401cff:	81 ea 21 e3 64 98    	sub    $0x9864e321,%edx
  401d05:	52                   	push   %edx
  401d06:	8d 1d 97 25 a7 98    	lea    0x98a72597,%ebx
  401d0c:	81 eb 21 e3 64 98    	sub    $0x9864e321,%ebx
  401d12:	53                   	push   %ebx
  401d13:	a1 78 00 42 00       	mov    0x420078,%eax
  401d18:	ff d0                	call   *%eax
  401d1a:	85 c0                	test   %eax,%eax
  401d1c:	0f 85 ee a1 00 00    	jne    0x40bf10
  401d22:	ba 01 00 00 00       	mov    $0x1,%edx
  401d27:	01 da                	add    %ebx,%edx
  401d29:	6a 0f                	push   $0xf
  401d2b:	ff 0c 24             	decl   (%esp)
  401d2e:	8d 3d a9 25 a7 98    	lea    0x98a725a9,%edi
  401d34:	81 ef 21 e3 64 98    	sub    $0x9864e321,%edi
  401d3a:	57                   	push   %edi
  401d3b:	8d 15 97 25 a7 98    	lea    0x98a72597,%edx
  401d41:	81 ea 21 e3 64 98    	sub    $0x9864e321,%edx
  401d47:	52                   	push   %edx
  401d48:	a1 78 00 42 00       	mov    0x420078,%eax
  401d4d:	ff d0                	call   *%eax
  401d4f:	85 c0                	test   %eax,%eax
  401d51:	0f 85 b9 a1 00 00    	jne    0x40bf10
  401d57:	82 2d c7 41 42 00 a3 	subb   $0xa3,0x4241c7
  401d5e:	82 2d 41 40 42 00 49 	subb   $0x49,0x424041
  401d65:	6a 0f                	push   $0xf
  401d67:	ff 0c 24             	decl   (%esp)
  401d6a:	8d 15 a9 25 a7 98    	lea    0x98a725a9,%edx
  401d70:	81 ea 21 e3 64 98    	sub    $0x9864e321,%edx
  401d76:	52                   	push   %edx
  401d77:	8d 0d 97 25 a7 98    	lea    0x98a72597,%ecx
  401d7d:	81 e9 21 e3 64 98    	sub    $0x9864e321,%ecx
  401d83:	51                   	push   %ecx
  401d84:	a1 78 00 42 00       	mov    0x420078,%eax
  401d89:	ff d0                	call   *%eax
  401d8b:	85 c0                	test   %eax,%eax
  401d8d:	0f 85 7d a1 00 00    	jne    0x40bf10
  401d93:	18 05 bf 40 42 00    	sbb    %al,0x4240bf
  401d99:	13 1d 9b 40 42 00    	adc    0x42409b,%ebx
  401d9f:	13 05 a7 41 42 00    	adc    0x4241a7,%eax
  401da5:	83 ef a3             	sub    $0xffffffa3,%edi
  401da8:	83 1d 4a 40 42 00 6f 	sbbl   $0x6f,0x42404a
  401daf:	8d 05 c6 25 a7 98    	lea    0x98a725c6,%eax
  401db5:	2d 21 e3 64 98       	sub    $0x9864e321,%eax
  401dba:	50                   	push   %eax
  401dbb:	8d 05 b7 25 a7 98    	lea    0x98a725b7,%eax
  401dc1:	2d 21 e3 64 98       	sub    $0x9864e321,%eax
  401dc6:	50                   	push   %eax
  401dc7:	a1 84 00 42 00       	mov    0x420084,%eax
  401dcc:	ff d0                	call   *%eax
  401dce:	8d 1d c6 25 a7 98    	lea    0x98a725c6,%ebx
  401dd4:	81 eb 21 e3 64 98    	sub    $0x9864e321,%ebx
  401dda:	53                   	push   %ebx
  401ddb:	8d 3d b7 25 a7 98    	lea    0x98a725b7,%edi
  401de1:	81 ef 21 e3 64 98    	sub    $0x9864e321,%edi
  401de7:	57                   	push   %edi
  401de8:	a1 84 00 42 00       	mov    0x420084,%eax
  401ded:	ff d0                	call   *%eax
  401def:	18 3d 23 40 42 00    	sbb    %bh,0x424023
  401df5:	09 3d 3d 40 42 00    	or     %edi,0x42403d
  401dfb:	2a 3d fb 41 42 00    	sub    0x4241fb,%bh
  401e01:	6a 0f                	push   $0xf
  401e03:	ff 0c 24             	decl   (%esp)
  401e06:	8d 15 a9 25 a7 98    	lea    0x98a725a9,%edx
  401e0c:	81 ea 21 e3 64 98    	sub    $0x9864e321,%edx
  401e12:	52                   	push   %edx
  401e13:	8d 05 97 25 a7 98    	lea    0x98a72597,%eax
  401e19:	2d 21 e3 64 98       	sub    $0x9864e321,%eax
  401e1e:	50                   	push   %eax
  401e1f:	a1 78 00 42 00       	mov    0x420078,%eax
  401e24:	ff d0                	call   *%eax
  401e26:	83 f8 00             	cmp    $0x0,%eax
  401e29:	0f 85 e1 a0 00 00    	jne    0x40bf10
  401e2f:	08 1d 0d 41 42 00    	or     %bl,0x42410d
  401e35:	12 1d 2f 41 42 00    	adc    0x42412f,%bl
  401e3b:	29 f3                	sub    %esi,%ebx
  401e3d:	82 2d 22 41 42 00 74 	subb   $0x74,0x424122
  401e44:	6a 0f                	push   $0xf
  401e46:	ff 0c 24             	decl   (%esp)
  401e49:	8d 3d a9 25 a7 98    	lea    0x98a725a9,%edi
  401e4f:	81 ef 21 e3 64 98    	sub    $0x9864e321,%edi
  401e55:	57                   	push   %edi
  401e56:	8d 1d 97 25 a7 98    	lea    0x98a72597,%ebx
  401e5c:	81 eb 21 e3 64 98    	sub    $0x9864e321,%ebx
  401e62:	53                   	push   %ebx
  401e63:	a1 78 00 42 00       	mov    0x420078,%eax
  401e68:	ff d0                	call   *%eax
  401e6a:	85 c0                	test   %eax,%eax
  401e6c:	0f 85 9e a0 00 00    	jne    0x40bf10
  401e72:	11 1d 6d 40 42 00    	adc    %ebx,0x42406d
  401e78:	0b 35 55 41 42 00    	or     0x424155,%esi
  401e7e:	13 1d 07 41 42 00    	adc    0x424107,%ebx
  401e84:	81 35 ea 41 42 00 d8 	xorl   $0xd8,0x4241ea
  401e8b:	00 00 00 
  401e8e:	b9 01 00 00 00       	mov    $0x1,%ecx
  401e93:	83 c1 bb             	add    $0xffffffbb,%ecx
  401e96:	2e e9 b0 9b 00 00    	cs jmp 0x40ba4c
  401e9c:	13 35 27 40 42 00    	adc    0x424027,%esi
  401ea2:	83 25 b9 41 42 00 47 	andl   $0x47,0x4241b9
	...
  401eb5:	00 00                	add    %al,(%eax)
  401eb7:	00 29                	add    %ch,(%ecx)
  401eb9:	3d d2 41 42 00       	cmp    $0x4241d2,%eax
  401ebe:	12 05 20 41 42 00    	adc    0x424120,%al
  401ec4:	81 15 8f 40 42 00 93 	adcl   $0x93,0x42408f
  401ecb:	00 00 00 
  401ece:	13 05 ee 40 42 00    	adc    0x4240ee,%eax
  401ed4:	6a 0f                	push   $0xf
  401ed6:	ff 0c 24             	decl   (%esp)
  401ed9:	8d 15 a9 25 a7 98    	lea    0x98a725a9,%edx
  401edf:	81 ea 21 e3 64 98    	sub    $0x9864e321,%edx
  401ee5:	52                   	push   %edx
  401ee6:	8d 0d 97 25 a7 98    	lea    0x98a72597,%ecx
  401eec:	81 e9 21 e3 64 98    	sub    $0x9864e321,%ecx
  401ef2:	51                   	push   %ecx
  401ef3:	a1 78 00 42 00       	mov    0x420078,%eax
  401ef8:	ff d0                	call   *%eax
  401efa:	83 f8 00             	cmp    $0x0,%eax
  401efd:	0f 85 0d a0 00 00    	jne    0x40bf10
  401f03:	01 fe                	add    %edi,%esi
  401f05:	81 35 5b 40 42 00 bf 	xorl   $0xbf,0x42405b
  401f0c:	00 00 00 
  401f0f:	01 c0                	add    %eax,%eax
  401f11:	b6 01                	mov    $0x1,%dh
  401f13:	00 de                	add    %bl,%dh
  401f15:	01 c7                	add    %eax,%edi
  401f17:	6a 0f                	push   $0xf
  401f19:	ff 0c 24             	decl   (%esp)
  401f1c:	8d 35 a9 25 a7 98    	lea    0x98a725a9,%esi
  401f22:	81 ee 21 e3 64 98    	sub    $0x9864e321,%esi
  401f28:	56                   	push   %esi
  401f29:	8d 35 97 25 a7 98    	lea    0x98a72597,%esi
  401f2f:	81 ee 21 e3 64 98    	sub    $0x9864e321,%esi
  401f35:	56                   	push   %esi
  401f36:	a1 78 00 42 00       	mov    0x420078,%eax
  401f3b:	ff d0                	call   *%eax
  401f3d:	85 c0                	test   %eax,%eax
  401f3f:	0f 85 cb 9f 00 00    	jne    0x40bf10
  401f45:	83 eb 75             	sub    $0x75,%ebx
  401f48:	0b 1d e6 40 42 00    	or     0x4240e6,%ebx
  401f4e:	b9 01 00 00 00       	mov    $0x1,%ecx
  401f53:	01 c1                	add    %eax,%ecx
  401f55:	8d 1d c6 25 a7 98    	lea    0x98a725c6,%ebx
  401f5b:	81 eb 21 e3 64 98    	sub    $0x9864e321,%ebx
  401f61:	53                   	push   %ebx
  401f62:	8d 0d b7 25 a7 98    	lea    0x98a725b7,%ecx
  401f68:	81 e9 21 e3 64 98    	sub    $0x9864e321,%ecx
  401f6e:	51                   	push   %ecx
  401f6f:	a1 84 00 42 00       	mov    0x420084,%eax
  401f74:	ff d0                	call   *%eax
  401f76:	01 35 ce 40 42 00    	add    %esi,0x4240ce
  401f7c:	11 c3                	adc    %eax,%ebx
  401f7e:	83 c6 01             	add    $0x1,%esi
  401f81:	12 1d 64 40 42 00    	adc    0x424064,%bl
  401f87:	8d 1d c6 25 a7 98    	lea    0x98a725c6,%ebx
  401f8d:	81 eb 21 e3 64 98    	sub    $0x9864e321,%ebx
  401f93:	53                   	push   %ebx
  401f94:	8d 1d b7 25 a7 98    	lea    0x98a725b7,%ebx
  401f9a:	81 eb 21 e3 64 98    	sub    $0x9864e321,%ebx
  401fa0:	53                   	push   %ebx
  401fa1:	a1 84 00 42 00       	mov    0x420084,%eax
  401fa6:	ff d0                	call   *%eax
  401fa8:	13 3d 3c 41 42 00    	adc    0x42413c,%edi
  401fae:	31 db                	xor    %ebx,%ebx
  401fb0:	11 3d c2 40 42 00    	adc    %edi,0x4240c2
  401fb6:	6a 0f                	push   $0xf
  401fb8:	ff 0c 24             	decl   (%esp)
  401fbb:	8d 05 a9 25 a7 98    	lea    0x98a725a9,%eax
  401fc1:	2d 21 e3 64 98       	sub    $0x9864e321,%eax
  401fc6:	50                   	push   %eax
  401fc7:	8d 3d 97 25 a7 98    	lea    0x98a72597,%edi
  401fcd:	81 ef 21 e3 64 98    	sub    $0x9864e321,%edi
  401fd3:	57                   	push   %edi
  401fd4:	a1 78 00 42 00       	mov    0x420078,%eax
  401fd9:	ff d0                	call   *%eax
  401fdb:	85 c0                	test   %eax,%eax
  401fdd:	0f 85 2d 9f 00 00    	jne    0x40bf10
  401fe3:	31 d8                	xor    %ebx,%eax
  401fe5:	13 3d ee 41 42 00    	adc    0x4241ee,%edi
  401feb:	c7 05 c1 40 42 00 7f 	movl   $0x7f,0x4240c1
  401ff2:	00 00 00 
  401ff5:	b9 01 00 00 00       	mov    $0x1,%ecx
  401ffa:	83 c1 91             	add    $0xffffff91,%ecx
  401ffd:	83 15 1d 41 42 00 69 	adcl   $0x69,0x42411d
  402004:	8d 3d c6 25 a7 98    	lea    0x98a725c6,%edi
  40200a:	81 ef 21 e3 64 98    	sub    $0x9864e321,%edi
  402010:	57                   	push   %edi
  402011:	8d 1d b7 25 a7 98    	lea    0x98a725b7,%ebx
  402017:	81 eb 21 e3 64 98    	sub    $0x9864e321,%ebx
  40201d:	53                   	push   %ebx
  40201e:	a1 84 00 42 00       	mov    0x420084,%eax
  402023:	ff d0                	call   *%eax
  402025:	82 c3 47             	add    $0x47,%bl
  402028:	6a 0f                	push   $0xf
  40202a:	ff 0c 24             	decl   (%esp)
  40202d:	8d 15 a9 25 a7 98    	lea    0x98a725a9,%edx
  402033:	81 ea 21 e3 64 98    	sub    $0x9864e321,%edx
  402039:	52                   	push   %edx
  40203a:	8d 3d 97 25 a7 98    	lea    0x98a72597,%edi
  402040:	81 ef 21 e3 64 98    	sub    $0x9864e321,%edi
  402046:	57                   	push   %edi
  402047:	a1 78 00 42 00       	mov    0x420078,%eax
  40204c:	ff d0                	call   *%eax
  40204e:	83 f8 00             	cmp    $0x0,%eax
  402051:	0f 85 b9 9e 00 00    	jne    0x40bf10
  402057:	19 1d bc 40 42 00    	sbb    %ebx,0x4240bc
  40205d:	c7 05 4f 40 42 00 f4 	movl   $0xf4,0x42404f
  402064:	00 00 00 
  402067:	0a 3d 4f 40 42 00    	or     0x42404f,%bh
  40206d:	83 d0 f4             	adc    $0xfffffff4,%eax
  402070:	8d 3d c6 25 a7 98    	lea    0x98a725c6,%edi
  402076:	81 ef 21 e3 64 98    	sub    $0x9864e321,%edi
  40207c:	57                   	push   %edi
  40207d:	8d 0d b7 25 a7 98    	lea    0x98a725b7,%ecx
  402083:	81 e9 21 e3 64 98    	sub    $0x9864e321,%ecx
  402089:	51                   	push   %ecx
  40208a:	a1 84 00 42 00       	mov    0x420084,%eax
  40208f:	ff d0                	call   *%eax
  402091:	28 1d 2d 40 42 00    	sub    %bl,0x42402d
  402097:	09 35 13 40 42 00    	or     %esi,0x424013
  40209d:	13 1d 7e 40 42 00    	adc    0x42407e,%ebx
  4020a3:	0b 05 e6 41 42 00    	or     0x4241e6,%eax
  4020a9:	83 c3 73             	add    $0x73,%ebx
  4020ac:	8d 0d c6 25 a7 98    	lea    0x98a725c6,%ecx
  4020b2:	81 e9 21 e3 64 98    	sub    $0x9864e321,%ecx
  4020b8:	51                   	push   %ecx
  4020b9:	8d 1d b7 25 a7 98    	lea    0x98a725b7,%ebx
  4020bf:	81 eb 21 e3 64 98    	sub    $0x9864e321,%ebx
  4020c5:	53                   	push   %ebx
  4020c6:	a1 84 00 42 00       	mov    0x420084,%eax
  4020cb:	ff d0                	call   *%eax
  4020cd:	83 f3 11             	xor    $0x11,%ebx
  4020d0:	0a 05 a9 41 42 00    	or     0x4241a9,%al
  4020d6:	81 15 9c 41 42 00 dc 	adcl   $0xdc,0x42419c
  4020dd:	00 00 00 
  4020e0:	ba 01 00 00 00       	mov    $0x1,%edx
  4020e5:	01 fa                	add    %edi,%edx
  4020e7:	83 25 4d 40 42 00 6f 	andl   $0x6f,0x42404d
  4020ee:	8d 05 c6 25 a7 98    	lea    0x98a725c6,%eax
  4020f4:	2d 21 e3 64 98       	sub    $0x9864e321,%eax
  4020f9:	50                   	push   %eax
  4020fa:	8d 15 b7 25 a7 98    	lea    0x98a725b7,%edx
  402100:	81 ea 21 e3 64 98    	sub    $0x9864e321,%edx
  402106:	52                   	push   %edx
  402107:	a1 84 00 42 00       	mov    0x420084,%eax
  40210c:	ff d0                	call   *%eax
  40210e:	6a 0f                	push   $0xf
  402110:	ff 0c 24             	decl   (%esp)
  402113:	8d 3d a9 25 a7 98    	lea    0x98a725a9,%edi
  402119:	81 ef 21 e3 64 98    	sub    $0x9864e321,%edi
  40211f:	57                   	push   %edi
  402120:	8d 3d 97 25 a7 98    	lea    0x98a72597,%edi
  402126:	81 ef 21 e3 64 98    	sub    $0x9864e321,%edi
  40212c:	57                   	push   %edi
  40212d:	a1 78 00 42 00       	mov    0x420078,%eax
  402132:	ff d0                	call   *%eax
  402134:	83 f8 00             	cmp    $0x0,%eax
  402137:	0f 85 d3 9d 00 00    	jne    0x40bf10
  40213d:	83 1d 19 40 42 00 42 	sbbl   $0x42,0x424019
  402144:	21 3d 5d 40 42 00    	and    %edi,0x42405d
  40214a:	6a 0f                	push   $0xf
  40214c:	ff 0c 24             	decl   (%esp)
  40214f:	8d 3d a9 25 a7 98    	lea    0x98a725a9,%edi
  402155:	81 ef 21 e3 64 98    	sub    $0x9864e321,%edi
  40215b:	57                   	push   %edi
  40215c:	8d 0d 97 25 a7 98    	lea    0x98a72597,%ecx
  402162:	81 e9 21 e3 64 98    	sub    $0x9864e321,%ecx
  402168:	51                   	push   %ecx
  402169:	a1 78 00 42 00       	mov    0x420078,%eax
  40216e:	ff d0                	call   *%eax
  402170:	85 c0                	test   %eax,%eax
  402172:	0f 85 98 9d 00 00    	jne    0x40bf10
  402178:	29 f6                	sub    %esi,%esi
  40217a:	ba 01 00 00 00       	mov    $0x1,%edx
  40217f:	01 f2                	add    %esi,%edx
  402181:	01 d6                	add    %edx,%esi
  402183:	09 1d 7e 41 42 00    	or     %ebx,0x42417e
  402189:	2e e9 bd 98 00 00    	cs jmp 0x40ba4c
  40218f:	01 05 06 41 42 00    	add    %eax,0x424106
  402195:	01 fe                	add    %edi,%esi
  402197:	83 35 53 40 42 00 2d 	xorl   $0x2d,0x424053
  40219e:	0b 15 6c 41 42 00    	or     0x42416c,%edx
  4021a4:	83 d2 16             	adc    $0x16,%edx
	...
  4021b7:	81 25 40 41 42 00 c3 	andl   $0xc3,0x424140
  4021be:	00 00 00 
  4021c1:	6a 0f                	push   $0xf
  4021c3:	ff 0c 24             	decl   (%esp)
  4021c6:	8d 0d a9 25 a7 98    	lea    0x98a725a9,%ecx
  4021cc:	81 e9 21 e3 64 98    	sub    $0x9864e321,%ecx
  4021d2:	51                   	push   %ecx
  4021d3:	8d 1d 97 25 a7 98    	lea    0x98a72597,%ebx
  4021d9:	81 eb 21 e3 64 98    	sub    $0x9864e321,%ebx
  4021df:	53                   	push   %ebx
  4021e0:	a1 78 00 42 00       	mov    0x420078,%eax
  4021e5:	ff d0                	call   *%eax
  4021e7:	85 c0                	test   %eax,%eax
  4021e9:	0f 85 21 9d 00 00    	jne    0x40bf10
  4021ef:	ba 01 00 00 00       	mov    $0x1,%edx
  4021f4:	83 c2 05             	add    $0x5,%edx
  4021f7:	c7 05 a6 40 42 00 dc 	movl   $0xdc,0x4240a6
  4021fe:	00 00 00 
  402201:	6a 0f                	push   $0xf
  402203:	ff 0c 24             	decl   (%esp)
  402206:	8d 35 a9 25 a7 98    	lea    0x98a725a9,%esi
  40220c:	81 ee 21 e3 64 98    	sub    $0x9864e321,%esi
  402212:	56                   	push   %esi
  402213:	8d 3d 97 25 a7 98    	lea    0x98a72597,%edi
  402219:	81 ef 21 e3 64 98    	sub    $0x9864e321,%edi
  40221f:	57                   	push   %edi
  402220:	a1 78 00 42 00       	mov    0x420078,%eax
  402225:	ff d0                	call   *%eax
  402227:	85 c0                	test   %eax,%eax
  402229:	0f 85 e1 9c 00 00    	jne    0x40bf10
  40222f:	6a 0f                	push   $0xf
  402231:	ff 0c 24             	decl   (%esp)
  402234:	8d 3d a9 25 a7 98    	lea    0x98a725a9,%edi
  40223a:	81 ef 21 e3 64 98    	sub    $0x9864e321,%edi
  402240:	57                   	push   %edi
  402241:	8d 0d 97 25 a7 98    	lea    0x98a72597,%ecx
  402247:	81 e9 21 e3 64 98    	sub    $0x9864e321,%ecx
  40224d:	51                   	push   %ecx
  40224e:	a1 78 00 42 00       	mov    0x420078,%eax
  402253:	ff d0                	call   *%eax
  402255:	83 f8 00             	cmp    $0x0,%eax
  402258:	0f 85 b2 9c 00 00    	jne    0x40bf10
  40225e:	b6 01                	mov    $0x1,%dh
  402260:	82 c6 4d             	add    $0x4d,%dh
  402263:	29 fe                	sub    %edi,%esi
  402265:	11 15 92 40 42 00    	adc    %edx,0x424092
  40226b:	8d 3d c6 25 a7 98    	lea    0x98a725c6,%edi
  402271:	81 ef 21 e3 64 98    	sub    $0x9864e321,%edi
  402277:	57                   	push   %edi
  402278:	8d 0d b7 25 a7 98    	lea    0x98a725b7,%ecx
  40227e:	81 e9 21 e3 64 98    	sub    $0x9864e321,%ecx
  402284:	51                   	push   %ecx
  402285:	a1 84 00 42 00       	mov    0x420084,%eax
  40228a:	ff d0                	call   *%eax
  40228c:	83 cb d0             	or     $0xffffffd0,%ebx
  40228f:	13 05 65 40 42 00    	adc    0x424065,%eax
  402295:	12 3d d7 41 42 00    	adc    0x4241d7,%bh
  40229b:	8d 35 c6 25 a7 98    	lea    0x98a725c6,%esi
  4022a1:	81 ee 21 e3 64 98    	sub    $0x9864e321,%esi
  4022a7:	56                   	push   %esi
  4022a8:	8d 15 b7 25 a7 98    	lea    0x98a725b7,%edx
  4022ae:	81 ea 21 e3 64 98    	sub    $0x9864e321,%edx
  4022b4:	52                   	push   %edx
  4022b5:	a1 84 00 42 00       	mov    0x420084,%eax
  4022ba:	ff d0                	call   *%eax
  4022bc:	8d 1d c6 25 a7 98    	lea    0x98a725c6,%ebx
  4022c2:	81 eb 21 e3 64 98    	sub    $0x9864e321,%ebx
  4022c8:	53                   	push   %ebx
  4022c9:	8d 0d b7 25 a7 98    	lea    0x98a725b7,%ecx
  4022cf:	81 e9 21 e3 64 98    	sub    $0x9864e321,%ecx
  4022d5:	51                   	push   %ecx
  4022d6:	a1 84 00 42 00       	mov    0x420084,%eax
  4022db:	ff d0                	call   *%eax
  4022dd:	b5 01                	mov    $0x1,%ch
  4022df:	00 c5                	add    %al,%ch
  4022e1:	8d 3d c6 25 a7 98    	lea    0x98a725c6,%edi
  4022e7:	81 ef 21 e3 64 98    	sub    $0x9864e321,%edi
  4022ed:	57                   	push   %edi
  4022ee:	8d 1d b7 25 a7 98    	lea    0x98a725b7,%ebx
  4022f4:	81 eb 21 e3 64 98    	sub    $0x9864e321,%ebx
  4022fa:	53                   	push   %ebx
  4022fb:	a1 84 00 42 00       	mov    0x420084,%eax
  402300:	ff d0                	call   *%eax
  402302:	12 3d 2c 40 42 00    	adc    0x42402c,%bh
  402308:	01 3d c1 41 42 00    	add    %edi,0x4241c1
  40230e:	83 d8 c4             	sbb    $0xffffffc4,%eax
  402311:	83 eb a4             	sub    $0xffffffa4,%ebx
  402314:	0b 1d ef 40 42 00    	or     0x4240ef,%ebx
  40231a:	8d 3d c6 25 a7 98    	lea    0x98a725c6,%edi
  402320:	81 ef 21 e3 64 98    	sub    $0x9864e321,%edi
  402326:	57                   	push   %edi
  402327:	8d 1d b7 25 a7 98    	lea    0x98a725b7,%ebx
  40232d:	81 eb 21 e3 64 98    	sub    $0x9864e321,%ebx
  402333:	53                   	push   %ebx
  402334:	a1 84 00 42 00       	mov    0x420084,%eax
  402339:	ff d0                	call   *%eax
  40233b:	6a 0f                	push   $0xf
  40233d:	ff 0c 24             	decl   (%esp)
  402340:	8d 0d a9 25 a7 98    	lea    0x98a725a9,%ecx
  402346:	81 e9 21 e3 64 98    	sub    $0x9864e321,%ecx
  40234c:	51                   	push   %ecx
  40234d:	8d 05 97 25 a7 98    	lea    0x98a72597,%eax
  402353:	2d 21 e3 64 98       	sub    $0x9864e321,%eax
  402358:	50                   	push   %eax
  402359:	a1 78 00 42 00       	mov    0x420078,%eax
  40235e:	ff d0                	call   *%eax
  402360:	83 f8 00             	cmp    $0x0,%eax
  402363:	0f 85 a7 9b 00 00    	jne    0x40bf10
  402369:	13 3d 1b 40 42 00    	adc    0x42401b,%edi
  40236f:	01 ff                	add    %edi,%edi
  402371:	81 15 7a 40 42 00 98 	adcl   $0x98,0x42407a
  402378:	00 00 00 
  40237b:	83 c7 ea             	add    $0xffffffea,%edi
  40237e:	8d 0d c6 25 a7 98    	lea    0x98a725c6,%ecx
  402384:	81 e9 21 e3 64 98    	sub    $0x9864e321,%ecx
  40238a:	51                   	push   %ecx
  40238b:	8d 05 b7 25 a7 98    	lea    0x98a725b7,%eax
  402391:	2d 21 e3 64 98       	sub    $0x9864e321,%eax
  402396:	50                   	push   %eax
  402397:	a1 84 00 42 00       	mov    0x420084,%eax
  40239c:	ff d0                	call   *%eax
  40239e:	00 1d 46 40 42 00    	add    %bl,0x424046
  4023a4:	b9 01 00 00 00       	mov    $0x1,%ecx
  4023a9:	01 d9                	add    %ebx,%ecx
  4023ab:	83 ce b9             	or     $0xffffffb9,%esi
  4023ae:	8d 35 c6 25 a7 98    	lea    0x98a725c6,%esi
  4023b4:	81 ee 21 e3 64 98    	sub    $0x9864e321,%esi
  4023ba:	56                   	push   %esi
  4023bb:	8d 1d b7 25 a7 98    	lea    0x98a725b7,%ebx
  4023c1:	81 eb 21 e3 64 98    	sub    $0x9864e321,%ebx
  4023c7:	53                   	push   %ebx
  4023c8:	a1 84 00 42 00       	mov    0x420084,%eax
  4023cd:	ff d0                	call   *%eax
  4023cf:	ba 01 00 00 00       	mov    $0x1,%edx
  4023d4:	01 c2                	add    %eax,%edx
  4023d6:	b9 01 00 00 00       	mov    $0x1,%ecx
  4023db:	83 c1 18             	add    $0x18,%ecx
  4023de:	21 05 9d 41 42 00    	and    %eax,0x42419d
  4023e4:	31 c7                	xor    %eax,%edi
  4023e6:	8d 1d c6 25 a7 98    	lea    0x98a725c6,%ebx
  4023ec:	81 eb 21 e3 64 98    	sub    $0x9864e321,%ebx
  4023f2:	53                   	push   %ebx
  4023f3:	8d 3d b7 25 a7 98    	lea    0x98a725b7,%edi
  4023f9:	81 ef 21 e3 64 98    	sub    $0x9864e321,%edi
  4023ff:	57                   	push   %edi
  402400:	a1 84 00 42 00       	mov    0x420084,%eax
  402405:	ff d0                	call   *%eax
  402407:	2e e9 3f 96 00 00    	cs jmp 0x40ba4c
  40240d:	29 05 5a 40 42 00    	sub    %eax,0x42405a
	...
  40241f:	00 29                	add    %ch,(%ecx)
  402421:	35 8f 41 42 00       	xor    $0x42418f,%eax
  402426:	8d 3d c6 25 a7 98    	lea    0x98a725c6,%edi
  40242c:	81 ef 21 e3 64 98    	sub    $0x9864e321,%edi
  402432:	57                   	push   %edi
  402433:	8d 35 b7 25 a7 98    	lea    0x98a725b7,%esi
  402439:	81 ee 21 e3 64 98    	sub    $0x9864e321,%esi
  40243f:	56                   	push   %esi
  402440:	a1 84 00 42 00       	mov    0x420084,%eax
  402445:	ff d0                	call   *%eax
  402447:	18 e3                	sbb    %ah,%bl
  402449:	6a 0f                	push   $0xf
  40244b:	ff 0c 24             	decl   (%esp)
  40244e:	8d 15 a9 25 a7 98    	lea    0x98a725a9,%edx
  402454:	81 ea 21 e3 64 98    	sub    $0x9864e321,%edx
  40245a:	52                   	push   %edx
  40245b:	8d 0d 97 25 a7 98    	lea    0x98a72597,%ecx
  402461:	81 e9 21 e3 64 98    	sub    $0x9864e321,%ecx
  402467:	51                   	push   %ecx
  402468:	a1 78 00 42 00       	mov    0x420078,%eax
  40246d:	ff d0                	call   *%eax
  40246f:	83 f8 00             	cmp    $0x0,%eax
  402472:	0f 85 98 9a 00 00    	jne    0x40bf10
  402478:	01 35 79 41 42 00    	add    %esi,0x424179
  40247e:	6a 0f                	push   $0xf
  402480:	ff 0c 24             	decl   (%esp)
  402483:	8d 15 a9 25 a7 98    	lea    0x98a725a9,%edx
  402489:	81 ea 21 e3 64 98    	sub    $0x9864e321,%edx
  40248f:	52                   	push   %edx
  402490:	8d 15 97 25 a7 98    	lea    0x98a72597,%edx
  402496:	81 ea 21 e3 64 98    	sub    $0x9864e321,%edx
  40249c:	52                   	push   %edx
  40249d:	a1 78 00 42 00       	mov    0x420078,%eax
  4024a2:	ff d0                	call   *%eax
  4024a4:	85 c0                	test   %eax,%eax
  4024a6:	0f 85 64 9a 00 00    	jne    0x40bf10
  4024ac:	8d 3d c6 25 a7 98    	lea    0x98a725c6,%edi
  4024b2:	81 ef 21 e3 64 98    	sub    $0x9864e321,%edi
  4024b8:	57                   	push   %edi
  4024b9:	8d 15 b7 25 a7 98    	lea    0x98a725b7,%edx
  4024bf:	81 ea 21 e3 64 98    	sub    $0x9864e321,%edx
  4024c5:	52                   	push   %edx
  4024c6:	a1 84 00 42 00       	mov    0x420084,%eax
  4024cb:	ff d0                	call   *%eax
  4024cd:	18 1d 14 40 42 00    	sbb    %bl,0x424014
  4024d3:	83 f3 de             	xor    $0xffffffde,%ebx
  4024d6:	01 35 9c 40 42 00    	add    %esi,0x42409c
  4024dc:	b9 01 00 00 00       	mov    $0x1,%ecx
  4024e1:	01 c1                	add    %eax,%ecx
  4024e3:	83 15 66 40 42 00 28 	adcl   $0x28,0x424066
  4024ea:	6a 0f                	push   $0xf
  4024ec:	ff 0c 24             	decl   (%esp)
  4024ef:	8d 1d a9 25 a7 98    	lea    0x98a725a9,%ebx
  4024f5:	81 eb 21 e3 64 98    	sub    $0x9864e321,%ebx
  4024fb:	53                   	push   %ebx
  4024fc:	8d 3d 97 25 a7 98    	lea    0x98a72597,%edi
  402502:	81 ef 21 e3 64 98    	sub    $0x9864e321,%edi
  402508:	57                   	push   %edi
  402509:	a1 78 00 42 00       	mov    0x420078,%eax
  40250e:	ff d0                	call   *%eax
  402510:	85 c0                	test   %eax,%eax
  402512:	0f 85 f8 99 00 00    	jne    0x40bf10
  402518:	29 c6                	sub    %eax,%esi
  40251a:	c7 05 53 41 42 00 72 	movl   $0x72,0x424153
  402521:	00 00 00 
  402524:	13 35 dc 41 42 00    	adc    0x4241dc,%esi
  40252a:	c7 05 dd 40 42 00 48 	movl   $0x48,0x4240dd
  402531:	00 00 00 
  402534:	8d 35 c6 25 a7 98    	lea    0x98a725c6,%esi
  40253a:	81 ee 21 e3 64 98    	sub    $0x9864e321,%esi
  402540:	56                   	push   %esi
  402541:	8d 0d b7 25 a7 98    	lea    0x98a725b7,%ecx
  402547:	81 e9 21 e3 64 98    	sub    $0x9864e321,%ecx
  40254d:	51                   	push   %ecx
  40254e:	a1 84 00 42 00       	mov    0x420084,%eax
  402553:	ff d0                	call   *%eax
  402555:	b1 01                	mov    $0x1,%cl
  402557:	82 c1 0d             	add    $0xd,%cl
  40255a:	8d 0d c6 25 a7 98    	lea    0x98a725c6,%ecx
  402560:	81 e9 21 e3 64 98    	sub    $0x9864e321,%ecx
  402566:	51                   	push   %ecx
  402567:	8d 3d b7 25 a7 98    	lea    0x98a725b7,%edi
  40256d:	81 ef 21 e3 64 98    	sub    $0x9864e321,%edi
  402573:	57                   	push   %edi
  402574:	a1 84 00 42 00       	mov    0x420084,%eax
  402579:	ff d0                	call   *%eax
  40257b:	83 1d 67 40 42 00 35 	sbbl   $0x35,0x424067
  402582:	81 15 48 40 42 00 c9 	adcl   $0xc9,0x424048
  402589:	00 00 00 
  40258c:	12 1d e8 40 42 00    	adc    0x4240e8,%bl
  402592:	c7 05 99 41 42 00 ed 	movl   $0xed,0x424199
  402599:	00 00 00 
  40259c:	6a 0f                	push   $0xf
  40259e:	ff 0c 24             	decl   (%esp)
  4025a1:	8d 15 a9 25 a7 98    	lea    0x98a725a9,%edx
  4025a7:	81 ea 21 e3 64 98    	sub    $0x9864e321,%edx
  4025ad:	52                   	push   %edx
  4025ae:	8d 15 97 25 a7 98    	lea    0x98a72597,%edx
  4025b4:	81 ea 21 e3 64 98    	sub    $0x9864e321,%edx
  4025ba:	52                   	push   %edx
  4025bb:	a1 78 00 42 00       	mov    0x420078,%eax
  4025c0:	ff d0                	call   *%eax
  4025c2:	85 c0                	test   %eax,%eax
  4025c4:	0f 85 46 99 00 00    	jne    0x40bf10
  4025ca:	ba 01 00 00 00       	mov    $0x1,%edx
  4025cf:	83 c2 eb             	add    $0xffffffeb,%edx
  4025d2:	83 c2 6a             	add    $0x6a,%edx
  4025d5:	83 c2 f9             	add    $0xfffffff9,%edx
  4025d8:	6a 0f                	push   $0xf
  4025da:	ff 0c 24             	decl   (%esp)
  4025dd:	8d 15 a9 25 a7 98    	lea    0x98a725a9,%edx
  4025e3:	81 ea 21 e3 64 98    	sub    $0x9864e321,%edx
  4025e9:	52                   	push   %edx
  4025ea:	8d 1d 97 25 a7 98    	lea    0x98a72597,%ebx
  4025f0:	81 eb 21 e3 64 98    	sub    $0x9864e321,%ebx
  4025f6:	53                   	push   %ebx
  4025f7:	a1 78 00 42 00       	mov    0x420078,%eax
  4025fc:	ff d0                	call   *%eax
  4025fe:	83 f8 00             	cmp    $0x0,%eax
  402601:	0f 85 09 99 00 00    	jne    0x40bf10
  402607:	21 1d c5 40 42 00    	and    %ebx,0x4240c5
  40260d:	83 15 37 40 42 00 27 	adcl   $0x27,0x424037
  402614:	83 1d b8 41 42 00 7b 	sbbl   $0x7b,0x4241b8
  40261b:	6a 0f                	push   $0xf
  40261d:	ff 0c 24             	decl   (%esp)
  402620:	8d 3d a9 25 a7 98    	lea    0x98a725a9,%edi
  402626:	81 ef 21 e3 64 98    	sub    $0x9864e321,%edi
  40262c:	57                   	push   %edi
  40262d:	8d 3d 97 25 a7 98    	lea    0x98a72597,%edi
  402633:	81 ef 21 e3 64 98    	sub    $0x9864e321,%edi
  402639:	57                   	push   %edi
  40263a:	a1 78 00 42 00       	mov    0x420078,%eax
  40263f:	ff d0                	call   *%eax
  402641:	85 c0                	test   %eax,%eax
  402643:	0f 85 c7 98 00 00    	jne    0x40bf10
  402649:	19 fb                	sbb    %edi,%ebx
  40264b:	83 f0 9d             	xor    $0xffffff9d,%eax
  40264e:	83 35 1c 40 42 00 00 	xorl   $0x0,0x42401c
  402655:	82 db 93             	sbb    $0x93,%bl
  402658:	11 df                	adc    %ebx,%edi
  40265a:	8d 0d c6 25 a7 98    	lea    0x98a725c6,%ecx
  402660:	81 e9 21 e3 64 98    	sub    $0x9864e321,%ecx
  402666:	51                   	push   %ecx
  402667:	8d 0d b7 25 a7 98    	lea    0x98a725b7,%ecx
  40266d:	81 e9 21 e3 64 98    	sub    $0x9864e321,%ecx
  402673:	51                   	push   %ecx
  402674:	a1 84 00 42 00       	mov    0x420084,%eax
  402679:	ff d0                	call   *%eax
  40267b:	6a 0f                	push   $0xf
  40267d:	ff 0c 24             	decl   (%esp)
  402680:	8d 3d a9 25 a7 98    	lea    0x98a725a9,%edi
  402686:	81 ef 21 e3 64 98    	sub    $0x9864e321,%edi
  40268c:	57                   	push   %edi
  40268d:	8d 15 97 25 a7 98    	lea    0x98a72597,%edx
  402693:	81 ea 21 e3 64 98    	sub    $0x9864e321,%edx
  402699:	52                   	push   %edx
  40269a:	a1 78 00 42 00       	mov    0x420078,%eax
  40269f:	ff d0                	call   *%eax
  4026a1:	83 f8 00             	cmp    $0x0,%eax
  4026a4:	0f 85 66 98 00 00    	jne    0x40bf10
  4026aa:	83 d8 67             	sbb    $0x67,%eax
  4026ad:	81 15 8e 40 42 00 f7 	adcl   $0xf7,0x42408e
  4026b4:	00 00 00 
  4026b7:	2e e9 8f 93 00 00    	cs jmp 0x40ba4c
  4026bd:	ba 01 00 00 00       	mov    $0x1,%edx
  4026c2:	13 15 22 41 42 00    	adc    0x424122,%edx
  4026c8:	c7 05 65 41 42 00 b9 	movl   $0xb9,0x424165
  4026cf:	00 00 00 
  4026d2:	01 c2                	add    %eax,%edx
  4026d4:	29 35 dc 40 42 00    	sub    %esi,0x4240dc
  4026da:	31 3d 99 41 42 00    	xor    %edi,0x424199
  4026e0:	00 81 35 37 40 42    	add    %al,0x42403735(%ecx)
  4026e6:	00 aa 00 00 00 01    	add    %ch,0x1000000(%edx)
  4026ec:	f0 83 c0 9f          	lock add $0xffffff9f,%eax
  4026f0:	6a 0f                	push   $0xf
  4026f2:	ff 0c 24             	decl   (%esp)
  4026f5:	8d 15 a9 25 a7 98    	lea    0x98a725a9,%edx
  4026fb:	81 ea 21 e3 64 98    	sub    $0x9864e321,%edx
  402701:	52                   	push   %edx
  402702:	8d 15 97 25 a7 98    	lea    0x98a72597,%edx
  402708:	81 ea 21 e3 64 98    	sub    $0x9864e321,%edx
  40270e:	52                   	push   %edx
  40270f:	a1 78 00 42 00       	mov    0x420078,%eax
  402714:	ff d0                	call   *%eax
  402716:	85 c0                	test   %eax,%eax
  402718:	0f 85 f2 97 00 00    	jne    0x40bf10
  40271e:	83 f6 8a             	xor    $0xffffff8a,%esi
  402721:	83 ee 03             	sub    $0x3,%esi
  402724:	19 fb                	sbb    %edi,%ebx
  402726:	11 1d 64 40 42 00    	adc    %ebx,0x424064
  40272c:	81 15 3a 40 42 00 be 	adcl   $0xbe,0x42403a
  402733:	00 00 00 
  402736:	8d 35 c6 25 a7 98    	lea    0x98a725c6,%esi
  40273c:	81 ee 21 e3 64 98    	sub    $0x9864e321,%esi
  402742:	56                   	push   %esi
  402743:	8d 0d b7 25 a7 98    	lea    0x98a725b7,%ecx
  402749:	81 e9 21 e3 64 98    	sub    $0x9864e321,%ecx
  40274f:	51                   	push   %ecx
  402750:	a1 84 00 42 00       	mov    0x420084,%eax
  402755:	ff d0                	call   *%eax
  402757:	83 e6 0f             	and    $0xf,%esi
  40275a:	b9 01 00 00 00       	mov    $0x1,%ecx
  40275f:	83 c1 6b             	add    $0x6b,%ecx
  402762:	83 db b9             	sbb    $0xffffffb9,%ebx
  402765:	29 f8                	sub    %edi,%eax
  402767:	8d 3d c6 25 a7 98    	lea    0x98a725c6,%edi
  40276d:	81 ef 21 e3 64 98    	sub    $0x9864e321,%edi
  402773:	57                   	push   %edi
  402774:	8d 0d b7 25 a7 98    	lea    0x98a725b7,%ecx
  40277a:	81 e9 21 e3 64 98    	sub    $0x9864e321,%ecx
  402780:	51                   	push   %ecx
  402781:	a1 84 00 42 00       	mov    0x420084,%eax
  402786:	ff d0                	call   *%eax
  402788:	2b 35 32 41 42 00    	sub    0x424132,%esi
  40278e:	83 15 8c 41 42 00 7c 	adcl   $0x7c,0x42418c
  402795:	6a 0f                	push   $0xf
  402797:	ff 0c 24             	decl   (%esp)
  40279a:	8d 05 a9 25 a7 98    	lea    0x98a725a9,%eax
  4027a0:	2d 21 e3 64 98       	sub    $0x9864e321,%eax
  4027a5:	50                   	push   %eax
  4027a6:	8d 0d 97 25 a7 98    	lea    0x98a72597,%ecx
  4027ac:	81 e9 21 e3 64 98    	sub    $0x9864e321,%ecx
  4027b2:	51                   	push   %ecx
  4027b3:	a1 78 00 42 00       	mov    0x420078,%eax
  4027b8:	ff d0                	call   *%eax
  4027ba:	83 f8 00             	cmp    $0x0,%eax
  4027bd:	0f 85 4d 97 00 00    	jne    0x40bf10
  4027c3:	8d 35 c6 25 a7 98    	lea    0x98a725c6,%esi
  4027c9:	81 ee 21 e3 64 98    	sub    $0x9864e321,%esi
  4027cf:	56                   	push   %esi
  4027d0:	8d 0d b7 25 a7 98    	lea    0x98a725b7,%ecx
  4027d6:	81 e9 21 e3 64 98    	sub    $0x9864e321,%ecx
  4027dc:	51                   	push   %ecx
  4027dd:	a1 84 00 42 00       	mov    0x420084,%eax
  4027e2:	ff d0                	call   *%eax
  4027e4:	31 05 5c 41 42 00    	xor    %eax,0x42415c
  4027ea:	09 05 89 41 42 00    	or     %eax,0x424189
  4027f0:	8d 05 c6 25 a7 98    	lea    0x98a725c6,%eax
  4027f6:	2d 21 e3 64 98       	sub    $0x9864e321,%eax
  4027fb:	50                   	push   %eax
  4027fc:	8d 1d b7 25 a7 98    	lea    0x98a725b7,%ebx
  402802:	81 eb 21 e3 64 98    	sub    $0x9864e321,%ebx
  402808:	53                   	push   %ebx
  402809:	a1 84 00 42 00       	mov    0x420084,%eax
  40280e:	ff d0                	call   *%eax
  402810:	29 c7                	sub    %eax,%edi
  402812:	ba 01 00 00 00       	mov    $0x1,%edx
  402817:	01 da                	add    %ebx,%edx
  402819:	0b 1d ff 41 42 00    	or     0x4241ff,%ebx
  40281f:	29 05 a3 40 42 00    	sub    %eax,0x4240a3
  402825:	6a 0f                	push   $0xf
  402827:	ff 0c 24             	decl   (%esp)
  40282a:	8d 15 a9 25 a7 98    	lea    0x98a725a9,%edx
  402830:	81 ea 21 e3 64 98    	sub    $0x9864e321,%edx
  402836:	52                   	push   %edx
  402837:	8d 15 97 25 a7 98    	lea    0x98a72597,%edx
  40283d:	81 ea 21 e3 64 98    	sub    $0x9864e321,%edx
  402843:	52                   	push   %edx
  402844:	a1 78 00 42 00       	mov    0x420078,%eax
  402849:	ff d0                	call   *%eax
  40284b:	83 f8 00             	cmp    $0x0,%eax
  40284e:	0f 85 bc 96 00 00    	jne    0x40bf10
  402854:	6a 0f                	push   $0xf
  402856:	ff 0c 24             	decl   (%esp)
  402859:	8d 15 a9 25 a7 98    	lea    0x98a725a9,%edx
  40285f:	81 ea 21 e3 64 98    	sub    $0x9864e321,%edx
  402865:	52                   	push   %edx
  402866:	8d 35 97 25 a7 98    	lea    0x98a72597,%esi
  40286c:	81 ee 21 e3 64 98    	sub    $0x9864e321,%esi
  402872:	56                   	push   %esi
  402873:	a1 78 00 42 00       	mov    0x420078,%eax
  402878:	ff d0                	call   *%eax
  40287a:	85 c0                	test   %eax,%eax
  40287c:	0f 85 8e 96 00 00    	jne    0x40bf10
  402882:	8d 05 c6 25 a7 98    	lea    0x98a725c6,%eax
  402888:	2d 21 e3 64 98       	sub    $0x9864e321,%eax
  40288d:	50                   	push   %eax
  40288e:	8d 0d b7 25 a7 98    	lea    0x98a725b7,%ecx
  402894:	81 e9 21 e3 64 98    	sub    $0x9864e321,%ecx
  40289a:	51                   	push   %ecx
  40289b:	a1 84 00 42 00       	mov    0x420084,%eax
  4028a0:	ff d0                	call   *%eax
  4028a2:	28 ff                	sub    %bh,%bh
  4028a4:	11 ff                	adc    %edi,%edi
  4028a6:	8d 0d c6 25 a7 98    	lea    0x98a725c6,%ecx
  4028ac:	81 e9 21 e3 64 98    	sub    $0x9864e321,%ecx
  4028b2:	51                   	push   %ecx
  4028b3:	8d 15 b7 25 a7 98    	lea    0x98a725b7,%edx
  4028b9:	81 ea 21 e3 64 98    	sub    $0x9864e321,%edx
  4028bf:	52                   	push   %edx
  4028c0:	a1 84 00 42 00       	mov    0x420084,%eax
  4028c5:	ff d0                	call   *%eax
  4028c7:	19 f8                	sbb    %edi,%eax
  4028c9:	81 15 21 40 42 00 e5 	adcl   $0xe5,0x424021
  4028d0:	00 00 00 
  4028d3:	83 d7 ad             	adc    $0xffffffad,%edi
  4028d6:	13 05 09 41 42 00    	adc    0x424109,%eax
  4028dc:	b9 01 00 00 00       	mov    $0x1,%ecx
  4028e1:	01 f9                	add    %edi,%ecx
  4028e3:	8d 1d c6 25 a7 98    	lea    0x98a725c6,%ebx
  4028e9:	81 eb 21 e3 64 98    	sub    $0x9864e321,%ebx
  4028ef:	53                   	push   %ebx
  4028f0:	8d 35 b7 25 a7 98    	lea    0x98a725b7,%esi
  4028f6:	81 ee 21 e3 64 98    	sub    $0x9864e321,%esi
  4028fc:	56                   	push   %esi
  4028fd:	a1 84 00 42 00       	mov    0x420084,%eax
  402902:	ff d0                	call   *%eax
  402904:	30 1d 7a 41 42 00    	xor    %bl,0x42417a
  40290a:	08 3d 03 41 42 00    	or     %bh,0x424103
  402910:	01 05 51 40 42 00    	add    %eax,0x424051
  402916:	2e e9 30 91 00 00    	cs jmp 0x40ba4c
	...
  402928:	83 25 84 41 42 00 46 	andl   $0x46,0x424184
  40292f:	c7 05 79 40 42 00 7c 	movl   $0x7c,0x424079
  402936:	00 00 00 
  402939:	8d 35 c6 25 a7 98    	lea    0x98a725c6,%esi
  40293f:	81 ee 21 e3 64 98    	sub    $0x9864e321,%esi
  402945:	56                   	push   %esi
  402946:	8d 05 b7 25 a7 98    	lea    0x98a725b7,%eax
  40294c:	2d 21 e3 64 98       	sub    $0x9864e321,%eax
  402951:	50                   	push   %eax
  402952:	a1 84 00 42 00       	mov    0x420084,%eax
  402957:	ff d0                	call   *%eax
  402959:	ba 01 00 00 00       	mov    $0x1,%edx
  40295e:	13 15 d1 40 42 00    	adc    0x4240d1,%edx
  402964:	01 3d 62 40 42 00    	add    %edi,0x424062
  40296a:	01 35 d1 40 42 00    	add    %esi,0x4240d1
  402970:	8d 35 c6 25 a7 98    	lea    0x98a725c6,%esi
  402976:	81 ee 21 e3 64 98    	sub    $0x9864e321,%esi
  40297c:	56                   	push   %esi
  40297d:	8d 05 b7 25 a7 98    	lea    0x98a725b7,%eax
  402983:	2d 21 e3 64 98       	sub    $0x9864e321,%eax
  402988:	50                   	push   %eax
  402989:	a1 84 00 42 00       	mov    0x420084,%eax
  40298e:	ff d0                	call   *%eax
  402990:	19 05 8a 40 42 00    	sbb    %eax,0x42408a
  402996:	83 c7 d3             	add    $0xffffffd3,%edi
  402999:	b9 01 00 00 00       	mov    $0x1,%ecx
  40299e:	13 0d 3c 40 42 00    	adc    0x42403c,%ecx
  4029a4:	6a 0f                	push   $0xf
  4029a6:	ff 0c 24             	decl   (%esp)
  4029a9:	8d 1d a9 25 a7 98    	lea    0x98a725a9,%ebx
  4029af:	81 eb 21 e3 64 98    	sub    $0x9864e321,%ebx
  4029b5:	53                   	push   %ebx
  4029b6:	8d 1d 97 25 a7 98    	lea    0x98a72597,%ebx
  4029bc:	81 eb 21 e3 64 98    	sub    $0x9864e321,%ebx
  4029c2:	53                   	push   %ebx
  4029c3:	a1 78 00 42 00       	mov    0x420078,%eax
  4029c8:	ff d0                	call   *%eax
  4029ca:	83 f8 00             	cmp    $0x0,%eax
  4029cd:	0f 85 3d 95 00 00    	jne    0x40bf10
  4029d3:	81 35 2a 41 42 00 a7 	xorl   $0xa7,0x42412a
  4029da:	00 00 00 
  4029dd:	83 f0 a7             	xor    $0xffffffa7,%eax
  4029e0:	13 35 0e 41 42 00    	adc    0x42410e,%esi
  4029e6:	8d 05 c6 25 a7 98    	lea    0x98a725c6,%eax
  4029ec:	2d 21 e3 64 98       	sub    $0x9864e321,%eax
  4029f1:	50                   	push   %eax
  4029f2:	8d 1d b7 25 a7 98    	lea    0x98a725b7,%ebx
  4029f8:	81 eb 21 e3 64 98    	sub    $0x9864e321,%ebx
  4029fe:	53                   	push   %ebx
  4029ff:	a1 84 00 42 00       	mov    0x420084,%eax
  402a04:	ff d0                	call   *%eax
  402a06:	83 15 3f 40 42 00 0c 	adcl   $0xc,0x42403f
  402a0d:	ba 01 00 00 00       	mov    $0x1,%edx
  402a12:	01 c2                	add    %eax,%edx
  402a14:	81 1d 18 41 42 00 c8 	sbbl   $0xc8,0x424118
  402a1b:	00 00 00 
  402a1e:	11 05 65 41 42 00    	adc    %eax,0x424165
  402a24:	6a 0f                	push   $0xf
  402a26:	ff 0c 24             	decl   (%esp)
  402a29:	8d 05 a9 25 a7 98    	lea    0x98a725a9,%eax
  402a2f:	2d 21 e3 64 98       	sub    $0x9864e321,%eax
  402a34:	50                   	push   %eax
  402a35:	8d 1d 97 25 a7 98    	lea    0x98a72597,%ebx
  402a3b:	81 eb 21 e3 64 98    	sub    $0x9864e321,%ebx
  402a41:	53                   	push   %ebx
  402a42:	a1 78 00 42 00       	mov    0x420078,%eax
  402a47:	ff d0                	call   *%eax
  402a49:	83 f8 00             	cmp    $0x0,%eax
  402a4c:	0f 85 be 94 00 00    	jne    0x40bf10
  402a52:	b9 01 00 00 00       	mov    $0x1,%ecx
  402a57:	83 c1 77             	add    $0x77,%ecx
  402a5a:	83 c6 64             	add    $0x64,%esi
  402a5d:	83 1d f2 41 42 00 14 	sbbl   $0x14,0x4241f2
  402a64:	6a 0f                	push   $0xf
  402a66:	ff 0c 24             	decl   (%esp)
  402a69:	8d 35 a9 25 a7 98    	lea    0x98a725a9,%esi
  402a6f:	81 ee 21 e3 64 98    	sub    $0x9864e321,%esi
  402a75:	56                   	push   %esi
  402a76:	8d 0d 97 25 a7 98    	lea    0x98a72597,%ecx
  402a7c:	81 e9 21 e3 64 98    	sub    $0x9864e321,%ecx
  402a82:	51                   	push   %ecx
  402a83:	a1 78 00 42 00       	mov    0x420078,%eax
  402a88:	ff d0                	call   *%eax
  402a8a:	83 f8 00             	cmp    $0x0,%eax
  402a8d:	0f 85 7d 94 00 00    	jne    0x40bf10
  402a93:	b9 01 00 00 00       	mov    $0x1,%ecx
  402a98:	01 d9                	add    %ebx,%ecx
  402a9a:	2b 3d b5 40 42 00    	sub    0x4240b5,%edi
  402aa0:	01 35 02 41 42 00    	add    %esi,0x424102
  402aa6:	83 d3 32             	adc    $0x32,%ebx
  402aa9:	6a 0f                	push   $0xf
  402aab:	ff 0c 24             	decl   (%esp)
  402aae:	8d 05 a9 25 a7 98    	lea    0x98a725a9,%eax
  402ab4:	2d 21 e3 64 98       	sub    $0x9864e321,%eax
  402ab9:	50                   	push   %eax
  402aba:	8d 3d 97 25 a7 98    	lea    0x98a72597,%edi
  402ac0:	81 ef 21 e3 64 98    	sub    $0x9864e321,%edi
  402ac6:	57                   	push   %edi
  402ac7:	a1 78 00 42 00       	mov    0x420078,%eax
  402acc:	ff d0                	call   *%eax
  402ace:	85 c0                	test   %eax,%eax
  402ad0:	0f 85 3a 94 00 00    	jne    0x40bf10
  402ad6:	04 8c                	add    $0x8c,%al
  402ad8:	b2 01                	mov    $0x1,%dl
  402ada:	00 c2                	add    %al,%dl
  402adc:	6a 0f                	push   $0xf
  402ade:	ff 0c 24             	decl   (%esp)
  402ae1:	8d 0d a9 25 a7 98    	lea    0x98a725a9,%ecx
  402ae7:	81 e9 21 e3 64 98    	sub    $0x9864e321,%ecx
  402aed:	51                   	push   %ecx
  402aee:	8d 0d 97 25 a7 98    	lea    0x98a72597,%ecx
  402af4:	81 e9 21 e3 64 98    	sub    $0x9864e321,%ecx
  402afa:	51                   	push   %ecx
  402afb:	a1 78 00 42 00       	mov    0x420078,%eax
  402b00:	ff d0                	call   *%eax
  402b02:	83 f8 00             	cmp    $0x0,%eax
  402b05:	0f 85 05 94 00 00    	jne    0x40bf10
  402b0b:	21 1d 30 40 42 00    	and    %ebx,0x424030
  402b11:	82 2d 20 41 42 00 da 	subb   $0xda,0x424120
  402b18:	6a 0f                	push   $0xf
  402b1a:	ff 0c 24             	decl   (%esp)
  402b1d:	8d 05 a9 25 a7 98    	lea    0x98a725a9,%eax
  402b23:	2d 21 e3 64 98       	sub    $0x9864e321,%eax
  402b28:	50                   	push   %eax
  402b29:	8d 35 97 25 a7 98    	lea    0x98a72597,%esi
  402b2f:	81 ee 21 e3 64 98    	sub    $0x9864e321,%esi
  402b35:	56                   	push   %esi
  402b36:	a1 78 00 42 00       	mov    0x420078,%eax
  402b3b:	ff d0                	call   *%eax
  402b3d:	85 c0                	test   %eax,%eax
  402b3f:	0f 85 cb 93 00 00    	jne    0x40bf10
  402b45:	31 3d 93 41 42 00    	xor    %edi,0x424193
  402b4b:	12 1d 59 41 42 00    	adc    0x424159,%bl
  402b51:	6a 0f                	push   $0xf
  402b53:	ff 0c 24             	decl   (%esp)
  402b56:	8d 1d a9 25 a7 98    	lea    0x98a725a9,%ebx
  402b5c:	81 eb 21 e3 64 98    	sub    $0x9864e321,%ebx
  402b62:	53                   	push   %ebx
  402b63:	8d 35 97 25 a7 98    	lea    0x98a72597,%esi
  402b69:	81 ee 21 e3 64 98    	sub    $0x9864e321,%esi
  402b6f:	56                   	push   %esi
  402b70:	a1 78 00 42 00       	mov    0x420078,%eax
  402b75:	ff d0                	call   *%eax
  402b77:	83 f8 00             	cmp    $0x0,%eax
  402b7a:	0f 85 90 93 00 00    	jne    0x40bf10
  402b80:	c7 05 32 40 42 00 f2 	movl   $0xf2,0x424032
  402b87:	00 00 00 
  402b8a:	31 3d d1 41 42 00    	xor    %edi,0x4241d1
  402b90:	8d 35 c6 25 a7 98    	lea    0x98a725c6,%esi
  402b96:	81 ee 21 e3 64 98    	sub    $0x9864e321,%esi
  402b9c:	56                   	push   %esi
  402b9d:	8d 05 b7 25 a7 98    	lea    0x98a725b7,%eax
  402ba3:	2d 21 e3 64 98       	sub    $0x9864e321,%eax
  402ba8:	50                   	push   %eax
  402ba9:	a1 84 00 42 00       	mov    0x420084,%eax
  402bae:	ff d0                	call   *%eax
  402bb0:	19 3d ef 40 42 00    	sbb    %edi,0x4240ef
  402bb6:	b9 01 00 00 00       	mov    $0x1,%ecx
  402bbb:	13 0d 4f 40 42 00    	adc    0x42404f,%ecx
  402bc1:	ba 01 00 00 00       	mov    $0x1,%edx
  402bc6:	83 c2 7b             	add    $0x7b,%edx
  402bc9:	2e e9 7d 8e 00 00    	cs jmp 0x40ba4c
  402bcf:	11 f0                	adc    %esi,%eax
  402bd1:	83 d8 e6             	sbb    $0xffffffe6,%eax
  402bd4:	11 fa                	adc    %edi,%edx
  402bd6:	11 35 be 41 42 00    	adc    %esi,0x4241be
  402bdc:	00 00                	add    %al,(%eax)
  402bde:	00 00                	add    %al,(%eax)
  402be0:	00 01                	add    %al,(%ecx)
  402be2:	05 9c 41 42 00       	add    $0x42419c,%eax
  402be7:	29 3d cd 40 42 00    	sub    %edi,0x4240cd
  402bed:	2b 1d fd 41 42 00    	sub    0x4241fd,%ebx
  402bf3:	83 d3 5d             	adc    $0x5d,%ebx
  402bf6:	83 35 fb 40 42 00 6d 	xorl   $0x6d,0x4240fb
  402bfd:	6a 0f                	push   $0xf
  402bff:	ff 0c 24             	decl   (%esp)
  402c02:	8d 1d a9 25 a7 98    	lea    0x98a725a9,%ebx
  402c08:	81 eb 21 e3 64 98    	sub    $0x9864e321,%ebx
  402c0e:	53                   	push   %ebx
  402c0f:	8d 35 97 25 a7 98    	lea    0x98a72597,%esi
  402c15:	81 ee 21 e3 64 98    	sub    $0x9864e321,%esi
  402c1b:	56                   	push   %esi
  402c1c:	a1 78 00 42 00       	mov    0x420078,%eax
  402c21:	ff d0                	call   *%eax
  402c23:	83 f8 00             	cmp    $0x0,%eax
  402c26:	0f 85 e4 92 00 00    	jne    0x40bf10
  402c2c:	ba 01 00 00 00       	mov    $0x1,%edx
  402c31:	83 c2 45             	add    $0x45,%edx
  402c34:	0b 35 40 41 42 00    	or     0x424140,%esi
  402c3a:	83 15 ee 41 42 00 42 	adcl   $0x42,0x4241ee
  402c41:	11 1d 89 40 42 00    	adc    %ebx,0x424089
  402c47:	83 c6 b8             	add    $0xffffffb8,%esi
  402c4a:	6a 0f                	push   $0xf
  402c4c:	ff 0c 24             	decl   (%esp)
  402c4f:	8d 15 a9 25 a7 98    	lea    0x98a725a9,%edx
  402c55:	81 ea 21 e3 64 98    	sub    $0x9864e321,%edx
  402c5b:	52                   	push   %edx
  402c5c:	8d 15 97 25 a7 98    	lea    0x98a72597,%edx
  402c62:	81 ea 21 e3 64 98    	sub    $0x9864e321,%edx
  402c68:	52                   	push   %edx
  402c69:	a1 78 00 42 00       	mov    0x420078,%eax
  402c6e:	ff d0                	call   *%eax
  402c70:	85 c0                	test   %eax,%eax
  402c72:	0f 85 98 92 00 00    	jne    0x40bf10
  402c78:	b9 01 00 00 00       	mov    $0x1,%ecx
  402c7d:	01 d9                	add    %ebx,%ecx
  402c7f:	31 3d 7b 40 42 00    	xor    %edi,0x42407b
  402c85:	ba 01 00 00 00       	mov    $0x1,%edx
  402c8a:	83 c2 62             	add    $0x62,%edx
  402c8d:	8d 35 c6 25 a7 98    	lea    0x98a725c6,%esi
  402c93:	81 ee 21 e3 64 98    	sub    $0x9864e321,%esi
  402c99:	56                   	push   %esi
  402c9a:	8d 05 b7 25 a7 98    	lea    0x98a725b7,%eax
  402ca0:	2d 21 e3 64 98       	sub    $0x9864e321,%eax
  402ca5:	50                   	push   %eax
  402ca6:	a1 84 00 42 00       	mov    0x420084,%eax
  402cab:	ff d0                	call   *%eax
  402cad:	29 c3                	sub    %eax,%ebx
  402caf:	11 05 c8 41 42 00    	adc    %eax,0x4241c8
  402cb5:	0b 35 fd 40 42 00    	or     0x4240fd,%esi
  402cbb:	13 1d 5f 40 42 00    	adc    0x42405f,%ebx
  402cc1:	83 d0 3d             	adc    $0x3d,%eax
  402cc4:	6a 0f                	push   $0xf
  402cc6:	ff 0c 24             	decl   (%esp)
  402cc9:	8d 35 a9 25 a7 98    	lea    0x98a725a9,%esi
  402ccf:	81 ee 21 e3 64 98    	sub    $0x9864e321,%esi
  402cd5:	56                   	push   %esi
  402cd6:	8d 1d 97 25 a7 98    	lea    0x98a72597,%ebx
  402cdc:	81 eb 21 e3 64 98    	sub    $0x9864e321,%ebx
  402ce2:	53                   	push   %ebx
  402ce3:	a1 78 00 42 00       	mov    0x420078,%eax
  402ce8:	ff d0                	call   *%eax
  402cea:	85 c0                	test   %eax,%eax
  402cec:	0f 85 1e 92 00 00    	jne    0x40bf10
  402cf2:	83 15 f8 40 42 00 6a 	adcl   $0x6a,0x4240f8
  402cf9:	b5 01                	mov    $0x1,%ch
  402cfb:	00 fd                	add    %bh,%ch
  402cfd:	81 0d 85 40 42 00 f5 	orl    $0xf5,0x424085
  402d04:	00 00 00 
  402d07:	6a 0f                	push   $0xf
  402d09:	ff 0c 24             	decl   (%esp)
  402d0c:	8d 15 a9 25 a7 98    	lea    0x98a725a9,%edx
  402d12:	81 ea 21 e3 64 98    	sub    $0x9864e321,%edx
  402d18:	52                   	push   %edx
  402d19:	8d 05 97 25 a7 98    	lea    0x98a72597,%eax
  402d1f:	2d 21 e3 64 98       	sub    $0x9864e321,%eax
  402d24:	50                   	push   %eax
  402d25:	a1 78 00 42 00       	mov    0x420078,%eax
  402d2a:	ff d0                	call   *%eax
  402d2c:	85 c0                	test   %eax,%eax
  402d2e:	0f 85 dc 91 00 00    	jne    0x40bf10
  402d34:	ba 01 00 00 00       	mov    $0x1,%edx
  402d39:	01 da                	add    %ebx,%edx
  402d3b:	b9 01 00 00 00       	mov    $0x1,%ecx
  402d40:	01 f1                	add    %esi,%ecx
  402d42:	81 25 a4 41 42 00 db 	andl   $0xdb,0x4241a4
  402d49:	00 00 00 
  402d4c:	83 cb 44             	or     $0x44,%ebx
  402d4f:	82 2d db 41 42 00 06 	subb   $0x6,0x4241db
  402d56:	6a 0f                	push   $0xf
  402d58:	ff 0c 24             	decl   (%esp)
  402d5b:	8d 0d a9 25 a7 98    	lea    0x98a725a9,%ecx
  402d61:	81 e9 21 e3 64 98    	sub    $0x9864e321,%ecx
  402d67:	51                   	push   %ecx
  402d68:	8d 15 97 25 a7 98    	lea    0x98a72597,%edx
  402d6e:	81 ea 21 e3 64 98    	sub    $0x9864e321,%edx
  402d74:	52                   	push   %edx
  402d75:	a1 78 00 42 00       	mov    0x420078,%eax
  402d7a:	ff d0                	call   *%eax
  402d7c:	85 c0                	test   %eax,%eax
  402d7e:	0f 85 8c 91 00 00    	jne    0x40bf10
  402d84:	8d 05 c6 25 a7 98    	lea    0x98a725c6,%eax
  402d8a:	2d 21 e3 64 98       	sub    $0x9864e321,%eax
  402d8f:	50                   	push   %eax
  402d90:	8d 1d b7 25 a7 98    	lea    0x98a725b7,%ebx
  402d96:	81 eb 21 e3 64 98    	sub    $0x9864e321,%ebx
  402d9c:	53                   	push   %ebx
  402d9d:	a1 84 00 42 00       	mov    0x420084,%eax
  402da2:	ff d0                	call   *%eax
  402da4:	83 15 f8 41 42 00 50 	adcl   $0x50,0x4241f8
  402dab:	ba 01 00 00 00       	mov    $0x1,%edx
  402db0:	13 15 63 41 42 00    	adc    0x424163,%edx
  402db6:	6a 0f                	push   $0xf
  402db8:	ff 0c 24             	decl   (%esp)
  402dbb:	8d 0d a9 25 a7 98    	lea    0x98a725a9,%ecx
  402dc1:	81 e9 21 e3 64 98    	sub    $0x9864e321,%ecx
  402dc7:	51                   	push   %ecx
  402dc8:	8d 3d 97 25 a7 98    	lea    0x98a72597,%edi
  402dce:	81 ef 21 e3 64 98    	sub    $0x9864e321,%edi
  402dd4:	57                   	push   %edi
  402dd5:	a1 78 00 42 00       	mov    0x420078,%eax
  402dda:	ff d0                	call   *%eax
  402ddc:	83 f8 00             	cmp    $0x0,%eax
  402ddf:	0f 85 2b 91 00 00    	jne    0x40bf10
  402de5:	b9 01 00 00 00       	mov    $0x1,%ecx
  402dea:	01 c1                	add    %eax,%ecx
  402dec:	13 3d 13 41 42 00    	adc    0x424113,%edi
  402df2:	83 c8 52             	or     $0x52,%eax
  402df5:	ba 01 00 00 00       	mov    $0x1,%edx
  402dfa:	01 da                	add    %ebx,%edx
  402dfc:	6a 0f                	push   $0xf
  402dfe:	ff 0c 24             	decl   (%esp)
  402e01:	8d 0d a9 25 a7 98    	lea    0x98a725a9,%ecx
  402e07:	81 e9 21 e3 64 98    	sub    $0x9864e321,%ecx
  402e0d:	51                   	push   %ecx
  402e0e:	8d 35 97 25 a7 98    	lea    0x98a72597,%esi
  402e14:	81 ee 21 e3 64 98    	sub    $0x9864e321,%esi
  402e1a:	56                   	push   %esi
  402e1b:	a1 78 00 42 00       	mov    0x420078,%eax
  402e20:	ff d0                	call   *%eax
  402e22:	85 c0                	test   %eax,%eax
  402e24:	0f 85 e6 90 00 00    	jne    0x40bf10
  402e2a:	83 0d f1 40 42 00 49 	orl    $0x49,0x4240f1
  402e31:	01 3d bf 41 42 00    	add    %edi,0x4241bf
  402e37:	8d 3d c6 25 a7 98    	lea    0x98a725c6,%edi
  402e3d:	81 ef 21 e3 64 98    	sub    $0x9864e321,%edi
  402e43:	57                   	push   %edi
  402e44:	8d 15 b7 25 a7 98    	lea    0x98a725b7,%edx
  402e4a:	81 ea 21 e3 64 98    	sub    $0x9864e321,%edx
  402e50:	52                   	push   %edx
  402e51:	a1 84 00 42 00       	mov    0x420084,%eax
  402e56:	ff d0                	call   *%eax
  402e58:	01 f3                	add    %esi,%ebx
  402e5a:	6a 0f                	push   $0xf
  402e5c:	ff 0c 24             	decl   (%esp)
  402e5f:	8d 35 a9 25 a7 98    	lea    0x98a725a9,%esi
  402e65:	81 ee 21 e3 64 98    	sub    $0x9864e321,%esi
  402e6b:	56                   	push   %esi
  402e6c:	8d 05 97 25 a7 98    	lea    0x98a72597,%eax
  402e72:	2d 21 e3 64 98       	sub    $0x9864e321,%eax
  402e77:	50                   	push   %eax
  402e78:	a1 78 00 42 00       	mov    0x420078,%eax
  402e7d:	ff d0                	call   *%eax
  402e7f:	83 f8 00             	cmp    $0x0,%eax
  402e82:	0f 85 88 90 00 00    	jne    0x40bf10
  402e88:	2e e9 be 8b 00 00    	cs jmp 0x40ba4c
  402e8e:	13 35 3e 41 42 00    	adc    0x42413e,%esi
  402e94:	31 1d b3 41 42 00    	xor    %ebx,0x4241b3
  402e9a:	13 1d 55 41 42 00    	adc    0x424155,%ebx
  402ea0:	81 1d 91 40 42 00 c1 	sbbl   $0xc1,0x424091
  402ea7:	00 00 00 
  402eaa:	81 15 32 40 42 00 ae 	adcl   $0xae,0x424032
  402eb1:	00 00 00 
  402eb4:	00 00                	add    %al,(%eax)
  402eb6:	00 00                	add    %al,(%eax)
  402eb8:	ba 01 00 00 00       	mov    $0x1,%edx
  402ebd:	01 c2                	add    %eax,%edx
  402ebf:	0b 05 10 40 42 00    	or     0x424010,%eax
  402ec5:	8d 05 c6 25 a7 98    	lea    0x98a725c6,%eax
  402ecb:	2d 21 e3 64 98       	sub    $0x9864e321,%eax
  402ed0:	50                   	push   %eax
  402ed1:	8d 0d b7 25 a7 98    	lea    0x98a725b7,%ecx
  402ed7:	81 e9 21 e3 64 98    	sub    $0x9864e321,%ecx
  402edd:	51                   	push   %ecx
  402ede:	a1 84 00 42 00       	mov    0x420084,%eax
  402ee3:	ff d0                	call   *%eax
  402ee5:	ba 01 00 00 00       	mov    $0x1,%edx
  402eea:	83 c2 94             	add    $0xffffff94,%edx
  402eed:	29 05 40 41 42 00    	sub    %eax,0x424140
  402ef3:	19 da                	sbb    %ebx,%edx
  402ef5:	83 da 20             	sbb    $0x20,%edx
  402ef8:	8d 15 c6 25 a7 98    	lea    0x98a725c6,%edx
  402efe:	81 ea 21 e3 64 98    	sub    $0x9864e321,%edx
  402f04:	52                   	push   %edx
  402f05:	8d 3d b7 25 a7 98    	lea    0x98a725b7,%edi
  402f0b:	81 ef 21 e3 64 98    	sub    $0x9864e321,%edi
  402f11:	57                   	push   %edi
  402f12:	a1 84 00 42 00       	mov    0x420084,%eax
  402f17:	ff d0                	call   *%eax
  402f19:	01 3d c7 40 42 00    	add    %edi,0x4240c7
  402f1f:	83 0d a9 40 42 00 47 	orl    $0x47,0x4240a9
  402f26:	09 35 71 41 42 00    	or     %esi,0x424171
  402f2c:	83 35 3c 41 42 00 0d 	xorl   $0xd,0x42413c
  402f33:	6a 0f                	push   $0xf
  402f35:	ff 0c 24             	decl   (%esp)
  402f38:	8d 0d a9 25 a7 98    	lea    0x98a725a9,%ecx
  402f3e:	81 e9 21 e3 64 98    	sub    $0x9864e321,%ecx
  402f44:	51                   	push   %ecx
  402f45:	8d 05 97 25 a7 98    	lea    0x98a72597,%eax
  402f4b:	2d 21 e3 64 98       	sub    $0x9864e321,%eax
  402f50:	50                   	push   %eax
  402f51:	a1 78 00 42 00       	mov    0x420078,%eax
  402f56:	ff d0                	call   *%eax
  402f58:	83 f8 00             	cmp    $0x0,%eax
  402f5b:	0f 85 af 8f 00 00    	jne    0x40bf10
  402f61:	31 1d a6 41 42 00    	xor    %ebx,0x4241a6
  402f67:	6a 0f                	push   $0xf
  402f69:	ff 0c 24             	decl   (%esp)
  402f6c:	8d 15 a9 25 a7 98    	lea    0x98a725a9,%edx
  402f72:	81 ea 21 e3 64 98    	sub    $0x9864e321,%edx
  402f78:	52                   	push   %edx
  402f79:	8d 35 97 25 a7 98    	lea    0x98a72597,%esi
  402f7f:	81 ee 21 e3 64 98    	sub    $0x9864e321,%esi
  402f85:	56                   	push   %esi
  402f86:	a1 78 00 42 00       	mov    0x420078,%eax
  402f8b:	ff d0                	call   *%eax
  402f8d:	85 c0                	test   %eax,%eax
  402f8f:	0f 85 7b 8f 00 00    	jne    0x40bf10
  402f95:	83 c6 6b             	add    $0x6b,%esi
  402f98:	01 3d b8 40 42 00    	add    %edi,0x4240b8
  402f9e:	12 25 1d 40 42 00    	adc    0x42401d,%ah
  402fa4:	6a 0f                	push   $0xf
  402fa6:	ff 0c 24             	decl   (%esp)
  402fa9:	8d 3d a9 25 a7 98    	lea    0x98a725a9,%edi
  402faf:	81 ef 21 e3 64 98    	sub    $0x9864e321,%edi
  402fb5:	57                   	push   %edi
  402fb6:	8d 35 97 25 a7 98    	lea    0x98a72597,%esi
  402fbc:	81 ee 21 e3 64 98    	sub    $0x9864e321,%esi
  402fc2:	56                   	push   %esi
  402fc3:	a1 78 00 42 00       	mov    0x420078,%eax
  402fc8:	ff d0                	call   *%eax
  402fca:	83 f8 00             	cmp    $0x0,%eax
  402fcd:	0f 85 3d 8f 00 00    	jne    0x40bf10
  402fd3:	6a 0f                	push   $0xf
  402fd5:	ff 0c 24             	decl   (%esp)
  402fd8:	8d 1d a9 25 a7 98    	lea    0x98a725a9,%ebx
  402fde:	81 eb 21 e3 64 98    	sub    $0x9864e321,%ebx
  402fe4:	53                   	push   %ebx
  402fe5:	8d 0d 97 25 a7 98    	lea    0x98a72597,%ecx
  402feb:	81 e9 21 e3 64 98    	sub    $0x9864e321,%ecx
  402ff1:	51                   	push   %ecx
  402ff2:	a1 78 00 42 00       	mov    0x420078,%eax
  402ff7:	ff d0                	call   *%eax
  402ff9:	85 c0                	test   %eax,%eax
  402ffb:	0f 85 0f 8f 00 00    	jne    0x40bf10
  403001:	01 d8                	add    %ebx,%eax
  403003:	b9 01 00 00 00       	mov    $0x1,%ecx
  403008:	13 0d 17 41 42 00    	adc    0x424117,%ecx
  40300e:	13 0d bc 41 42 00    	adc    0x4241bc,%ecx
  403014:	01 db                	add    %ebx,%ebx
  403016:	6a 0f                	push   $0xf
  403018:	ff 0c 24             	decl   (%esp)
  40301b:	8d 1d a9 25 a7 98    	lea    0x98a725a9,%ebx
  403021:	81 eb 21 e3 64 98    	sub    $0x9864e321,%ebx
  403027:	53                   	push   %ebx
  403028:	8d 05 97 25 a7 98    	lea    0x98a72597,%eax
  40302e:	2d 21 e3 64 98       	sub    $0x9864e321,%eax
  403033:	50                   	push   %eax
  403034:	a1 78 00 42 00       	mov    0x420078,%eax
  403039:	ff d0                	call   *%eax
  40303b:	83 f8 00             	cmp    $0x0,%eax
  40303e:	0f 85 cc 8e 00 00    	jne    0x40bf10
  403044:	8d 1d c6 25 a7 98    	lea    0x98a725c6,%ebx
  40304a:	81 eb 21 e3 64 98    	sub    $0x9864e321,%ebx
  403050:	53                   	push   %ebx
  403051:	8d 15 b7 25 a7 98    	lea    0x98a725b7,%edx
  403057:	81 ea 21 e3 64 98    	sub    $0x9864e321,%edx
  40305d:	52                   	push   %edx
  40305e:	a1 84 00 42 00       	mov    0x420084,%eax
  403063:	ff d0                	call   *%eax
  403065:	09 05 a6 40 42 00    	or     %eax,0x4240a6
  40306b:	c7 05 28 41 42 00 66 	movl   $0x66,0x424128
  403072:	00 00 00 
  403075:	2a 25 cf 41 42 00    	sub    0x4241cf,%ah
  40307b:	8d 3d c6 25 a7 98    	lea    0x98a725c6,%edi
  403081:	81 ef 21 e3 64 98    	sub    $0x9864e321,%edi
  403087:	57                   	push   %edi
  403088:	8d 15 b7 25 a7 98    	lea    0x98a725b7,%edx
  40308e:	81 ea 21 e3 64 98    	sub    $0x9864e321,%edx
  403094:	52                   	push   %edx
  403095:	a1 84 00 42 00       	mov    0x420084,%eax
  40309a:	ff d0                	call   *%eax
  40309c:	29 fb                	sub    %edi,%ebx
  40309e:	ba 01 00 00 00       	mov    $0x1,%edx
  4030a3:	13 15 5c 40 42 00    	adc    0x42405c,%edx
  4030a9:	83 f0 54             	xor    $0x54,%eax
  4030ac:	b9 01 00 00 00       	mov    $0x1,%ecx
  4030b1:	13 0d d5 40 42 00    	adc    0x4240d5,%ecx
  4030b7:	6a 0f                	push   $0xf
  4030b9:	ff 0c 24             	decl   (%esp)
  4030bc:	8d 1d a9 25 a7 98    	lea    0x98a725a9,%ebx
  4030c2:	81 eb 21 e3 64 98    	sub    $0x9864e321,%ebx
  4030c8:	53                   	push   %ebx
  4030c9:	8d 15 97 25 a7 98    	lea    0x98a72597,%edx
  4030cf:	81 ea 21 e3 64 98    	sub    $0x9864e321,%edx
  4030d5:	52                   	push   %edx
  4030d6:	a1 78 00 42 00       	mov    0x420078,%eax
  4030db:	ff d0                	call   *%eax
  4030dd:	83 f8 00             	cmp    $0x0,%eax
  4030e0:	0f 85 2a 8e 00 00    	jne    0x40bf10
  4030e6:	83 35 33 41 42 00 1e 	xorl   $0x1e,0x424133
  4030ed:	01 3d 96 40 42 00    	add    %edi,0x424096
  4030f3:	83 e0 57             	and    $0x57,%eax
  4030f6:	c7 05 69 40 42 00 a3 	movl   $0xa3,0x424069
  4030fd:	00 00 00 
  403100:	2e e9 46 89 00 00    	cs jmp 0x40ba4c
  403106:	83 15 26 41 42 00 02 	adcl   $0x2,0x424126
  40310d:	01 05 37 41 42 00    	add    %eax,0x424137
  403113:	21 05 20 41 42 00    	and    %eax,0x424120
  403119:	09 1d ba 41 42 00    	or     %ebx,0x4241ba
  40311f:	13 1d bd 40 42 00    	adc    0x4240bd,%ebx
	...
  403131:	00 00                	add    %al,(%eax)
  403133:	09 05 63 41 42 00    	or     %eax,0x424163
  403139:	ba 01 00 00 00       	mov    $0x1,%edx
  40313e:	83 c2 e5             	add    $0xffffffe5,%edx
  403141:	b9 01 00 00 00       	mov    $0x1,%ecx
  403146:	83 c1 a6             	add    $0xffffffa6,%ecx
  403149:	6a 0f                	push   $0xf
  40314b:	ff 0c 24             	decl   (%esp)
  40314e:	8d 3d a9 25 a7 98    	lea    0x98a725a9,%edi
  403154:	81 ef 21 e3 64 98    	sub    $0x9864e321,%edi
  40315a:	57                   	push   %edi
  40315b:	8d 0d 97 25 a7 98    	lea    0x98a72597,%ecx
  403161:	81 e9 21 e3 64 98    	sub    $0x9864e321,%ecx
  403167:	51                   	push   %ecx
  403168:	a1 78 00 42 00       	mov    0x420078,%eax
  40316d:	ff d0                	call   *%eax
  40316f:	85 c0                	test   %eax,%eax
  403171:	0f 85 99 8d 00 00    	jne    0x40bf10
  403177:	01 1d 2d 41 42 00    	add    %ebx,0x42412d
  40317d:	6a 0f                	push   $0xf
  40317f:	ff 0c 24             	decl   (%esp)
  403182:	8d 1d a9 25 a7 98    	lea    0x98a725a9,%ebx
  403188:	81 eb 21 e3 64 98    	sub    $0x9864e321,%ebx
  40318e:	53                   	push   %ebx
  40318f:	8d 1d 97 25 a7 98    	lea    0x98a72597,%ebx
  403195:	81 eb 21 e3 64 98    	sub    $0x9864e321,%ebx
  40319b:	53                   	push   %ebx
  40319c:	a1 78 00 42 00       	mov    0x420078,%eax
  4031a1:	ff d0                	call   *%eax
  4031a3:	85 c0                	test   %eax,%eax
  4031a5:	0f 85 65 8d 00 00    	jne    0x40bf10
  4031ab:	13 3d 7e 40 42 00    	adc    0x42407e,%edi
  4031b1:	29 1d fc 41 42 00    	sub    %ebx,0x4241fc
  4031b7:	83 f3 46             	xor    $0x46,%ebx
  4031ba:	11 35 87 40 42 00    	adc    %esi,0x424087
  4031c0:	b1 01                	mov    $0x1,%cl
  4031c2:	82 c1 f6             	add    $0xf6,%cl
  4031c5:	6a 0f                	push   $0xf
  4031c7:	ff 0c 24             	decl   (%esp)
  4031ca:	8d 05 a9 25 a7 98    	lea    0x98a725a9,%eax
  4031d0:	2d 21 e3 64 98       	sub    $0x9864e321,%eax
  4031d5:	50                   	push   %eax
  4031d6:	8d 0d 97 25 a7 98    	lea    0x98a72597,%ecx
  4031dc:	81 e9 21 e3 64 98    	sub    $0x9864e321,%ecx
  4031e2:	51                   	push   %ecx
  4031e3:	a1 78 00 42 00       	mov    0x420078,%eax
  4031e8:	ff d0                	call   *%eax
  4031ea:	85 c0                	test   %eax,%eax
  4031ec:	0f 85 1e 8d 00 00    	jne    0x40bf10
  4031f2:	83 d3 46             	adc    $0x46,%ebx
  4031f5:	8d 0d c6 25 a7 98    	lea    0x98a725c6,%ecx
  4031fb:	81 e9 21 e3 64 98    	sub    $0x9864e321,%ecx
  403201:	51                   	push   %ecx
  403202:	8d 1d b7 25 a7 98    	lea    0x98a725b7,%ebx
  403208:	81 eb 21 e3 64 98    	sub    $0x9864e321,%ebx
  40320e:	53                   	push   %ebx
  40320f:	a1 84 00 42 00       	mov    0x420084,%eax
  403214:	ff d0                	call   *%eax
  403216:	b9 01 00 00 00       	mov    $0x1,%ecx
  40321b:	13 0d a8 40 42 00    	adc    0x4240a8,%ecx
  403221:	13 35 13 41 42 00    	adc    0x424113,%esi
  403227:	0b 0d 23 40 42 00    	or     0x424023,%ecx
  40322d:	83 f6 92             	xor    $0xffffff92,%esi
  403230:	ba 01 00 00 00       	mov    $0x1,%edx
  403235:	83 c2 a1             	add    $0xffffffa1,%edx
  403238:	6a 0f                	push   $0xf
  40323a:	ff 0c 24             	decl   (%esp)
  40323d:	8d 05 a9 25 a7 98    	lea    0x98a725a9,%eax
  403243:	2d 21 e3 64 98       	sub    $0x9864e321,%eax
  403248:	50                   	push   %eax
  403249:	8d 15 97 25 a7 98    	lea    0x98a72597,%edx
  40324f:	81 ea 21 e3 64 98    	sub    $0x9864e321,%edx
  403255:	52                   	push   %edx
  403256:	a1 78 00 42 00       	mov    0x420078,%eax
  40325b:	ff d0                	call   *%eax
  40325d:	83 f8 00             	cmp    $0x0,%eax
  403260:	0f 85 aa 8c 00 00    	jne    0x40bf10
  403266:	83 1d 93 40 42 00 42 	sbbl   $0x42,0x424093
  40326d:	6a 0f                	push   $0xf
  40326f:	ff 0c 24             	decl   (%esp)
  403272:	8d 05 a9 25 a7 98    	lea    0x98a725a9,%eax
  403278:	2d 21 e3 64 98       	sub    $0x9864e321,%eax
  40327d:	50                   	push   %eax
  40327e:	8d 0d 97 25 a7 98    	lea    0x98a72597,%ecx
  403284:	81 e9 21 e3 64 98    	sub    $0x9864e321,%ecx
  40328a:	51                   	push   %ecx
  40328b:	a1 78 00 42 00       	mov    0x420078,%eax
  403290:	ff d0                	call   *%eax
  403292:	85 c0                	test   %eax,%eax
  403294:	0f 85 76 8c 00 00    	jne    0x40bf10
  40329a:	6a 0f                	push   $0xf
  40329c:	ff 0c 24             	decl   (%esp)
  40329f:	8d 0d a9 25 a7 98    	lea    0x98a725a9,%ecx
  4032a5:	81 e9 21 e3 64 98    	sub    $0x9864e321,%ecx
  4032ab:	51                   	push   %ecx
  4032ac:	8d 1d 97 25 a7 98    	lea    0x98a72597,%ebx
  4032b2:	81 eb 21 e3 64 98    	sub    $0x9864e321,%ebx
  4032b8:	53                   	push   %ebx
  4032b9:	a1 78 00 42 00       	mov    0x420078,%eax
  4032be:	ff d0                	call   *%eax
  4032c0:	83 f8 00             	cmp    $0x0,%eax
  4032c3:	0f 85 47 8c 00 00    	jne    0x40bf10
  4032c9:	b9 01 00 00 00       	mov    $0x1,%ecx
  4032ce:	01 d9                	add    %ebx,%ecx
  4032d0:	29 0d d8 41 42 00    	sub    %ecx,0x4241d8
  4032d6:	83 f3 1b             	xor    $0x1b,%ebx
  4032d9:	6a 0f                	push   $0xf
  4032db:	ff 0c 24             	decl   (%esp)
  4032de:	8d 3d a9 25 a7 98    	lea    0x98a725a9,%edi
  4032e4:	81 ef 21 e3 64 98    	sub    $0x9864e321,%edi
  4032ea:	57                   	push   %edi
  4032eb:	8d 0d 97 25 a7 98    	lea    0x98a72597,%ecx
  4032f1:	81 e9 21 e3 64 98    	sub    $0x9864e321,%ecx
  4032f7:	51                   	push   %ecx
  4032f8:	a1 78 00 42 00       	mov    0x420078,%eax
  4032fd:	ff d0                	call   *%eax
  4032ff:	83 f8 00             	cmp    $0x0,%eax
  403302:	0f 85 08 8c 00 00    	jne    0x40bf10
  403308:	83 f7 28             	xor    $0x28,%edi
  40330b:	6a 0f                	push   $0xf
  40330d:	ff 0c 24             	decl   (%esp)
  403310:	8d 0d a9 25 a7 98    	lea    0x98a725a9,%ecx
  403316:	81 e9 21 e3 64 98    	sub    $0x9864e321,%ecx
  40331c:	51                   	push   %ecx
  40331d:	8d 05 97 25 a7 98    	lea    0x98a72597,%eax
  403323:	2d 21 e3 64 98       	sub    $0x9864e321,%eax
  403328:	50                   	push   %eax
  403329:	a1 78 00 42 00       	mov    0x420078,%eax
  40332e:	ff d0                	call   *%eax
  403330:	83 f8 00             	cmp    $0x0,%eax
  403333:	0f 85 d7 8b 00 00    	jne    0x40bf10
  403339:	83 cf 41             	or     $0x41,%edi
  40333c:	09 35 07 40 42 00    	or     %esi,0x424007
  403342:	8d 1d c6 25 a7 98    	lea    0x98a725c6,%ebx
  403348:	81 eb 21 e3 64 98    	sub    $0x9864e321,%ebx
  40334e:	53                   	push   %ebx
  40334f:	8d 1d b7 25 a7 98    	lea    0x98a725b7,%ebx
  403355:	81 eb 21 e3 64 98    	sub    $0x9864e321,%ebx
  40335b:	53                   	push   %ebx
  40335c:	a1 84 00 42 00       	mov    0x420084,%eax
  403361:	ff d0                	call   *%eax
  403363:	83 cb 72             	or     $0x72,%ebx
  403366:	6a 0f                	push   $0xf
  403368:	ff 0c 24             	decl   (%esp)
  40336b:	8d 1d a9 25 a7 98    	lea    0x98a725a9,%ebx
  403371:	81 eb 21 e3 64 98    	sub    $0x9864e321,%ebx
  403377:	53                   	push   %ebx
  403378:	8d 35 97 25 a7 98    	lea    0x98a72597,%esi
  40337e:	81 ee 21 e3 64 98    	sub    $0x9864e321,%esi
  403384:	56                   	push   %esi
  403385:	a1 78 00 42 00       	mov    0x420078,%eax
  40338a:	ff d0                	call   *%eax
  40338c:	85 c0                	test   %eax,%eax
  40338e:	0f 85 7c 8b 00 00    	jne    0x40bf10
  403394:	12 25 5b 41 42 00    	adc    0x42415b,%ah
  40339a:	81 15 a4 40 42 00 f4 	adcl   $0xf4,0x4240a4
  4033a1:	00 00 00 
  4033a4:	2e e9 a2 86 00 00    	cs jmp 0x40ba4c
  4033aa:	b6 01                	mov    $0x1,%dh
  4033ac:	82 c6 a3             	add    $0xa3,%dh
  4033af:	09 15 6a 40 42 00    	or     %edx,0x42406a
  4033b5:	11 d6                	adc    %edx,%esi
  4033b7:	83 d6 9a             	adc    $0xffffff9a,%esi
	...
  4033c2:	6a 0f                	push   $0xf
  4033c4:	ff 0c 24             	decl   (%esp)
  4033c7:	8d 3d a9 25 a7 98    	lea    0x98a725a9,%edi
  4033cd:	81 ef 21 e3 64 98    	sub    $0x9864e321,%edi
  4033d3:	57                   	push   %edi
  4033d4:	8d 3d 97 25 a7 98    	lea    0x98a72597,%edi
  4033da:	81 ef 21 e3 64 98    	sub    $0x9864e321,%edi
  4033e0:	57                   	push   %edi
  4033e1:	a1 78 00 42 00       	mov    0x420078,%eax
  4033e6:	ff d0                	call   *%eax
  4033e8:	85 c0                	test   %eax,%eax
  4033ea:	0f 85 20 8b 00 00    	jne    0x40bf10
  4033f0:	83 15 6c 41 42 00 1d 	adcl   $0x1d,0x42416c
  4033f7:	b9 01 00 00 00       	mov    $0x1,%ecx
  4033fc:	13 0d 82 41 42 00    	adc    0x424182,%ecx
  403402:	2b 0d c7 41 42 00    	sub    0x4241c7,%ecx
  403408:	83 15 71 41 42 00 53 	adcl   $0x53,0x424171
  40340f:	81 1d 79 41 42 00 9f 	sbbl   $0x9f,0x424179
  403416:	00 00 00 
  403419:	6a 0f                	push   $0xf
  40341b:	ff 0c 24             	decl   (%esp)
  40341e:	8d 35 a9 25 a7 98    	lea    0x98a725a9,%esi
  403424:	81 ee 21 e3 64 98    	sub    $0x9864e321,%esi
  40342a:	56                   	push   %esi
  40342b:	8d 35 97 25 a7 98    	lea    0x98a72597,%esi
  403431:	81 ee 21 e3 64 98    	sub    $0x9864e321,%esi
  403437:	56                   	push   %esi
  403438:	a1 78 00 42 00       	mov    0x420078,%eax
  40343d:	ff d0                	call   *%eax
  40343f:	83 f8 00             	cmp    $0x0,%eax
  403442:	0f 85 c8 8a 00 00    	jne    0x40bf10
  403448:	8d 1d c6 25 a7 98    	lea    0x98a725c6,%ebx
  40344e:	81 eb 21 e3 64 98    	sub    $0x9864e321,%ebx
  403454:	53                   	push   %ebx
  403455:	8d 05 b7 25 a7 98    	lea    0x98a725b7,%eax
  40345b:	2d 21 e3 64 98       	sub    $0x9864e321,%eax
  403460:	50                   	push   %eax
  403461:	a1 84 00 42 00       	mov    0x420084,%eax
  403466:	ff d0                	call   *%eax
  403468:	8d 35 c6 25 a7 98    	lea    0x98a725c6,%esi
  40346e:	81 ee 21 e3 64 98    	sub    $0x9864e321,%esi
  403474:	56                   	push   %esi
  403475:	8d 1d b7 25 a7 98    	lea    0x98a725b7,%ebx
  40347b:	81 eb 21 e3 64 98    	sub    $0x9864e321,%ebx
  403481:	53                   	push   %ebx
  403482:	a1 84 00 42 00       	mov    0x420084,%eax
  403487:	ff d0                	call   *%eax
  403489:	c7 05 7f 40 42 00 1e 	movl   $0x1e,0x42407f
  403490:	00 00 00 
  403493:	c7 05 d0 40 42 00 b2 	movl   $0xb2,0x4240d0
  40349a:	00 00 00 
  40349d:	8d 1d c6 25 a7 98    	lea    0x98a725c6,%ebx
  4034a3:	81 eb 21 e3 64 98    	sub    $0x9864e321,%ebx
  4034a9:	53                   	push   %ebx
  4034aa:	8d 3d b7 25 a7 98    	lea    0x98a725b7,%edi
  4034b0:	81 ef 21 e3 64 98    	sub    $0x9864e321,%edi
  4034b6:	57                   	push   %edi
  4034b7:	a1 84 00 42 00       	mov    0x420084,%eax
  4034bc:	ff d0                	call   *%eax
  4034be:	2a 1d 38 41 42 00    	sub    0x424138,%bl
  4034c4:	83 15 71 40 42 00 21 	adcl   $0x21,0x424071
  4034cb:	6a 0f                	push   $0xf
  4034cd:	ff 0c 24             	decl   (%esp)
  4034d0:	8d 0d a9 25 a7 98    	lea    0x98a725a9,%ecx
  4034d6:	81 e9 21 e3 64 98    	sub    $0x9864e321,%ecx
  4034dc:	51                   	push   %ecx
  4034dd:	8d 35 97 25 a7 98    	lea    0x98a72597,%esi
  4034e3:	81 ee 21 e3 64 98    	sub    $0x9864e321,%esi
  4034e9:	56                   	push   %esi
  4034ea:	a1 78 00 42 00       	mov    0x420078,%eax
  4034ef:	ff d0                	call   *%eax
  4034f1:	83 f8 00             	cmp    $0x0,%eax
  4034f4:	0f 85 16 8a 00 00    	jne    0x40bf10
  4034fa:	83 c3 5d             	add    $0x5d,%ebx
  4034fd:	81 15 bb 41 42 00 de 	adcl   $0xde,0x4241bb
  403504:	00 00 00 
  403507:	82 2d 94 40 42 00 be 	subb   $0xbe,0x424094
  40350e:	6a 0f                	push   $0xf
  403510:	ff 0c 24             	decl   (%esp)
  403513:	8d 0d a9 25 a7 98    	lea    0x98a725a9,%ecx
  403519:	81 e9 21 e3 64 98    	sub    $0x9864e321,%ecx
  40351f:	51                   	push   %ecx
  403520:	8d 3d 97 25 a7 98    	lea    0x98a72597,%edi
  403526:	81 ef 21 e3 64 98    	sub    $0x9864e321,%edi
  40352c:	57                   	push   %edi
  40352d:	a1 78 00 42 00       	mov    0x420078,%eax
  403532:	ff d0                	call   *%eax
  403534:	85 c0                	test   %eax,%eax
  403536:	0f 85 d4 89 00 00    	jne    0x40bf10
  40353c:	82 c7 69             	add    $0x69,%bh
  40353f:	21 1d 28 40 42 00    	and    %ebx,0x424028
  403545:	08 3d 09 41 42 00    	or     %bh,0x424109
  40354b:	83 15 48 40 42 00 38 	adcl   $0x38,0x424048
  403552:	01 f0                	add    %esi,%eax
  403554:	8d 15 c6 25 a7 98    	lea    0x98a725c6,%edx
  40355a:	81 ea 21 e3 64 98    	sub    $0x9864e321,%edx
  403560:	52                   	push   %edx
  403561:	8d 0d b7 25 a7 98    	lea    0x98a725b7,%ecx
  403567:	81 e9 21 e3 64 98    	sub    $0x9864e321,%ecx
  40356d:	51                   	push   %ecx
  40356e:	a1 84 00 42 00       	mov    0x420084,%eax
  403573:	ff d0                	call   *%eax
  403575:	01 1d ea 40 42 00    	add    %ebx,0x4240ea
  40357b:	b9 01 00 00 00       	mov    $0x1,%ecx
  403580:	13 0d 03 41 42 00    	adc    0x424103,%ecx
  403586:	01 05 88 41 42 00    	add    %eax,0x424188
  40358c:	6a 0f                	push   $0xf
  40358e:	ff 0c 24             	decl   (%esp)
  403591:	8d 15 a9 25 a7 98    	lea    0x98a725a9,%edx
  403597:	81 ea 21 e3 64 98    	sub    $0x9864e321,%edx
  40359d:	52                   	push   %edx
  40359e:	8d 15 97 25 a7 98    	lea    0x98a72597,%edx
  4035a4:	81 ea 21 e3 64 98    	sub    $0x9864e321,%edx
  4035aa:	52                   	push   %edx
  4035ab:	a1 78 00 42 00       	mov    0x420078,%eax
  4035b0:	ff d0                	call   *%eax
  4035b2:	83 f8 00             	cmp    $0x0,%eax
  4035b5:	0f 85 55 89 00 00    	jne    0x40bf10
  4035bb:	2a 3d 3e 40 42 00    	sub    0x42403e,%bh
  4035c1:	83 c3 c1             	add    $0xffffffc1,%ebx
  4035c4:	83 d0 58             	adc    $0x58,%eax
  4035c7:	6a 0f                	push   $0xf
  4035c9:	ff 0c 24             	decl   (%esp)
  4035cc:	8d 3d a9 25 a7 98    	lea    0x98a725a9,%edi
  4035d2:	81 ef 21 e3 64 98    	sub    $0x9864e321,%edi
  4035d8:	57                   	push   %edi
  4035d9:	8d 0d 97 25 a7 98    	lea    0x98a72597,%ecx
  4035df:	81 e9 21 e3 64 98    	sub    $0x9864e321,%ecx
  4035e5:	51                   	push   %ecx
  4035e6:	a1 78 00 42 00       	mov    0x420078,%eax
  4035eb:	ff d0                	call   *%eax
  4035ed:	85 c0                	test   %eax,%eax
  4035ef:	0f 85 1b 89 00 00    	jne    0x40bf10
  4035f5:	19 c7                	sbb    %eax,%edi
  4035f7:	2a 25 54 40 42 00    	sub    0x424054,%ah
  4035fd:	12 25 16 41 42 00    	adc    0x424116,%ah
  403603:	2e e9 43 84 00 00    	cs jmp 0x40ba4c
  403609:	11 c7                	adc    %eax,%edi
  40360b:	ba 01 00 00 00       	mov    $0x1,%edx
  403610:	01 da                	add    %ebx,%edx
  403612:	31 35 76 41 42 00    	xor    %esi,0x424176
  403618:	0b 3d 42 41 42 00    	or     0x424142,%edi
  40361e:	01 d0                	add    %edx,%eax
	...
  40362c:	00 00                	add    %al,(%eax)
  40362e:	00 01                	add    %al,(%ecx)
  403630:	35 27 41 42 00       	xor    $0x424127,%eax
  403635:	13 1d e2 41 42 00    	adc    0x4241e2,%ebx
  40363b:	8d 05 c6 25 a7 98    	lea    0x98a725c6,%eax
  403641:	2d 21 e3 64 98       	sub    $0x9864e321,%eax
  403646:	50                   	push   %eax
  403647:	8d 05 b7 25 a7 98    	lea    0x98a725b7,%eax
  40364d:	2d 21 e3 64 98       	sub    $0x9864e321,%eax
  403652:	50                   	push   %eax
  403653:	a1 84 00 42 00       	mov    0x420084,%eax
  403658:	ff d0                	call   *%eax
  40365a:	b9 01 00 00 00       	mov    $0x1,%ecx
  40365f:	83 c1 12             	add    $0x12,%ecx
  403662:	8d 15 c6 25 a7 98    	lea    0x98a725c6,%edx
  403668:	81 ea 21 e3 64 98    	sub    $0x9864e321,%edx
  40366e:	52                   	push   %edx
  40366f:	8d 1d b7 25 a7 98    	lea    0x98a725b7,%ebx
  403675:	81 eb 21 e3 64 98    	sub    $0x9864e321,%ebx
  40367b:	53                   	push   %ebx
  40367c:	a1 84 00 42 00       	mov    0x420084,%eax
  403681:	ff d0                	call   *%eax
  403683:	13 1d 4d 40 42 00    	adc    0x42404d,%ebx
  403689:	6a 0f                	push   $0xf
  40368b:	ff 0c 24             	decl   (%esp)
  40368e:	8d 35 a9 25 a7 98    	lea    0x98a725a9,%esi
  403694:	81 ee 21 e3 64 98    	sub    $0x9864e321,%esi
  40369a:	56                   	push   %esi
  40369b:	8d 15 97 25 a7 98    	lea    0x98a72597,%edx
  4036a1:	81 ea 21 e3 64 98    	sub    $0x9864e321,%edx
  4036a7:	52                   	push   %edx
  4036a8:	a1 78 00 42 00       	mov    0x420078,%eax
  4036ad:	ff d0                	call   *%eax
  4036af:	83 f8 00             	cmp    $0x0,%eax
  4036b2:	0f 85 58 88 00 00    	jne    0x40bf10
  4036b8:	6a 0f                	push   $0xf
  4036ba:	ff 0c 24             	decl   (%esp)
  4036bd:	8d 0d a9 25 a7 98    	lea    0x98a725a9,%ecx
  4036c3:	81 e9 21 e3 64 98    	sub    $0x9864e321,%ecx
  4036c9:	51                   	push   %ecx
  4036ca:	8d 1d 97 25 a7 98    	lea    0x98a72597,%ebx
  4036d0:	81 eb 21 e3 64 98    	sub    $0x9864e321,%ebx
  4036d6:	53                   	push   %ebx
  4036d7:	a1 78 00 42 00       	mov    0x420078,%eax
  4036dc:	ff d0                	call   *%eax
  4036de:	85 c0                	test   %eax,%eax
  4036e0:	0f 85 2a 88 00 00    	jne    0x40bf10
  4036e6:	14 4b                	adc    $0x4b,%al
  4036e8:	0b 1d 29 41 42 00    	or     0x424129,%ebx
  4036ee:	13 35 11 40 42 00    	adc    0x424011,%esi
  4036f4:	6a 0f                	push   $0xf
  4036f6:	ff 0c 24             	decl   (%esp)
  4036f9:	8d 1d a9 25 a7 98    	lea    0x98a725a9,%ebx
  4036ff:	81 eb 21 e3 64 98    	sub    $0x9864e321,%ebx
  403705:	53                   	push   %ebx
  403706:	8d 1d 97 25 a7 98    	lea    0x98a72597,%ebx
  40370c:	81 eb 21 e3 64 98    	sub    $0x9864e321,%ebx
  403712:	53                   	push   %ebx
  403713:	a1 78 00 42 00       	mov    0x420078,%eax
  403718:	ff d0                	call   *%eax
  40371a:	85 c0                	test   %eax,%eax
  40371c:	0f 85 ee 87 00 00    	jne    0x40bf10
  403722:	ba 01 00 00 00       	mov    $0x1,%edx
  403727:	01 da                	add    %ebx,%edx
  403729:	0b 1d 9d 41 42 00    	or     0x42419d,%ebx
  40372f:	12 35 8f 40 42 00    	adc    0x42408f,%dh
  403735:	09 3d b6 40 42 00    	or     %edi,0x4240b6
  40373b:	6a 0f                	push   $0xf
  40373d:	ff 0c 24             	decl   (%esp)
  403740:	8d 05 a9 25 a7 98    	lea    0x98a725a9,%eax
  403746:	2d 21 e3 64 98       	sub    $0x9864e321,%eax
  40374b:	50                   	push   %eax
  40374c:	8d 1d 97 25 a7 98    	lea    0x98a72597,%ebx
  403752:	81 eb 21 e3 64 98    	sub    $0x9864e321,%ebx
  403758:	53                   	push   %ebx
  403759:	a1 78 00 42 00       	mov    0x420078,%eax
  40375e:	ff d0                	call   *%eax
  403760:	85 c0                	test   %eax,%eax
  403762:	0f 85 a8 87 00 00    	jne    0x40bf10
  403768:	83 15 1f 40 42 00 06 	adcl   $0x6,0x42401f
  40376f:	6a 0f                	push   $0xf
  403771:	ff 0c 24             	decl   (%esp)
  403774:	8d 3d a9 25 a7 98    	lea    0x98a725a9,%edi
  40377a:	81 ef 21 e3 64 98    	sub    $0x9864e321,%edi
  403780:	57                   	push   %edi
  403781:	8d 05 97 25 a7 98    	lea    0x98a72597,%eax
  403787:	2d 21 e3 64 98       	sub    $0x9864e321,%eax
  40378c:	50                   	push   %eax
  40378d:	a1 78 00 42 00       	mov    0x420078,%eax
  403792:	ff d0                	call   *%eax
  403794:	83 f8 00             	cmp    $0x0,%eax
  403797:	0f 85 73 87 00 00    	jne    0x40bf10
  40379d:	19 05 e1 41 42 00    	sbb    %eax,0x4241e1
  4037a3:	31 d8                	xor    %ebx,%eax
  4037a5:	8d 35 c6 25 a7 98    	lea    0x98a725c6,%esi
  4037ab:	81 ee 21 e3 64 98    	sub    $0x9864e321,%esi
  4037b1:	56                   	push   %esi
  4037b2:	8d 15 b7 25 a7 98    	lea    0x98a725b7,%edx
  4037b8:	81 ea 21 e3 64 98    	sub    $0x9864e321,%edx
  4037be:	52                   	push   %edx
  4037bf:	a1 84 00 42 00       	mov    0x420084,%eax
  4037c4:	ff d0                	call   *%eax
  4037c6:	ba 01 00 00 00       	mov    $0x1,%edx
  4037cb:	13 15 5a 40 42 00    	adc    0x42405a,%edx
  4037d1:	11 3d 79 41 42 00    	adc    %edi,0x424179
  4037d7:	83 35 e5 41 42 00 1c 	xorl   $0x1c,0x4241e5
  4037de:	6a 0f                	push   $0xf
  4037e0:	ff 0c 24             	decl   (%esp)
  4037e3:	8d 3d a9 25 a7 98    	lea    0x98a725a9,%edi
  4037e9:	81 ef 21 e3 64 98    	sub    $0x9864e321,%edi
  4037ef:	57                   	push   %edi
  4037f0:	8d 1d 97 25 a7 98    	lea    0x98a72597,%ebx
  4037f6:	81 eb 21 e3 64 98    	sub    $0x9864e321,%ebx
  4037fc:	53                   	push   %ebx
  4037fd:	a1 78 00 42 00       	mov    0x420078,%eax
  403802:	ff d0                	call   *%eax
  403804:	85 c0                	test   %eax,%eax
  403806:	0f 85 04 87 00 00    	jne    0x40bf10
  40380c:	6a 0f                	push   $0xf
  40380e:	ff 0c 24             	decl   (%esp)
  403811:	8d 0d a9 25 a7 98    	lea    0x98a725a9,%ecx
  403817:	81 e9 21 e3 64 98    	sub    $0x9864e321,%ecx
  40381d:	51                   	push   %ecx
  40381e:	8d 15 97 25 a7 98    	lea    0x98a72597,%edx
  403824:	81 ea 21 e3 64 98    	sub    $0x9864e321,%edx
  40382a:	52                   	push   %edx
  40382b:	a1 78 00 42 00       	mov    0x420078,%eax
  403830:	ff d0                	call   *%eax
  403832:	85 c0                	test   %eax,%eax
  403834:	0f 85 d6 86 00 00    	jne    0x40bf10
  40383a:	8d 05 c6 25 a7 98    	lea    0x98a725c6,%eax
  403840:	2d 21 e3 64 98       	sub    $0x9864e321,%eax
  403845:	50                   	push   %eax
  403846:	8d 0d b7 25 a7 98    	lea    0x98a725b7,%ecx
  40384c:	81 e9 21 e3 64 98    	sub    $0x9864e321,%ecx
  403852:	51                   	push   %ecx
  403853:	a1 84 00 42 00       	mov    0x420084,%eax
  403858:	ff d0                	call   *%eax
  40385a:	13 3d 83 41 42 00    	adc    0x424183,%edi
  403860:	c7 05 c5 40 42 00 bb 	movl   $0xbb,0x4240c5
  403867:	00 00 00 
  40386a:	6a 0f                	push   $0xf
  40386c:	ff 0c 24             	decl   (%esp)
  40386f:	8d 15 a9 25 a7 98    	lea    0x98a725a9,%edx
  403875:	81 ea 21 e3 64 98    	sub    $0x9864e321,%edx
  40387b:	52                   	push   %edx
  40387c:	8d 1d 97 25 a7 98    	lea    0x98a72597,%ebx
  403882:	81 eb 21 e3 64 98    	sub    $0x9864e321,%ebx
  403888:	53                   	push   %ebx
  403889:	a1 78 00 42 00       	mov    0x420078,%eax
  40388e:	ff d0                	call   *%eax
  403890:	85 c0                	test   %eax,%eax
  403892:	0f 85 78 86 00 00    	jne    0x40bf10
  403898:	13 1d 26 40 42 00    	adc    0x424026,%ebx
  40389e:	ba 01 00 00 00       	mov    $0x1,%edx
  4038a3:	13 15 65 41 42 00    	adc    0x424165,%edx
  4038a9:	2e e9 9d 81 00 00    	cs jmp 0x40ba4c
  4038af:	19 c2                	sbb    %eax,%edx
  4038b1:	01 fb                	add    %edi,%ebx
  4038b3:	0a 35 24 41 42 00    	or     0x424124,%dh
  4038b9:	13 15 ba 40 42 00    	adc    0x4240ba,%edx
  4038bf:	b9 01 00 00 00       	mov    $0x1,%ecx
  4038c4:	01 f9                	add    %edi,%ecx
	...
  4038ce:	6a 0f                	push   $0xf
  4038d0:	ff 0c 24             	decl   (%esp)
  4038d3:	8d 0d a9 25 a7 98    	lea    0x98a725a9,%ecx
  4038d9:	81 e9 21 e3 64 98    	sub    $0x9864e321,%ecx
  4038df:	51                   	push   %ecx
  4038e0:	8d 15 97 25 a7 98    	lea    0x98a72597,%edx
  4038e6:	81 ea 21 e3 64 98    	sub    $0x9864e321,%edx
  4038ec:	52                   	push   %edx
  4038ed:	a1 78 00 42 00       	mov    0x420078,%eax
  4038f2:	ff d0                	call   *%eax
  4038f4:	83 f8 00             	cmp    $0x0,%eax
  4038f7:	0f 85 13 86 00 00    	jne    0x40bf10
  4038fd:	0a 1d 5f 40 42 00    	or     0x42405f,%bl
  403903:	6a 0f                	push   $0xf
  403905:	ff 0c 24             	decl   (%esp)
  403908:	8d 15 a9 25 a7 98    	lea    0x98a725a9,%edx
  40390e:	81 ea 21 e3 64 98    	sub    $0x9864e321,%edx
  403914:	52                   	push   %edx
  403915:	8d 3d 97 25 a7 98    	lea    0x98a72597,%edi
  40391b:	81 ef 21 e3 64 98    	sub    $0x9864e321,%edi
  403921:	57                   	push   %edi
  403922:	a1 78 00 42 00       	mov    0x420078,%eax
  403927:	ff d0                	call   *%eax
  403929:	85 c0                	test   %eax,%eax
  40392b:	0f 85 df 85 00 00    	jne    0x40bf10
  403931:	01 f8                	add    %edi,%eax
  403933:	01 35 88 40 42 00    	add    %esi,0x424088
  403939:	29 de                	sub    %ebx,%esi
  40393b:	8d 1d c6 25 a7 98    	lea    0x98a725c6,%ebx
  403941:	81 eb 21 e3 64 98    	sub    $0x9864e321,%ebx
  403947:	53                   	push   %ebx
  403948:	8d 15 b7 25 a7 98    	lea    0x98a725b7,%edx
  40394e:	81 ea 21 e3 64 98    	sub    $0x9864e321,%edx
  403954:	52                   	push   %edx
  403955:	a1 84 00 42 00       	mov    0x420084,%eax
  40395a:	ff d0                	call   *%eax
  40395c:	83 c0 d8             	add    $0xffffffd8,%eax
  40395f:	09 1d e8 40 42 00    	or     %ebx,0x4240e8
  403965:	0b 1d 87 41 42 00    	or     0x424187,%ebx
  40396b:	13 1d 2c 40 42 00    	adc    0x42402c,%ebx
  403971:	31 1d 74 41 42 00    	xor    %ebx,0x424174
  403977:	6a 0f                	push   $0xf
  403979:	ff 0c 24             	decl   (%esp)
  40397c:	8d 0d a9 25 a7 98    	lea    0x98a725a9,%ecx
  403982:	81 e9 21 e3 64 98    	sub    $0x9864e321,%ecx
  403988:	51                   	push   %ecx
  403989:	8d 15 97 25 a7 98    	lea    0x98a72597,%edx
  40398f:	81 ea 21 e3 64 98    	sub    $0x9864e321,%edx
  403995:	52                   	push   %edx
  403996:	a1 78 00 42 00       	mov    0x420078,%eax
  40399b:	ff d0                	call   *%eax
  40399d:	85 c0                	test   %eax,%eax
  40399f:	0f 85 6b 85 00 00    	jne    0x40bf10
  4039a5:	b9 01 00 00 00       	mov    $0x1,%ecx
  4039aa:	13 0d ab 40 42 00    	adc    0x4240ab,%ecx
  4039b0:	2a 25 f5 41 42 00    	sub    0x4241f5,%ah
  4039b6:	83 cf 78             	or     $0x78,%edi
  4039b9:	83 25 fe 40 42 00 0d 	andl   $0xd,0x4240fe
  4039c0:	8d 3d c6 25 a7 98    	lea    0x98a725c6,%edi
  4039c6:	81 ef 21 e3 64 98    	sub    $0x9864e321,%edi
  4039cc:	57                   	push   %edi
  4039cd:	8d 35 b7 25 a7 98    	lea    0x98a725b7,%esi
  4039d3:	81 ee 21 e3 64 98    	sub    $0x9864e321,%esi
  4039d9:	56                   	push   %esi
  4039da:	a1 84 00 42 00       	mov    0x420084,%eax
  4039df:	ff d0                	call   *%eax
  4039e1:	8d 3d c6 25 a7 98    	lea    0x98a725c6,%edi
  4039e7:	81 ef 21 e3 64 98    	sub    $0x9864e321,%edi
  4039ed:	57                   	push   %edi
  4039ee:	8d 0d b7 25 a7 98    	lea    0x98a725b7,%ecx
  4039f4:	81 e9 21 e3 64 98    	sub    $0x9864e321,%ecx
  4039fa:	51                   	push   %ecx
  4039fb:	a1 84 00 42 00       	mov    0x420084,%eax
  403a00:	ff d0                	call   *%eax
  403a02:	2b 05 4e 41 42 00    	sub    0x42414e,%eax
  403a08:	01 c3                	add    %eax,%ebx
  403a0a:	2b 35 03 41 42 00    	sub    0x424103,%esi
  403a10:	c7 05 8c 41 42 00 6d 	movl   $0x6d,0x42418c
  403a17:	00 00 00 
  403a1a:	8d 15 c6 25 a7 98    	lea    0x98a725c6,%edx
  403a20:	81 ea 21 e3 64 98    	sub    $0x9864e321,%edx
  403a26:	52                   	push   %edx
  403a27:	8d 05 b7 25 a7 98    	lea    0x98a725b7,%eax
  403a2d:	2d 21 e3 64 98       	sub    $0x9864e321,%eax
  403a32:	50                   	push   %eax
  403a33:	a1 84 00 42 00       	mov    0x420084,%eax
  403a38:	ff d0                	call   *%eax
  403a3a:	82 2d 5e 40 42 00 d3 	subb   $0xd3,0x42405e
  403a41:	10 f8                	adc    %bh,%al
  403a43:	21 1d 92 40 42 00    	and    %ebx,0x424092
  403a49:	6a 0f                	push   $0xf
  403a4b:	ff 0c 24             	decl   (%esp)
  403a4e:	8d 05 a9 25 a7 98    	lea    0x98a725a9,%eax
  403a54:	2d 21 e3 64 98       	sub    $0x9864e321,%eax
  403a59:	50                   	push   %eax
  403a5a:	8d 3d 97 25 a7 98    	lea    0x98a72597,%edi
  403a60:	81 ef 21 e3 64 98    	sub    $0x9864e321,%edi
  403a66:	57                   	push   %edi
  403a67:	a1 78 00 42 00       	mov    0x420078,%eax
  403a6c:	ff d0                	call   *%eax
  403a6e:	83 f8 00             	cmp    $0x0,%eax
  403a71:	0f 85 99 84 00 00    	jne    0x40bf10
  403a77:	b9 01 00 00 00       	mov    $0x1,%ecx
  403a7c:	83 c1 d3             	add    $0xffffffd3,%ecx
  403a7f:	83 25 f8 40 42 00 5c 	andl   $0x5c,0x4240f8
  403a86:	81 15 04 41 42 00 f0 	adcl   $0xf0,0x424104
  403a8d:	00 00 00 
  403a90:	83 0d 85 41 42 00 01 	orl    $0x1,0x424185
  403a97:	19 f3                	sbb    %esi,%ebx
  403a99:	8d 1d c6 25 a7 98    	lea    0x98a725c6,%ebx
  403a9f:	81 eb 21 e3 64 98    	sub    $0x9864e321,%ebx
  403aa5:	53                   	push   %ebx
  403aa6:	8d 05 b7 25 a7 98    	lea    0x98a725b7,%eax
  403aac:	2d 21 e3 64 98       	sub    $0x9864e321,%eax
  403ab1:	50                   	push   %eax
  403ab2:	a1 84 00 42 00       	mov    0x420084,%eax
  403ab7:	ff d0                	call   *%eax
  403ab9:	01 05 0b 40 42 00    	add    %eax,0x42400b
  403abf:	2a 3d 12 40 42 00    	sub    0x424012,%bh
  403ac5:	81 0d 3a 41 42 00 ac 	orl    $0xac,0x42413a
  403acc:	00 00 00 
  403acf:	8d 3d c6 25 a7 98    	lea    0x98a725c6,%edi
  403ad5:	81 ef 21 e3 64 98    	sub    $0x9864e321,%edi
  403adb:	57                   	push   %edi
  403adc:	8d 35 b7 25 a7 98    	lea    0x98a725b7,%esi
  403ae2:	81 ee 21 e3 64 98    	sub    $0x9864e321,%esi
  403ae8:	56                   	push   %esi
  403ae9:	a1 84 00 42 00       	mov    0x420084,%eax
  403aee:	ff d0                	call   *%eax
  403af0:	10 1d 21 41 42 00    	adc    %bl,0x424121
  403af6:	13 05 1d 40 42 00    	adc    0x42401d,%eax
  403afc:	19 f6                	sbb    %esi,%esi
  403afe:	13 05 8e 41 42 00    	adc    0x42418e,%eax
  403b04:	2e e9 42 7f 00 00    	cs jmp 0x40ba4c
  403b0a:	29 c3                	sub    %eax,%ebx
  403b0c:	b9 01 00 00 00       	mov    $0x1,%ecx
  403b11:	83 c1 a8             	add    $0xffffffa8,%ecx
  403b14:	31 35 ea 40 42 00    	xor    %esi,0x4240ea
  403b1a:	13 35 77 40 42 00    	adc    0x424077,%esi
  403b20:	11 de                	adc    %ebx,%esi
  403b22:	00 00                	add    %al,(%eax)
  403b24:	00 00                	add    %al,(%eax)
  403b26:	00 19                	add    %bl,(%ecx)
  403b28:	f0 ba 01 00 00 00    	lock mov $0x1,%edx
  403b2e:	13 15 f3 41 42 00    	adc    0x4241f3,%edx
  403b34:	83 de 9d             	sbb    $0xffffff9d,%esi
  403b37:	b9 01 00 00 00       	mov    $0x1,%ecx
  403b3c:	01 c1                	add    %eax,%ecx
  403b3e:	6a 0f                	push   $0xf
  403b40:	ff 0c 24             	decl   (%esp)
  403b43:	8d 0d a9 25 a7 98    	lea    0x98a725a9,%ecx
  403b49:	81 e9 21 e3 64 98    	sub    $0x9864e321,%ecx
  403b4f:	51                   	push   %ecx
  403b50:	8d 05 97 25 a7 98    	lea    0x98a72597,%eax
  403b56:	2d 21 e3 64 98       	sub    $0x9864e321,%eax
  403b5b:	50                   	push   %eax
  403b5c:	a1 78 00 42 00       	mov    0x420078,%eax
  403b61:	ff d0                	call   *%eax
  403b63:	83 f8 00             	cmp    $0x0,%eax
  403b66:	0f 85 a4 83 00 00    	jne    0x40bf10
  403b6c:	10 1d e2 41 42 00    	adc    %bl,0x4241e2
  403b72:	0b 3d a5 40 42 00    	or     0x4240a5,%edi
  403b78:	13 05 0b 41 42 00    	adc    0x42410b,%eax
  403b7e:	b9 01 00 00 00       	mov    $0x1,%ecx
  403b83:	83 c1 d4             	add    $0xffffffd4,%ecx
  403b86:	82 2d 33 41 42 00 35 	subb   $0x35,0x424133
  403b8d:	6a 0f                	push   $0xf
  403b8f:	ff 0c 24             	decl   (%esp)
  403b92:	8d 35 a9 25 a7 98    	lea    0x98a725a9,%esi
  403b98:	81 ee 21 e3 64 98    	sub    $0x9864e321,%esi
  403b9e:	56                   	push   %esi
  403b9f:	8d 0d 97 25 a7 98    	lea    0x98a72597,%ecx
  403ba5:	81 e9 21 e3 64 98    	sub    $0x9864e321,%ecx
  403bab:	51                   	push   %ecx
  403bac:	a1 78 00 42 00       	mov    0x420078,%eax
  403bb1:	ff d0                	call   *%eax
  403bb3:	83 f8 00             	cmp    $0x0,%eax
  403bb6:	0f 85 54 83 00 00    	jne    0x40bf10
  403bbc:	ba 01 00 00 00       	mov    $0x1,%edx
  403bc1:	13 15 a8 40 42 00    	adc    0x4240a8,%edx
  403bc7:	81 15 ab 40 42 00 ef 	adcl   $0xef,0x4240ab
  403bce:	00 00 00 
  403bd1:	29 15 d7 41 42 00    	sub    %edx,0x4241d7
  403bd7:	82 d2 00             	adc    $0x0,%dl
  403bda:	6a 0f                	push   $0xf
  403bdc:	ff 0c 24             	decl   (%esp)
  403bdf:	8d 3d a9 25 a7 98    	lea    0x98a725a9,%edi
  403be5:	81 ef 21 e3 64 98    	sub    $0x9864e321,%edi
  403beb:	57                   	push   %edi
  403bec:	8d 35 97 25 a7 98    	lea    0x98a72597,%esi
  403bf2:	81 ee 21 e3 64 98    	sub    $0x9864e321,%esi
  403bf8:	56                   	push   %esi
  403bf9:	a1 78 00 42 00       	mov    0x420078,%eax
  403bfe:	ff d0                	call   *%eax
  403c00:	85 c0                	test   %eax,%eax
  403c02:	0f 85 08 83 00 00    	jne    0x40bf10
  403c08:	83 15 47 40 42 00 0d 	adcl   $0xd,0x424047
  403c0f:	83 15 13 41 42 00 15 	adcl   $0x15,0x424113
  403c16:	6a 0f                	push   $0xf
  403c18:	ff 0c 24             	decl   (%esp)
  403c1b:	8d 05 a9 25 a7 98    	lea    0x98a725a9,%eax
  403c21:	2d 21 e3 64 98       	sub    $0x9864e321,%eax
  403c26:	50                   	push   %eax
  403c27:	8d 0d 97 25 a7 98    	lea    0x98a72597,%ecx
  403c2d:	81 e9 21 e3 64 98    	sub    $0x9864e321,%ecx
  403c33:	51                   	push   %ecx
  403c34:	a1 78 00 42 00       	mov    0x420078,%eax
  403c39:	ff d0                	call   *%eax
  403c3b:	85 c0                	test   %eax,%eax
  403c3d:	0f 85 cd 82 00 00    	jne    0x40bf10
  403c43:	83 0d 5e 41 42 00 41 	orl    $0x41,0x42415e
  403c4a:	b1 01                	mov    $0x1,%cl
  403c4c:	00 f9                	add    %bh,%cl
  403c4e:	29 0d 0f 40 42 00    	sub    %ecx,0x42400f
  403c54:	6a 0f                	push   $0xf
  403c56:	ff 0c 24             	decl   (%esp)
  403c59:	8d 05 a9 25 a7 98    	lea    0x98a725a9,%eax
  403c5f:	2d 21 e3 64 98       	sub    $0x9864e321,%eax
  403c64:	50                   	push   %eax
  403c65:	8d 05 97 25 a7 98    	lea    0x98a72597,%eax
  403c6b:	2d 21 e3 64 98       	sub    $0x9864e321,%eax
  403c70:	50                   	push   %eax
  403c71:	a1 78 00 42 00       	mov    0x420078,%eax
  403c76:	ff d0                	call   *%eax
  403c78:	85 c0                	test   %eax,%eax
  403c7a:	0f 85 90 82 00 00    	jne    0x40bf10
  403c80:	29 3d d2 41 42 00    	sub    %edi,0x4241d2
  403c86:	19 fb                	sbb    %edi,%ebx
  403c88:	83 15 35 41 42 00 1a 	adcl   $0x1a,0x424135
  403c8f:	83 e7 f3             	and    $0xfffffff3,%edi
  403c92:	8d 3d c6 25 a7 98    	lea    0x98a725c6,%edi
  403c98:	81 ef 21 e3 64 98    	sub    $0x9864e321,%edi
  403c9e:	57                   	push   %edi
  403c9f:	8d 3d b7 25 a7 98    	lea    0x98a725b7,%edi
  403ca5:	81 ef 21 e3 64 98    	sub    $0x9864e321,%edi
  403cab:	57                   	push   %edi
  403cac:	a1 84 00 42 00       	mov    0x420084,%eax
  403cb1:	ff d0                	call   *%eax
  403cb3:	13 1d 06 41 42 00    	adc    0x424106,%ebx
  403cb9:	81 1d b4 41 42 00 f9 	sbbl   $0xf9,0x4241b4
  403cc0:	00 00 00 
  403cc3:	c7 05 1c 40 42 00 50 	movl   $0x50,0x42401c
  403cca:	00 00 00 
  403ccd:	82 2d fe 40 42 00 19 	subb   $0x19,0x4240fe
  403cd4:	c7 05 0a 41 42 00 f6 	movl   $0xf6,0x42410a
  403cdb:	00 00 00 
  403cde:	6a 0f                	push   $0xf
  403ce0:	ff 0c 24             	decl   (%esp)
  403ce3:	8d 15 a9 25 a7 98    	lea    0x98a725a9,%edx
  403ce9:	81 ea 21 e3 64 98    	sub    $0x9864e321,%edx
  403cef:	52                   	push   %edx
  403cf0:	8d 1d 97 25 a7 98    	lea    0x98a72597,%ebx
  403cf6:	81 eb 21 e3 64 98    	sub    $0x9864e321,%ebx
  403cfc:	53                   	push   %ebx
  403cfd:	a1 78 00 42 00       	mov    0x420078,%eax
  403d02:	ff d0                	call   *%eax
  403d04:	85 c0                	test   %eax,%eax
  403d06:	0f 85 04 82 00 00    	jne    0x40bf10
  403d0c:	21 35 77 41 42 00    	and    %esi,0x424177
  403d12:	09 35 90 40 42 00    	or     %esi,0x424090
  403d18:	6a 0f                	push   $0xf
  403d1a:	ff 0c 24             	decl   (%esp)
  403d1d:	8d 05 a9 25 a7 98    	lea    0x98a725a9,%eax
  403d23:	2d 21 e3 64 98       	sub    $0x9864e321,%eax
  403d28:	50                   	push   %eax
  403d29:	8d 15 97 25 a7 98    	lea    0x98a72597,%edx
  403d2f:	81 ea 21 e3 64 98    	sub    $0x9864e321,%edx
  403d35:	52                   	push   %edx
  403d36:	a1 78 00 42 00       	mov    0x420078,%eax
  403d3b:	ff d0                	call   *%eax
  403d3d:	85 c0                	test   %eax,%eax
  403d3f:	0f 85 cb 81 00 00    	jne    0x40bf10
  403d45:	83 15 36 41 42 00 7c 	adcl   $0x7c,0x424136
  403d4c:	ba 01 00 00 00       	mov    $0x1,%edx
  403d51:	83 c2 3f             	add    $0x3f,%edx
  403d54:	83 d3 77             	adc    $0x77,%ebx
  403d57:	83 35 5e 40 42 00 0e 	xorl   $0xe,0x42405e
  403d5e:	29 1d ef 40 42 00    	sub    %ebx,0x4240ef
  403d64:	8d 35 c6 25 a7 98    	lea    0x98a725c6,%esi
  403d6a:	81 ee 21 e3 64 98    	sub    $0x9864e321,%esi
  403d70:	56                   	push   %esi
  403d71:	8d 35 b7 25 a7 98    	lea    0x98a725b7,%esi
  403d77:	81 ee 21 e3 64 98    	sub    $0x9864e321,%esi
  403d7d:	56                   	push   %esi
  403d7e:	a1 84 00 42 00       	mov    0x420084,%eax
  403d83:	ff d0                	call   *%eax
  403d85:	29 f6                	sub    %esi,%esi
  403d87:	ba 01 00 00 00       	mov    $0x1,%edx
  403d8c:	83 c2 1a             	add    $0x1a,%edx
  403d8f:	81 0d 54 41 42 00 bb 	orl    $0xbb,0x424154
  403d96:	00 00 00 
  403d99:	13 35 a7 40 42 00    	adc    0x4240a7,%esi
  403d9f:	13 1d 98 40 42 00    	adc    0x424098,%ebx
  403da5:	6a 0f                	push   $0xf
  403da7:	ff 0c 24             	decl   (%esp)
  403daa:	8d 15 a9 25 a7 98    	lea    0x98a725a9,%edx
  403db0:	81 ea 21 e3 64 98    	sub    $0x9864e321,%edx
  403db6:	52                   	push   %edx
  403db7:	8d 1d 97 25 a7 98    	lea    0x98a72597,%ebx
  403dbd:	81 eb 21 e3 64 98    	sub    $0x9864e321,%ebx
  403dc3:	53                   	push   %ebx
  403dc4:	a1 78 00 42 00       	mov    0x420078,%eax
  403dc9:	ff d0                	call   *%eax
  403dcb:	85 c0                	test   %eax,%eax
  403dcd:	0f 85 3d 81 00 00    	jne    0x40bf10
  403dd3:	ba 01 00 00 00       	mov    $0x1,%edx
  403dd8:	01 da                	add    %ebx,%edx
  403dda:	8d 15 c6 25 a7 98    	lea    0x98a725c6,%edx
  403de0:	81 ea 21 e3 64 98    	sub    $0x9864e321,%edx
  403de6:	52                   	push   %edx
  403de7:	8d 1d b7 25 a7 98    	lea    0x98a725b7,%ebx
  403ded:	81 eb 21 e3 64 98    	sub    $0x9864e321,%ebx
  403df3:	53                   	push   %ebx
  403df4:	a1 84 00 42 00       	mov    0x420084,%eax
  403df9:	ff d0                	call   *%eax
  403dfb:	b1 01                	mov    $0x1,%cl
  403dfd:	82 c1 3a             	add    $0x3a,%cl
  403e00:	2e e9 46 7c 00 00    	cs jmp 0x40ba4c
	...
  403e16:	83 35 4d 41 42 00 48 	xorl   $0x48,0x42414d
  403e1d:	11 1d 5a 41 42 00    	adc    %ebx,0x42415a
  403e23:	ba 01 00 00 00       	mov    $0x1,%edx
  403e28:	01 c2                	add    %eax,%edx
  403e2a:	8d 3d c6 25 a7 98    	lea    0x98a725c6,%edi
  403e30:	81 ef 21 e3 64 98    	sub    $0x9864e321,%edi
  403e36:	57                   	push   %edi
  403e37:	8d 35 b7 25 a7 98    	lea    0x98a725b7,%esi
  403e3d:	81 ee 21 e3 64 98    	sub    $0x9864e321,%esi
  403e43:	56                   	push   %esi
  403e44:	a1 84 00 42 00       	mov    0x420084,%eax
  403e49:	ff d0                	call   *%eax
  403e4b:	8d 1d c6 25 a7 98    	lea    0x98a725c6,%ebx
  403e51:	81 eb 21 e3 64 98    	sub    $0x9864e321,%ebx
  403e57:	53                   	push   %ebx
  403e58:	8d 05 b7 25 a7 98    	lea    0x98a725b7,%eax
  403e5e:	2d 21 e3 64 98       	sub    $0x9864e321,%eax
  403e63:	50                   	push   %eax
  403e64:	a1 84 00 42 00       	mov    0x420084,%eax
  403e69:	ff d0                	call   *%eax
  403e6b:	10 25 1a 40 42 00    	adc    %ah,0x42401a
  403e71:	13 05 23 40 42 00    	adc    0x424023,%eax
  403e77:	21 3d 0c 40 42 00    	and    %edi,0x42400c
  403e7d:	31 1d 22 41 42 00    	xor    %ebx,0x424122
  403e83:	13 35 74 40 42 00    	adc    0x424074,%esi
  403e89:	6a 0f                	push   $0xf
  403e8b:	ff 0c 24             	decl   (%esp)
  403e8e:	8d 1d a9 25 a7 98    	lea    0x98a725a9,%ebx
  403e94:	81 eb 21 e3 64 98    	sub    $0x9864e321,%ebx
  403e9a:	53                   	push   %ebx
  403e9b:	8d 15 97 25 a7 98    	lea    0x98a72597,%edx
  403ea1:	81 ea 21 e3 64 98    	sub    $0x9864e321,%edx
  403ea7:	52                   	push   %edx
  403ea8:	a1 78 00 42 00       	mov    0x420078,%eax
  403ead:	ff d0                	call   *%eax
  403eaf:	85 c0                	test   %eax,%eax
  403eb1:	0f 85 59 80 00 00    	jne    0x40bf10
  403eb7:	83 35 68 40 42 00 78 	xorl   $0x78,0x424068
  403ebe:	b2 01                	mov    $0x1,%dl
  403ec0:	00 da                	add    %bl,%dl
  403ec2:	b9 01 00 00 00       	mov    $0x1,%ecx
  403ec7:	13 0d 83 40 42 00    	adc    0x424083,%ecx
  403ecd:	13 1d 8b 41 42 00    	adc    0x42418b,%ebx
  403ed3:	82 c1 13             	add    $0x13,%cl
  403ed6:	8d 35 c6 25 a7 98    	lea    0x98a725c6,%esi
  403edc:	81 ee 21 e3 64 98    	sub    $0x9864e321,%esi
  403ee2:	56                   	push   %esi
  403ee3:	8d 35 b7 25 a7 98    	lea    0x98a725b7,%esi
  403ee9:	81 ee 21 e3 64 98    	sub    $0x9864e321,%esi
  403eef:	56                   	push   %esi
  403ef0:	a1 84 00 42 00       	mov    0x420084,%eax
  403ef5:	ff d0                	call   *%eax
  403ef7:	b9 01 00 00 00       	mov    $0x1,%ecx
  403efc:	83 c1 fe             	add    $0xfffffffe,%ecx
  403eff:	31 c1                	xor    %eax,%ecx
  403f01:	83 0d 9f 41 42 00 4b 	orl    $0x4b,0x42419f
  403f08:	81 0d 10 41 42 00 96 	orl    $0x96,0x424110
  403f0f:	00 00 00 
  403f12:	ba 01 00 00 00       	mov    $0x1,%edx
  403f17:	01 da                	add    %ebx,%edx
  403f19:	6a 0f                	push   $0xf
  403f1b:	ff 0c 24             	decl   (%esp)
  403f1e:	8d 3d a9 25 a7 98    	lea    0x98a725a9,%edi
  403f24:	81 ef 21 e3 64 98    	sub    $0x9864e321,%edi
  403f2a:	57                   	push   %edi
  403f2b:	8d 1d 97 25 a7 98    	lea    0x98a72597,%ebx
  403f31:	81 eb 21 e3 64 98    	sub    $0x9864e321,%ebx
  403f37:	53                   	push   %ebx
  403f38:	a1 78 00 42 00       	mov    0x420078,%eax
  403f3d:	ff d0                	call   *%eax
  403f3f:	85 c0                	test   %eax,%eax
  403f41:	0f 85 c9 7f 00 00    	jne    0x40bf10
  403f47:	82 2d c9 40 42 00 ea 	subb   $0xea,0x4240c9
  403f4e:	12 3d d7 40 42 00    	adc    0x4240d7,%bh
  403f54:	8d 05 c6 25 a7 98    	lea    0x98a725c6,%eax
  403f5a:	2d 21 e3 64 98       	sub    $0x9864e321,%eax
  403f5f:	50                   	push   %eax
  403f60:	8d 15 b7 25 a7 98    	lea    0x98a725b7,%edx
  403f66:	81 ea 21 e3 64 98    	sub    $0x9864e321,%edx
  403f6c:	52                   	push   %edx
  403f6d:	a1 84 00 42 00       	mov    0x420084,%eax
  403f72:	ff d0                	call   *%eax
  403f74:	6a 0f                	push   $0xf
  403f76:	ff 0c 24             	decl   (%esp)
  403f79:	8d 1d a9 25 a7 98    	lea    0x98a725a9,%ebx
  403f7f:	81 eb 21 e3 64 98    	sub    $0x9864e321,%ebx
  403f85:	53                   	push   %ebx
  403f86:	8d 3d 97 25 a7 98    	lea    0x98a72597,%edi
  403f8c:	81 ef 21 e3 64 98    	sub    $0x9864e321,%edi
  403f92:	57                   	push   %edi
  403f93:	a1 78 00 42 00       	mov    0x420078,%eax
  403f98:	ff d0                	call   *%eax
  403f9a:	83 f8 00             	cmp    $0x0,%eax
  403f9d:	0f 85 6d 7f 00 00    	jne    0x40bf10
  403fa3:	83 ef bb             	sub    $0xffffffbb,%edi
  403fa6:	83 15 f1 40 42 00 24 	adcl   $0x24,0x4240f1
  403fad:	01 1d a1 40 42 00    	add    %ebx,0x4240a1
  403fb3:	81 35 3c 40 42 00 88 	xorl   $0x88,0x42403c
  403fba:	00 00 00 
  403fbd:	12 25 e2 40 42 00    	adc    0x4240e2,%ah
  403fc3:	8d 15 c6 25 a7 98    	lea    0x98a725c6,%edx
  403fc9:	81 ea 21 e3 64 98    	sub    $0x9864e321,%edx
  403fcf:	52                   	push   %edx
  403fd0:	8d 15 b7 25 a7 98    	lea    0x98a725b7,%edx
  403fd6:	81 ea 21 e3 64 98    	sub    $0x9864e321,%edx
  403fdc:	52                   	push   %edx
  403fdd:	a1 84 00 42 00       	mov    0x420084,%eax
  403fe2:	ff d0                	call   *%eax
  403fe4:	ba 01 00 00 00       	mov    $0x1,%edx
  403fe9:	13 15 16 40 42 00    	adc    0x424016,%edx
  403fef:	83 ee cf             	sub    $0xffffffcf,%esi
  403ff2:	83 25 11 41 42 00 06 	andl   $0x6,0x424111
  403ff9:	83 15 8f 41 42 00 06 	adcl   $0x6,0x42418f
  404000:	6a 0f                	push   $0xf
  404002:	ff 0c 24             	decl   (%esp)
  404005:	8d 3d a9 25 a7 98    	lea    0x98a725a9,%edi
  40400b:	81 ef 21 e3 64 98    	sub    $0x9864e321,%edi
  404011:	57                   	push   %edi
  404012:	8d 15 97 25 a7 98    	lea    0x98a72597,%edx
  404018:	81 ea 21 e3 64 98    	sub    $0x9864e321,%edx
  40401e:	52                   	push   %edx
  40401f:	a1 78 00 42 00       	mov    0x420078,%eax
  404024:	ff d0                	call   *%eax
  404026:	85 c0                	test   %eax,%eax
  404028:	0f 85 e2 7e 00 00    	jne    0x40bf10
  40402e:	83 15 92 41 42 00 2e 	adcl   $0x2e,0x424192
  404035:	11 3d 55 40 42 00    	adc    %edi,0x424055
  40403b:	6a 0f                	push   $0xf
  40403d:	ff 0c 24             	decl   (%esp)
  404040:	8d 15 a9 25 a7 98    	lea    0x98a725a9,%edx
  404046:	81 ea 21 e3 64 98    	sub    $0x9864e321,%edx
  40404c:	52                   	push   %edx
  40404d:	8d 05 97 25 a7 98    	lea    0x98a72597,%eax
  404053:	2d 21 e3 64 98       	sub    $0x9864e321,%eax
  404058:	50                   	push   %eax
  404059:	a1 78 00 42 00       	mov    0x420078,%eax
  40405e:	ff d0                	call   *%eax
  404060:	83 f8 00             	cmp    $0x0,%eax
  404063:	0f 85 a7 7e 00 00    	jne    0x40bf10
  404069:	29 c6                	sub    %eax,%esi
  40406b:	83 0d 3e 40 42 00 16 	orl    $0x16,0x42403e
  404072:	81 15 e3 40 42 00 9c 	adcl   $0x9c,0x4240e3
  404079:	00 00 00 
  40407c:	00 e0                	add    %ah,%al
  40407e:	b9 01 00 00 00       	mov    $0x1,%ecx
  404083:	13 0d e6 40 42 00    	adc    0x4240e6,%ecx
  404089:	2e e9 bd 79 00 00    	cs jmp 0x40ba4c
  40408f:	09 3d 67 40 42 00    	or     %edi,0x424067
  404095:	30 fc                	xor    %bh,%ah
  404097:	00 00                	add    %al,(%eax)
  404099:	8d 05 c6 25 a7 98    	lea    0x98a725c6,%eax
  40409f:	2d 21 e3 64 98       	sub    $0x9864e321,%eax
  4040a4:	50                   	push   %eax
  4040a5:	8d 05 b7 25 a7 98    	lea    0x98a725b7,%eax
  4040ab:	2d 21 e3 64 98       	sub    $0x9864e321,%eax
  4040b0:	50                   	push   %eax
  4040b1:	a1 84 00 42 00       	mov    0x420084,%eax
  4040b6:	ff d0                	call   *%eax
  4040b8:	c7 05 07 40 42 00 bf 	movl   $0xbf,0x424007
  4040bf:	00 00 00 
  4040c2:	01 05 ed 41 42 00    	add    %eax,0x4241ed
  4040c8:	83 d3 9c             	adc    $0xffffff9c,%ebx
  4040cb:	6a 0f                	push   $0xf
  4040cd:	ff 0c 24             	decl   (%esp)
  4040d0:	8d 1d a9 25 a7 98    	lea    0x98a725a9,%ebx
  4040d6:	81 eb 21 e3 64 98    	sub    $0x9864e321,%ebx
  4040dc:	53                   	push   %ebx
  4040dd:	8d 3d 97 25 a7 98    	lea    0x98a72597,%edi
  4040e3:	81 ef 21 e3 64 98    	sub    $0x9864e321,%edi
  4040e9:	57                   	push   %edi
  4040ea:	a1 78 00 42 00       	mov    0x420078,%eax
  4040ef:	ff d0                	call   *%eax
  4040f1:	85 c0                	test   %eax,%eax
  4040f3:	0f 85 17 7e 00 00    	jne    0x40bf10
  4040f9:	8d 1d c6 25 a7 98    	lea    0x98a725c6,%ebx
  4040ff:	81 eb 21 e3 64 98    	sub    $0x9864e321,%ebx
  404105:	53                   	push   %ebx
  404106:	8d 35 b7 25 a7 98    	lea    0x98a725b7,%esi
  40410c:	81 ee 21 e3 64 98    	sub    $0x9864e321,%esi
  404112:	56                   	push   %esi
  404113:	a1 84 00 42 00       	mov    0x420084,%eax
  404118:	ff d0                	call   *%eax
  40411a:	6a 0f                	push   $0xf
  40411c:	ff 0c 24             	decl   (%esp)
  40411f:	8d 0d a9 25 a7 98    	lea    0x98a725a9,%ecx
  404125:	81 e9 21 e3 64 98    	sub    $0x9864e321,%ecx
  40412b:	51                   	push   %ecx
  40412c:	8d 1d 97 25 a7 98    	lea    0x98a72597,%ebx
  404132:	81 eb 21 e3 64 98    	sub    $0x9864e321,%ebx
  404138:	53                   	push   %ebx
  404139:	a1 78 00 42 00       	mov    0x420078,%eax
  40413e:	ff d0                	call   *%eax
  404140:	85 c0                	test   %eax,%eax
  404142:	0f 85 c8 7d 00 00    	jne    0x40bf10
  404148:	31 c6                	xor    %eax,%esi
  40414a:	ba 01 00 00 00       	mov    $0x1,%edx
  40414f:	01 c2                	add    %eax,%edx
  404151:	83 e0 c5             	and    $0xffffffc5,%eax
  404154:	83 c8 75             	or     $0x75,%eax
  404157:	8d 3d c6 25 a7 98    	lea    0x98a725c6,%edi
  40415d:	81 ef 21 e3 64 98    	sub    $0x9864e321,%edi
  404163:	57                   	push   %edi
  404164:	8d 05 b7 25 a7 98    	lea    0x98a725b7,%eax
  40416a:	2d 21 e3 64 98       	sub    $0x9864e321,%eax
  40416f:	50                   	push   %eax
  404170:	a1 84 00 42 00       	mov    0x420084,%eax
  404175:	ff d0                	call   *%eax
  404177:	21 3d c6 41 42 00    	and    %edi,0x4241c6
  40417d:	01 c7                	add    %eax,%edi
  40417f:	29 1d 54 40 42 00    	sub    %ebx,0x424054
  404185:	83 0d c5 41 42 00 34 	orl    $0x34,0x4241c5
  40418c:	6a 0f                	push   $0xf
  40418e:	ff 0c 24             	decl   (%esp)
  404191:	8d 0d a9 25 a7 98    	lea    0x98a725a9,%ecx
  404197:	81 e9 21 e3 64 98    	sub    $0x9864e321,%ecx
  40419d:	51                   	push   %ecx
  40419e:	8d 35 97 25 a7 98    	lea    0x98a72597,%esi
  4041a4:	81 ee 21 e3 64 98    	sub    $0x9864e321,%esi
  4041aa:	56                   	push   %esi
  4041ab:	a1 78 00 42 00       	mov    0x420078,%eax
  4041b0:	ff d0                	call   *%eax
  4041b2:	85 c0                	test   %eax,%eax
  4041b4:	0f 85 56 7d 00 00    	jne    0x40bf10
  4041ba:	b9 01 00 00 00       	mov    $0x1,%ecx
  4041bf:	83 c1 1b             	add    $0x1b,%ecx
  4041c2:	12 05 37 41 42 00    	adc    0x424137,%al
  4041c8:	09 35 f8 41 42 00    	or     %esi,0x4241f8
  4041ce:	8d 15 c6 25 a7 98    	lea    0x98a725c6,%edx
  4041d4:	81 ea 21 e3 64 98    	sub    $0x9864e321,%edx
  4041da:	52                   	push   %edx
  4041db:	8d 35 b7 25 a7 98    	lea    0x98a725b7,%esi
  4041e1:	81 ee 21 e3 64 98    	sub    $0x9864e321,%esi
  4041e7:	56                   	push   %esi
  4041e8:	a1 84 00 42 00       	mov    0x420084,%eax
  4041ed:	ff d0                	call   *%eax
  4041ef:	31 05 ce 41 42 00    	xor    %eax,0x4241ce
  4041f5:	83 15 da 41 42 00 3a 	adcl   $0x3a,0x4241da
  4041fc:	83 25 05 41 42 00 7d 	andl   $0x7d,0x424105
  404203:	83 c3 ef             	add    $0xffffffef,%ebx
  404206:	6a 0f                	push   $0xf
  404208:	ff 0c 24             	decl   (%esp)
  40420b:	8d 05 a9 25 a7 98    	lea    0x98a725a9,%eax
  404211:	2d 21 e3 64 98       	sub    $0x9864e321,%eax
  404216:	50                   	push   %eax
  404217:	8d 35 97 25 a7 98    	lea    0x98a72597,%esi
  40421d:	81 ee 21 e3 64 98    	sub    $0x9864e321,%esi
  404223:	56                   	push   %esi
  404224:	a1 78 00 42 00       	mov    0x420078,%eax
  404229:	ff d0                	call   *%eax
  40422b:	83 f8 00             	cmp    $0x0,%eax
  40422e:	0f 85 dc 7c 00 00    	jne    0x40bf10
  404234:	8d 3d c6 25 a7 98    	lea    0x98a725c6,%edi
  40423a:	81 ef 21 e3 64 98    	sub    $0x9864e321,%edi
  404240:	57                   	push   %edi
  404241:	8d 0d b7 25 a7 98    	lea    0x98a725b7,%ecx
  404247:	81 e9 21 e3 64 98    	sub    $0x9864e321,%ecx
  40424d:	51                   	push   %ecx
  40424e:	a1 84 00 42 00       	mov    0x420084,%eax
  404253:	ff d0                	call   *%eax
  404255:	83 c8 9d             	or     $0xffffff9d,%eax
  404258:	13 05 44 40 42 00    	adc    0x424044,%eax
  40425e:	ba 01 00 00 00       	mov    $0x1,%edx
  404263:	13 15 e0 40 42 00    	adc    0x4240e0,%edx
  404269:	8d 05 c6 25 a7 98    	lea    0x98a725c6,%eax
  40426f:	2d 21 e3 64 98       	sub    $0x9864e321,%eax
  404274:	50                   	push   %eax
  404275:	8d 3d b7 25 a7 98    	lea    0x98a725b7,%edi
  40427b:	81 ef 21 e3 64 98    	sub    $0x9864e321,%edi
  404281:	57                   	push   %edi
  404282:	a1 84 00 42 00       	mov    0x420084,%eax
  404287:	ff d0                	call   *%eax
  404289:	c7 05 92 40 42 00 1a 	movl   $0x1a,0x424092
  404290:	00 00 00 
  404293:	c7 05 96 40 42 00 9f 	movl   $0x9f,0x424096
  40429a:	00 00 00 
  40429d:	0b 35 4d 41 42 00    	or     0x42414d,%esi
  4042a3:	2e e9 a3 77 00 00    	cs jmp 0x40ba4c
  4042a9:	82 2d 80 40 42 00 c0 	subb   $0xc0,0x424080
	...
  4042b8:	09 05 0e 41 42 00    	or     %eax,0x42410e
  4042be:	82 c3 dc             	add    $0xdc,%bl
  4042c1:	19 f0                	sbb    %esi,%eax
  4042c3:	29 35 f6 40 42 00    	sub    %esi,0x4240f6
  4042c9:	01 d8                	add    %ebx,%eax
  4042cb:	8d 3d c6 25 a7 98    	lea    0x98a725c6,%edi
  4042d1:	81 ef 21 e3 64 98    	sub    $0x9864e321,%edi
  4042d7:	57                   	push   %edi
  4042d8:	8d 1d b7 25 a7 98    	lea    0x98a725b7,%ebx
  4042de:	81 eb 21 e3 64 98    	sub    $0x9864e321,%ebx
  4042e4:	53                   	push   %ebx
  4042e5:	a1 84 00 42 00       	mov    0x420084,%eax
  4042ea:	ff d0                	call   *%eax
  4042ec:	31 f6                	xor    %esi,%esi
  4042ee:	13 3d d9 40 42 00    	adc    0x4240d9,%edi
  4042f4:	81 1d 9d 41 42 00 c9 	sbbl   $0xc9,0x42419d
  4042fb:	00 00 00 
  4042fe:	2b 35 d0 40 42 00    	sub    0x4240d0,%esi
  404304:	31 35 08 40 42 00    	xor    %esi,0x424008
  40430a:	8d 15 c6 25 a7 98    	lea    0x98a725c6,%edx
  404310:	81 ea 21 e3 64 98    	sub    $0x9864e321,%edx
  404316:	52                   	push   %edx
  404317:	8d 1d b7 25 a7 98    	lea    0x98a725b7,%ebx
  40431d:	81 eb 21 e3 64 98    	sub    $0x9864e321,%ebx
  404323:	53                   	push   %ebx
  404324:	a1 84 00 42 00       	mov    0x420084,%eax
  404329:	ff d0                	call   *%eax
  40432b:	8d 35 c6 25 a7 98    	lea    0x98a725c6,%esi
  404331:	81 ee 21 e3 64 98    	sub    $0x9864e321,%esi
  404337:	56                   	push   %esi
  404338:	8d 1d b7 25 a7 98    	lea    0x98a725b7,%ebx
  40433e:	81 eb 21 e3 64 98    	sub    $0x9864e321,%ebx
  404344:	53                   	push   %ebx
  404345:	a1 84 00 42 00       	mov    0x420084,%eax
  40434a:	ff d0                	call   *%eax
  40434c:	ba 01 00 00 00       	mov    $0x1,%edx
  404351:	83 c2 84             	add    $0xffffff84,%edx
  404354:	31 1d 83 41 42 00    	xor    %ebx,0x424183
  40435a:	83 0d 62 41 42 00 02 	orl    $0x2,0x424162
  404361:	83 f7 ba             	xor    $0xffffffba,%edi
  404364:	29 05 53 40 42 00    	sub    %eax,0x424053
  40436a:	8d 15 c6 25 a7 98    	lea    0x98a725c6,%edx
  404370:	81 ea 21 e3 64 98    	sub    $0x9864e321,%edx
  404376:	52                   	push   %edx
  404377:	8d 05 b7 25 a7 98    	lea    0x98a725b7,%eax
  40437d:	2d 21 e3 64 98       	sub    $0x9864e321,%eax
  404382:	50                   	push   %eax
  404383:	a1 84 00 42 00       	mov    0x420084,%eax
  404388:	ff d0                	call   *%eax
  40438a:	81 35 99 40 42 00 d0 	xorl   $0xd0,0x424099
  404391:	00 00 00 
  404394:	81 25 2b 40 42 00 a2 	andl   $0xa2,0x42402b
  40439b:	00 00 00 
  40439e:	6a 0f                	push   $0xf
  4043a0:	ff 0c 24             	decl   (%esp)
  4043a3:	8d 1d a9 25 a7 98    	lea    0x98a725a9,%ebx
  4043a9:	81 eb 21 e3 64 98    	sub    $0x9864e321,%ebx
  4043af:	53                   	push   %ebx
  4043b0:	8d 0d 97 25 a7 98    	lea    0x98a72597,%ecx
  4043b6:	81 e9 21 e3 64 98    	sub    $0x9864e321,%ecx
  4043bc:	51                   	push   %ecx
  4043bd:	a1 78 00 42 00       	mov    0x420078,%eax
  4043c2:	ff d0                	call   *%eax
  4043c4:	83 f8 00             	cmp    $0x0,%eax
  4043c7:	0f 85 43 7b 00 00    	jne    0x40bf10
  4043cd:	b9 01 00 00 00       	mov    $0x1,%ecx
  4043d2:	83 c1 27             	add    $0x27,%ecx
  4043d5:	83 c9 46             	or     $0x46,%ecx
  4043d8:	01 c9                	add    %ecx,%ecx
  4043da:	31 cb                	xor    %ecx,%ebx
  4043dc:	6a 0f                	push   $0xf
  4043de:	ff 0c 24             	decl   (%esp)
  4043e1:	8d 3d a9 25 a7 98    	lea    0x98a725a9,%edi
  4043e7:	81 ef 21 e3 64 98    	sub    $0x9864e321,%edi
  4043ed:	57                   	push   %edi
  4043ee:	8d 15 97 25 a7 98    	lea    0x98a72597,%edx
  4043f4:	81 ea 21 e3 64 98    	sub    $0x9864e321,%edx
  4043fa:	52                   	push   %edx
  4043fb:	a1 78 00 42 00       	mov    0x420078,%eax
  404400:	ff d0                	call   *%eax
  404402:	83 f8 00             	cmp    $0x0,%eax
  404405:	0f 85 05 7b 00 00    	jne    0x40bf10
  40440b:	6a 0f                	push   $0xf
  40440d:	ff 0c 24             	decl   (%esp)
  404410:	8d 0d a9 25 a7 98    	lea    0x98a725a9,%ecx
  404416:	81 e9 21 e3 64 98    	sub    $0x9864e321,%ecx
  40441c:	51                   	push   %ecx
  40441d:	8d 15 97 25 a7 98    	lea    0x98a72597,%edx
  404423:	81 ea 21 e3 64 98    	sub    $0x9864e321,%edx
  404429:	52                   	push   %edx
  40442a:	a1 78 00 42 00       	mov    0x420078,%eax
  40442f:	ff d0                	call   *%eax
  404431:	83 f8 00             	cmp    $0x0,%eax
  404434:	0f 85 d6 7a 00 00    	jne    0x40bf10
  40443a:	6a 0f                	push   $0xf
  40443c:	ff 0c 24             	decl   (%esp)
  40443f:	8d 15 a9 25 a7 98    	lea    0x98a725a9,%edx
  404445:	81 ea 21 e3 64 98    	sub    $0x9864e321,%edx
  40444b:	52                   	push   %edx
  40444c:	8d 05 97 25 a7 98    	lea    0x98a72597,%eax
  404452:	2d 21 e3 64 98       	sub    $0x9864e321,%eax
  404457:	50                   	push   %eax
  404458:	a1 78 00 42 00       	mov    0x420078,%eax
  40445d:	ff d0                	call   *%eax
  40445f:	85 c0                	test   %eax,%eax
  404461:	0f 85 a9 7a 00 00    	jne    0x40bf10
  404467:	c7 05 3b 40 42 00 98 	movl   $0x98,0x42403b
  40446e:	00 00 00 
  404471:	31 3d 26 40 42 00    	xor    %edi,0x424026
  404477:	19 c6                	sbb    %eax,%esi
  404479:	81 25 a8 41 42 00 84 	andl   $0x84,0x4241a8
  404480:	00 00 00 
  404483:	83 cb 00             	or     $0x0,%ebx
  404486:	6a 0f                	push   $0xf
  404488:	ff 0c 24             	decl   (%esp)
  40448b:	8d 15 a9 25 a7 98    	lea    0x98a725a9,%edx
  404491:	81 ea 21 e3 64 98    	sub    $0x9864e321,%edx
  404497:	52                   	push   %edx
  404498:	8d 35 97 25 a7 98    	lea    0x98a72597,%esi
  40449e:	81 ee 21 e3 64 98    	sub    $0x9864e321,%esi
  4044a4:	56                   	push   %esi
  4044a5:	a1 78 00 42 00       	mov    0x420078,%eax
  4044aa:	ff d0                	call   *%eax
  4044ac:	83 f8 00             	cmp    $0x0,%eax
  4044af:	0f 85 5b 7a 00 00    	jne    0x40bf10
  4044b5:	c7 05 1d 41 42 00 08 	movl   $0x8,0x42411d
  4044bc:	00 00 00 
  4044bf:	29 c3                	sub    %eax,%ebx
  4044c1:	6a 0f                	push   $0xf
  4044c3:	ff 0c 24             	decl   (%esp)
  4044c6:	8d 15 a9 25 a7 98    	lea    0x98a725a9,%edx
  4044cc:	81 ea 21 e3 64 98    	sub    $0x9864e321,%edx
  4044d2:	52                   	push   %edx
  4044d3:	8d 0d 97 25 a7 98    	lea    0x98a72597,%ecx
  4044d9:	81 e9 21 e3 64 98    	sub    $0x9864e321,%ecx
  4044df:	51                   	push   %ecx
  4044e0:	a1 78 00 42 00       	mov    0x420078,%eax
  4044e5:	ff d0                	call   *%eax
  4044e7:	83 f8 00             	cmp    $0x0,%eax
  4044ea:	0f 85 20 7a 00 00    	jne    0x40bf10
  4044f0:	83 15 2b 41 42 00 0e 	adcl   $0xe,0x42412b
  4044f7:	2a 05 80 40 42 00    	sub    0x424080,%al
  4044fd:	ba 01 00 00 00       	mov    $0x1,%edx
  404502:	01 c2                	add    %eax,%edx
  404504:	83 1d eb 40 42 00 53 	sbbl   $0x53,0x4240eb
  40450b:	8d 35 c6 25 a7 98    	lea    0x98a725c6,%esi
  404511:	81 ee 21 e3 64 98    	sub    $0x9864e321,%esi
  404517:	56                   	push   %esi
  404518:	8d 1d b7 25 a7 98    	lea    0x98a725b7,%ebx
  40451e:	81 eb 21 e3 64 98    	sub    $0x9864e321,%ebx
  404524:	53                   	push   %ebx
  404525:	a1 84 00 42 00       	mov    0x420084,%eax
  40452a:	ff d0                	call   *%eax
  40452c:	81 1d 10 41 42 00 e2 	sbbl   $0xe2,0x424110
  404533:	00 00 00 
  404536:	01 fe                	add    %edi,%esi
  404538:	2e e9 0e 75 00 00    	cs jmp 0x40ba4c
  40453e:	00 00                	add    %al,(%eax)
  404540:	00 00                	add    %al,(%eax)
  404542:	00 00                	add    %al,(%eax)
  404544:	00 8d 05 c6 25 a7    	add    %cl,-0x58da39fb(%ebp)
  40454a:	98                   	cwtl
  40454b:	2d 21 e3 64 98       	sub    $0x9864e321,%eax
  404550:	50                   	push   %eax
  404551:	8d 35 b7 25 a7 98    	lea    0x98a725b7,%esi
  404557:	81 ee 21 e3 64 98    	sub    $0x9864e321,%esi
  40455d:	56                   	push   %esi
  40455e:	a1 84 00 42 00       	mov    0x420084,%eax
  404563:	ff d0                	call   *%eax
  404565:	29 3d aa 40 42 00    	sub    %edi,0x4240aa
  40456b:	0a 1d e9 40 42 00    	or     0x4240e9,%bl
  404571:	8d 15 c6 25 a7 98    	lea    0x98a725c6,%edx
  404577:	81 ea 21 e3 64 98    	sub    $0x9864e321,%edx
  40457d:	52                   	push   %edx
  40457e:	8d 1d b7 25 a7 98    	lea    0x98a725b7,%ebx
  404584:	81 eb 21 e3 64 98    	sub    $0x9864e321,%ebx
  40458a:	53                   	push   %ebx
  40458b:	a1 84 00 42 00       	mov    0x420084,%eax
  404590:	ff d0                	call   *%eax
  404592:	83 d7 97             	adc    $0xffffff97,%edi
  404595:	11 c7                	adc    %eax,%edi
  404597:	81 25 79 40 42 00 a4 	andl   $0xa4,0x424079
  40459e:	00 00 00 
  4045a1:	83 15 0d 40 42 00 3a 	adcl   $0x3a,0x42400d
  4045a8:	ba 01 00 00 00       	mov    $0x1,%edx
  4045ad:	13 15 96 41 42 00    	adc    0x424196,%edx
  4045b3:	6a 0f                	push   $0xf
  4045b5:	ff 0c 24             	decl   (%esp)
  4045b8:	8d 1d a9 25 a7 98    	lea    0x98a725a9,%ebx
  4045be:	81 eb 21 e3 64 98    	sub    $0x9864e321,%ebx
  4045c4:	53                   	push   %ebx
  4045c5:	8d 0d 97 25 a7 98    	lea    0x98a72597,%ecx
  4045cb:	81 e9 21 e3 64 98    	sub    $0x9864e321,%ecx
  4045d1:	51                   	push   %ecx
  4045d2:	a1 78 00 42 00       	mov    0x420078,%eax
  4045d7:	ff d0                	call   *%eax
  4045d9:	85 c0                	test   %eax,%eax
  4045db:	0f 85 2f 79 00 00    	jne    0x40bf10
  4045e1:	ba 01 00 00 00       	mov    $0x1,%edx
  4045e6:	01 c2                	add    %eax,%edx
  4045e8:	13 05 3d 40 42 00    	adc    0x42403d,%eax
  4045ee:	8d 1d c6 25 a7 98    	lea    0x98a725c6,%ebx
  4045f4:	81 eb 21 e3 64 98    	sub    $0x9864e321,%ebx
  4045fa:	53                   	push   %ebx
  4045fb:	8d 05 b7 25 a7 98    	lea    0x98a725b7,%eax
  404601:	2d 21 e3 64 98       	sub    $0x9864e321,%eax
  404606:	50                   	push   %eax
  404607:	a1 84 00 42 00       	mov    0x420084,%eax
  40460c:	ff d0                	call   *%eax
  40460e:	09 05 6a 41 42 00    	or     %eax,0x42416a
  404614:	ba 01 00 00 00       	mov    $0x1,%edx
  404619:	13 15 a2 40 42 00    	adc    0x4240a2,%edx
  40461f:	31 05 99 41 42 00    	xor    %eax,0x424199
  404625:	b5 01                	mov    $0x1,%ch
  404627:	00 f5                	add    %dh,%ch
  404629:	8d 05 c6 25 a7 98    	lea    0x98a725c6,%eax
  40462f:	2d 21 e3 64 98       	sub    $0x9864e321,%eax
  404634:	50                   	push   %eax
  404635:	8d 35 b7 25 a7 98    	lea    0x98a725b7,%esi
  40463b:	81 ee 21 e3 64 98    	sub    $0x9864e321,%esi
  404641:	56                   	push   %esi
  404642:	a1 84 00 42 00       	mov    0x420084,%eax
  404647:	ff d0                	call   *%eax
  404649:	01 f0                	add    %esi,%eax
  40464b:	ba 01 00 00 00       	mov    $0x1,%edx
  404650:	13 15 ab 41 42 00    	adc    0x4241ab,%edx
  404656:	6a 0f                	push   $0xf
  404658:	ff 0c 24             	decl   (%esp)
  40465b:	8d 0d a9 25 a7 98    	lea    0x98a725a9,%ecx
  404661:	81 e9 21 e3 64 98    	sub    $0x9864e321,%ecx
  404667:	51                   	push   %ecx
  404668:	8d 15 97 25 a7 98    	lea    0x98a72597,%edx
  40466e:	81 ea 21 e3 64 98    	sub    $0x9864e321,%edx
  404674:	52                   	push   %edx
  404675:	a1 78 00 42 00       	mov    0x420078,%eax
  40467a:	ff d0                	call   *%eax
  40467c:	83 f8 00             	cmp    $0x0,%eax
  40467f:	0f 85 8b 78 00 00    	jne    0x40bf10
  404685:	83 d6 7b             	adc    $0x7b,%esi
  404688:	83 35 1f 40 42 00 7f 	xorl   $0x7f,0x42401f
  40468f:	6a 0f                	push   $0xf
  404691:	ff 0c 24             	decl   (%esp)
  404694:	8d 05 a9 25 a7 98    	lea    0x98a725a9,%eax
  40469a:	2d 21 e3 64 98       	sub    $0x9864e321,%eax
  40469f:	50                   	push   %eax
  4046a0:	8d 3d 97 25 a7 98    	lea    0x98a72597,%edi
  4046a6:	81 ef 21 e3 64 98    	sub    $0x9864e321,%edi
  4046ac:	57                   	push   %edi
  4046ad:	a1 78 00 42 00       	mov    0x420078,%eax
  4046b2:	ff d0                	call   *%eax
  4046b4:	85 c0                	test   %eax,%eax
  4046b6:	0f 85 54 78 00 00    	jne    0x40bf10
  4046bc:	b9 01 00 00 00       	mov    $0x1,%ecx
  4046c1:	83 c1 08             	add    $0x8,%ecx
  4046c4:	8d 0d c6 25 a7 98    	lea    0x98a725c6,%ecx
  4046ca:	81 e9 21 e3 64 98    	sub    $0x9864e321,%ecx
  4046d0:	51                   	push   %ecx
  4046d1:	8d 0d b7 25 a7 98    	lea    0x98a725b7,%ecx
  4046d7:	81 e9 21 e3 64 98    	sub    $0x9864e321,%ecx
  4046dd:	51                   	push   %ecx
  4046de:	a1 84 00 42 00       	mov    0x420084,%eax
  4046e3:	ff d0                	call   *%eax
  4046e5:	8d 1d c6 25 a7 98    	lea    0x98a725c6,%ebx
  4046eb:	81 eb 21 e3 64 98    	sub    $0x9864e321,%ebx
  4046f1:	53                   	push   %ebx
  4046f2:	8d 1d b7 25 a7 98    	lea    0x98a725b7,%ebx
  4046f8:	81 eb 21 e3 64 98    	sub    $0x9864e321,%ebx
  4046fe:	53                   	push   %ebx
  4046ff:	a1 84 00 42 00       	mov    0x420084,%eax
  404704:	ff d0                	call   *%eax
  404706:	c7 05 4b 40 42 00 f0 	movl   $0xf0,0x42404b
  40470d:	00 00 00 
  404710:	8d 0d c6 25 a7 98    	lea    0x98a725c6,%ecx
  404716:	81 e9 21 e3 64 98    	sub    $0x9864e321,%ecx
  40471c:	51                   	push   %ecx
  40471d:	8d 35 b7 25 a7 98    	lea    0x98a725b7,%esi
  404723:	81 ee 21 e3 64 98    	sub    $0x9864e321,%esi
  404729:	56                   	push   %esi
  40472a:	a1 84 00 42 00       	mov    0x420084,%eax
  40472f:	ff d0                	call   *%eax
  404731:	2e e9 15 73 00 00    	cs jmp 0x40ba4c
  404737:	ba 01 00 00 00       	mov    $0x1,%edx
  40473c:	83 c2 ca             	add    $0xffffffca,%edx
  40473f:	01 1d 80 41 42 00    	add    %ebx,0x424180
  404745:	00 ba 01 00 00 00    	add    %bh,0x1(%edx)
  40474b:	01 da                	add    %ebx,%edx
  40474d:	31 c7                	xor    %eax,%edi
  40474f:	11 db                	adc    %ebx,%ebx
  404751:	83 1d ac 41 42 00 77 	sbbl   $0x77,0x4241ac
  404758:	6a 0f                	push   $0xf
  40475a:	ff 0c 24             	decl   (%esp)
  40475d:	8d 1d a9 25 a7 98    	lea    0x98a725a9,%ebx
  404763:	81 eb 21 e3 64 98    	sub    $0x9864e321,%ebx
  404769:	53                   	push   %ebx
  40476a:	8d 15 97 25 a7 98    	lea    0x98a72597,%edx
  404770:	81 ea 21 e3 64 98    	sub    $0x9864e321,%edx
  404776:	52                   	push   %edx
  404777:	a1 78 00 42 00       	mov    0x420078,%eax
  40477c:	ff d0                	call   *%eax
  40477e:	83 f8 00             	cmp    $0x0,%eax
  404781:	0f 85 89 77 00 00    	jne    0x40bf10
  404787:	31 c7                	xor    %eax,%edi
  404789:	8d 05 c6 25 a7 98    	lea    0x98a725c6,%eax
  40478f:	2d 21 e3 64 98       	sub    $0x9864e321,%eax
  404794:	50                   	push   %eax
  404795:	8d 15 b7 25 a7 98    	lea    0x98a725b7,%edx
  40479b:	81 ea 21 e3 64 98    	sub    $0x9864e321,%edx
  4047a1:	52                   	push   %edx
  4047a2:	a1 84 00 42 00       	mov    0x420084,%eax
  4047a7:	ff d0                	call   *%eax
  4047a9:	83 cf 97             	or     $0xffffff97,%edi
  4047ac:	11 05 07 41 42 00    	adc    %eax,0x424107
  4047b2:	14 b3                	adc    $0xb3,%al
  4047b4:	8d 05 c6 25 a7 98    	lea    0x98a725c6,%eax
  4047ba:	2d 21 e3 64 98       	sub    $0x9864e321,%eax
  4047bf:	50                   	push   %eax
  4047c0:	8d 05 b7 25 a7 98    	lea    0x98a725b7,%eax
  4047c6:	2d 21 e3 64 98       	sub    $0x9864e321,%eax
  4047cb:	50                   	push   %eax
  4047cc:	a1 84 00 42 00       	mov    0x420084,%eax
  4047d1:	ff d0                	call   *%eax
  4047d3:	81 35 22 41 42 00 93 	xorl   $0x93,0x424122
  4047da:	00 00 00 
  4047dd:	81 35 94 41 42 00 c2 	xorl   $0xc2,0x424194
  4047e4:	00 00 00 
  4047e7:	10 25 c9 40 42 00    	adc    %ah,0x4240c9
  4047ed:	8d 0d c6 25 a7 98    	lea    0x98a725c6,%ecx
  4047f3:	81 e9 21 e3 64 98    	sub    $0x9864e321,%ecx
  4047f9:	51                   	push   %ecx
  4047fa:	8d 0d b7 25 a7 98    	lea    0x98a725b7,%ecx
  404800:	81 e9 21 e3 64 98    	sub    $0x9864e321,%ecx
  404806:	51                   	push   %ecx
  404807:	a1 84 00 42 00       	mov    0x420084,%eax
  40480c:	ff d0                	call   *%eax
  40480e:	81 25 32 41 42 00 e4 	andl   $0xe4,0x424132
  404815:	00 00 00 
  404818:	83 c7 8a             	add    $0xffffff8a,%edi
  40481b:	83 25 22 41 42 00 50 	andl   $0x50,0x424122
  404822:	8d 15 c6 25 a7 98    	lea    0x98a725c6,%edx
  404828:	81 ea 21 e3 64 98    	sub    $0x9864e321,%edx
  40482e:	52                   	push   %edx
  40482f:	8d 05 b7 25 a7 98    	lea    0x98a725b7,%eax
  404835:	2d 21 e3 64 98       	sub    $0x9864e321,%eax
  40483a:	50                   	push   %eax
  40483b:	a1 84 00 42 00       	mov    0x420084,%eax
  404840:	ff d0                	call   *%eax
  404842:	01 1d 9a 41 42 00    	add    %ebx,0x42419a
  404848:	8d 15 c6 25 a7 98    	lea    0x98a725c6,%edx
  40484e:	81 ea 21 e3 64 98    	sub    $0x9864e321,%edx
  404854:	52                   	push   %edx
  404855:	8d 15 b7 25 a7 98    	lea    0x98a725b7,%edx
  40485b:	81 ea 21 e3 64 98    	sub    $0x9864e321,%edx
  404861:	52                   	push   %edx
  404862:	a1 84 00 42 00       	mov    0x420084,%eax
  404867:	ff d0                	call   *%eax
  404869:	82 e3 1f             	and    $0x1f,%bl
  40486c:	6a 0f                	push   $0xf
  40486e:	ff 0c 24             	decl   (%esp)
  404871:	8d 1d a9 25 a7 98    	lea    0x98a725a9,%ebx
  404877:	81 eb 21 e3 64 98    	sub    $0x9864e321,%ebx
  40487d:	53                   	push   %ebx
  40487e:	8d 0d 97 25 a7 98    	lea    0x98a72597,%ecx
  404884:	81 e9 21 e3 64 98    	sub    $0x9864e321,%ecx
  40488a:	51                   	push   %ecx
  40488b:	a1 78 00 42 00       	mov    0x420078,%eax
  404890:	ff d0                	call   *%eax
  404892:	83 f8 00             	cmp    $0x0,%eax
  404895:	0f 85 75 76 00 00    	jne    0x40bf10
  40489b:	31 ff                	xor    %edi,%edi
  40489d:	09 05 57 41 42 00    	or     %eax,0x424157
  4048a3:	ba 01 00 00 00       	mov    $0x1,%edx
  4048a8:	13 15 87 41 42 00    	adc    0x424187,%edx
  4048ae:	12 35 e5 41 42 00    	adc    0x4241e5,%dh
  4048b4:	19 fb                	sbb    %edi,%ebx
  4048b6:	8d 35 c6 25 a7 98    	lea    0x98a725c6,%esi
  4048bc:	81 ee 21 e3 64 98    	sub    $0x9864e321,%esi
  4048c2:	56                   	push   %esi
  4048c3:	8d 15 b7 25 a7 98    	lea    0x98a725b7,%edx
  4048c9:	81 ea 21 e3 64 98    	sub    $0x9864e321,%edx
  4048cf:	52                   	push   %edx
  4048d0:	a1 84 00 42 00       	mov    0x420084,%eax
  4048d5:	ff d0                	call   *%eax
  4048d7:	b9 01 00 00 00       	mov    $0x1,%ecx
  4048dc:	83 c1 53             	add    $0x53,%ecx
  4048df:	09 3d 1a 40 42 00    	or     %edi,0x42401a
  4048e5:	c7 05 b8 41 42 00 53 	movl   $0x53,0x4241b8
  4048ec:	00 00 00 
  4048ef:	83 f1 29             	xor    $0x29,%ecx
  4048f2:	81 1d 79 41 42 00 98 	sbbl   $0x98,0x424179
  4048f9:	00 00 00 
  4048fc:	8d 3d c6 25 a7 98    	lea    0x98a725c6,%edi
  404902:	81 ef 21 e3 64 98    	sub    $0x9864e321,%edi
  404908:	57                   	push   %edi
  404909:	8d 0d b7 25 a7 98    	lea    0x98a725b7,%ecx
  40490f:	81 e9 21 e3 64 98    	sub    $0x9864e321,%ecx
  404915:	51                   	push   %ecx
  404916:	a1 84 00 42 00       	mov    0x420084,%eax
  40491b:	ff d0                	call   *%eax
  40491d:	ba 01 00 00 00       	mov    $0x1,%edx
  404922:	83 c2 d0             	add    $0xffffffd0,%edx
  404925:	b9 01 00 00 00       	mov    $0x1,%ecx
  40492a:	83 c1 b8             	add    $0xffffffb8,%ecx
  40492d:	81 0d c1 41 42 00 fc 	orl    $0xfc,0x4241c1
  404934:	00 00 00 
  404937:	82 da 65             	sbb    $0x65,%dl
  40493a:	8d 05 c6 25 a7 98    	lea    0x98a725c6,%eax
  404940:	2d 21 e3 64 98       	sub    $0x9864e321,%eax
  404945:	50                   	push   %eax
  404946:	8d 05 b7 25 a7 98    	lea    0x98a725b7,%eax
  40494c:	2d 21 e3 64 98       	sub    $0x9864e321,%eax
  404951:	50                   	push   %eax
  404952:	a1 84 00 42 00       	mov    0x420084,%eax
  404957:	ff d0                	call   *%eax
  404959:	13 3d d0 40 42 00    	adc    0x4240d0,%edi
  40495f:	83 f7 dd             	xor    $0xffffffdd,%edi
  404962:	83 25 8d 40 42 00 22 	andl   $0x22,0x42408d
  404969:	8d 3d c6 25 a7 98    	lea    0x98a725c6,%edi
  40496f:	81 ef 21 e3 64 98    	sub    $0x9864e321,%edi
  404975:	57                   	push   %edi
  404976:	8d 05 b7 25 a7 98    	lea    0x98a725b7,%eax
  40497c:	2d 21 e3 64 98       	sub    $0x9864e321,%eax
  404981:	50                   	push   %eax
  404982:	a1 84 00 42 00       	mov    0x420084,%eax
  404987:	ff d0                	call   *%eax
  404989:	8d 05 c6 25 a7 98    	lea    0x98a725c6,%eax
  40498f:	2d 21 e3 64 98       	sub    $0x9864e321,%eax
  404994:	50                   	push   %eax
  404995:	8d 1d b7 25 a7 98    	lea    0x98a725b7,%ebx
  40499b:	81 eb 21 e3 64 98    	sub    $0x9864e321,%ebx
  4049a1:	53                   	push   %ebx
  4049a2:	a1 84 00 42 00       	mov    0x420084,%eax
  4049a7:	ff d0                	call   *%eax
  4049a9:	2e e9 9d 70 00 00    	cs jmp 0x40ba4c
  4049af:	31 c7                	xor    %eax,%edi
  4049b1:	ba 01 00 00 00       	mov    $0x1,%edx
  4049b6:	01 fa                	add    %edi,%edx
  4049b8:	00 00                	add    %al,(%eax)
  4049ba:	00 31                	add    %dh,(%ecx)
  4049bc:	c3                   	ret
  4049bd:	83 f7 aa             	xor    $0xffffffaa,%edi
  4049c0:	82 2d 3b 40 42 00 24 	subb   $0x24,0x42403b
  4049c7:	12 05 97 41 42 00    	adc    0x424197,%al
  4049cd:	13 05 53 41 42 00    	adc    0x424153,%eax
  4049d3:	8d 1d c6 25 a7 98    	lea    0x98a725c6,%ebx
  4049d9:	81 eb 21 e3 64 98    	sub    $0x9864e321,%ebx
  4049df:	53                   	push   %ebx
  4049e0:	8d 0d b7 25 a7 98    	lea    0x98a725b7,%ecx
  4049e6:	81 e9 21 e3 64 98    	sub    $0x9864e321,%ecx
  4049ec:	51                   	push   %ecx
  4049ed:	a1 84 00 42 00       	mov    0x420084,%eax
  4049f2:	ff d0                	call   *%eax
  4049f4:	31 ff                	xor    %edi,%edi
  4049f6:	28 05 91 40 42 00    	sub    %al,0x424091
  4049fc:	31 f7                	xor    %esi,%edi
  4049fe:	8d 0d c6 25 a7 98    	lea    0x98a725c6,%ecx
  404a04:	81 e9 21 e3 64 98    	sub    $0x9864e321,%ecx
  404a0a:	51                   	push   %ecx
  404a0b:	8d 1d b7 25 a7 98    	lea    0x98a725b7,%ebx
  404a11:	81 eb 21 e3 64 98    	sub    $0x9864e321,%ebx
  404a17:	53                   	push   %ebx
  404a18:	a1 84 00 42 00       	mov    0x420084,%eax
  404a1d:	ff d0                	call   *%eax
  404a1f:	83 d3 98             	adc    $0xffffff98,%ebx
  404a22:	8d 1d c6 25 a7 98    	lea    0x98a725c6,%ebx
  404a28:	81 eb 21 e3 64 98    	sub    $0x9864e321,%ebx
  404a2e:	53                   	push   %ebx
  404a2f:	8d 0d b7 25 a7 98    	lea    0x98a725b7,%ecx
  404a35:	81 e9 21 e3 64 98    	sub    $0x9864e321,%ecx
  404a3b:	51                   	push   %ecx
  404a3c:	a1 84 00 42 00       	mov    0x420084,%eax
  404a41:	ff d0                	call   *%eax
  404a43:	ba 01 00 00 00       	mov    $0x1,%edx
  404a48:	83 c2 99             	add    $0xffffff99,%edx
  404a4b:	2b 15 85 40 42 00    	sub    0x424085,%edx
  404a51:	8d 15 c6 25 a7 98    	lea    0x98a725c6,%edx
  404a57:	81 ea 21 e3 64 98    	sub    $0x9864e321,%edx
  404a5d:	52                   	push   %edx
  404a5e:	8d 1d b7 25 a7 98    	lea    0x98a725b7,%ebx
  404a64:	81 eb 21 e3 64 98    	sub    $0x9864e321,%ebx
  404a6a:	53                   	push   %ebx
  404a6b:	a1 84 00 42 00       	mov    0x420084,%eax
  404a70:	ff d0                	call   *%eax
  404a72:	01 35 cf 41 42 00    	add    %esi,0x4241cf
  404a78:	8d 0d c6 25 a7 98    	lea    0x98a725c6,%ecx
  404a7e:	81 e9 21 e3 64 98    	sub    $0x9864e321,%ecx
  404a84:	51                   	push   %ecx
  404a85:	8d 1d b7 25 a7 98    	lea    0x98a725b7,%ebx
  404a8b:	81 eb 21 e3 64 98    	sub    $0x9864e321,%ebx
  404a91:	53                   	push   %ebx
  404a92:	a1 84 00 42 00       	mov    0x420084,%eax
  404a97:	ff d0                	call   *%eax
  404a99:	6a 0f                	push   $0xf
  404a9b:	ff 0c 24             	decl   (%esp)
  404a9e:	8d 05 a9 25 a7 98    	lea    0x98a725a9,%eax
  404aa4:	2d 21 e3 64 98       	sub    $0x9864e321,%eax
  404aa9:	50                   	push   %eax
  404aaa:	8d 3d 97 25 a7 98    	lea    0x98a72597,%edi
  404ab0:	81 ef 21 e3 64 98    	sub    $0x9864e321,%edi
  404ab6:	57                   	push   %edi
  404ab7:	a1 78 00 42 00       	mov    0x420078,%eax
  404abc:	ff d0                	call   *%eax
  404abe:	83 f8 00             	cmp    $0x0,%eax
  404ac1:	0f 85 49 74 00 00    	jne    0x40bf10
  404ac7:	29 3d 86 41 42 00    	sub    %edi,0x424186
  404acd:	8d 3d c6 25 a7 98    	lea    0x98a725c6,%edi
  404ad3:	81 ef 21 e3 64 98    	sub    $0x9864e321,%edi
  404ad9:	57                   	push   %edi
  404ada:	8d 15 b7 25 a7 98    	lea    0x98a725b7,%edx
  404ae0:	81 ea 21 e3 64 98    	sub    $0x9864e321,%edx
  404ae6:	52                   	push   %edx
  404ae7:	a1 84 00 42 00       	mov    0x420084,%eax
  404aec:	ff d0                	call   *%eax
  404aee:	83 c3 d5             	add    $0xffffffd5,%ebx
  404af1:	b9 01 00 00 00       	mov    $0x1,%ecx
  404af6:	13 0d 6c 40 42 00    	adc    0x42406c,%ecx
  404afc:	2b 1d 1f 40 42 00    	sub    0x42401f,%ebx
  404b02:	8d 0d c6 25 a7 98    	lea    0x98a725c6,%ecx
  404b08:	81 e9 21 e3 64 98    	sub    $0x9864e321,%ecx
  404b0e:	51                   	push   %ecx
  404b0f:	8d 1d b7 25 a7 98    	lea    0x98a725b7,%ebx
  404b15:	81 eb 21 e3 64 98    	sub    $0x9864e321,%ebx
  404b1b:	53                   	push   %ebx
  404b1c:	a1 84 00 42 00       	mov    0x420084,%eax
  404b21:	ff d0                	call   *%eax
  404b23:	00 c0                	add    %al,%al
  404b25:	b9 01 00 00 00       	mov    $0x1,%ecx
  404b2a:	83 c1 12             	add    $0x12,%ecx
  404b2d:	6a 0f                	push   $0xf
  404b2f:	ff 0c 24             	decl   (%esp)
  404b32:	8d 3d a9 25 a7 98    	lea    0x98a725a9,%edi
  404b38:	81 ef 21 e3 64 98    	sub    $0x9864e321,%edi
  404b3e:	57                   	push   %edi
  404b3f:	8d 35 97 25 a7 98    	lea    0x98a72597,%esi
  404b45:	81 ee 21 e3 64 98    	sub    $0x9864e321,%esi
  404b4b:	56                   	push   %esi
  404b4c:	a1 78 00 42 00       	mov    0x420078,%eax
  404b51:	ff d0                	call   *%eax
  404b53:	83 f8 00             	cmp    $0x0,%eax
  404b56:	0f 85 b4 73 00 00    	jne    0x40bf10
  404b5c:	83 e3 6a             	and    $0x6a,%ebx
  404b5f:	8d 0d c6 25 a7 98    	lea    0x98a725c6,%ecx
  404b65:	81 e9 21 e3 64 98    	sub    $0x9864e321,%ecx
  404b6b:	51                   	push   %ecx
  404b6c:	8d 3d b7 25 a7 98    	lea    0x98a725b7,%edi
  404b72:	81 ef 21 e3 64 98    	sub    $0x9864e321,%edi
  404b78:	57                   	push   %edi
  404b79:	a1 84 00 42 00       	mov    0x420084,%eax
  404b7e:	ff d0                	call   *%eax
  404b80:	83 25 df 41 42 00 32 	andl   $0x32,0x4241df
  404b87:	2e e9 bf 6e 00 00    	cs jmp 0x40ba4c
  404b8d:	83 25 26 40 42 00 7f 	andl   $0x7f,0x424026
	...
  404b9c:	00 00                	add    %al,(%eax)
  404b9e:	83 c8 99             	or     $0xffffff99,%eax
  404ba1:	0b 35 4a 40 42 00    	or     0x42404a,%esi
  404ba7:	b9 01 00 00 00       	mov    $0x1,%ecx
  404bac:	83 c1 ae             	add    $0xffffffae,%ecx
  404baf:	6a 0f                	push   $0xf
  404bb1:	ff 0c 24             	decl   (%esp)
  404bb4:	8d 1d a9 25 a7 98    	lea    0x98a725a9,%ebx
  404bba:	81 eb 21 e3 64 98    	sub    $0x9864e321,%ebx
  404bc0:	53                   	push   %ebx
  404bc1:	8d 05 97 25 a7 98    	lea    0x98a72597,%eax
  404bc7:	2d 21 e3 64 98       	sub    $0x9864e321,%eax
  404bcc:	50                   	push   %eax
  404bcd:	a1 78 00 42 00       	mov    0x420078,%eax
  404bd2:	ff d0                	call   *%eax
  404bd4:	83 f8 00             	cmp    $0x0,%eax
  404bd7:	0f 85 33 73 00 00    	jne    0x40bf10
  404bdd:	0b 35 21 40 42 00    	or     0x424021,%esi
  404be3:	83 ef ac             	sub    $0xffffffac,%edi
  404be6:	b9 01 00 00 00       	mov    $0x1,%ecx
  404beb:	01 f9                	add    %edi,%ecx
  404bed:	8d 15 c6 25 a7 98    	lea    0x98a725c6,%edx
  404bf3:	81 ea 21 e3 64 98    	sub    $0x9864e321,%edx
  404bf9:	52                   	push   %edx
  404bfa:	8d 3d b7 25 a7 98    	lea    0x98a725b7,%edi
  404c00:	81 ef 21 e3 64 98    	sub    $0x9864e321,%edi
  404c06:	57                   	push   %edi
  404c07:	a1 84 00 42 00       	mov    0x420084,%eax
  404c0c:	ff d0                	call   *%eax
  404c0e:	2b 1d 67 40 42 00    	sub    0x424067,%ebx
  404c14:	8d 05 c6 25 a7 98    	lea    0x98a725c6,%eax
  404c1a:	2d 21 e3 64 98       	sub    $0x9864e321,%eax
  404c1f:	50                   	push   %eax
  404c20:	8d 1d b7 25 a7 98    	lea    0x98a725b7,%ebx
  404c26:	81 eb 21 e3 64 98    	sub    $0x9864e321,%ebx
  404c2c:	53                   	push   %ebx
  404c2d:	a1 84 00 42 00       	mov    0x420084,%eax
  404c32:	ff d0                	call   *%eax
  404c34:	8d 1d c6 25 a7 98    	lea    0x98a725c6,%ebx
  404c3a:	81 eb 21 e3 64 98    	sub    $0x9864e321,%ebx
  404c40:	53                   	push   %ebx
  404c41:	8d 1d b7 25 a7 98    	lea    0x98a725b7,%ebx
  404c47:	81 eb 21 e3 64 98    	sub    $0x9864e321,%ebx
  404c4d:	53                   	push   %ebx
  404c4e:	a1 84 00 42 00       	mov    0x420084,%eax
  404c53:	ff d0                	call   *%eax
  404c55:	b9 01 00 00 00       	mov    $0x1,%ecx
  404c5a:	83 c1 d2             	add    $0xffffffd2,%ecx
  404c5d:	83 d7 33             	adc    $0x33,%edi
  404c60:	83 e3 51             	and    $0x51,%ebx
  404c63:	19 f6                	sbb    %esi,%esi
  404c65:	8d 05 c6 25 a7 98    	lea    0x98a725c6,%eax
  404c6b:	2d 21 e3 64 98       	sub    $0x9864e321,%eax
  404c70:	50                   	push   %eax
  404c71:	8d 35 b7 25 a7 98    	lea    0x98a725b7,%esi
  404c77:	81 ee 21 e3 64 98    	sub    $0x9864e321,%esi
  404c7d:	56                   	push   %esi
  404c7e:	a1 84 00 42 00       	mov    0x420084,%eax
  404c83:	ff d0                	call   *%eax
  404c85:	19 c7                	sbb    %eax,%edi
  404c87:	83 35 60 40 42 00 69 	xorl   $0x69,0x424060
  404c8e:	83 15 fc 40 42 00 7b 	adcl   $0x7b,0x4240fc
  404c95:	c7 05 64 41 42 00 62 	movl   $0x62,0x424164
  404c9c:	00 00 00 
  404c9f:	31 c6                	xor    %eax,%esi
  404ca1:	8d 05 c6 25 a7 98    	lea    0x98a725c6,%eax
  404ca7:	2d 21 e3 64 98       	sub    $0x9864e321,%eax
  404cac:	50                   	push   %eax
  404cad:	8d 05 b7 25 a7 98    	lea    0x98a725b7,%eax
  404cb3:	2d 21 e3 64 98       	sub    $0x9864e321,%eax
  404cb8:	50                   	push   %eax
  404cb9:	a1 84 00 42 00       	mov    0x420084,%eax
  404cbe:	ff d0                	call   *%eax
  404cc0:	83 c8 67             	or     $0x67,%eax
  404cc3:	01 d8                	add    %ebx,%eax
  404cc5:	8d 05 c6 25 a7 98    	lea    0x98a725c6,%eax
  404ccb:	2d 21 e3 64 98       	sub    $0x9864e321,%eax
  404cd0:	50                   	push   %eax
  404cd1:	8d 1d b7 25 a7 98    	lea    0x98a725b7,%ebx
  404cd7:	81 eb 21 e3 64 98    	sub    $0x9864e321,%ebx
  404cdd:	53                   	push   %ebx
  404cde:	a1 84 00 42 00       	mov    0x420084,%eax
  404ce3:	ff d0                	call   *%eax
  404ce5:	83 15 d8 41 42 00 3a 	adcl   $0x3a,0x4241d8
  404cec:	31 df                	xor    %ebx,%edi
  404cee:	21 1d 8b 41 42 00    	and    %ebx,0x42418b
  404cf4:	81 0d c0 41 42 00 98 	orl    $0x98,0x4241c0
  404cfb:	00 00 00 
  404cfe:	28 3d 07 41 42 00    	sub    %bh,0x424107
  404d04:	6a 0f                	push   $0xf
  404d06:	ff 0c 24             	decl   (%esp)
  404d09:	8d 0d a9 25 a7 98    	lea    0x98a725a9,%ecx
  404d0f:	81 e9 21 e3 64 98    	sub    $0x9864e321,%ecx
  404d15:	51                   	push   %ecx
  404d16:	8d 3d 97 25 a7 98    	lea    0x98a72597,%edi
  404d1c:	81 ef 21 e3 64 98    	sub    $0x9864e321,%edi
  404d22:	57                   	push   %edi
  404d23:	a1 78 00 42 00       	mov    0x420078,%eax
  404d28:	ff d0                	call   *%eax
  404d2a:	85 c0                	test   %eax,%eax
  404d2c:	0f 85 de 71 00 00    	jne    0x40bf10
  404d32:	8d 0d c6 25 a7 98    	lea    0x98a725c6,%ecx
  404d38:	81 e9 21 e3 64 98    	sub    $0x9864e321,%ecx
  404d3e:	51                   	push   %ecx
  404d3f:	8d 05 b7 25 a7 98    	lea    0x98a725b7,%eax
  404d45:	2d 21 e3 64 98       	sub    $0x9864e321,%eax
  404d4a:	50                   	push   %eax
  404d4b:	a1 84 00 42 00       	mov    0x420084,%eax
  404d50:	ff d0                	call   *%eax
  404d52:	31 35 d1 41 42 00    	xor    %esi,0x4241d1
  404d58:	29 c6                	sub    %eax,%esi
  404d5a:	2a 3d ea 41 42 00    	sub    0x4241ea,%bh
  404d60:	2b 05 50 41 42 00    	sub    0x424150,%eax
  404d66:	6a 0f                	push   $0xf
  404d68:	ff 0c 24             	decl   (%esp)
  404d6b:	8d 15 a9 25 a7 98    	lea    0x98a725a9,%edx
  404d71:	81 ea 21 e3 64 98    	sub    $0x9864e321,%edx
  404d77:	52                   	push   %edx
  404d78:	8d 35 97 25 a7 98    	lea    0x98a72597,%esi
  404d7e:	81 ee 21 e3 64 98    	sub    $0x9864e321,%esi
  404d84:	56                   	push   %esi
  404d85:	a1 78 00 42 00       	mov    0x420078,%eax
  404d8a:	ff d0                	call   *%eax
  404d8c:	83 f8 00             	cmp    $0x0,%eax
  404d8f:	0f 85 7b 71 00 00    	jne    0x40bf10
  404d95:	21 1d cc 40 42 00    	and    %ebx,0x4240cc
  404d9b:	c7 05 d9 40 42 00 3a 	movl   $0x3a,0x4240d9
  404da2:	00 00 00 
  404da5:	83 1d 96 40 42 00 7c 	sbbl   $0x7c,0x424096
  404dac:	2e e9 9a 6c 00 00    	cs jmp 0x40ba4c
  404db2:	00 00                	add    %al,(%eax)
  404db4:	00 00                	add    %al,(%eax)
  404db6:	00 ba 01 00 00 00    	add    %bh,0x1(%edx)
  404dbc:	01 da                	add    %ebx,%edx
  404dbe:	6a 0f                	push   $0xf
  404dc0:	ff 0c 24             	decl   (%esp)
  404dc3:	8d 0d a9 25 a7 98    	lea    0x98a725a9,%ecx
  404dc9:	81 e9 21 e3 64 98    	sub    $0x9864e321,%ecx
  404dcf:	51                   	push   %ecx
  404dd0:	8d 15 97 25 a7 98    	lea    0x98a72597,%edx
  404dd6:	81 ea 21 e3 64 98    	sub    $0x9864e321,%edx
  404ddc:	52                   	push   %edx
  404ddd:	a1 78 00 42 00       	mov    0x420078,%eax
  404de2:	ff d0                	call   *%eax
  404de4:	85 c0                	test   %eax,%eax
  404de6:	0f 85 24 71 00 00    	jne    0x40bf10
  404dec:	19 fb                	sbb    %edi,%ebx
  404dee:	12 05 e7 40 42 00    	adc    0x4240e7,%al
  404df4:	19 05 3d 41 42 00    	sbb    %eax,0x42413d
  404dfa:	11 d8                	adc    %ebx,%eax
  404dfc:	81 15 ec 41 42 00 89 	adcl   $0x89,0x4241ec
  404e03:	00 00 00 
  404e06:	6a 0f                	push   $0xf
  404e08:	ff 0c 24             	decl   (%esp)
  404e0b:	8d 0d a9 25 a7 98    	lea    0x98a725a9,%ecx
  404e11:	81 e9 21 e3 64 98    	sub    $0x9864e321,%ecx
  404e17:	51                   	push   %ecx
  404e18:	8d 15 97 25 a7 98    	lea    0x98a72597,%edx
  404e1e:	81 ea 21 e3 64 98    	sub    $0x9864e321,%edx
  404e24:	52                   	push   %edx
  404e25:	a1 78 00 42 00       	mov    0x420078,%eax
  404e2a:	ff d0                	call   *%eax
  404e2c:	85 c0                	test   %eax,%eax
  404e2e:	0f 85 dc 70 00 00    	jne    0x40bf10
  404e34:	82 2d c7 41 42 00 09 	subb   $0x9,0x4241c7
  404e3b:	c7 05 4f 40 42 00 a7 	movl   $0xa7,0x42404f
  404e42:	00 00 00 
  404e45:	8d 0d c6 25 a7 98    	lea    0x98a725c6,%ecx
  404e4b:	81 e9 21 e3 64 98    	sub    $0x9864e321,%ecx
  404e51:	51                   	push   %ecx
  404e52:	8d 15 b7 25 a7 98    	lea    0x98a725b7,%edx
  404e58:	81 ea 21 e3 64 98    	sub    $0x9864e321,%edx
  404e5e:	52                   	push   %edx
  404e5f:	a1 84 00 42 00       	mov    0x420084,%eax
  404e64:	ff d0                	call   *%eax
  404e66:	21 05 40 41 42 00    	and    %eax,0x424140
  404e6c:	6a 0f                	push   $0xf
  404e6e:	ff 0c 24             	decl   (%esp)
  404e71:	8d 35 a9 25 a7 98    	lea    0x98a725a9,%esi
  404e77:	81 ee 21 e3 64 98    	sub    $0x9864e321,%esi
  404e7d:	56                   	push   %esi
  404e7e:	8d 15 97 25 a7 98    	lea    0x98a72597,%edx
  404e84:	81 ea 21 e3 64 98    	sub    $0x9864e321,%edx
  404e8a:	52                   	push   %edx
  404e8b:	a1 78 00 42 00       	mov    0x420078,%eax
  404e90:	ff d0                	call   *%eax
  404e92:	85 c0                	test   %eax,%eax
  404e94:	0f 85 76 70 00 00    	jne    0x40bf10
  404e9a:	01 ff                	add    %edi,%edi
  404e9c:	8d 3d c6 25 a7 98    	lea    0x98a725c6,%edi
  404ea2:	81 ef 21 e3 64 98    	sub    $0x9864e321,%edi
  404ea8:	57                   	push   %edi
  404ea9:	8d 35 b7 25 a7 98    	lea    0x98a725b7,%esi
  404eaf:	81 ee 21 e3 64 98    	sub    $0x9864e321,%esi
  404eb5:	56                   	push   %esi
  404eb6:	a1 84 00 42 00       	mov    0x420084,%eax
  404ebb:	ff d0                	call   *%eax
  404ebd:	11 3d ae 40 42 00    	adc    %edi,0x4240ae
  404ec3:	ba 01 00 00 00       	mov    $0x1,%edx
  404ec8:	13 15 60 40 42 00    	adc    0x424060,%edx
  404ece:	8d 35 c6 25 a7 98    	lea    0x98a725c6,%esi
  404ed4:	81 ee 21 e3 64 98    	sub    $0x9864e321,%esi
  404eda:	56                   	push   %esi
  404edb:	8d 1d b7 25 a7 98    	lea    0x98a725b7,%ebx
  404ee1:	81 eb 21 e3 64 98    	sub    $0x9864e321,%ebx
  404ee7:	53                   	push   %ebx
  404ee8:	a1 84 00 42 00       	mov    0x420084,%eax
  404eed:	ff d0                	call   *%eax
  404eef:	b9 01 00 00 00       	mov    $0x1,%ecx
  404ef4:	01 c1                	add    %eax,%ecx
  404ef6:	29 0d b7 41 42 00    	sub    %ecx,0x4241b7
  404efc:	82 2d 30 40 42 00 17 	subb   $0x17,0x424030
  404f03:	8d 15 c6 25 a7 98    	lea    0x98a725c6,%edx
  404f09:	81 ea 21 e3 64 98    	sub    $0x9864e321,%edx
  404f0f:	52                   	push   %edx
  404f10:	8d 15 b7 25 a7 98    	lea    0x98a725b7,%edx
  404f16:	81 ea 21 e3 64 98    	sub    $0x9864e321,%edx
  404f1c:	52                   	push   %edx
  404f1d:	a1 84 00 42 00       	mov    0x420084,%eax
  404f22:	ff d0                	call   *%eax
  404f24:	20 3d ca 40 42 00    	and    %bh,0x4240ca
  404f2a:	6a 0f                	push   $0xf
  404f2c:	ff 0c 24             	decl   (%esp)
  404f2f:	8d 3d a9 25 a7 98    	lea    0x98a725a9,%edi
  404f35:	81 ef 21 e3 64 98    	sub    $0x9864e321,%edi
  404f3b:	57                   	push   %edi
  404f3c:	8d 0d 97 25 a7 98    	lea    0x98a72597,%ecx
  404f42:	81 e9 21 e3 64 98    	sub    $0x9864e321,%ecx
  404f48:	51                   	push   %ecx
  404f49:	a1 78 00 42 00       	mov    0x420078,%eax
  404f4e:	ff d0                	call   *%eax
  404f50:	85 c0                	test   %eax,%eax
  404f52:	0f 85 b8 6f 00 00    	jne    0x40bf10
  404f58:	08 3d e0 40 42 00    	or     %bh,0x4240e0
  404f5e:	13 05 fb 41 42 00    	adc    0x4241fb,%eax
  404f64:	83 25 cf 40 42 00 4f 	andl   $0x4f,0x4240cf
  404f6b:	09 05 bb 41 42 00    	or     %eax,0x4241bb
  404f71:	6a 0f                	push   $0xf
  404f73:	ff 0c 24             	decl   (%esp)
  404f76:	8d 15 a9 25 a7 98    	lea    0x98a725a9,%edx
  404f7c:	81 ea 21 e3 64 98    	sub    $0x9864e321,%edx
  404f82:	52                   	push   %edx
  404f83:	8d 15 97 25 a7 98    	lea    0x98a72597,%edx
  404f89:	81 ea 21 e3 64 98    	sub    $0x9864e321,%edx
  404f8f:	52                   	push   %edx
  404f90:	a1 78 00 42 00       	mov    0x420078,%eax
  404f95:	ff d0                	call   *%eax
  404f97:	85 c0                	test   %eax,%eax
  404f99:	0f 85 71 6f 00 00    	jne    0x40bf10
  404f9f:	19 df                	sbb    %ebx,%edi
  404fa1:	01 df                	add    %ebx,%edi
  404fa3:	c7 05 d2 40 42 00 67 	movl   $0x67,0x4240d2
  404faa:	00 00 00 
  404fad:	8d 0d c6 25 a7 98    	lea    0x98a725c6,%ecx
  404fb3:	81 e9 21 e3 64 98    	sub    $0x9864e321,%ecx
  404fb9:	51                   	push   %ecx
  404fba:	8d 35 b7 25 a7 98    	lea    0x98a725b7,%esi
  404fc0:	81 ee 21 e3 64 98    	sub    $0x9864e321,%esi
  404fc6:	56                   	push   %esi
  404fc7:	a1 84 00 42 00       	mov    0x420084,%eax
  404fcc:	ff d0                	call   *%eax
  404fce:	c7 05 5e 41 42 00 b3 	movl   $0xb3,0x42415e
  404fd5:	00 00 00 
  404fd8:	81 0d 06 40 42 00 fa 	orl    $0xfa,0x424006
  404fdf:	00 00 00 
  404fe2:	19 f3                	sbb    %esi,%ebx
  404fe4:	ba 01 00 00 00       	mov    $0x1,%edx
  404fe9:	83 c2 83             	add    $0xffffff83,%edx
  404fec:	81 25 3e 41 42 00 cf 	andl   $0xcf,0x42413e
  404ff3:	00 00 00 
  404ff6:	8d 05 c6 25 a7 98    	lea    0x98a725c6,%eax
  404ffc:	2d 21 e3 64 98       	sub    $0x9864e321,%eax
  405001:	50                   	push   %eax
  405002:	8d 0d b7 25 a7 98    	lea    0x98a725b7,%ecx
  405008:	81 e9 21 e3 64 98    	sub    $0x9864e321,%ecx
  40500e:	51                   	push   %ecx
  40500f:	a1 84 00 42 00       	mov    0x420084,%eax
  405014:	ff d0                	call   *%eax
  405016:	b5 01                	mov    $0x1,%ch
  405018:	00 c5                	add    %al,%ch
  40501a:	ba 01 00 00 00       	mov    $0x1,%edx
  40501f:	01 c2                	add    %eax,%edx
  405021:	c7 05 c4 40 42 00 e4 	movl   $0xe4,0x4240c4
  405028:	00 00 00 
  40502b:	6a 0f                	push   $0xf
  40502d:	ff 0c 24             	decl   (%esp)
  405030:	8d 3d a9 25 a7 98    	lea    0x98a725a9,%edi
  405036:	81 ef 21 e3 64 98    	sub    $0x9864e321,%edi
  40503c:	57                   	push   %edi
  40503d:	8d 15 97 25 a7 98    	lea    0x98a72597,%edx
  405043:	81 ea 21 e3 64 98    	sub    $0x9864e321,%edx
  405049:	52                   	push   %edx
  40504a:	a1 78 00 42 00       	mov    0x420078,%eax
  40504f:	ff d0                	call   *%eax
  405051:	85 c0                	test   %eax,%eax
  405053:	0f 85 b7 6e 00 00    	jne    0x40bf10
  405059:	01 3d 31 40 42 00    	add    %edi,0x424031
  40505f:	13 1d 6c 41 42 00    	adc    0x42416c,%ebx
  405065:	2e e9 e1 69 00 00    	cs jmp 0x40ba4c
  40506b:	08 1d 7e 41 42 00    	or     %bl,0x42417e
  405071:	b2 01                	mov    $0x1,%dl
  405073:	82 c2 53             	add    $0x53,%dl
  405076:	83 ca 0e             	or     $0xe,%edx
  405079:	01 db                	add    %ebx,%ebx
  40507b:	00 00                	add    %al,(%eax)
  40507d:	00 00                	add    %al,(%eax)
  40507f:	00 82 2d 14 41 42    	add    %al,0x4241142d(%edx)
  405085:	00 df                	add    %bl,%bh
  405087:	b9 01 00 00 00       	mov    $0x1,%ecx
  40508c:	01 f9                	add    %edi,%ecx
  40508e:	ba 01 00 00 00       	mov    $0x1,%edx
  405093:	83 c2 df             	add    $0xffffffdf,%edx
  405096:	6a 0f                	push   $0xf
  405098:	ff 0c 24             	decl   (%esp)
  40509b:	8d 05 a9 25 a7 98    	lea    0x98a725a9,%eax
  4050a1:	2d 21 e3 64 98       	sub    $0x9864e321,%eax
  4050a6:	50                   	push   %eax
  4050a7:	8d 15 97 25 a7 98    	lea    0x98a72597,%edx
  4050ad:	81 ea 21 e3 64 98    	sub    $0x9864e321,%edx
  4050b3:	52                   	push   %edx
  4050b4:	a1 78 00 42 00       	mov    0x420078,%eax
  4050b9:	ff d0                	call   *%eax
  4050bb:	85 c0                	test   %eax,%eax
  4050bd:	0f 85 4d 6e 00 00    	jne    0x40bf10
  4050c3:	81 15 26 41 42 00 ee 	adcl   $0xee,0x424126
  4050ca:	00 00 00 
  4050cd:	ba 01 00 00 00       	mov    $0x1,%edx
  4050d2:	13 15 f5 40 42 00    	adc    0x4240f5,%edx
  4050d8:	83 15 ce 40 42 00 0d 	adcl   $0xd,0x4240ce
  4050df:	28 e0                	sub    %ah,%al
  4050e1:	6a 0f                	push   $0xf
  4050e3:	ff 0c 24             	decl   (%esp)
  4050e6:	8d 3d a9 25 a7 98    	lea    0x98a725a9,%edi
  4050ec:	81 ef 21 e3 64 98    	sub    $0x9864e321,%edi
  4050f2:	57                   	push   %edi
  4050f3:	8d 0d 97 25 a7 98    	lea    0x98a72597,%ecx
  4050f9:	81 e9 21 e3 64 98    	sub    $0x9864e321,%ecx
  4050ff:	51                   	push   %ecx
  405100:	a1 78 00 42 00       	mov    0x420078,%eax
  405105:	ff d0                	call   *%eax
  405107:	85 c0                	test   %eax,%eax
  405109:	0f 85 01 6e 00 00    	jne    0x40bf10
  40510f:	0b 05 ba 41 42 00    	or     0x4241ba,%eax
  405115:	8d 3d c6 25 a7 98    	lea    0x98a725c6,%edi
  40511b:	81 ef 21 e3 64 98    	sub    $0x9864e321,%edi
  405121:	57                   	push   %edi
  405122:	8d 0d b7 25 a7 98    	lea    0x98a725b7,%ecx
  405128:	81 e9 21 e3 64 98    	sub    $0x9864e321,%ecx
  40512e:	51                   	push   %ecx
  40512f:	a1 84 00 42 00       	mov    0x420084,%eax
  405134:	ff d0                	call   *%eax
  405136:	b9 01 00 00 00       	mov    $0x1,%ecx
  40513b:	83 c1 1b             	add    $0x1b,%ecx
  40513e:	83 f6 d0             	xor    $0xffffffd0,%esi
  405141:	29 05 e6 41 42 00    	sub    %eax,0x4241e6
  405147:	ba 01 00 00 00       	mov    $0x1,%edx
  40514c:	01 da                	add    %ebx,%edx
  40514e:	8d 3d c6 25 a7 98    	lea    0x98a725c6,%edi
  405154:	81 ef 21 e3 64 98    	sub    $0x9864e321,%edi
  40515a:	57                   	push   %edi
  40515b:	8d 35 b7 25 a7 98    	lea    0x98a725b7,%esi
  405161:	81 ee 21 e3 64 98    	sub    $0x9864e321,%esi
  405167:	56                   	push   %esi
  405168:	a1 84 00 42 00       	mov    0x420084,%eax
  40516d:	ff d0                	call   *%eax
  40516f:	19 1d c3 41 42 00    	sbb    %ebx,0x4241c3
  405175:	83 0d 13 41 42 00 11 	orl    $0x11,0x424113
  40517c:	12 3d 85 41 42 00    	adc    0x424185,%bh
  405182:	6a 0f                	push   $0xf
  405184:	ff 0c 24             	decl   (%esp)
  405187:	8d 15 a9 25 a7 98    	lea    0x98a725a9,%edx
  40518d:	81 ea 21 e3 64 98    	sub    $0x9864e321,%edx
  405193:	52                   	push   %edx
  405194:	8d 0d 97 25 a7 98    	lea    0x98a72597,%ecx
  40519a:	81 e9 21 e3 64 98    	sub    $0x9864e321,%ecx
  4051a0:	51                   	push   %ecx
  4051a1:	a1 78 00 42 00       	mov    0x420078,%eax
  4051a6:	ff d0                	call   *%eax
  4051a8:	83 f8 00             	cmp    $0x0,%eax
  4051ab:	0f 85 5f 6d 00 00    	jne    0x40bf10
  4051b1:	31 d8                	xor    %ebx,%eax
  4051b3:	09 05 13 40 42 00    	or     %eax,0x424013
  4051b9:	8d 05 c6 25 a7 98    	lea    0x98a725c6,%eax
  4051bf:	2d 21 e3 64 98       	sub    $0x9864e321,%eax
  4051c4:	50                   	push   %eax
  4051c5:	8d 3d b7 25 a7 98    	lea    0x98a725b7,%edi
  4051cb:	81 ef 21 e3 64 98    	sub    $0x9864e321,%edi
  4051d1:	57                   	push   %edi
  4051d2:	a1 84 00 42 00       	mov    0x420084,%eax
  4051d7:	ff d0                	call   *%eax
  4051d9:	ba 01 00 00 00       	mov    $0x1,%edx
  4051de:	83 c2 0b             	add    $0xb,%edx
  4051e1:	01 35 ef 40 42 00    	add    %esi,0x4240ef
  4051e7:	83 d7 cf             	adc    $0xffffffcf,%edi
  4051ea:	01 fa                	add    %edi,%edx
  4051ec:	6a 0f                	push   $0xf
  4051ee:	ff 0c 24             	decl   (%esp)
  4051f1:	8d 0d a9 25 a7 98    	lea    0x98a725a9,%ecx
  4051f7:	81 e9 21 e3 64 98    	sub    $0x9864e321,%ecx
  4051fd:	51                   	push   %ecx
  4051fe:	8d 35 97 25 a7 98    	lea    0x98a72597,%esi
  405204:	81 ee 21 e3 64 98    	sub    $0x9864e321,%esi
  40520a:	56                   	push   %esi
  40520b:	a1 78 00 42 00       	mov    0x420078,%eax
  405210:	ff d0                	call   *%eax
  405212:	83 f8 00             	cmp    $0x0,%eax
  405215:	0f 85 f5 6c 00 00    	jne    0x40bf10
  40521b:	01 35 62 41 42 00    	add    %esi,0x424162
  405221:	ba 01 00 00 00       	mov    $0x1,%edx
  405226:	01 fa                	add    %edi,%edx
  405228:	83 ea f5             	sub    $0xfffffff5,%edx
  40522b:	81 35 11 40 42 00 eb 	xorl   $0xeb,0x424011
  405232:	00 00 00 
  405235:	c7 05 32 40 42 00 e1 	movl   $0xe1,0x424032
  40523c:	00 00 00 
  40523f:	6a 0f                	push   $0xf
  405241:	ff 0c 24             	decl   (%esp)
  405244:	8d 1d a9 25 a7 98    	lea    0x98a725a9,%ebx
  40524a:	81 eb 21 e3 64 98    	sub    $0x9864e321,%ebx
  405250:	53                   	push   %ebx
  405251:	8d 0d 97 25 a7 98    	lea    0x98a72597,%ecx
  405257:	81 e9 21 e3 64 98    	sub    $0x9864e321,%ecx
  40525d:	51                   	push   %ecx
  40525e:	a1 78 00 42 00       	mov    0x420078,%eax
  405263:	ff d0                	call   *%eax
  405265:	83 f8 00             	cmp    $0x0,%eax
  405268:	0f 85 a2 6c 00 00    	jne    0x40bf10
  40526e:	83 f0 56             	xor    $0x56,%eax
  405271:	83 1d 38 41 42 00 76 	sbbl   $0x76,0x424138
  405278:	19 3d 37 40 42 00    	sbb    %edi,0x424037
  40527e:	c7 05 c5 41 42 00 65 	movl   $0x65,0x4241c5
  405285:	00 00 00 
  405288:	19 db                	sbb    %ebx,%ebx
  40528a:	8d 05 c6 25 a7 98    	lea    0x98a725c6,%eax
  405290:	2d 21 e3 64 98       	sub    $0x9864e321,%eax
  405295:	50                   	push   %eax
  405296:	8d 1d b7 25 a7 98    	lea    0x98a725b7,%ebx
  40529c:	81 eb 21 e3 64 98    	sub    $0x9864e321,%ebx
  4052a2:	53                   	push   %ebx
  4052a3:	a1 84 00 42 00       	mov    0x420084,%eax
  4052a8:	ff d0                	call   *%eax
  4052aa:	01 f0                	add    %esi,%eax
  4052ac:	6a 0f                	push   $0xf
  4052ae:	ff 0c 24             	decl   (%esp)
  4052b1:	8d 1d a9 25 a7 98    	lea    0x98a725a9,%ebx
  4052b7:	81 eb 21 e3 64 98    	sub    $0x9864e321,%ebx
  4052bd:	53                   	push   %ebx
  4052be:	8d 15 97 25 a7 98    	lea    0x98a72597,%edx
  4052c4:	81 ea 21 e3 64 98    	sub    $0x9864e321,%edx
  4052ca:	52                   	push   %edx
  4052cb:	a1 78 00 42 00       	mov    0x420078,%eax
  4052d0:	ff d0                	call   *%eax
  4052d2:	85 c0                	test   %eax,%eax
  4052d4:	0f 85 36 6c 00 00    	jne    0x40bf10
  4052da:	81 25 17 40 42 00 f4 	andl   $0xf4,0x424017
  4052e1:	00 00 00 
  4052e4:	2e e9 62 67 00 00    	cs jmp 0x40ba4c
	...
  4052f2:	00 00                	add    %al,(%eax)
  4052f4:	00 8d 05 c6 25 a7    	add    %cl,-0x58da39fb(%ebp)
  4052fa:	98                   	cwtl
  4052fb:	2d 21 e3 64 98       	sub    $0x9864e321,%eax
  405300:	50                   	push   %eax
  405301:	8d 3d b7 25 a7 98    	lea    0x98a725b7,%edi
  405307:	81 ef 21 e3 64 98    	sub    $0x9864e321,%edi
  40530d:	57                   	push   %edi
  40530e:	a1 84 00 42 00       	mov    0x420084,%eax
  405313:	ff d0                	call   *%eax
  405315:	81 35 83 41 42 00 ba 	xorl   $0xba,0x424183
  40531c:	00 00 00 
  40531f:	01 f8                	add    %edi,%eax
  405321:	8d 35 c6 25 a7 98    	lea    0x98a725c6,%esi
  405327:	81 ee 21 e3 64 98    	sub    $0x9864e321,%esi
  40532d:	56                   	push   %esi
  40532e:	8d 05 b7 25 a7 98    	lea    0x98a725b7,%eax
  405334:	2d 21 e3 64 98       	sub    $0x9864e321,%eax
  405339:	50                   	push   %eax
  40533a:	a1 84 00 42 00       	mov    0x420084,%eax
  40533f:	ff d0                	call   *%eax
  405341:	31 05 a1 41 42 00    	xor    %eax,0x4241a1
  405347:	12 3d 0a 41 42 00    	adc    0x42410a,%bh
  40534d:	01 f8                	add    %edi,%eax
  40534f:	c7 05 7b 40 42 00 d7 	movl   $0xd7,0x42407b
  405356:	00 00 00 
  405359:	6a 0f                	push   $0xf
  40535b:	ff 0c 24             	decl   (%esp)
  40535e:	8d 15 a9 25 a7 98    	lea    0x98a725a9,%edx
  405364:	81 ea 21 e3 64 98    	sub    $0x9864e321,%edx
  40536a:	52                   	push   %edx
  40536b:	8d 05 97 25 a7 98    	lea    0x98a72597,%eax
  405371:	2d 21 e3 64 98       	sub    $0x9864e321,%eax
  405376:	50                   	push   %eax
  405377:	a1 78 00 42 00       	mov    0x420078,%eax
  40537c:	ff d0                	call   *%eax
  40537e:	85 c0                	test   %eax,%eax
  405380:	0f 85 8a 6b 00 00    	jne    0x40bf10
  405386:	83 15 5c 41 42 00 28 	adcl   $0x28,0x42415c
  40538d:	12 25 8b 41 42 00    	adc    0x42418b,%ah
  405393:	6a 0f                	push   $0xf
  405395:	ff 0c 24             	decl   (%esp)
  405398:	8d 0d a9 25 a7 98    	lea    0x98a725a9,%ecx
  40539e:	81 e9 21 e3 64 98    	sub    $0x9864e321,%ecx
  4053a4:	51                   	push   %ecx
  4053a5:	8d 05 97 25 a7 98    	lea    0x98a72597,%eax
  4053ab:	2d 21 e3 64 98       	sub    $0x9864e321,%eax
  4053b0:	50                   	push   %eax
  4053b1:	a1 78 00 42 00       	mov    0x420078,%eax
  4053b6:	ff d0                	call   *%eax
  4053b8:	83 f8 00             	cmp    $0x0,%eax
  4053bb:	0f 85 4f 6b 00 00    	jne    0x40bf10
  4053c1:	2b 05 f6 41 42 00    	sub    0x4241f6,%eax
  4053c7:	8d 3d c6 25 a7 98    	lea    0x98a725c6,%edi
  4053cd:	81 ef 21 e3 64 98    	sub    $0x9864e321,%edi
  4053d3:	57                   	push   %edi
  4053d4:	8d 0d b7 25 a7 98    	lea    0x98a725b7,%ecx
  4053da:	81 e9 21 e3 64 98    	sub    $0x9864e321,%ecx
  4053e0:	51                   	push   %ecx
  4053e1:	a1 84 00 42 00       	mov    0x420084,%eax
  4053e6:	ff d0                	call   *%eax
  4053e8:	b9 01 00 00 00       	mov    $0x1,%ecx
  4053ed:	13 0d fe 41 42 00    	adc    0x4241fe,%ecx
  4053f3:	19 3d 83 40 42 00    	sbb    %edi,0x424083
  4053f9:	09 05 0a 40 42 00    	or     %eax,0x42400a
  4053ff:	8d 05 c6 25 a7 98    	lea    0x98a725c6,%eax
  405405:	2d 21 e3 64 98       	sub    $0x9864e321,%eax
  40540a:	50                   	push   %eax
  40540b:	8d 3d b7 25 a7 98    	lea    0x98a725b7,%edi
  405411:	81 ef 21 e3 64 98    	sub    $0x9864e321,%edi
  405417:	57                   	push   %edi
  405418:	a1 84 00 42 00       	mov    0x420084,%eax
  40541d:	ff d0                	call   *%eax
  40541f:	ba 01 00 00 00       	mov    $0x1,%edx
  405424:	01 fa                	add    %edi,%edx
  405426:	83 c0 8b             	add    $0xffffff8b,%eax
  405429:	8d 15 c6 25 a7 98    	lea    0x98a725c6,%edx
  40542f:	81 ea 21 e3 64 98    	sub    $0x9864e321,%edx
  405435:	52                   	push   %edx
  405436:	8d 15 b7 25 a7 98    	lea    0x98a725b7,%edx
  40543c:	81 ea 21 e3 64 98    	sub    $0x9864e321,%edx
  405442:	52                   	push   %edx
  405443:	a1 84 00 42 00       	mov    0x420084,%eax
  405448:	ff d0                	call   *%eax
  40544a:	6a 0f                	push   $0xf
  40544c:	ff 0c 24             	decl   (%esp)
  40544f:	8d 0d a9 25 a7 98    	lea    0x98a725a9,%ecx
  405455:	81 e9 21 e3 64 98    	sub    $0x9864e321,%ecx
  40545b:	51                   	push   %ecx
  40545c:	8d 0d 97 25 a7 98    	lea    0x98a72597,%ecx
  405462:	81 e9 21 e3 64 98    	sub    $0x9864e321,%ecx
  405468:	51                   	push   %ecx
  405469:	a1 78 00 42 00       	mov    0x420078,%eax
  40546e:	ff d0                	call   *%eax
  405470:	83 f8 00             	cmp    $0x0,%eax
  405473:	0f 85 97 6a 00 00    	jne    0x40bf10
  405479:	01 f0                	add    %esi,%eax
  40547b:	6a 0f                	push   $0xf
  40547d:	ff 0c 24             	decl   (%esp)
  405480:	8d 0d a9 25 a7 98    	lea    0x98a725a9,%ecx
  405486:	81 e9 21 e3 64 98    	sub    $0x9864e321,%ecx
  40548c:	51                   	push   %ecx
  40548d:	8d 35 97 25 a7 98    	lea    0x98a72597,%esi
  405493:	81 ee 21 e3 64 98    	sub    $0x9864e321,%esi
  405499:	56                   	push   %esi
  40549a:	a1 78 00 42 00       	mov    0x420078,%eax
  40549f:	ff d0                	call   *%eax
  4054a1:	83 f8 00             	cmp    $0x0,%eax
  4054a4:	0f 85 66 6a 00 00    	jne    0x40bf10
  4054aa:	83 35 e1 41 42 00 31 	xorl   $0x31,0x4241e1
  4054b1:	83 0d 7e 41 42 00 6e 	orl    $0x6e,0x42417e
  4054b8:	19 1d 0a 41 42 00    	sbb    %ebx,0x42410a
  4054be:	21 05 53 41 42 00    	and    %eax,0x424153
  4054c4:	8d 3d c6 25 a7 98    	lea    0x98a725c6,%edi
  4054ca:	81 ef 21 e3 64 98    	sub    $0x9864e321,%edi
  4054d0:	57                   	push   %edi
  4054d1:	8d 3d b7 25 a7 98    	lea    0x98a725b7,%edi
  4054d7:	81 ef 21 e3 64 98    	sub    $0x9864e321,%edi
  4054dd:	57                   	push   %edi
  4054de:	a1 84 00 42 00       	mov    0x420084,%eax
  4054e3:	ff d0                	call   *%eax
  4054e5:	01 05 97 41 42 00    	add    %eax,0x424197
  4054eb:	13 1d c6 40 42 00    	adc    0x4240c6,%ebx
  4054f1:	b9 01 00 00 00       	mov    $0x1,%ecx
  4054f6:	83 c1 52             	add    $0x52,%ecx
  4054f9:	6a 0f                	push   $0xf
  4054fb:	ff 0c 24             	decl   (%esp)
  4054fe:	8d 15 a9 25 a7 98    	lea    0x98a725a9,%edx
  405504:	81 ea 21 e3 64 98    	sub    $0x9864e321,%edx
  40550a:	52                   	push   %edx
  40550b:	8d 1d 97 25 a7 98    	lea    0x98a72597,%ebx
  405511:	81 eb 21 e3 64 98    	sub    $0x9864e321,%ebx
  405517:	53                   	push   %ebx
  405518:	a1 78 00 42 00       	mov    0x420078,%eax
  40551d:	ff d0                	call   *%eax
  40551f:	83 f8 00             	cmp    $0x0,%eax
  405522:	0f 85 e8 69 00 00    	jne    0x40bf10
  405528:	29 05 d4 40 42 00    	sub    %eax,0x4240d4
  40552e:	0b 35 b2 40 42 00    	or     0x4240b2,%esi
  405534:	83 1d d7 40 42 00 13 	sbbl   $0x13,0x4240d7
  40553b:	2e e9 0b 65 00 00    	cs jmp 0x40ba4c
  405541:	ba 01 00 00 00       	mov    $0x1,%edx
  405546:	01 fa                	add    %edi,%edx
  405548:	00 00                	add    %al,(%eax)
  40554a:	00 00                	add    %al,(%eax)
  40554c:	6a 0f                	push   $0xf
  40554e:	ff 0c 24             	decl   (%esp)
  405551:	8d 3d a9 25 a7 98    	lea    0x98a725a9,%edi
  405557:	81 ef 21 e3 64 98    	sub    $0x9864e321,%edi
  40555d:	57                   	push   %edi
  40555e:	8d 0d 97 25 a7 98    	lea    0x98a72597,%ecx
  405564:	81 e9 21 e3 64 98    	sub    $0x9864e321,%ecx
  40556a:	51                   	push   %ecx
  40556b:	a1 78 00 42 00       	mov    0x420078,%eax
  405570:	ff d0                	call   *%eax
  405572:	83 f8 00             	cmp    $0x0,%eax
  405575:	0f 85 95 69 00 00    	jne    0x40bf10
  40557b:	31 1d 6f 41 42 00    	xor    %ebx,0x42416f
  405581:	83 1d 9a 40 42 00 6c 	sbbl   $0x6c,0x42409a
  405588:	31 c7                	xor    %eax,%edi
  40558a:	21 35 1a 41 42 00    	and    %esi,0x42411a
  405590:	82 2d 0c 41 42 00 31 	subb   $0x31,0x42410c
  405597:	8d 0d c6 25 a7 98    	lea    0x98a725c6,%ecx
  40559d:	81 e9 21 e3 64 98    	sub    $0x9864e321,%ecx
  4055a3:	51                   	push   %ecx
  4055a4:	8d 0d b7 25 a7 98    	lea    0x98a725b7,%ecx
  4055aa:	81 e9 21 e3 64 98    	sub    $0x9864e321,%ecx
  4055b0:	51                   	push   %ecx
  4055b1:	a1 84 00 42 00       	mov    0x420084,%eax
  4055b6:	ff d0                	call   *%eax
  4055b8:	12 05 5e 41 42 00    	adc    0x42415e,%al
  4055be:	6a 0f                	push   $0xf
  4055c0:	ff 0c 24             	decl   (%esp)
  4055c3:	8d 35 a9 25 a7 98    	lea    0x98a725a9,%esi
  4055c9:	81 ee 21 e3 64 98    	sub    $0x9864e321,%esi
  4055cf:	56                   	push   %esi
  4055d0:	8d 0d 97 25 a7 98    	lea    0x98a72597,%ecx
  4055d6:	81 e9 21 e3 64 98    	sub    $0x9864e321,%ecx
  4055dc:	51                   	push   %ecx
  4055dd:	a1 78 00 42 00       	mov    0x420078,%eax
  4055e2:	ff d0                	call   *%eax
  4055e4:	85 c0                	test   %eax,%eax
  4055e6:	0f 85 24 69 00 00    	jne    0x40bf10
  4055ec:	81 25 88 40 42 00 b3 	andl   $0xb3,0x424088
  4055f3:	00 00 00 
  4055f6:	01 3d bb 40 42 00    	add    %edi,0x4240bb
  4055fc:	6a 0f                	push   $0xf
  4055fe:	ff 0c 24             	decl   (%esp)
  405601:	8d 0d a9 25 a7 98    	lea    0x98a725a9,%ecx
  405607:	81 e9 21 e3 64 98    	sub    $0x9864e321,%ecx
  40560d:	51                   	push   %ecx
  40560e:	8d 3d 97 25 a7 98    	lea    0x98a72597,%edi
  405614:	81 ef 21 e3 64 98    	sub    $0x9864e321,%edi
  40561a:	57                   	push   %edi
  40561b:	a1 78 00 42 00       	mov    0x420078,%eax
  405620:	ff d0                	call   *%eax
  405622:	83 f8 00             	cmp    $0x0,%eax
  405625:	0f 85 e5 68 00 00    	jne    0x40bf10
  40562b:	c7 05 8b 41 42 00 64 	movl   $0x64,0x42418b
  405632:	00 00 00 
  405635:	13 35 b2 41 42 00    	adc    0x4241b2,%esi
  40563b:	29 f8                	sub    %edi,%eax
  40563d:	31 fe                	xor    %edi,%esi
  40563f:	28 3d 54 40 42 00    	sub    %bh,0x424054
  405645:	8d 0d c6 25 a7 98    	lea    0x98a725c6,%ecx
  40564b:	81 e9 21 e3 64 98    	sub    $0x9864e321,%ecx
  405651:	51                   	push   %ecx
  405652:	8d 3d b7 25 a7 98    	lea    0x98a725b7,%edi
  405658:	81 ef 21 e3 64 98    	sub    $0x9864e321,%edi
  40565e:	57                   	push   %edi
  40565f:	a1 84 00 42 00       	mov    0x420084,%eax
  405664:	ff d0                	call   *%eax
  405666:	13 05 ac 41 42 00    	adc    0x4241ac,%eax
  40566c:	b9 01 00 00 00       	mov    $0x1,%ecx
  405671:	13 0d 7a 41 42 00    	adc    0x42417a,%ecx
  405677:	83 25 1d 41 42 00 16 	andl   $0x16,0x42411d
  40567e:	11 d8                	adc    %ebx,%eax
  405680:	6a 0f                	push   $0xf
  405682:	ff 0c 24             	decl   (%esp)
  405685:	8d 1d a9 25 a7 98    	lea    0x98a725a9,%ebx
  40568b:	81 eb 21 e3 64 98    	sub    $0x9864e321,%ebx
  405691:	53                   	push   %ebx
  405692:	8d 1d 97 25 a7 98    	lea    0x98a72597,%ebx
  405698:	81 eb 21 e3 64 98    	sub    $0x9864e321,%ebx
  40569e:	53                   	push   %ebx
  40569f:	a1 78 00 42 00       	mov    0x420078,%eax
  4056a4:	ff d0                	call   *%eax
  4056a6:	83 f8 00             	cmp    $0x0,%eax
  4056a9:	0f 85 61 68 00 00    	jne    0x40bf10
  4056af:	8d 3d c6 25 a7 98    	lea    0x98a725c6,%edi
  4056b5:	81 ef 21 e3 64 98    	sub    $0x9864e321,%edi
  4056bb:	57                   	push   %edi
  4056bc:	8d 15 b7 25 a7 98    	lea    0x98a725b7,%edx
  4056c2:	81 ea 21 e3 64 98    	sub    $0x9864e321,%edx
  4056c8:	52                   	push   %edx
  4056c9:	a1 84 00 42 00       	mov    0x420084,%eax
  4056ce:	ff d0                	call   *%eax
  4056d0:	c7 05 44 41 42 00 5f 	movl   $0x5f,0x424144
  4056d7:	00 00 00 
  4056da:	ba 01 00 00 00       	mov    $0x1,%edx
  4056df:	01 c2                	add    %eax,%edx
  4056e1:	01 f8                	add    %edi,%eax
  4056e3:	13 35 88 40 42 00    	adc    0x424088,%esi
  4056e9:	29 35 43 40 42 00    	sub    %esi,0x424043
  4056ef:	8d 3d c6 25 a7 98    	lea    0x98a725c6,%edi
  4056f5:	81 ef 21 e3 64 98    	sub    $0x9864e321,%edi
  4056fb:	57                   	push   %edi
  4056fc:	8d 35 b7 25 a7 98    	lea    0x98a725b7,%esi
  405702:	81 ee 21 e3 64 98    	sub    $0x9864e321,%esi
  405708:	56                   	push   %esi
  405709:	a1 84 00 42 00       	mov    0x420084,%eax
  40570e:	ff d0                	call   *%eax
  405710:	13 35 2e 41 42 00    	adc    0x42412e,%esi
  405716:	c7 05 18 41 42 00 d5 	movl   $0xd5,0x424118
  40571d:	00 00 00 
  405720:	12 25 55 40 42 00    	adc    0x424055,%ah
  405726:	6a 0f                	push   $0xf
  405728:	ff 0c 24             	decl   (%esp)
  40572b:	8d 15 a9 25 a7 98    	lea    0x98a725a9,%edx
  405731:	81 ea 21 e3 64 98    	sub    $0x9864e321,%edx
  405737:	52                   	push   %edx
  405738:	8d 3d 97 25 a7 98    	lea    0x98a72597,%edi
  40573e:	81 ef 21 e3 64 98    	sub    $0x9864e321,%edi
  405744:	57                   	push   %edi
  405745:	a1 78 00 42 00       	mov    0x420078,%eax
  40574a:	ff d0                	call   *%eax
  40574c:	85 c0                	test   %eax,%eax
  40574e:	0f 85 bc 67 00 00    	jne    0x40bf10
  405754:	82 ef b1             	sub    $0xb1,%bh
  405757:	8d 3d c6 25 a7 98    	lea    0x98a725c6,%edi
  40575d:	81 ef 21 e3 64 98    	sub    $0x9864e321,%edi
  405763:	57                   	push   %edi
  405764:	8d 3d b7 25 a7 98    	lea    0x98a725b7,%edi
  40576a:	81 ef 21 e3 64 98    	sub    $0x9864e321,%edi
  405770:	57                   	push   %edi
  405771:	a1 84 00 42 00       	mov    0x420084,%eax
  405776:	ff d0                	call   *%eax
  405778:	2b 35 51 41 42 00    	sub    0x424151,%esi
  40577e:	6a 0f                	push   $0xf
  405780:	ff 0c 24             	decl   (%esp)
  405783:	8d 15 a9 25 a7 98    	lea    0x98a725a9,%edx
  405789:	81 ea 21 e3 64 98    	sub    $0x9864e321,%edx
  40578f:	52                   	push   %edx
  405790:	8d 15 97 25 a7 98    	lea    0x98a72597,%edx
  405796:	81 ea 21 e3 64 98    	sub    $0x9864e321,%edx
  40579c:	52                   	push   %edx
  40579d:	a1 78 00 42 00       	mov    0x420078,%eax
  4057a2:	ff d0                	call   *%eax
  4057a4:	85 c0                	test   %eax,%eax
  4057a6:	0f 85 64 67 00 00    	jne    0x40bf10
  4057ac:	19 f8                	sbb    %edi,%eax
  4057ae:	01 3d 7d 40 42 00    	add    %edi,0x42407d
  4057b4:	01 c3                	add    %eax,%ebx
  4057b6:	01 d8                	add    %ebx,%eax
  4057b8:	b9 01 00 00 00       	mov    $0x1,%ecx
  4057bd:	13 0d cb 41 42 00    	adc    0x4241cb,%ecx
  4057c3:	6a 0f                	push   $0xf
  4057c5:	ff 0c 24             	decl   (%esp)
  4057c8:	8d 35 a9 25 a7 98    	lea    0x98a725a9,%esi
  4057ce:	81 ee 21 e3 64 98    	sub    $0x9864e321,%esi
  4057d4:	56                   	push   %esi
  4057d5:	8d 3d 97 25 a7 98    	lea    0x98a72597,%edi
  4057db:	81 ef 21 e3 64 98    	sub    $0x9864e321,%edi
  4057e1:	57                   	push   %edi
  4057e2:	a1 78 00 42 00       	mov    0x420078,%eax
  4057e7:	ff d0                	call   *%eax
  4057e9:	83 f8 00             	cmp    $0x0,%eax
  4057ec:	0f 85 1e 67 00 00    	jne    0x40bf10
  4057f2:	83 25 69 40 42 00 30 	andl   $0x30,0x424069
  4057f9:	12 05 13 41 42 00    	adc    0x424113,%al
  4057ff:	31 3d 96 40 42 00    	xor    %edi,0x424096
  405805:	19 35 1c 40 42 00    	sbb    %esi,0x42401c
  40580b:	2e e9 3b 62 00 00    	cs jmp 0x40ba4c
  405811:	81 15 3b 41 42 00 e2 	adcl   $0xe2,0x42413b
  405818:	00 00 00 
	...
  40582b:	13 1d b0 41 42 00    	adc    0x4241b0,%ebx
  405831:	82 2d 8b 40 42 00 d6 	subb   $0xd6,0x42408b
  405838:	81 0d 4c 40 42 00 f1 	orl    $0xf1,0x42404c
  40583f:	00 00 00 
  405842:	29 05 c0 40 42 00    	sub    %eax,0x4240c0
  405848:	b5 01                	mov    $0x1,%ch
  40584a:	82 c5 05             	add    $0x5,%ch
  40584d:	8d 1d c6 25 a7 98    	lea    0x98a725c6,%ebx
  405853:	81 eb 21 e3 64 98    	sub    $0x9864e321,%ebx
  405859:	53                   	push   %ebx
  40585a:	8d 3d b7 25 a7 98    	lea    0x98a725b7,%edi
  405860:	81 ef 21 e3 64 98    	sub    $0x9864e321,%edi
  405866:	57                   	push   %edi
  405867:	a1 84 00 42 00       	mov    0x420084,%eax
  40586c:	ff d0                	call   *%eax
  40586e:	ba 01 00 00 00       	mov    $0x1,%edx
  405873:	13 15 4a 40 42 00    	adc    0x42404a,%edx
  405879:	83 ef 59             	sub    $0x59,%edi
  40587c:	b9 01 00 00 00       	mov    $0x1,%ecx
  405881:	13 0d d4 40 42 00    	adc    0x4240d4,%ecx
  405887:	8d 05 c6 25 a7 98    	lea    0x98a725c6,%eax
  40588d:	2d 21 e3 64 98       	sub    $0x9864e321,%eax
  405892:	50                   	push   %eax
  405893:	8d 35 b7 25 a7 98    	lea    0x98a725b7,%esi
  405899:	81 ee 21 e3 64 98    	sub    $0x9864e321,%esi
  40589f:	56                   	push   %esi
  4058a0:	a1 84 00 42 00       	mov    0x420084,%eax
  4058a5:	ff d0                	call   *%eax
  4058a7:	13 3d b2 41 42 00    	adc    0x4241b2,%edi
  4058ad:	b9 01 00 00 00       	mov    $0x1,%ecx
  4058b2:	01 d9                	add    %ebx,%ecx
  4058b4:	0b 0d de 40 42 00    	or     0x4240de,%ecx
  4058ba:	ba 01 00 00 00       	mov    $0x1,%edx
  4058bf:	01 ca                	add    %ecx,%edx
  4058c1:	29 3d 01 41 42 00    	sub    %edi,0x424101
  4058c7:	8d 1d c6 25 a7 98    	lea    0x98a725c6,%ebx
  4058cd:	81 eb 21 e3 64 98    	sub    $0x9864e321,%ebx
  4058d3:	53                   	push   %ebx
  4058d4:	8d 1d b7 25 a7 98    	lea    0x98a725b7,%ebx
  4058da:	81 eb 21 e3 64 98    	sub    $0x9864e321,%ebx
  4058e0:	53                   	push   %ebx
  4058e1:	a1 84 00 42 00       	mov    0x420084,%eax
  4058e6:	ff d0                	call   *%eax
  4058e8:	29 1d 7c 40 42 00    	sub    %ebx,0x42407c
  4058ee:	b9 01 00 00 00       	mov    $0x1,%ecx
  4058f3:	13 0d dd 40 42 00    	adc    0x4240dd,%ecx
  4058f9:	21 05 81 41 42 00    	and    %eax,0x424181
  4058ff:	83 ef 2f             	sub    $0x2f,%edi
  405902:	11 cb                	adc    %ecx,%ebx
  405904:	6a 0f                	push   $0xf
  405906:	ff 0c 24             	decl   (%esp)
  405909:	8d 35 a9 25 a7 98    	lea    0x98a725a9,%esi
  40590f:	81 ee 21 e3 64 98    	sub    $0x9864e321,%esi
  405915:	56                   	push   %esi
  405916:	8d 15 97 25 a7 98    	lea    0x98a72597,%edx
  40591c:	81 ea 21 e3 64 98    	sub    $0x9864e321,%edx
  405922:	52                   	push   %edx
  405923:	a1 78 00 42 00       	mov    0x420078,%eax
  405928:	ff d0                	call   *%eax
  40592a:	85 c0                	test   %eax,%eax
  40592c:	0f 85 de 65 00 00    	jne    0x40bf10
  405932:	83 db cd             	sbb    $0xffffffcd,%ebx
  405935:	c7 05 7d 41 42 00 36 	movl   $0x36,0x42417d
  40593c:	00 00 00 
  40593f:	21 3d c9 41 42 00    	and    %edi,0x4241c9
  405945:	b6 01                	mov    $0x1,%dh
  405947:	82 c6 35             	add    $0x35,%dh
  40594a:	8d 1d c6 25 a7 98    	lea    0x98a725c6,%ebx
  405950:	81 eb 21 e3 64 98    	sub    $0x9864e321,%ebx
  405956:	53                   	push   %ebx
  405957:	8d 05 b7 25 a7 98    	lea    0x98a725b7,%eax
  40595d:	2d 21 e3 64 98       	sub    $0x9864e321,%eax
  405962:	50                   	push   %eax
  405963:	a1 84 00 42 00       	mov    0x420084,%eax
  405968:	ff d0                	call   *%eax
  40596a:	8d 0d c6 25 a7 98    	lea    0x98a725c6,%ecx
  405970:	81 e9 21 e3 64 98    	sub    $0x9864e321,%ecx
  405976:	51                   	push   %ecx
  405977:	8d 05 b7 25 a7 98    	lea    0x98a725b7,%eax
  40597d:	2d 21 e3 64 98       	sub    $0x9864e321,%eax
  405982:	50                   	push   %eax
  405983:	a1 84 00 42 00       	mov    0x420084,%eax
  405988:	ff d0                	call   *%eax
  40598a:	0b 1d 10 41 42 00    	or     0x424110,%ebx
  405990:	19 35 f1 41 42 00    	sbb    %esi,0x4241f1
  405996:	b2 01                	mov    $0x1,%dl
  405998:	00 e2                	add    %ah,%dl
  40599a:	6a 0f                	push   $0xf
  40599c:	ff 0c 24             	decl   (%esp)
  40599f:	8d 0d a9 25 a7 98    	lea    0x98a725a9,%ecx
  4059a5:	81 e9 21 e3 64 98    	sub    $0x9864e321,%ecx
  4059ab:	51                   	push   %ecx
  4059ac:	8d 35 97 25 a7 98    	lea    0x98a72597,%esi
  4059b2:	81 ee 21 e3 64 98    	sub    $0x9864e321,%esi
  4059b8:	56                   	push   %esi
  4059b9:	a1 78 00 42 00       	mov    0x420078,%eax
  4059be:	ff d0                	call   *%eax
  4059c0:	83 f8 00             	cmp    $0x0,%eax
  4059c3:	0f 85 47 65 00 00    	jne    0x40bf10
  4059c9:	83 35 20 40 42 00 06 	xorl   $0x6,0x424020
  4059d0:	8d 1d c6 25 a7 98    	lea    0x98a725c6,%ebx
  4059d6:	81 eb 21 e3 64 98    	sub    $0x9864e321,%ebx
  4059dc:	53                   	push   %ebx
  4059dd:	8d 1d b7 25 a7 98    	lea    0x98a725b7,%ebx
  4059e3:	81 eb 21 e3 64 98    	sub    $0x9864e321,%ebx
  4059e9:	53                   	push   %ebx
  4059ea:	a1 84 00 42 00       	mov    0x420084,%eax
  4059ef:	ff d0                	call   *%eax
  4059f1:	c7 05 f8 41 42 00 ba 	movl   $0xba,0x4241f8
  4059f8:	00 00 00 
  4059fb:	ba 01 00 00 00       	mov    $0x1,%edx
  405a00:	01 da                	add    %ebx,%edx
  405a02:	21 3d 04 40 42 00    	and    %edi,0x424004
  405a08:	6a 0f                	push   $0xf
  405a0a:	ff 0c 24             	decl   (%esp)
  405a0d:	8d 05 a9 25 a7 98    	lea    0x98a725a9,%eax
  405a13:	2d 21 e3 64 98       	sub    $0x9864e321,%eax
  405a18:	50                   	push   %eax
  405a19:	8d 1d 97 25 a7 98    	lea    0x98a72597,%ebx
  405a1f:	81 eb 21 e3 64 98    	sub    $0x9864e321,%ebx
  405a25:	53                   	push   %ebx
  405a26:	a1 78 00 42 00       	mov    0x420078,%eax
  405a2b:	ff d0                	call   *%eax
  405a2d:	85 c0                	test   %eax,%eax
  405a2f:	0f 85 db 64 00 00    	jne    0x40bf10
  405a35:	0b 05 51 41 42 00    	or     0x424151,%eax
  405a3b:	13 05 ed 40 42 00    	adc    0x4240ed,%eax
  405a41:	31 c3                	xor    %eax,%ebx
  405a43:	8d 1d c6 25 a7 98    	lea    0x98a725c6,%ebx
  405a49:	81 eb 21 e3 64 98    	sub    $0x9864e321,%ebx
  405a4f:	53                   	push   %ebx
  405a50:	8d 05 b7 25 a7 98    	lea    0x98a725b7,%eax
  405a56:	2d 21 e3 64 98       	sub    $0x9864e321,%eax
  405a5b:	50                   	push   %eax
  405a5c:	a1 84 00 42 00       	mov    0x420084,%eax
  405a61:	ff d0                	call   *%eax
  405a63:	b9 01 00 00 00       	mov    $0x1,%ecx
  405a68:	01 c1                	add    %eax,%ecx
  405a6a:	0b 3d 16 40 42 00    	or     0x424016,%edi
  405a70:	83 c3 a4             	add    $0xffffffa4,%ebx
  405a73:	13 3d 8c 41 42 00    	adc    0x42418c,%edi
  405a79:	8d 35 c6 25 a7 98    	lea    0x98a725c6,%esi
  405a7f:	81 ee 21 e3 64 98    	sub    $0x9864e321,%esi
  405a85:	56                   	push   %esi
  405a86:	8d 15 b7 25 a7 98    	lea    0x98a725b7,%edx
  405a8c:	81 ea 21 e3 64 98    	sub    $0x9864e321,%edx
  405a92:	52                   	push   %edx
  405a93:	a1 84 00 42 00       	mov    0x420084,%eax
  405a98:	ff d0                	call   *%eax
  405a9a:	21 05 c7 41 42 00    	and    %eax,0x4241c7
  405aa0:	19 ff                	sbb    %edi,%edi
  405aa2:	83 15 b7 40 42 00 17 	adcl   $0x17,0x4240b7
  405aa9:	b9 01 00 00 00       	mov    $0x1,%ecx
  405aae:	83 c1 af             	add    $0xffffffaf,%ecx
  405ab1:	82 2d 2a 41 42 00 37 	subb   $0x37,0x42412a
  405ab8:	2e e9 8e 5f 00 00    	cs jmp 0x40ba4c
  405abe:	12 25 fc 40 42 00    	adc    0x4240fc,%ah
  405ac4:	31 35 6b 41 42 00    	xor    %esi,0x42416b
  405aca:	83 c8 61             	or     $0x61,%eax
  405acd:	00 00                	add    %al,(%eax)
  405acf:	00 8d 1d c6 25 a7    	add    %cl,-0x58da39e3(%ebp)
  405ad5:	98                   	cwtl
  405ad6:	81 eb 21 e3 64 98    	sub    $0x9864e321,%ebx
  405adc:	53                   	push   %ebx
  405add:	8d 15 b7 25 a7 98    	lea    0x98a725b7,%edx
  405ae3:	81 ea 21 e3 64 98    	sub    $0x9864e321,%edx
  405ae9:	52                   	push   %edx
  405aea:	a1 84 00 42 00       	mov    0x420084,%eax
  405aef:	ff d0                	call   *%eax
  405af1:	ba 01 00 00 00       	mov    $0x1,%edx
  405af6:	83 c2 87             	add    $0xffffff87,%edx
  405af9:	81 15 4d 40 42 00 d2 	adcl   $0xd2,0x42404d
  405b00:	00 00 00 
  405b03:	0b 15 3a 40 42 00    	or     0x42403a,%edx
  405b09:	82 2d 37 40 42 00 28 	subb   $0x28,0x424037
  405b10:	6a 0f                	push   $0xf
  405b12:	ff 0c 24             	decl   (%esp)
  405b15:	8d 15 a9 25 a7 98    	lea    0x98a725a9,%edx
  405b1b:	81 ea 21 e3 64 98    	sub    $0x9864e321,%edx
  405b21:	52                   	push   %edx
  405b22:	8d 3d 97 25 a7 98    	lea    0x98a72597,%edi
  405b28:	81 ef 21 e3 64 98    	sub    $0x9864e321,%edi
  405b2e:	57                   	push   %edi
  405b2f:	a1 78 00 42 00       	mov    0x420078,%eax
  405b34:	ff d0                	call   *%eax
  405b36:	85 c0                	test   %eax,%eax
  405b38:	0f 85 d2 63 00 00    	jne    0x40bf10
  405b3e:	ba 01 00 00 00       	mov    $0x1,%edx
  405b43:	83 c2 7e             	add    $0x7e,%edx
  405b46:	83 15 d3 40 42 00 6a 	adcl   $0x6a,0x4240d3
  405b4d:	01 15 3e 40 42 00    	add    %edx,0x42403e
  405b53:	6a 0f                	push   $0xf
  405b55:	ff 0c 24             	decl   (%esp)
  405b58:	8d 35 a9 25 a7 98    	lea    0x98a725a9,%esi
  405b5e:	81 ee 21 e3 64 98    	sub    $0x9864e321,%esi
  405b64:	56                   	push   %esi
  405b65:	8d 0d 97 25 a7 98    	lea    0x98a72597,%ecx
  405b6b:	81 e9 21 e3 64 98    	sub    $0x9864e321,%ecx
  405b71:	51                   	push   %ecx
  405b72:	a1 78 00 42 00       	mov    0x420078,%eax
  405b77:	ff d0                	call   *%eax
  405b79:	85 c0                	test   %eax,%eax
  405b7b:	0f 85 8f 63 00 00    	jne    0x40bf10
  405b81:	8d 3d c6 25 a7 98    	lea    0x98a725c6,%edi
  405b87:	81 ef 21 e3 64 98    	sub    $0x9864e321,%edi
  405b8d:	57                   	push   %edi
  405b8e:	8d 0d b7 25 a7 98    	lea    0x98a725b7,%ecx
  405b94:	81 e9 21 e3 64 98    	sub    $0x9864e321,%ecx
  405b9a:	51                   	push   %ecx
  405b9b:	a1 84 00 42 00       	mov    0x420084,%eax
  405ba0:	ff d0                	call   *%eax
  405ba2:	19 f3                	sbb    %esi,%ebx
  405ba4:	8d 0d c6 25 a7 98    	lea    0x98a725c6,%ecx
  405baa:	81 e9 21 e3 64 98    	sub    $0x9864e321,%ecx
  405bb0:	51                   	push   %ecx
  405bb1:	8d 15 b7 25 a7 98    	lea    0x98a725b7,%edx
  405bb7:	81 ea 21 e3 64 98    	sub    $0x9864e321,%edx
  405bbd:	52                   	push   %edx
  405bbe:	a1 84 00 42 00       	mov    0x420084,%eax
  405bc3:	ff d0                	call   *%eax
  405bc5:	6a 0f                	push   $0xf
  405bc7:	ff 0c 24             	decl   (%esp)
  405bca:	8d 3d a9 25 a7 98    	lea    0x98a725a9,%edi
  405bd0:	81 ef 21 e3 64 98    	sub    $0x9864e321,%edi
  405bd6:	57                   	push   %edi
  405bd7:	8d 0d 97 25 a7 98    	lea    0x98a72597,%ecx
  405bdd:	81 e9 21 e3 64 98    	sub    $0x9864e321,%ecx
  405be3:	51                   	push   %ecx
  405be4:	a1 78 00 42 00       	mov    0x420078,%eax
  405be9:	ff d0                	call   *%eax
  405beb:	85 c0                	test   %eax,%eax
  405bed:	0f 85 1d 63 00 00    	jne    0x40bf10
  405bf3:	13 05 2b 41 42 00    	adc    0x42412b,%eax
  405bf9:	83 35 cf 41 42 00 50 	xorl   $0x50,0x4241cf
  405c00:	83 f6 e7             	xor    $0xffffffe7,%esi
  405c03:	ba 01 00 00 00       	mov    $0x1,%edx
  405c08:	01 f2                	add    %esi,%edx
  405c0a:	8d 05 c6 25 a7 98    	lea    0x98a725c6,%eax
  405c10:	2d 21 e3 64 98       	sub    $0x9864e321,%eax
  405c15:	50                   	push   %eax
  405c16:	8d 3d b7 25 a7 98    	lea    0x98a725b7,%edi
  405c1c:	81 ef 21 e3 64 98    	sub    $0x9864e321,%edi
  405c22:	57                   	push   %edi
  405c23:	a1 84 00 42 00       	mov    0x420084,%eax
  405c28:	ff d0                	call   *%eax
  405c2a:	83 25 0f 40 42 00 33 	andl   $0x33,0x42400f
  405c31:	8d 35 c6 25 a7 98    	lea    0x98a725c6,%esi
  405c37:	81 ee 21 e3 64 98    	sub    $0x9864e321,%esi
  405c3d:	56                   	push   %esi
  405c3e:	8d 1d b7 25 a7 98    	lea    0x98a725b7,%ebx
  405c44:	81 eb 21 e3 64 98    	sub    $0x9864e321,%ebx
  405c4a:	53                   	push   %ebx
  405c4b:	a1 84 00 42 00       	mov    0x420084,%eax
  405c50:	ff d0                	call   *%eax
  405c52:	13 35 9b 40 42 00    	adc    0x42409b,%esi
  405c58:	01 35 d8 40 42 00    	add    %esi,0x4240d8
  405c5e:	31 c6                	xor    %eax,%esi
  405c60:	19 05 fc 40 42 00    	sbb    %eax,0x4240fc
  405c66:	6a 0f                	push   $0xf
  405c68:	ff 0c 24             	decl   (%esp)
  405c6b:	8d 1d a9 25 a7 98    	lea    0x98a725a9,%ebx
  405c71:	81 eb 21 e3 64 98    	sub    $0x9864e321,%ebx
  405c77:	53                   	push   %ebx
  405c78:	8d 15 97 25 a7 98    	lea    0x98a72597,%edx
  405c7e:	81 ea 21 e3 64 98    	sub    $0x9864e321,%edx
  405c84:	52                   	push   %edx
  405c85:	a1 78 00 42 00       	mov    0x420078,%eax
  405c8a:	ff d0                	call   *%eax
  405c8c:	83 f8 00             	cmp    $0x0,%eax
  405c8f:	0f 85 7b 62 00 00    	jne    0x40bf10
  405c95:	b9 01 00 00 00       	mov    $0x1,%ecx
  405c9a:	83 c1 d0             	add    $0xffffffd0,%ecx
  405c9d:	2a 1d 4e 40 42 00    	sub    0x42404e,%bl
  405ca3:	19 35 fe 40 42 00    	sbb    %esi,0x4240fe
  405ca9:	13 0d cf 40 42 00    	adc    0x4240cf,%ecx
  405caf:	8d 15 c6 25 a7 98    	lea    0x98a725c6,%edx
  405cb5:	81 ea 21 e3 64 98    	sub    $0x9864e321,%edx
  405cbb:	52                   	push   %edx
  405cbc:	8d 3d b7 25 a7 98    	lea    0x98a725b7,%edi
  405cc2:	81 ef 21 e3 64 98    	sub    $0x9864e321,%edi
  405cc8:	57                   	push   %edi
  405cc9:	a1 84 00 42 00       	mov    0x420084,%eax
  405cce:	ff d0                	call   *%eax
  405cd0:	2e e9 76 5d 00 00    	cs jmp 0x40ba4c
  405cd6:	00 00                	add    %al,(%eax)
  405cd8:	00 00                	add    %al,(%eax)
  405cda:	00 00                	add    %al,(%eax)
  405cdc:	00 b9 01 00 00 00    	add    %bh,0x1(%ecx)
  405ce2:	83 c1 bd             	add    $0xffffffbd,%ecx
  405ce5:	83 e0 96             	and    $0xffffff96,%eax
  405ce8:	8d 35 c6 25 a7 98    	lea    0x98a725c6,%esi
  405cee:	81 ee 21 e3 64 98    	sub    $0x9864e321,%esi
  405cf4:	56                   	push   %esi
  405cf5:	8d 15 b7 25 a7 98    	lea    0x98a725b7,%edx
  405cfb:	81 ea 21 e3 64 98    	sub    $0x9864e321,%edx
  405d01:	52                   	push   %edx
  405d02:	a1 84 00 42 00       	mov    0x420084,%eax
  405d07:	ff d0                	call   *%eax
  405d09:	83 15 11 40 42 00 43 	adcl   $0x43,0x424011
  405d10:	31 3d 3f 40 42 00    	xor    %edi,0x42403f
  405d16:	31 35 b8 40 42 00    	xor    %esi,0x4240b8
  405d1c:	0a 1d e0 41 42 00    	or     0x4241e0,%bl
  405d22:	11 1d c1 40 42 00    	adc    %ebx,0x4240c1
  405d28:	6a 0f                	push   $0xf
  405d2a:	ff 0c 24             	decl   (%esp)
  405d2d:	8d 1d a9 25 a7 98    	lea    0x98a725a9,%ebx
  405d33:	81 eb 21 e3 64 98    	sub    $0x9864e321,%ebx
  405d39:	53                   	push   %ebx
  405d3a:	8d 15 97 25 a7 98    	lea    0x98a72597,%edx
  405d40:	81 ea 21 e3 64 98    	sub    $0x9864e321,%edx
  405d46:	52                   	push   %edx
  405d47:	a1 78 00 42 00       	mov    0x420078,%eax
  405d4c:	ff d0                	call   *%eax
  405d4e:	83 f8 00             	cmp    $0x0,%eax
  405d51:	0f 85 b9 61 00 00    	jne    0x40bf10
  405d57:	8d 15 c6 25 a7 98    	lea    0x98a725c6,%edx
  405d5d:	81 ea 21 e3 64 98    	sub    $0x9864e321,%edx
  405d63:	52                   	push   %edx
  405d64:	8d 3d b7 25 a7 98    	lea    0x98a725b7,%edi
  405d6a:	81 ef 21 e3 64 98    	sub    $0x9864e321,%edi
  405d70:	57                   	push   %edi
  405d71:	a1 84 00 42 00       	mov    0x420084,%eax
  405d76:	ff d0                	call   *%eax
  405d78:	6a 0f                	push   $0xf
  405d7a:	ff 0c 24             	decl   (%esp)
  405d7d:	8d 05 a9 25 a7 98    	lea    0x98a725a9,%eax
  405d83:	2d 21 e3 64 98       	sub    $0x9864e321,%eax
  405d88:	50                   	push   %eax
  405d89:	8d 15 97 25 a7 98    	lea    0x98a72597,%edx
  405d8f:	81 ea 21 e3 64 98    	sub    $0x9864e321,%edx
  405d95:	52                   	push   %edx
  405d96:	a1 78 00 42 00       	mov    0x420078,%eax
  405d9b:	ff d0                	call   *%eax
  405d9d:	85 c0                	test   %eax,%eax
  405d9f:	0f 85 6b 61 00 00    	jne    0x40bf10
  405da5:	83 f0 0e             	xor    $0xe,%eax
  405da8:	6a 0f                	push   $0xf
  405daa:	ff 0c 24             	decl   (%esp)
  405dad:	8d 1d a9 25 a7 98    	lea    0x98a725a9,%ebx
  405db3:	81 eb 21 e3 64 98    	sub    $0x9864e321,%ebx
  405db9:	53                   	push   %ebx
  405dba:	8d 1d 97 25 a7 98    	lea    0x98a72597,%ebx
  405dc0:	81 eb 21 e3 64 98    	sub    $0x9864e321,%ebx
  405dc6:	53                   	push   %ebx
  405dc7:	a1 78 00 42 00       	mov    0x420078,%eax
  405dcc:	ff d0                	call   *%eax
  405dce:	85 c0                	test   %eax,%eax
  405dd0:	0f 85 3a 61 00 00    	jne    0x40bf10
  405dd6:	19 de                	sbb    %ebx,%esi
  405dd8:	83 cf 8c             	or     $0xffffff8c,%edi
  405ddb:	0a 1d a4 40 42 00    	or     0x4240a4,%bl
  405de1:	6a 0f                	push   $0xf
  405de3:	ff 0c 24             	decl   (%esp)
  405de6:	8d 0d a9 25 a7 98    	lea    0x98a725a9,%ecx
  405dec:	81 e9 21 e3 64 98    	sub    $0x9864e321,%ecx
  405df2:	51                   	push   %ecx
  405df3:	8d 1d 97 25 a7 98    	lea    0x98a72597,%ebx
  405df9:	81 eb 21 e3 64 98    	sub    $0x9864e321,%ebx
  405dff:	53                   	push   %ebx
  405e00:	a1 78 00 42 00       	mov    0x420078,%eax
  405e05:	ff d0                	call   *%eax
  405e07:	83 f8 00             	cmp    $0x0,%eax
  405e0a:	0f 85 00 61 00 00    	jne    0x40bf10
  405e10:	83 d8 43             	sbb    $0x43,%eax
  405e13:	13 05 8f 41 42 00    	adc    0x42418f,%eax
  405e19:	6a 0f                	push   $0xf
  405e1b:	ff 0c 24             	decl   (%esp)
  405e1e:	8d 1d a9 25 a7 98    	lea    0x98a725a9,%ebx
  405e24:	81 eb 21 e3 64 98    	sub    $0x9864e321,%ebx
  405e2a:	53                   	push   %ebx
  405e2b:	8d 0d 97 25 a7 98    	lea    0x98a72597,%ecx
  405e31:	81 e9 21 e3 64 98    	sub    $0x9864e321,%ecx
  405e37:	51                   	push   %ecx
  405e38:	a1 78 00 42 00       	mov    0x420078,%eax
  405e3d:	ff d0                	call   *%eax
  405e3f:	85 c0                	test   %eax,%eax
  405e41:	0f 85 c9 60 00 00    	jne    0x40bf10
  405e47:	82 df a8             	sbb    $0xa8,%bh
  405e4a:	6a 0f                	push   $0xf
  405e4c:	ff 0c 24             	decl   (%esp)
  405e4f:	8d 05 a9 25 a7 98    	lea    0x98a725a9,%eax
  405e55:	2d 21 e3 64 98       	sub    $0x9864e321,%eax
  405e5a:	50                   	push   %eax
  405e5b:	8d 35 97 25 a7 98    	lea    0x98a72597,%esi
  405e61:	81 ee 21 e3 64 98    	sub    $0x9864e321,%esi
  405e67:	56                   	push   %esi
  405e68:	a1 78 00 42 00       	mov    0x420078,%eax
  405e6d:	ff d0                	call   *%eax
  405e6f:	85 c0                	test   %eax,%eax
  405e71:	0f 85 99 60 00 00    	jne    0x40bf10
  405e77:	09 35 f9 40 42 00    	or     %esi,0x4240f9
  405e7d:	8d 15 c6 25 a7 98    	lea    0x98a725c6,%edx
  405e83:	81 ea 21 e3 64 98    	sub    $0x9864e321,%edx
  405e89:	52                   	push   %edx
  405e8a:	8d 0d b7 25 a7 98    	lea    0x98a725b7,%ecx
  405e90:	81 e9 21 e3 64 98    	sub    $0x9864e321,%ecx
  405e96:	51                   	push   %ecx
  405e97:	a1 84 00 42 00       	mov    0x420084,%eax
  405e9c:	ff d0                	call   *%eax
  405e9e:	83 0d 44 41 42 00 4d 	orl    $0x4d,0x424144
  405ea5:	01 f3                	add    %esi,%ebx
  405ea7:	8d 05 c6 25 a7 98    	lea    0x98a725c6,%eax
  405ead:	2d 21 e3 64 98       	sub    $0x9864e321,%eax
  405eb2:	50                   	push   %eax
  405eb3:	8d 3d b7 25 a7 98    	lea    0x98a725b7,%edi
  405eb9:	81 ef 21 e3 64 98    	sub    $0x9864e321,%edi
  405ebf:	57                   	push   %edi
  405ec0:	a1 84 00 42 00       	mov    0x420084,%eax
  405ec5:	ff d0                	call   *%eax
  405ec7:	1c a2                	sbb    $0xa2,%al
  405ec9:	b9 01 00 00 00       	mov    $0x1,%ecx
  405ece:	83 c1 d4             	add    $0xffffffd4,%ecx
  405ed1:	13 35 66 41 42 00    	adc    0x424166,%esi
  405ed7:	2e e9 6f 5b 00 00    	cs jmp 0x40ba4c
  405edd:	0b 3d a7 40 42 00    	or     0x4240a7,%edi
  405ee3:	09 0d a0 41 42 00    	or     %ecx,0x4241a0
  405ee9:	31 1d cf 41 42 00    	xor    %ebx,0x4241cf
  405eef:	83 df b3             	sbb    $0xffffffb3,%edi
  405ef2:	ba 01 00 00 00       	mov    $0x1,%edx
  405ef7:	01 f2                	add    %esi,%edx
	...
  405f05:	00 83 f6 81 8d 05    	add    %al,0x58d81f6(%ebx)
  405f0b:	c6                   	(bad)
  405f0c:	25 a7 98 2d 21       	and    $0x212d98a7,%eax
  405f11:	e3 64                	jecxz  0x405f77
  405f13:	98                   	cwtl
  405f14:	50                   	push   %eax
  405f15:	8d 0d b7 25 a7 98    	lea    0x98a725b7,%ecx
  405f1b:	81 e9 21 e3 64 98    	sub    $0x9864e321,%ecx
  405f21:	51                   	push   %ecx
  405f22:	a1 84 00 42 00       	mov    0x420084,%eax
  405f27:	ff d0                	call   *%eax
  405f29:	c7 05 d0 40 42 00 0e 	movl   $0xe,0x4240d0
  405f30:	00 00 00 
  405f33:	8d 15 c6 25 a7 98    	lea    0x98a725c6,%edx
  405f39:	81 ea 21 e3 64 98    	sub    $0x9864e321,%edx
  405f3f:	52                   	push   %edx
  405f40:	8d 05 b7 25 a7 98    	lea    0x98a725b7,%eax
  405f46:	2d 21 e3 64 98       	sub    $0x9864e321,%eax
  405f4b:	50                   	push   %eax
  405f4c:	a1 84 00 42 00       	mov    0x420084,%eax
  405f51:	ff d0                	call   *%eax
  405f53:	12 25 63 41 42 00    	adc    0x424163,%ah
  405f59:	83 35 a4 40 42 00 5e 	xorl   $0x5e,0x4240a4
  405f60:	12 1d 29 40 42 00    	adc    0x424029,%bl
  405f66:	6a 0f                	push   $0xf
  405f68:	ff 0c 24             	decl   (%esp)
  405f6b:	8d 35 a9 25 a7 98    	lea    0x98a725a9,%esi
  405f71:	81 ee 21 e3 64 98    	sub    $0x9864e321,%esi
  405f77:	56                   	push   %esi
  405f78:	8d 05 97 25 a7 98    	lea    0x98a72597,%eax
  405f7e:	2d 21 e3 64 98       	sub    $0x9864e321,%eax
  405f83:	50                   	push   %eax
  405f84:	a1 78 00 42 00       	mov    0x420078,%eax
  405f89:	ff d0                	call   *%eax
  405f8b:	83 f8 00             	cmp    $0x0,%eax
  405f8e:	0f 85 7c 5f 00 00    	jne    0x40bf10
  405f94:	29 de                	sub    %ebx,%esi
  405f96:	11 3d ad 40 42 00    	adc    %edi,0x4240ad
  405f9c:	83 1d e1 40 42 00 34 	sbbl   $0x34,0x4240e1
  405fa3:	6a 0f                	push   $0xf
  405fa5:	ff 0c 24             	decl   (%esp)
  405fa8:	8d 35 a9 25 a7 98    	lea    0x98a725a9,%esi
  405fae:	81 ee 21 e3 64 98    	sub    $0x9864e321,%esi
  405fb4:	56                   	push   %esi
  405fb5:	8d 0d 97 25 a7 98    	lea    0x98a72597,%ecx
  405fbb:	81 e9 21 e3 64 98    	sub    $0x9864e321,%ecx
  405fc1:	51                   	push   %ecx
  405fc2:	a1 78 00 42 00       	mov    0x420078,%eax
  405fc7:	ff d0                	call   *%eax
  405fc9:	85 c0                	test   %eax,%eax
  405fcb:	0f 85 3f 5f 00 00    	jne    0x40bf10
  405fd1:	21 05 62 41 42 00    	and    %eax,0x424162
  405fd7:	0b 35 b8 41 42 00    	or     0x4241b8,%esi
  405fdd:	31 05 4a 40 42 00    	xor    %eax,0x42404a
  405fe3:	8d 15 c6 25 a7 98    	lea    0x98a725c6,%edx
  405fe9:	81 ea 21 e3 64 98    	sub    $0x9864e321,%edx
  405fef:	52                   	push   %edx
  405ff0:	8d 3d b7 25 a7 98    	lea    0x98a725b7,%edi
  405ff6:	81 ef 21 e3 64 98    	sub    $0x9864e321,%edi
  405ffc:	57                   	push   %edi
  405ffd:	a1 84 00 42 00       	mov    0x420084,%eax
  406002:	ff d0                	call   *%eax
  406004:	09 1d de 40 42 00    	or     %ebx,0x4240de
  40600a:	11 fe                	adc    %edi,%esi
  40600c:	83 c6 52             	add    $0x52,%esi
  40600f:	6a 0f                	push   $0xf
  406011:	ff 0c 24             	decl   (%esp)
  406014:	8d 15 a9 25 a7 98    	lea    0x98a725a9,%edx
  40601a:	81 ea 21 e3 64 98    	sub    $0x9864e321,%edx
  406020:	52                   	push   %edx
  406021:	8d 05 97 25 a7 98    	lea    0x98a72597,%eax
  406027:	2d 21 e3 64 98       	sub    $0x9864e321,%eax
  40602c:	50                   	push   %eax
  40602d:	a1 78 00 42 00       	mov    0x420078,%eax
  406032:	ff d0                	call   *%eax
  406034:	85 c0                	test   %eax,%eax
  406036:	0f 85 d4 5e 00 00    	jne    0x40bf10
  40603c:	11 35 b8 41 42 00    	adc    %esi,0x4241b8
  406042:	ba 01 00 00 00       	mov    $0x1,%edx
  406047:	01 da                	add    %ebx,%edx
  406049:	01 d0                	add    %edx,%eax
  40604b:	31 d7                	xor    %edx,%edi
  40604d:	6a 0f                	push   $0xf
  40604f:	ff 0c 24             	decl   (%esp)
  406052:	8d 15 a9 25 a7 98    	lea    0x98a725a9,%edx
  406058:	81 ea 21 e3 64 98    	sub    $0x9864e321,%edx
  40605e:	52                   	push   %edx
  40605f:	8d 35 97 25 a7 98    	lea    0x98a72597,%esi
  406065:	81 ee 21 e3 64 98    	sub    $0x9864e321,%esi
  40606b:	56                   	push   %esi
  40606c:	a1 78 00 42 00       	mov    0x420078,%eax
  406071:	ff d0                	call   *%eax
  406073:	83 f8 00             	cmp    $0x0,%eax
  406076:	0f 85 94 5e 00 00    	jne    0x40bf10
  40607c:	83 25 78 41 42 00 5a 	andl   $0x5a,0x424178
  406083:	8d 05 c6 25 a7 98    	lea    0x98a725c6,%eax
  406089:	2d 21 e3 64 98       	sub    $0x9864e321,%eax
  40608e:	50                   	push   %eax
  40608f:	8d 05 b7 25 a7 98    	lea    0x98a725b7,%eax
  406095:	2d 21 e3 64 98       	sub    $0x9864e321,%eax
  40609a:	50                   	push   %eax
  40609b:	a1 84 00 42 00       	mov    0x420084,%eax
  4060a0:	ff d0                	call   *%eax
  4060a2:	2a 25 74 40 42 00    	sub    0x424074,%ah
  4060a8:	6a 0f                	push   $0xf
  4060aa:	ff 0c 24             	decl   (%esp)
  4060ad:	8d 0d a9 25 a7 98    	lea    0x98a725a9,%ecx
  4060b3:	81 e9 21 e3 64 98    	sub    $0x9864e321,%ecx
  4060b9:	51                   	push   %ecx
  4060ba:	8d 1d 97 25 a7 98    	lea    0x98a72597,%ebx
  4060c0:	81 eb 21 e3 64 98    	sub    $0x9864e321,%ebx
  4060c6:	53                   	push   %ebx
  4060c7:	a1 78 00 42 00       	mov    0x420078,%eax
  4060cc:	ff d0                	call   *%eax
  4060ce:	83 f8 00             	cmp    $0x0,%eax
  4060d1:	0f 85 39 5e 00 00    	jne    0x40bf10
  4060d7:	83 c7 5f             	add    $0x5f,%edi
  4060da:	6a 0f                	push   $0xf
  4060dc:	ff 0c 24             	decl   (%esp)
  4060df:	8d 3d a9 25 a7 98    	lea    0x98a725a9,%edi
  4060e5:	81 ef 21 e3 64 98    	sub    $0x9864e321,%edi
  4060eb:	57                   	push   %edi
  4060ec:	8d 35 97 25 a7 98    	lea    0x98a72597,%esi
  4060f2:	81 ee 21 e3 64 98    	sub    $0x9864e321,%esi
  4060f8:	56                   	push   %esi
  4060f9:	a1 78 00 42 00       	mov    0x420078,%eax
  4060fe:	ff d0                	call   *%eax
  406100:	83 f8 00             	cmp    $0x0,%eax
  406103:	0f 85 07 5e 00 00    	jne    0x40bf10
  406109:	13 05 3a 41 42 00    	adc    0x42413a,%eax
  40610f:	81 25 cb 41 42 00 a5 	andl   $0xa5,0x4241cb
  406116:	00 00 00 
  406119:	01 fe                	add    %edi,%esi
  40611b:	b9 01 00 00 00       	mov    $0x1,%ecx
  406120:	83 c1 2d             	add    $0x2d,%ecx
  406123:	ba 01 00 00 00       	mov    $0x1,%edx
  406128:	01 f2                	add    %esi,%edx
  40612a:	8d 1d c6 25 a7 98    	lea    0x98a725c6,%ebx
  406130:	81 eb 21 e3 64 98    	sub    $0x9864e321,%ebx
  406136:	53                   	push   %ebx
  406137:	8d 3d b7 25 a7 98    	lea    0x98a725b7,%edi
  40613d:	81 ef 21 e3 64 98    	sub    $0x9864e321,%edi
  406143:	57                   	push   %edi
  406144:	a1 84 00 42 00       	mov    0x420084,%eax
  406149:	ff d0                	call   *%eax
  40614b:	2e e9 fb 58 00 00    	cs jmp 0x40ba4c
  406151:	b9 01 00 00 00       	mov    $0x1,%ecx
  406156:	83 c1 cb             	add    $0xffffffcb,%ecx
  406159:	82 dc 2b             	sbb    $0x2b,%ah
  40615c:	81 15 25 40 42 00 90 	adcl   $0x90,0x424025
  406163:	00 00 00 
  406166:	29 df                	sub    %ebx,%edi
  406168:	00 00                	add    %al,(%eax)
  40616a:	00 6a 0f             	add    %ch,0xf(%edx)
  40616d:	ff 0c 24             	decl   (%esp)
  406170:	8d 1d a9 25 a7 98    	lea    0x98a725a9,%ebx
  406176:	81 eb 21 e3 64 98    	sub    $0x9864e321,%ebx
  40617c:	53                   	push   %ebx
  40617d:	8d 15 97 25 a7 98    	lea    0x98a72597,%edx
  406183:	81 ea 21 e3 64 98    	sub    $0x9864e321,%edx
  406189:	52                   	push   %edx
  40618a:	a1 78 00 42 00       	mov    0x420078,%eax
  40618f:	ff d0                	call   *%eax
