
sample3:     file format pei-i386


Disassembly of section .text:

00401000 <.text>:
  401000:	00 2a                	add    %ch,(%edx)
  401002:	00 00                	add    %al,(%eax)
  401004:	03 00                	add    (%eax),%eax
  401006:	00 00                	add    %al,(%eax)
  401008:	04 00                	add    $0x0,%al
  40100a:	00 00                	add    %al,(%eax)
  40100c:	00 0f                	add    %cl,(%edi)
  40100e:	00 00                	add    %al,(%eax)
  401010:	28 00                	sub    %al,(%eax)
  401012:	00 00                	add    %al,(%eax)
  401014:	31 d2                	xor    %edx,%edx
  401016:	55                   	push   %ebp
  401017:	b9 30 01 00 00       	mov    $0x130,%ecx
  40101c:	89 e5                	mov    %esp,%ebp
  40101e:	6a 00                	push   $0x0
  401020:	8d 65 c4             	lea    -0x3c(%ebp),%esp
  401023:	66 81 fd 00 fe       	cmp    $0xfe00,%bp
  401028:	0f 82 80 a9 00 00    	jb     0x40b9ae
  40102e:	b8 01 00 00 00       	mov    $0x1,%eax
  401033:	13 05 d3 30 42 00    	adc    0x4230d3,%eax
  401039:	8d 3d 97 17 a7 98    	lea    0x98a71797,%edi
  40103f:	81 ef 21 e3 64 98    	sub    $0x9864e321,%edi
  401045:	57                   	push   %edi
  401046:	6a 01                	push   $0x1
  401048:	ff 0c 24             	decl   (%esp)
  40104b:	68 01 00 10 00       	push   $0x100001
  401050:	ff 0c 24             	decl   (%esp)
  401053:	a1 e8 f0 41 00       	mov    0x41f0e8,%eax
  401058:	ff d0                	call   *%eax
  40105a:	83 f8 00             	cmp    $0x0,%eax
  40105d:	0f 85 4b a9 00 00    	jne    0x40b9ae
  401063:	82 2d 18 30 42 00 99 	subb   $0x99,0x423018
  40106a:	8d 35 97 17 a7 98    	lea    0x98a71797,%esi
  401070:	81 ee 21 e3 64 98    	sub    $0x9864e321,%esi
  401076:	56                   	push   %esi
  401077:	6a 01                	push   $0x1
  401079:	ff 0c 24             	decl   (%esp)
  40107c:	68 01 00 10 00       	push   $0x100001
  401081:	ff 0c 24             	decl   (%esp)
  401084:	a1 e8 f0 41 00       	mov    0x41f0e8,%eax
  401089:	ff d0                	call   *%eax
  40108b:	83 f8 00             	cmp    $0x0,%eax
  40108e:	0f 85 1a a9 00 00    	jne    0x40b9ae
  401094:	bb 01 00 00 00       	mov    $0x1,%ebx
  401099:	83 c3 07             	add    $0x7,%ebx
  40109c:	b9 01 00 00 00       	mov    $0x1,%ecx
  4010a1:	83 c1 43             	add    $0x43,%ecx
  4010a4:	bf 01 00 00 00       	mov    $0x1,%edi
  4010a9:	13 3d 49 31 42 00    	adc    0x423149,%edi
  4010af:	13 3d 4f 31 42 00    	adc    0x42314f,%edi
  4010b5:	8d 1d 97 17 a7 98    	lea    0x98a71797,%ebx
  4010bb:	81 eb 21 e3 64 98    	sub    $0x9864e321,%ebx
  4010c1:	53                   	push   %ebx
  4010c2:	6a 01                	push   $0x1
  4010c4:	ff 0c 24             	decl   (%esp)
  4010c7:	68 01 00 10 00       	push   $0x100001
  4010cc:	ff 0c 24             	decl   (%esp)
  4010cf:	a1 e8 f0 41 00       	mov    0x41f0e8,%eax
  4010d4:	ff d0                	call   *%eax
  4010d6:	83 f8 00             	cmp    $0x0,%eax
  4010d9:	0f 85 cf a8 00 00    	jne    0x40b9ae
  4010df:	8d 35 af 17 a7 98    	lea    0x98a717af,%esi
  4010e5:	81 ee 21 e3 64 98    	sub    $0x9864e321,%esi
  4010eb:	56                   	push   %esi
  4010ec:	8d 1d a4 17 a7 98    	lea    0x98a717a4,%ebx
  4010f2:	81 eb 21 e3 64 98    	sub    $0x9864e321,%ebx
  4010f8:	53                   	push   %ebx
  4010f9:	a1 10 f1 41 00       	mov    0x41f110,%eax
  4010fe:	ff d0                	call   *%eax
  401100:	ba 01 00 00 00       	mov    $0x1,%edx
  401105:	83 c2 59             	add    $0x59,%edx
  401108:	8d 05 af 17 a7 98    	lea    0x98a717af,%eax
  40110e:	2d 21 e3 64 98       	sub    $0x9864e321,%eax
  401113:	50                   	push   %eax
  401114:	8d 3d a4 17 a7 98    	lea    0x98a717a4,%edi
  40111a:	81 ef 21 e3 64 98    	sub    $0x9864e321,%edi
  401120:	57                   	push   %edi
  401121:	a1 10 f1 41 00       	mov    0x41f110,%eax
  401126:	ff d0                	call   *%eax
  401128:	21 3d e9 31 42 00    	and    %edi,0x4231e9
  40112e:	83 c7 ab             	add    $0xffffffab,%edi
  401131:	b5 01                	mov    $0x1,%ch
  401133:	82 c5 69             	add    $0x69,%ch
  401136:	29 1d 1e 30 42 00    	sub    %ebx,0x42301e
  40113c:	8d 3d 97 17 a7 98    	lea    0x98a71797,%edi
  401142:	81 ef 21 e3 64 98    	sub    $0x9864e321,%edi
  401148:	57                   	push   %edi
  401149:	6a 01                	push   $0x1
  40114b:	ff 0c 24             	decl   (%esp)
  40114e:	68 01 00 10 00       	push   $0x100001
  401153:	ff 0c 24             	decl   (%esp)
  401156:	a1 e8 f0 41 00       	mov    0x41f0e8,%eax
  40115b:	ff d0                	call   *%eax
  40115d:	85 c0                	test   %eax,%eax
  40115f:	0f 85 49 a8 00 00    	jne    0x40b9ae
  401165:	10 fb                	adc    %bh,%bl
  401167:	83 25 41 31 42 00 35 	andl   $0x35,0x423141
  40116e:	c7 05 81 30 42 00 1f 	movl   $0x1f,0x423081
  401175:	00 00 00 
  401178:	b9 01 00 00 00       	mov    $0x1,%ecx
  40117d:	13 0d bc 31 42 00    	adc    0x4231bc,%ecx
  401183:	ba 01 00 00 00       	mov    $0x1,%edx
  401188:	01 da                	add    %ebx,%edx
  40118a:	8d 0d 97 17 a7 98    	lea    0x98a71797,%ecx
  401190:	81 e9 21 e3 64 98    	sub    $0x9864e321,%ecx
  401196:	51                   	push   %ecx
  401197:	6a 01                	push   $0x1
  401199:	ff 0c 24             	decl   (%esp)
  40119c:	68 01 00 10 00       	push   $0x100001
  4011a1:	ff 0c 24             	decl   (%esp)
  4011a4:	a1 e8 f0 41 00       	mov    0x41f0e8,%eax
  4011a9:	ff d0                	call   *%eax
  4011ab:	85 c0                	test   %eax,%eax
  4011ad:	0f 85 fb a7 00 00    	jne    0x40b9ae
  4011b3:	29 3d 9e 30 42 00    	sub    %edi,0x42309e
  4011b9:	b9 01 00 00 00       	mov    $0x1,%ecx
  4011be:	13 0d 10 31 42 00    	adc    0x423110,%ecx
  4011c4:	ba 01 00 00 00       	mov    $0x1,%edx
  4011c9:	13 15 e0 30 42 00    	adc    0x4230e0,%edx
  4011cf:	be 01 00 00 00       	mov    $0x1,%esi
  4011d4:	01 d6                	add    %edx,%esi
  4011d6:	8d 35 af 17 a7 98    	lea    0x98a717af,%esi
  4011dc:	81 ee 21 e3 64 98    	sub    $0x9864e321,%esi
  4011e2:	56                   	push   %esi
  4011e3:	8d 05 a4 17 a7 98    	lea    0x98a717a4,%eax
  4011e9:	2d 21 e3 64 98       	sub    $0x9864e321,%eax
  4011ee:	50                   	push   %eax
  4011ef:	a1 10 f1 41 00       	mov    0x41f110,%eax
  4011f4:	ff d0                	call   *%eax
  4011f6:	8d 3d af 17 a7 98    	lea    0x98a717af,%edi
  4011fc:	81 ef 21 e3 64 98    	sub    $0x9864e321,%edi
  401202:	57                   	push   %edi
  401203:	8d 05 a4 17 a7 98    	lea    0x98a717a4,%eax
  401209:	2d 21 e3 64 98       	sub    $0x9864e321,%eax
  40120e:	50                   	push   %eax
  40120f:	a1 10 f1 41 00       	mov    0x41f110,%eax
  401214:	ff d0                	call   *%eax
  401216:	09 3d 49 30 42 00    	or     %edi,0x423049
  40121c:	21 3d 75 31 42 00    	and    %edi,0x423175
  401222:	8d 35 af 17 a7 98    	lea    0x98a717af,%esi
  401228:	81 ee 21 e3 64 98    	sub    $0x9864e321,%esi
  40122e:	56                   	push   %esi
  40122f:	8d 0d a4 17 a7 98    	lea    0x98a717a4,%ecx
  401235:	81 e9 21 e3 64 98    	sub    $0x9864e321,%ecx
  40123b:	51                   	push   %ecx
  40123c:	a1 10 f1 41 00       	mov    0x41f110,%eax
  401241:	ff d0                	call   *%eax
  401243:	11 35 61 31 42 00    	adc    %esi,0x423161
  401249:	11 1d 0d 30 42 00    	adc    %ebx,0x42300d
  40124f:	8d 0d 97 17 a7 98    	lea    0x98a71797,%ecx
  401255:	81 e9 21 e3 64 98    	sub    $0x9864e321,%ecx
  40125b:	51                   	push   %ecx
  40125c:	6a 01                	push   $0x1
  40125e:	ff 0c 24             	decl   (%esp)
  401261:	68 01 00 10 00       	push   $0x100001
  401266:	ff 0c 24             	decl   (%esp)
  401269:	a1 e8 f0 41 00       	mov    0x41f0e8,%eax
  40126e:	ff d0                	call   *%eax
  401270:	83 f8 00             	cmp    $0x0,%eax
  401273:	0f 85 35 a7 00 00    	jne    0x40b9ae
  401279:	01 35 23 31 42 00    	add    %esi,0x423123
  40127f:	09 05 9d 31 42 00    	or     %eax,0x42319d
  401285:	b9 01 00 00 00       	mov    $0x1,%ecx
  40128a:	01 f1                	add    %esi,%ecx
  40128c:	8d 3d af 17 a7 98    	lea    0x98a717af,%edi
  401292:	81 ef 21 e3 64 98    	sub    $0x9864e321,%edi
  401298:	57                   	push   %edi
  401299:	8d 05 a4 17 a7 98    	lea    0x98a717a4,%eax
  40129f:	2d 21 e3 64 98       	sub    $0x9864e321,%eax
  4012a4:	50                   	push   %eax
  4012a5:	a1 10 f1 41 00       	mov    0x41f110,%eax
  4012aa:	ff d0                	call   *%eax
  4012ac:	b9 01 00 00 00       	mov    $0x1,%ecx
  4012b1:	13 0d 5c 30 42 00    	adc    0x42305c,%ecx
  4012b7:	2e e9 1b a2 00 00    	cs jmp 0x40b4d8
  4012bd:	83 e1 23             	and    $0x23,%ecx
  4012c0:	00 25 4e 31 42 00    	add    %ah,0x42314e
  4012c6:	83 d8 3a             	sbb    $0x3a,%eax
  4012c9:	ba 01 00 00 00       	mov    $0x1,%edx
  4012ce:	83 c2 d2             	add    $0xffffffd2,%edx
	...
  4012dd:	00 00                	add    %al,(%eax)
  4012df:	8d 05 af 17 a7 98    	lea    0x98a717af,%eax
  4012e5:	2d 21 e3 64 98       	sub    $0x9864e321,%eax
  4012ea:	50                   	push   %eax
  4012eb:	8d 0d a4 17 a7 98    	lea    0x98a717a4,%ecx
  4012f1:	81 e9 21 e3 64 98    	sub    $0x9864e321,%ecx
  4012f7:	51                   	push   %ecx
  4012f8:	a1 10 f1 41 00       	mov    0x41f110,%eax
  4012fd:	ff d0                	call   *%eax
  4012ff:	29 05 25 30 42 00    	sub    %eax,0x423025
  401305:	8d 35 af 17 a7 98    	lea    0x98a717af,%esi
  40130b:	81 ee 21 e3 64 98    	sub    $0x9864e321,%esi
  401311:	56                   	push   %esi
  401312:	8d 3d a4 17 a7 98    	lea    0x98a717a4,%edi
  401318:	81 ef 21 e3 64 98    	sub    $0x9864e321,%edi
  40131e:	57                   	push   %edi
  40131f:	a1 10 f1 41 00       	mov    0x41f110,%eax
  401324:	ff d0                	call   *%eax
  401326:	83 25 08 31 42 00 77 	andl   $0x77,0x423108
  40132d:	01 1d 86 30 42 00    	add    %ebx,0x423086
  401333:	81 15 e6 31 42 00 d0 	adcl   $0xd0,0x4231e6
  40133a:	00 00 00 
  40133d:	ba 01 00 00 00       	mov    $0x1,%edx
  401342:	13 15 79 30 42 00    	adc    0x423079,%edx
  401348:	11 3d 51 31 42 00    	adc    %edi,0x423151
  40134e:	8d 35 97 17 a7 98    	lea    0x98a71797,%esi
  401354:	81 ee 21 e3 64 98    	sub    $0x9864e321,%esi
  40135a:	56                   	push   %esi
  40135b:	6a 01                	push   $0x1
  40135d:	ff 0c 24             	decl   (%esp)
  401360:	68 01 00 10 00       	push   $0x100001
  401365:	ff 0c 24             	decl   (%esp)
  401368:	a1 e8 f0 41 00       	mov    0x41f0e8,%eax
  40136d:	ff d0                	call   *%eax
  40136f:	83 f8 00             	cmp    $0x0,%eax
  401372:	0f 85 36 a6 00 00    	jne    0x40b9ae
  401378:	8d 1d 97 17 a7 98    	lea    0x98a71797,%ebx
  40137e:	81 eb 21 e3 64 98    	sub    $0x9864e321,%ebx
  401384:	53                   	push   %ebx
  401385:	6a 01                	push   $0x1
  401387:	ff 0c 24             	decl   (%esp)
  40138a:	68 01 00 10 00       	push   $0x100001
  40138f:	ff 0c 24             	decl   (%esp)
  401392:	a1 e8 f0 41 00       	mov    0x41f0e8,%eax
  401397:	ff d0                	call   *%eax
  401399:	85 c0                	test   %eax,%eax
  40139b:	0f 85 0d a6 00 00    	jne    0x40b9ae
  4013a1:	83 1d 7b 31 42 00 46 	sbbl   $0x46,0x42317b
  4013a8:	8d 1d 97 17 a7 98    	lea    0x98a71797,%ebx
  4013ae:	81 eb 21 e3 64 98    	sub    $0x9864e321,%ebx
  4013b4:	53                   	push   %ebx
  4013b5:	6a 01                	push   $0x1
  4013b7:	ff 0c 24             	decl   (%esp)
  4013ba:	68 01 00 10 00       	push   $0x100001
  4013bf:	ff 0c 24             	decl   (%esp)
  4013c2:	a1 e8 f0 41 00       	mov    0x41f0e8,%eax
  4013c7:	ff d0                	call   *%eax
  4013c9:	85 c0                	test   %eax,%eax
  4013cb:	0f 85 dd a5 00 00    	jne    0x40b9ae
  4013d1:	21 3d f9 31 42 00    	and    %edi,0x4231f9
  4013d7:	31 3d f5 31 42 00    	xor    %edi,0x4231f5
  4013dd:	83 15 a6 31 42 00 3d 	adcl   $0x3d,0x4231a6
  4013e4:	8d 35 97 17 a7 98    	lea    0x98a71797,%esi
  4013ea:	81 ee 21 e3 64 98    	sub    $0x9864e321,%esi
  4013f0:	56                   	push   %esi
  4013f1:	6a 01                	push   $0x1
  4013f3:	ff 0c 24             	decl   (%esp)
  4013f6:	68 01 00 10 00       	push   $0x100001
  4013fb:	ff 0c 24             	decl   (%esp)
  4013fe:	a1 e8 f0 41 00       	mov    0x41f0e8,%eax
  401403:	ff d0                	call   *%eax
  401405:	85 c0                	test   %eax,%eax
  401407:	0f 85 a1 a5 00 00    	jne    0x40b9ae
  40140d:	83 c3 20             	add    $0x20,%ebx
  401410:	21 1d 97 31 42 00    	and    %ebx,0x423197
  401416:	01 05 c4 30 42 00    	add    %eax,0x4230c4
  40141c:	19 f8                	sbb    %edi,%eax
  40141e:	83 eb b6             	sub    $0xffffffb6,%ebx
  401421:	8d 35 af 17 a7 98    	lea    0x98a717af,%esi
  401427:	81 ee 21 e3 64 98    	sub    $0x9864e321,%esi
  40142d:	56                   	push   %esi
  40142e:	8d 05 a4 17 a7 98    	lea    0x98a717a4,%eax
  401434:	2d 21 e3 64 98       	sub    $0x9864e321,%eax
  401439:	50                   	push   %eax
  40143a:	a1 10 f1 41 00       	mov    0x41f110,%eax
  40143f:	ff d0                	call   *%eax
  401441:	13 35 da 31 42 00    	adc    0x4231da,%esi
  401447:	8d 05 af 17 a7 98    	lea    0x98a717af,%eax
  40144d:	2d 21 e3 64 98       	sub    $0x9864e321,%eax
  401452:	50                   	push   %eax
  401453:	8d 35 a4 17 a7 98    	lea    0x98a717a4,%esi
  401459:	81 ee 21 e3 64 98    	sub    $0x9864e321,%esi
  40145f:	56                   	push   %esi
  401460:	a1 10 f1 41 00       	mov    0x41f110,%eax
  401465:	ff d0                	call   *%eax
  401467:	18 25 aa 31 42 00    	sbb    %ah,0x4231aa
  40146d:	ba 01 00 00 00       	mov    $0x1,%edx
  401472:	01 c2                	add    %eax,%edx
  401474:	83 cb 08             	or     $0x8,%ebx
  401477:	83 15 99 31 42 00 7d 	adcl   $0x7d,0x423199
  40147e:	09 15 68 31 42 00    	or     %edx,0x423168
  401484:	8d 0d af 17 a7 98    	lea    0x98a717af,%ecx
  40148a:	81 e9 21 e3 64 98    	sub    $0x9864e321,%ecx
  401490:	51                   	push   %ecx
  401491:	8d 35 a4 17 a7 98    	lea    0x98a717a4,%esi
  401497:	81 ee 21 e3 64 98    	sub    $0x9864e321,%esi
  40149d:	56                   	push   %esi
  40149e:	a1 10 f1 41 00       	mov    0x41f110,%eax
  4014a3:	ff d0                	call   *%eax
  4014a5:	8d 1d af 17 a7 98    	lea    0x98a717af,%ebx
  4014ab:	81 eb 21 e3 64 98    	sub    $0x9864e321,%ebx
  4014b1:	53                   	push   %ebx
  4014b2:	8d 05 a4 17 a7 98    	lea    0x98a717a4,%eax
  4014b8:	2d 21 e3 64 98       	sub    $0x9864e321,%eax
  4014bd:	50                   	push   %eax
  4014be:	a1 10 f1 41 00       	mov    0x41f110,%eax
  4014c3:	ff d0                	call   *%eax
  4014c5:	8d 35 97 17 a7 98    	lea    0x98a71797,%esi
  4014cb:	81 ee 21 e3 64 98    	sub    $0x9864e321,%esi
  4014d1:	56                   	push   %esi
  4014d2:	6a 01                	push   $0x1
  4014d4:	ff 0c 24             	decl   (%esp)
  4014d7:	68 01 00 10 00       	push   $0x100001
  4014dc:	ff 0c 24             	decl   (%esp)
  4014df:	a1 e8 f0 41 00       	mov    0x41f0e8,%eax
  4014e4:	ff d0                	call   *%eax
  4014e6:	85 c0                	test   %eax,%eax
  4014e8:	0f 85 c0 a4 00 00    	jne    0x40b9ae
  4014ee:	13 35 07 31 42 00    	adc    0x423107,%esi
  4014f4:	13 35 84 31 42 00    	adc    0x423184,%esi
  4014fa:	8d 05 97 17 a7 98    	lea    0x98a71797,%eax
  401500:	2d 21 e3 64 98       	sub    $0x9864e321,%eax
  401505:	50                   	push   %eax
  401506:	6a 01                	push   $0x1
  401508:	ff 0c 24             	decl   (%esp)
  40150b:	68 01 00 10 00       	push   $0x100001
  401510:	ff 0c 24             	decl   (%esp)
  401513:	a1 e8 f0 41 00       	mov    0x41f0e8,%eax
  401518:	ff d0                	call   *%eax
  40151a:	85 c0                	test   %eax,%eax
  40151c:	0f 85 8c a4 00 00    	jne    0x40b9ae
  401522:	ba 01 00 00 00       	mov    $0x1,%edx
  401527:	01 fa                	add    %edi,%edx
  401529:	2e e9 a9 9f 00 00    	cs jmp 0x40b4d8
  40152f:	31 3d a5 30 42 00    	xor    %edi,0x4230a5
  401535:	82 2d 5e 31 42 00 76 	subb   $0x76,0x42315e
	...
  401548:	00 00                	add    %al,(%eax)
  40154a:	8d 1d af 17 a7 98    	lea    0x98a717af,%ebx
  401550:	81 eb 21 e3 64 98    	sub    $0x9864e321,%ebx
  401556:	53                   	push   %ebx
  401557:	8d 3d a4 17 a7 98    	lea    0x98a717a4,%edi
  40155d:	81 ef 21 e3 64 98    	sub    $0x9864e321,%edi
  401563:	57                   	push   %edi
  401564:	a1 10 f1 41 00       	mov    0x41f110,%eax
  401569:	ff d0                	call   *%eax
  40156b:	13 05 a4 31 42 00    	adc    0x4231a4,%eax
  401571:	8d 1d 97 17 a7 98    	lea    0x98a71797,%ebx
  401577:	81 eb 21 e3 64 98    	sub    $0x9864e321,%ebx
  40157d:	53                   	push   %ebx
  40157e:	6a 01                	push   $0x1
  401580:	ff 0c 24             	decl   (%esp)
  401583:	68 01 00 10 00       	push   $0x100001
  401588:	ff 0c 24             	decl   (%esp)
  40158b:	a1 e8 f0 41 00       	mov    0x41f0e8,%eax
  401590:	ff d0                	call   *%eax
  401592:	85 c0                	test   %eax,%eax
  401594:	0f 85 14 a4 00 00    	jne    0x40b9ae
  40159a:	13 05 4e 30 42 00    	adc    0x42304e,%eax
  4015a0:	8d 15 af 17 a7 98    	lea    0x98a717af,%edx
  4015a6:	81 ea 21 e3 64 98    	sub    $0x9864e321,%edx
  4015ac:	52                   	push   %edx
  4015ad:	8d 0d a4 17 a7 98    	lea    0x98a717a4,%ecx
  4015b3:	81 e9 21 e3 64 98    	sub    $0x9864e321,%ecx
  4015b9:	51                   	push   %ecx
  4015ba:	a1 10 f1 41 00       	mov    0x41f110,%eax
  4015bf:	ff d0                	call   *%eax
  4015c1:	09 1d 07 31 42 00    	or     %ebx,0x423107
  4015c7:	2b 3d b8 30 42 00    	sub    0x4230b8,%edi
  4015cd:	8d 05 af 17 a7 98    	lea    0x98a717af,%eax
  4015d3:	2d 21 e3 64 98       	sub    $0x9864e321,%eax
  4015d8:	50                   	push   %eax
  4015d9:	8d 15 a4 17 a7 98    	lea    0x98a717a4,%edx
  4015df:	81 ea 21 e3 64 98    	sub    $0x9864e321,%edx
  4015e5:	52                   	push   %edx
  4015e6:	a1 10 f1 41 00       	mov    0x41f110,%eax
  4015eb:	ff d0                	call   *%eax
  4015ed:	8d 1d 97 17 a7 98    	lea    0x98a71797,%ebx
  4015f3:	81 eb 21 e3 64 98    	sub    $0x9864e321,%ebx
  4015f9:	53                   	push   %ebx
  4015fa:	6a 01                	push   $0x1
  4015fc:	ff 0c 24             	decl   (%esp)
  4015ff:	68 01 00 10 00       	push   $0x100001
  401604:	ff 0c 24             	decl   (%esp)
  401607:	a1 e8 f0 41 00       	mov    0x41f0e8,%eax
  40160c:	ff d0                	call   *%eax
  40160e:	83 f8 00             	cmp    $0x0,%eax
  401611:	0f 85 97 a3 00 00    	jne    0x40b9ae
  401617:	81 15 41 31 42 00 e7 	adcl   $0xe7,0x423141
  40161e:	00 00 00 
  401621:	8d 35 97 17 a7 98    	lea    0x98a71797,%esi
  401627:	81 ee 21 e3 64 98    	sub    $0x9864e321,%esi
  40162d:	56                   	push   %esi
  40162e:	6a 01                	push   $0x1
  401630:	ff 0c 24             	decl   (%esp)
  401633:	68 01 00 10 00       	push   $0x100001
  401638:	ff 0c 24             	decl   (%esp)
  40163b:	a1 e8 f0 41 00       	mov    0x41f0e8,%eax
  401640:	ff d0                	call   *%eax
  401642:	85 c0                	test   %eax,%eax
  401644:	0f 85 64 a3 00 00    	jne    0x40b9ae
  40164a:	13 1d ec 31 42 00    	adc    0x4231ec,%ebx
  401650:	81 1d e2 30 42 00 fd 	sbbl   $0xfd,0x4230e2
  401657:	00 00 00 
  40165a:	81 15 ee 31 42 00 82 	adcl   $0x82,0x4231ee
  401661:	00 00 00 
  401664:	ba 01 00 00 00       	mov    $0x1,%edx
  401669:	01 f2                	add    %esi,%edx
  40166b:	b9 01 00 00 00       	mov    $0x1,%ecx
  401670:	13 0d 39 30 42 00    	adc    0x423039,%ecx
  401676:	8d 05 af 17 a7 98    	lea    0x98a717af,%eax
  40167c:	2d 21 e3 64 98       	sub    $0x9864e321,%eax
  401681:	50                   	push   %eax
  401682:	8d 3d a4 17 a7 98    	lea    0x98a717a4,%edi
  401688:	81 ef 21 e3 64 98    	sub    $0x9864e321,%edi
  40168e:	57                   	push   %edi
  40168f:	a1 10 f1 41 00       	mov    0x41f110,%eax
  401694:	ff d0                	call   *%eax
  401696:	b9 01 00 00 00       	mov    $0x1,%ecx
  40169b:	13 0d 7b 30 42 00    	adc    0x42307b,%ecx
  4016a1:	01 ce                	add    %ecx,%esi
  4016a3:	19 c9                	sbb    %ecx,%ecx
  4016a5:	83 ef 4f             	sub    $0x4f,%edi
  4016a8:	83 cf 42             	or     $0x42,%edi
  4016ab:	8d 35 97 17 a7 98    	lea    0x98a71797,%esi
  4016b1:	81 ee 21 e3 64 98    	sub    $0x9864e321,%esi
  4016b7:	56                   	push   %esi
  4016b8:	6a 01                	push   $0x1
  4016ba:	ff 0c 24             	decl   (%esp)
  4016bd:	68 01 00 10 00       	push   $0x100001
  4016c2:	ff 0c 24             	decl   (%esp)
  4016c5:	a1 e8 f0 41 00       	mov    0x41f0e8,%eax
  4016ca:	ff d0                	call   *%eax
  4016cc:	85 c0                	test   %eax,%eax
  4016ce:	0f 85 da a2 00 00    	jne    0x40b9ae
  4016d4:	b2 01                	mov    $0x1,%dl
  4016d6:	00 fa                	add    %bh,%dl
  4016d8:	8d 3d af 17 a7 98    	lea    0x98a717af,%edi
  4016de:	81 ef 21 e3 64 98    	sub    $0x9864e321,%edi
  4016e4:	57                   	push   %edi
  4016e5:	8d 15 a4 17 a7 98    	lea    0x98a717a4,%edx
  4016eb:	81 ea 21 e3 64 98    	sub    $0x9864e321,%edx
  4016f1:	52                   	push   %edx
  4016f2:	a1 10 f1 41 00       	mov    0x41f110,%eax
  4016f7:	ff d0                	call   *%eax
  4016f9:	ba 01 00 00 00       	mov    $0x1,%edx
  4016fe:	01 da                	add    %ebx,%edx
  401700:	13 3d f7 31 42 00    	adc    0x4231f7,%edi
  401706:	01 ff                	add    %edi,%edi
  401708:	29 05 87 31 42 00    	sub    %eax,0x423187
  40170e:	8d 35 97 17 a7 98    	lea    0x98a71797,%esi
  401714:	81 ee 21 e3 64 98    	sub    $0x9864e321,%esi
  40171a:	56                   	push   %esi
  40171b:	6a 01                	push   $0x1
  40171d:	ff 0c 24             	decl   (%esp)
  401720:	68 01 00 10 00       	push   $0x100001
  401725:	ff 0c 24             	decl   (%esp)
  401728:	a1 e8 f0 41 00       	mov    0x41f0e8,%eax
  40172d:	ff d0                	call   *%eax
  40172f:	83 f8 00             	cmp    $0x0,%eax
  401732:	0f 85 76 a2 00 00    	jne    0x40b9ae
  401738:	c7 05 a1 31 42 00 9b 	movl   $0x9b,0x4231a1
  40173f:	00 00 00 
  401742:	19 df                	sbb    %ebx,%edi
  401744:	01 05 d9 30 42 00    	add    %eax,0x4230d9
  40174a:	29 f8                	sub    %edi,%eax
  40174c:	01 c6                	add    %eax,%esi
  40174e:	8d 0d 97 17 a7 98    	lea    0x98a71797,%ecx
  401754:	81 e9 21 e3 64 98    	sub    $0x9864e321,%ecx
  40175a:	51                   	push   %ecx
  40175b:	6a 01                	push   $0x1
  40175d:	ff 0c 24             	decl   (%esp)
  401760:	68 01 00 10 00       	push   $0x100001
  401765:	ff 0c 24             	decl   (%esp)
  401768:	a1 e8 f0 41 00       	mov    0x41f0e8,%eax
  40176d:	ff d0                	call   *%eax
  40176f:	83 f8 00             	cmp    $0x0,%eax
  401772:	0f 85 36 a2 00 00    	jne    0x40b9ae
  401778:	11 05 1a 30 42 00    	adc    %eax,0x42301a
  40177e:	8d 05 af 17 a7 98    	lea    0x98a717af,%eax
  401784:	2d 21 e3 64 98       	sub    $0x9864e321,%eax
  401789:	50                   	push   %eax
  40178a:	8d 05 a4 17 a7 98    	lea    0x98a717a4,%eax
  401790:	2d 21 e3 64 98       	sub    $0x9864e321,%eax
  401795:	50                   	push   %eax
  401796:	a1 10 f1 41 00       	mov    0x41f110,%eax
  40179b:	ff d0                	call   *%eax
  40179d:	01 05 86 30 42 00    	add    %eax,0x423086
  4017a3:	13 35 c8 31 42 00    	adc    0x4231c8,%esi
  4017a9:	12 3d f0 30 42 00    	adc    0x4230f0,%bh
  4017af:	2e e9 23 9d 00 00    	cs jmp 0x40b4d8
	...
  4017c1:	81 25 1e 30 42 00 90 	andl   $0x90,0x42301e
  4017c8:	00 00 00 
  4017cb:	b9 01 00 00 00       	mov    $0x1,%ecx
  4017d0:	83 c1 2b             	add    $0x2b,%ecx
  4017d3:	ba 01 00 00 00       	mov    $0x1,%edx
  4017d8:	13 15 62 31 42 00    	adc    0x423162,%edx
  4017de:	8d 05 af 17 a7 98    	lea    0x98a717af,%eax
  4017e4:	2d 21 e3 64 98       	sub    $0x9864e321,%eax
  4017e9:	50                   	push   %eax
  4017ea:	8d 05 a4 17 a7 98    	lea    0x98a717a4,%eax
  4017f0:	2d 21 e3 64 98       	sub    $0x9864e321,%eax
  4017f5:	50                   	push   %eax
  4017f6:	a1 10 f1 41 00       	mov    0x41f110,%eax
  4017fb:	ff d0                	call   *%eax
  4017fd:	8d 15 97 17 a7 98    	lea    0x98a71797,%edx
  401803:	81 ea 21 e3 64 98    	sub    $0x9864e321,%edx
  401809:	52                   	push   %edx
  40180a:	6a 01                	push   $0x1
  40180c:	ff 0c 24             	decl   (%esp)
  40180f:	68 01 00 10 00       	push   $0x100001
  401814:	ff 0c 24             	decl   (%esp)
  401817:	a1 e8 f0 41 00       	mov    0x41f0e8,%eax
  40181c:	ff d0                	call   *%eax
  40181e:	83 f8 00             	cmp    $0x0,%eax
  401821:	0f 85 87 a1 00 00    	jne    0x40b9ae
  401827:	13 35 55 30 42 00    	adc    0x423055,%esi
  40182d:	82 f7 43             	xor    $0x43,%bh
  401830:	01 35 52 30 42 00    	add    %esi,0x423052
  401836:	ba 01 00 00 00       	mov    $0x1,%edx
  40183b:	01 da                	add    %ebx,%edx
  40183d:	8d 3d af 17 a7 98    	lea    0x98a717af,%edi
  401843:	81 ef 21 e3 64 98    	sub    $0x9864e321,%edi
  401849:	57                   	push   %edi
  40184a:	8d 35 a4 17 a7 98    	lea    0x98a717a4,%esi
  401850:	81 ee 21 e3 64 98    	sub    $0x9864e321,%esi
  401856:	56                   	push   %esi
  401857:	a1 10 f1 41 00       	mov    0x41f110,%eax
  40185c:	ff d0                	call   *%eax
  40185e:	83 15 39 30 42 00 2d 	adcl   $0x2d,0x423039
  401865:	b9 01 00 00 00       	mov    $0x1,%ecx
  40186a:	13 0d d2 31 42 00    	adc    0x4231d2,%ecx
  401870:	8d 35 af 17 a7 98    	lea    0x98a717af,%esi
  401876:	81 ee 21 e3 64 98    	sub    $0x9864e321,%esi
  40187c:	56                   	push   %esi
  40187d:	8d 35 a4 17 a7 98    	lea    0x98a717a4,%esi
  401883:	81 ee 21 e3 64 98    	sub    $0x9864e321,%esi
  401889:	56                   	push   %esi
  40188a:	a1 10 f1 41 00       	mov    0x41f110,%eax
  40188f:	ff d0                	call   *%eax
  401891:	ba 01 00 00 00       	mov    $0x1,%edx
  401896:	01 c2                	add    %eax,%edx
  401898:	b9 01 00 00 00       	mov    $0x1,%ecx
  40189d:	01 c1                	add    %eax,%ecx
  40189f:	8d 05 af 17 a7 98    	lea    0x98a717af,%eax
  4018a5:	2d 21 e3 64 98       	sub    $0x9864e321,%eax
  4018aa:	50                   	push   %eax
  4018ab:	8d 0d a4 17 a7 98    	lea    0x98a717a4,%ecx
  4018b1:	81 e9 21 e3 64 98    	sub    $0x9864e321,%ecx
  4018b7:	51                   	push   %ecx
  4018b8:	a1 10 f1 41 00       	mov    0x41f110,%eax
  4018bd:	ff d0                	call   *%eax
  4018bf:	8d 05 97 17 a7 98    	lea    0x98a71797,%eax
  4018c5:	2d 21 e3 64 98       	sub    $0x9864e321,%eax
  4018ca:	50                   	push   %eax
  4018cb:	6a 01                	push   $0x1
  4018cd:	ff 0c 24             	decl   (%esp)
  4018d0:	68 01 00 10 00       	push   $0x100001
  4018d5:	ff 0c 24             	decl   (%esp)
  4018d8:	a1 e8 f0 41 00       	mov    0x41f0e8,%eax
  4018dd:	ff d0                	call   *%eax
  4018df:	85 c0                	test   %eax,%eax
  4018e1:	0f 85 c7 a0 00 00    	jne    0x40b9ae
  4018e7:	13 1d e3 30 42 00    	adc    0x4230e3,%ebx
  4018ed:	8d 0d af 17 a7 98    	lea    0x98a717af,%ecx
  4018f3:	81 e9 21 e3 64 98    	sub    $0x9864e321,%ecx
  4018f9:	51                   	push   %ecx
  4018fa:	8d 15 a4 17 a7 98    	lea    0x98a717a4,%edx
  401900:	81 ea 21 e3 64 98    	sub    $0x9864e321,%edx
  401906:	52                   	push   %edx
  401907:	a1 10 f1 41 00       	mov    0x41f110,%eax
  40190c:	ff d0                	call   *%eax
  40190e:	8d 15 af 17 a7 98    	lea    0x98a717af,%edx
  401914:	81 ea 21 e3 64 98    	sub    $0x9864e321,%edx
  40191a:	52                   	push   %edx
  40191b:	8d 0d a4 17 a7 98    	lea    0x98a717a4,%ecx
  401921:	81 e9 21 e3 64 98    	sub    $0x9864e321,%ecx
  401927:	51                   	push   %ecx
  401928:	a1 10 f1 41 00       	mov    0x41f110,%eax
  40192d:	ff d0                	call   *%eax
  40192f:	13 1d 13 30 42 00    	adc    0x423013,%ebx
  401935:	8d 35 97 17 a7 98    	lea    0x98a71797,%esi
  40193b:	81 ee 21 e3 64 98    	sub    $0x9864e321,%esi
  401941:	56                   	push   %esi
  401942:	6a 01                	push   $0x1
  401944:	ff 0c 24             	decl   (%esp)
  401947:	68 01 00 10 00       	push   $0x100001
  40194c:	ff 0c 24             	decl   (%esp)
  40194f:	a1 e8 f0 41 00       	mov    0x41f0e8,%eax
  401954:	ff d0                	call   *%eax
  401956:	83 f8 00             	cmp    $0x0,%eax
  401959:	0f 85 4f a0 00 00    	jne    0x40b9ae
  40195f:	b9 01 00 00 00       	mov    $0x1,%ecx
  401964:	13 0d 28 31 42 00    	adc    0x423128,%ecx
  40196a:	01 35 8d 30 42 00    	add    %esi,0x42308d
  401970:	01 c0                	add    %eax,%eax
  401972:	8d 15 97 17 a7 98    	lea    0x98a71797,%edx
  401978:	81 ea 21 e3 64 98    	sub    $0x9864e321,%edx
  40197e:	52                   	push   %edx
  40197f:	6a 01                	push   $0x1
  401981:	ff 0c 24             	decl   (%esp)
  401984:	68 01 00 10 00       	push   $0x100001
  401989:	ff 0c 24             	decl   (%esp)
  40198c:	a1 e8 f0 41 00       	mov    0x41f0e8,%eax
  401991:	ff d0                	call   *%eax
  401993:	83 f8 00             	cmp    $0x0,%eax
  401996:	0f 85 12 a0 00 00    	jne    0x40b9ae
  40199c:	ba 01 00 00 00       	mov    $0x1,%edx
  4019a1:	13 15 53 30 42 00    	adc    0x423053,%edx
  4019a7:	31 d7                	xor    %edx,%edi
  4019a9:	00 35 65 31 42 00    	add    %dh,0x423165
  4019af:	01 c0                	add    %eax,%eax
  4019b1:	19 3d 87 31 42 00    	sbb    %edi,0x423187
  4019b7:	8d 3d af 17 a7 98    	lea    0x98a717af,%edi
  4019bd:	81 ef 21 e3 64 98    	sub    $0x9864e321,%edi
  4019c3:	57                   	push   %edi
  4019c4:	8d 0d a4 17 a7 98    	lea    0x98a717a4,%ecx
  4019ca:	81 e9 21 e3 64 98    	sub    $0x9864e321,%ecx
  4019d0:	51                   	push   %ecx
  4019d1:	a1 10 f1 41 00       	mov    0x41f110,%eax
  4019d6:	ff d0                	call   *%eax
  4019d8:	c7 05 f7 30 42 00 0f 	movl   $0xf,0x4230f7
  4019df:	00 00 00 
  4019e2:	b9 01 00 00 00       	mov    $0x1,%ecx
  4019e7:	83 c1 c1             	add    $0xffffffc1,%ecx
  4019ea:	83 f6 a6             	xor    $0xffffffa6,%esi
  4019ed:	ba 01 00 00 00       	mov    $0x1,%edx
  4019f2:	01 ca                	add    %ecx,%edx
  4019f4:	2e e9 de 9a 00 00    	cs jmp 0x40b4d8
  4019fa:	83 ca 5d             	or     $0x5d,%edx
	...
  401a09:	00 31                	add    %dh,(%ecx)
  401a0b:	df b6 01 00 c6 31    	fbstp  0x31c60001(%esi)
  401a11:	05 7a 30 42 00       	add    $0x42307a,%eax
  401a16:	01 fb                	add    %edi,%ebx
  401a18:	01 f7                	add    %esi,%edi
  401a1a:	8d 15 af 17 a7 98    	lea    0x98a717af,%edx
  401a20:	81 ea 21 e3 64 98    	sub    $0x9864e321,%edx
  401a26:	52                   	push   %edx
  401a27:	8d 1d a4 17 a7 98    	lea    0x98a717a4,%ebx
  401a2d:	81 eb 21 e3 64 98    	sub    $0x9864e321,%ebx
  401a33:	53                   	push   %ebx
  401a34:	a1 10 f1 41 00       	mov    0x41f110,%eax
  401a39:	ff d0                	call   *%eax
  401a3b:	83 ee 66             	sub    $0x66,%esi
  401a3e:	13 05 3a 31 42 00    	adc    0x42313a,%eax
  401a44:	81 15 29 31 42 00 88 	adcl   $0x88,0x423129
  401a4b:	00 00 00 
  401a4e:	31 de                	xor    %ebx,%esi
  401a50:	81 15 cb 30 42 00 b8 	adcl   $0xb8,0x4230cb
  401a57:	00 00 00 
  401a5a:	8d 1d 97 17 a7 98    	lea    0x98a71797,%ebx
  401a60:	81 eb 21 e3 64 98    	sub    $0x9864e321,%ebx
  401a66:	53                   	push   %ebx
  401a67:	6a 01                	push   $0x1
  401a69:	ff 0c 24             	decl   (%esp)
  401a6c:	68 01 00 10 00       	push   $0x100001
  401a71:	ff 0c 24             	decl   (%esp)
  401a74:	a1 e8 f0 41 00       	mov    0x41f0e8,%eax
  401a79:	ff d0                	call   *%eax
  401a7b:	85 c0                	test   %eax,%eax
  401a7d:	0f 85 2b 9f 00 00    	jne    0x40b9ae
  401a83:	13 35 5c 31 42 00    	adc    0x42315c,%esi
  401a89:	83 15 dc 30 42 00 09 	adcl   $0x9,0x4230dc
  401a90:	8d 0d 97 17 a7 98    	lea    0x98a71797,%ecx
  401a96:	81 e9 21 e3 64 98    	sub    $0x9864e321,%ecx
  401a9c:	51                   	push   %ecx
  401a9d:	6a 01                	push   $0x1
  401a9f:	ff 0c 24             	decl   (%esp)
  401aa2:	68 01 00 10 00       	push   $0x100001
  401aa7:	ff 0c 24             	decl   (%esp)
  401aaa:	a1 e8 f0 41 00       	mov    0x41f0e8,%eax
  401aaf:	ff d0                	call   *%eax
  401ab1:	83 f8 00             	cmp    $0x0,%eax
  401ab4:	0f 85 f4 9e 00 00    	jne    0x40b9ae
  401aba:	31 1d 20 31 42 00    	xor    %ebx,0x423120
  401ac0:	83 e8 a7             	sub    $0xffffffa7,%eax
  401ac3:	8d 15 af 17 a7 98    	lea    0x98a717af,%edx
  401ac9:	81 ea 21 e3 64 98    	sub    $0x9864e321,%edx
  401acf:	52                   	push   %edx
  401ad0:	8d 35 a4 17 a7 98    	lea    0x98a717a4,%esi
  401ad6:	81 ee 21 e3 64 98    	sub    $0x9864e321,%esi
  401adc:	56                   	push   %esi
  401add:	a1 10 f1 41 00       	mov    0x41f110,%eax
  401ae2:	ff d0                	call   *%eax
  401ae4:	8d 15 af 17 a7 98    	lea    0x98a717af,%edx
  401aea:	81 ea 21 e3 64 98    	sub    $0x9864e321,%edx
  401af0:	52                   	push   %edx
  401af1:	8d 05 a4 17 a7 98    	lea    0x98a717a4,%eax
  401af7:	2d 21 e3 64 98       	sub    $0x9864e321,%eax
  401afc:	50                   	push   %eax
  401afd:	a1 10 f1 41 00       	mov    0x41f110,%eax
  401b02:	ff d0                	call   *%eax
  401b04:	8d 35 af 17 a7 98    	lea    0x98a717af,%esi
  401b0a:	81 ee 21 e3 64 98    	sub    $0x9864e321,%esi
  401b10:	56                   	push   %esi
  401b11:	8d 15 a4 17 a7 98    	lea    0x98a717a4,%edx
  401b17:	81 ea 21 e3 64 98    	sub    $0x9864e321,%edx
  401b1d:	52                   	push   %edx
  401b1e:	a1 10 f1 41 00       	mov    0x41f110,%eax
  401b23:	ff d0                	call   *%eax
  401b25:	c7 05 16 30 42 00 4b 	movl   $0x4b,0x423016
  401b2c:	00 00 00 
  401b2f:	8d 05 af 17 a7 98    	lea    0x98a717af,%eax
  401b35:	2d 21 e3 64 98       	sub    $0x9864e321,%eax
  401b3a:	50                   	push   %eax
  401b3b:	8d 0d a4 17 a7 98    	lea    0x98a717a4,%ecx
  401b41:	81 e9 21 e3 64 98    	sub    $0x9864e321,%ecx
  401b47:	51                   	push   %ecx
  401b48:	a1 10 f1 41 00       	mov    0x41f110,%eax
  401b4d:	ff d0                	call   *%eax
  401b4f:	8d 0d af 17 a7 98    	lea    0x98a717af,%ecx
  401b55:	81 e9 21 e3 64 98    	sub    $0x9864e321,%ecx
  401b5b:	51                   	push   %ecx
  401b5c:	8d 15 a4 17 a7 98    	lea    0x98a717a4,%edx
  401b62:	81 ea 21 e3 64 98    	sub    $0x9864e321,%edx
  401b68:	52                   	push   %edx
  401b69:	a1 10 f1 41 00       	mov    0x41f110,%eax
  401b6e:	ff d0                	call   *%eax
  401b70:	ba 01 00 00 00       	mov    $0x1,%edx
  401b75:	13 15 14 31 42 00    	adc    0x423114,%edx
  401b7b:	01 f7                	add    %esi,%edi
  401b7d:	8d 1d af 17 a7 98    	lea    0x98a717af,%ebx
  401b83:	81 eb 21 e3 64 98    	sub    $0x9864e321,%ebx
  401b89:	53                   	push   %ebx
  401b8a:	8d 3d a4 17 a7 98    	lea    0x98a717a4,%edi
  401b90:	81 ef 21 e3 64 98    	sub    $0x9864e321,%edi
  401b96:	57                   	push   %edi
  401b97:	a1 10 f1 41 00       	mov    0x41f110,%eax
  401b9c:	ff d0                	call   *%eax
  401b9e:	29 c0                	sub    %eax,%eax
  401ba0:	83 ef 56             	sub    $0x56,%edi
  401ba3:	01 05 2e 30 42 00    	add    %eax,0x42302e
  401ba9:	8d 15 97 17 a7 98    	lea    0x98a71797,%edx
  401baf:	81 ea 21 e3 64 98    	sub    $0x9864e321,%edx
  401bb5:	52                   	push   %edx
  401bb6:	6a 01                	push   $0x1
  401bb8:	ff 0c 24             	decl   (%esp)
  401bbb:	68 01 00 10 00       	push   $0x100001
  401bc0:	ff 0c 24             	decl   (%esp)
  401bc3:	a1 e8 f0 41 00       	mov    0x41f0e8,%eax
  401bc8:	ff d0                	call   *%eax
  401bca:	83 f8 00             	cmp    $0x0,%eax
  401bcd:	0f 85 db 9d 00 00    	jne    0x40b9ae
  401bd3:	81 15 f0 31 42 00 ae 	adcl   $0xae,0x4231f0
  401bda:	00 00 00 
  401bdd:	8d 15 97 17 a7 98    	lea    0x98a71797,%edx
  401be3:	81 ea 21 e3 64 98    	sub    $0x9864e321,%edx
  401be9:	52                   	push   %edx
  401bea:	6a 01                	push   $0x1
  401bec:	ff 0c 24             	decl   (%esp)
  401bef:	68 01 00 10 00       	push   $0x100001
  401bf4:	ff 0c 24             	decl   (%esp)
  401bf7:	a1 e8 f0 41 00       	mov    0x41f0e8,%eax
  401bfc:	ff d0                	call   *%eax
  401bfe:	83 f8 00             	cmp    $0x0,%eax
  401c01:	0f 85 a7 9d 00 00    	jne    0x40b9ae
  401c07:	b9 01 00 00 00       	mov    $0x1,%ecx
  401c0c:	01 d9                	add    %ebx,%ecx
  401c0e:	83 f1 e9             	xor    $0xffffffe9,%ecx
  401c11:	81 1d d2 31 42 00 e4 	sbbl   $0xe4,0x4231d2
  401c18:	00 00 00 
  401c1b:	2e e9 b7 98 00 00    	cs jmp 0x40b4d8
  401c21:	ba 01 00 00 00       	mov    $0x1,%edx
  401c26:	01 c2                	add    %eax,%edx
  401c28:	83 d1 f5             	adc    $0xfffffff5,%ecx
  401c2b:	13 0d a4 30 42 00    	adc    0x4230a4,%ecx
  401c31:	81 1d 63 30 42 00 e0 	sbbl   $0xe0,0x423063
  401c38:	00 00 00 
  401c3b:	00 00                	add    %al,(%eax)
  401c3d:	8d 1d af 17 a7 98    	lea    0x98a717af,%ebx
  401c43:	81 eb 21 e3 64 98    	sub    $0x9864e321,%ebx
  401c49:	53                   	push   %ebx
  401c4a:	8d 15 a4 17 a7 98    	lea    0x98a717a4,%edx
  401c50:	81 ea 21 e3 64 98    	sub    $0x9864e321,%edx
  401c56:	52                   	push   %edx
  401c57:	a1 10 f1 41 00       	mov    0x41f110,%eax
  401c5c:	ff d0                	call   *%eax
  401c5e:	8d 05 97 17 a7 98    	lea    0x98a71797,%eax
  401c64:	2d 21 e3 64 98       	sub    $0x9864e321,%eax
  401c69:	50                   	push   %eax
  401c6a:	6a 01                	push   $0x1
  401c6c:	ff 0c 24             	decl   (%esp)
  401c6f:	68 01 00 10 00       	push   $0x100001
  401c74:	ff 0c 24             	decl   (%esp)
  401c77:	a1 e8 f0 41 00       	mov    0x41f0e8,%eax
  401c7c:	ff d0                	call   *%eax
  401c7e:	85 c0                	test   %eax,%eax
  401c80:	0f 85 28 9d 00 00    	jne    0x40b9ae
  401c86:	01 1d 93 30 42 00    	add    %ebx,0x423093
  401c8c:	11 35 c7 30 42 00    	adc    %esi,0x4230c7
  401c92:	01 c0                	add    %eax,%eax
  401c94:	8d 3d 97 17 a7 98    	lea    0x98a71797,%edi
  401c9a:	81 ef 21 e3 64 98    	sub    $0x9864e321,%edi
  401ca0:	57                   	push   %edi
  401ca1:	6a 01                	push   $0x1
  401ca3:	ff 0c 24             	decl   (%esp)
  401ca6:	68 01 00 10 00       	push   $0x100001
  401cab:	ff 0c 24             	decl   (%esp)
  401cae:	a1 e8 f0 41 00       	mov    0x41f0e8,%eax
  401cb3:	ff d0                	call   *%eax
  401cb5:	85 c0                	test   %eax,%eax
  401cb7:	0f 85 f1 9c 00 00    	jne    0x40b9ae
  401cbd:	01 05 0f 31 42 00    	add    %eax,0x42310f
  401cc3:	20 05 ff 31 42 00    	and    %al,0x4231ff
  401cc9:	83 de c0             	sbb    $0xffffffc0,%esi
  401ccc:	19 c7                	sbb    %eax,%edi
  401cce:	8d 0d af 17 a7 98    	lea    0x98a717af,%ecx
  401cd4:	81 e9 21 e3 64 98    	sub    $0x9864e321,%ecx
  401cda:	51                   	push   %ecx
  401cdb:	8d 15 a4 17 a7 98    	lea    0x98a717a4,%edx
  401ce1:	81 ea 21 e3 64 98    	sub    $0x9864e321,%edx
  401ce7:	52                   	push   %edx
  401ce8:	a1 10 f1 41 00       	mov    0x41f110,%eax
  401ced:	ff d0                	call   *%eax
  401cef:	8d 05 af 17 a7 98    	lea    0x98a717af,%eax
  401cf5:	2d 21 e3 64 98       	sub    $0x9864e321,%eax
  401cfa:	50                   	push   %eax
  401cfb:	8d 1d a4 17 a7 98    	lea    0x98a717a4,%ebx
  401d01:	81 eb 21 e3 64 98    	sub    $0x9864e321,%ebx
  401d07:	53                   	push   %ebx
  401d08:	a1 10 f1 41 00       	mov    0x41f110,%eax
  401d0d:	ff d0                	call   *%eax
  401d0f:	00 db                	add    %bl,%bl
  401d11:	83 15 b7 31 42 00 31 	adcl   $0x31,0x4231b7
  401d18:	b9 01 00 00 00       	mov    $0x1,%ecx
  401d1d:	13 0d ee 30 42 00    	adc    0x4230ee,%ecx
  401d23:	29 f8                	sub    %edi,%eax
  401d25:	c7 05 fc 31 42 00 f2 	movl   $0xf2,0x4231fc
  401d2c:	00 00 00 
  401d2f:	8d 15 97 17 a7 98    	lea    0x98a71797,%edx
  401d35:	81 ea 21 e3 64 98    	sub    $0x9864e321,%edx
  401d3b:	52                   	push   %edx
  401d3c:	6a 01                	push   $0x1
  401d3e:	ff 0c 24             	decl   (%esp)
  401d41:	68 01 00 10 00       	push   $0x100001
  401d46:	ff 0c 24             	decl   (%esp)
  401d49:	a1 e8 f0 41 00       	mov    0x41f0e8,%eax
  401d4e:	ff d0                	call   *%eax
  401d50:	83 f8 00             	cmp    $0x0,%eax
  401d53:	0f 85 55 9c 00 00    	jne    0x40b9ae
  401d59:	83 35 73 30 42 00 10 	xorl   $0x10,0x423073
  401d60:	09 35 e3 30 42 00    	or     %esi,0x4230e3
  401d66:	29 f8                	sub    %edi,%eax
  401d68:	8d 3d 97 17 a7 98    	lea    0x98a71797,%edi
  401d6e:	81 ef 21 e3 64 98    	sub    $0x9864e321,%edi
  401d74:	57                   	push   %edi
  401d75:	6a 01                	push   $0x1
  401d77:	ff 0c 24             	decl   (%esp)
  401d7a:	68 01 00 10 00       	push   $0x100001
  401d7f:	ff 0c 24             	decl   (%esp)
  401d82:	a1 e8 f0 41 00       	mov    0x41f0e8,%eax
  401d87:	ff d0                	call   *%eax
  401d89:	83 f8 00             	cmp    $0x0,%eax
  401d8c:	0f 85 1c 9c 00 00    	jne    0x40b9ae
  401d92:	21 35 d1 31 42 00    	and    %esi,0x4231d1
  401d98:	31 fb                	xor    %edi,%ebx
  401d9a:	8d 35 97 17 a7 98    	lea    0x98a71797,%esi
  401da0:	81 ee 21 e3 64 98    	sub    $0x9864e321,%esi
  401da6:	56                   	push   %esi
  401da7:	6a 01                	push   $0x1
  401da9:	ff 0c 24             	decl   (%esp)
  401dac:	68 01 00 10 00       	push   $0x100001
  401db1:	ff 0c 24             	decl   (%esp)
  401db4:	a1 e8 f0 41 00       	mov    0x41f0e8,%eax
  401db9:	ff d0                	call   *%eax
  401dbb:	83 f8 00             	cmp    $0x0,%eax
  401dbe:	0f 85 ea 9b 00 00    	jne    0x40b9ae
  401dc4:	21 05 bd 30 42 00    	and    %eax,0x4230bd
  401dca:	01 35 61 31 42 00    	add    %esi,0x423161
  401dd0:	19 3d 96 31 42 00    	sbb    %edi,0x423196
  401dd6:	8d 3d af 17 a7 98    	lea    0x98a717af,%edi
  401ddc:	81 ef 21 e3 64 98    	sub    $0x9864e321,%edi
  401de2:	57                   	push   %edi
  401de3:	8d 15 a4 17 a7 98    	lea    0x98a717a4,%edx
  401de9:	81 ea 21 e3 64 98    	sub    $0x9864e321,%edx
  401def:	52                   	push   %edx
  401df0:	a1 10 f1 41 00       	mov    0x41f110,%eax
  401df5:	ff d0                	call   *%eax
  401df7:	00 3d 6d 31 42 00    	add    %bh,0x42316d
  401dfd:	19 f7                	sbb    %esi,%edi
  401dff:	83 25 ba 30 42 00 4f 	andl   $0x4f,0x4230ba
  401e06:	8d 35 af 17 a7 98    	lea    0x98a717af,%esi
  401e0c:	81 ee 21 e3 64 98    	sub    $0x9864e321,%esi
  401e12:	56                   	push   %esi
  401e13:	8d 0d a4 17 a7 98    	lea    0x98a717a4,%ecx
  401e19:	81 e9 21 e3 64 98    	sub    $0x9864e321,%ecx
  401e1f:	51                   	push   %ecx
  401e20:	a1 10 f1 41 00       	mov    0x41f110,%eax
  401e25:	ff d0                	call   *%eax
  401e27:	01 c7                	add    %eax,%edi
  401e29:	13 35 2a 31 42 00    	adc    0x42312a,%esi
  401e2f:	28 25 50 31 42 00    	sub    %ah,0x423150
  401e35:	13 05 83 31 42 00    	adc    0x423183,%eax
  401e3b:	8d 1d 97 17 a7 98    	lea    0x98a71797,%ebx
  401e41:	81 eb 21 e3 64 98    	sub    $0x9864e321,%ebx
  401e47:	53                   	push   %ebx
  401e48:	6a 01                	push   $0x1
  401e4a:	ff 0c 24             	decl   (%esp)
  401e4d:	68 01 00 10 00       	push   $0x100001
  401e52:	ff 0c 24             	decl   (%esp)
  401e55:	a1 e8 f0 41 00       	mov    0x41f0e8,%eax
  401e5a:	ff d0                	call   *%eax
  401e5c:	83 f8 00             	cmp    $0x0,%eax
  401e5f:	0f 85 49 9b 00 00    	jne    0x40b9ae
  401e65:	19 de                	sbb    %ebx,%esi
  401e67:	2e e9 6b 96 00 00    	cs jmp 0x40b4d8
  401e6d:	b9 01 00 00 00       	mov    $0x1,%ecx
  401e72:	13 0d 28 31 42 00    	adc    0x423128,%ecx
  401e78:	31 f8                	xor    %edi,%eax
  401e7a:	19 05 df 31 42 00    	sbb    %eax,0x4231df
  401e80:	83 c8 45             	or     $0x45,%eax
  401e83:	00 00                	add    %al,(%eax)
  401e85:	00 00                	add    %al,(%eax)
  401e87:	00 00                	add    %al,(%eax)
  401e89:	00 83 25 36 31 42    	add    %al,0x42313625(%ebx)
  401e8f:	00 62 12             	add    %ah,0x12(%edx)
  401e92:	1d 68 31 42 00       	sbb    $0x423168,%eax
  401e97:	83 f7 ee             	xor    $0xffffffee,%edi
  401e9a:	83 f3 52             	xor    $0x52,%ebx
  401e9d:	c7 05 6f 30 42 00 57 	movl   $0x57,0x42306f
  401ea4:	00 00 00 
  401ea7:	8d 05 97 17 a7 98    	lea    0x98a71797,%eax
  401ead:	2d 21 e3 64 98       	sub    $0x9864e321,%eax
  401eb2:	50                   	push   %eax
  401eb3:	6a 01                	push   $0x1
  401eb5:	ff 0c 24             	decl   (%esp)
  401eb8:	68 01 00 10 00       	push   $0x100001
  401ebd:	ff 0c 24             	decl   (%esp)
  401ec0:	a1 e8 f0 41 00       	mov    0x41f0e8,%eax
  401ec5:	ff d0                	call   *%eax
  401ec7:	83 f8 00             	cmp    $0x0,%eax
  401eca:	0f 85 de 9a 00 00    	jne    0x40b9ae
  401ed0:	8d 35 af 17 a7 98    	lea    0x98a717af,%esi
  401ed6:	81 ee 21 e3 64 98    	sub    $0x9864e321,%esi
  401edc:	56                   	push   %esi
  401edd:	8d 05 a4 17 a7 98    	lea    0x98a717a4,%eax
  401ee3:	2d 21 e3 64 98       	sub    $0x9864e321,%eax
  401ee8:	50                   	push   %eax
  401ee9:	a1 10 f1 41 00       	mov    0x41f110,%eax
  401eee:	ff d0                	call   *%eax
  401ef0:	31 3d ea 30 42 00    	xor    %edi,0x4230ea
  401ef6:	8d 1d 97 17 a7 98    	lea    0x98a71797,%ebx
  401efc:	81 eb 21 e3 64 98    	sub    $0x9864e321,%ebx
  401f02:	53                   	push   %ebx
  401f03:	6a 01                	push   $0x1
  401f05:	ff 0c 24             	decl   (%esp)
  401f08:	68 01 00 10 00       	push   $0x100001
  401f0d:	ff 0c 24             	decl   (%esp)
  401f10:	a1 e8 f0 41 00       	mov    0x41f0e8,%eax
  401f15:	ff d0                	call   *%eax
  401f17:	85 c0                	test   %eax,%eax
  401f19:	0f 85 8f 9a 00 00    	jne    0x40b9ae
  401f1f:	13 35 7d 31 42 00    	adc    0x42317d,%esi
  401f25:	13 3d 8e 31 42 00    	adc    0x42318e,%edi
  401f2b:	01 f6                	add    %esi,%esi
  401f2d:	8d 05 af 17 a7 98    	lea    0x98a717af,%eax
  401f33:	2d 21 e3 64 98       	sub    $0x9864e321,%eax
  401f38:	50                   	push   %eax
  401f39:	8d 1d a4 17 a7 98    	lea    0x98a717a4,%ebx
  401f3f:	81 eb 21 e3 64 98    	sub    $0x9864e321,%ebx
  401f45:	53                   	push   %ebx
  401f46:	a1 10 f1 41 00       	mov    0x41f110,%eax
  401f4b:	ff d0                	call   *%eax
  401f4d:	8d 1d af 17 a7 98    	lea    0x98a717af,%ebx
  401f53:	81 eb 21 e3 64 98    	sub    $0x9864e321,%ebx
  401f59:	53                   	push   %ebx
  401f5a:	8d 0d a4 17 a7 98    	lea    0x98a717a4,%ecx
  401f60:	81 e9 21 e3 64 98    	sub    $0x9864e321,%ecx
  401f66:	51                   	push   %ecx
  401f67:	a1 10 f1 41 00       	mov    0x41f110,%eax
  401f6c:	ff d0                	call   *%eax
  401f6e:	8d 35 af 17 a7 98    	lea    0x98a717af,%esi
  401f74:	81 ee 21 e3 64 98    	sub    $0x9864e321,%esi
  401f7a:	56                   	push   %esi
  401f7b:	8d 3d a4 17 a7 98    	lea    0x98a717a4,%edi
  401f81:	81 ef 21 e3 64 98    	sub    $0x9864e321,%edi
  401f87:	57                   	push   %edi
  401f88:	a1 10 f1 41 00       	mov    0x41f110,%eax
  401f8d:	ff d0                	call   *%eax
  401f8f:	21 3d 42 31 42 00    	and    %edi,0x423142
  401f95:	b9 01 00 00 00       	mov    $0x1,%ecx
  401f9a:	01 f1                	add    %esi,%ecx
  401f9c:	81 1d e1 31 42 00 a9 	sbbl   $0xa9,0x4231e1
  401fa3:	00 00 00 
  401fa6:	8d 0d af 17 a7 98    	lea    0x98a717af,%ecx
  401fac:	81 e9 21 e3 64 98    	sub    $0x9864e321,%ecx
  401fb2:	51                   	push   %ecx
  401fb3:	8d 05 a4 17 a7 98    	lea    0x98a717a4,%eax
  401fb9:	2d 21 e3 64 98       	sub    $0x9864e321,%eax
  401fbe:	50                   	push   %eax
  401fbf:	a1 10 f1 41 00       	mov    0x41f110,%eax
  401fc4:	ff d0                	call   *%eax
  401fc6:	19 c6                	sbb    %eax,%esi
  401fc8:	01 3d 3f 31 42 00    	add    %edi,0x42313f
  401fce:	81 15 f9 31 42 00 af 	adcl   $0xaf,0x4231f9
  401fd5:	00 00 00 
  401fd8:	82 2d 3c 31 42 00 33 	subb   $0x33,0x42313c
  401fdf:	8d 05 97 17 a7 98    	lea    0x98a71797,%eax
  401fe5:	2d 21 e3 64 98       	sub    $0x9864e321,%eax
  401fea:	50                   	push   %eax
  401feb:	6a 01                	push   $0x1
  401fed:	ff 0c 24             	decl   (%esp)
  401ff0:	68 01 00 10 00       	push   $0x100001
  401ff5:	ff 0c 24             	decl   (%esp)
  401ff8:	a1 e8 f0 41 00       	mov    0x41f0e8,%eax
  401ffd:	ff d0                	call   *%eax
  401fff:	83 f8 00             	cmp    $0x0,%eax
  402002:	0f 85 a6 99 00 00    	jne    0x40b9ae
  402008:	00 e0                	add    %ah,%al
  40200a:	8d 0d af 17 a7 98    	lea    0x98a717af,%ecx
  402010:	81 e9 21 e3 64 98    	sub    $0x9864e321,%ecx
  402016:	51                   	push   %ecx
  402017:	8d 35 a4 17 a7 98    	lea    0x98a717a4,%esi
  40201d:	81 ee 21 e3 64 98    	sub    $0x9864e321,%esi
  402023:	56                   	push   %esi
  402024:	a1 10 f1 41 00       	mov    0x41f110,%eax
  402029:	ff d0                	call   *%eax
  40202b:	01 05 59 31 42 00    	add    %eax,0x423159
  402031:	81 15 e7 31 42 00 fd 	adcl   $0xfd,0x4231e7
  402038:	00 00 00 
  40203b:	81 35 13 31 42 00 c8 	xorl   $0xc8,0x423113
  402042:	00 00 00 
  402045:	8d 05 af 17 a7 98    	lea    0x98a717af,%eax
  40204b:	2d 21 e3 64 98       	sub    $0x9864e321,%eax
  402050:	50                   	push   %eax
  402051:	8d 35 a4 17 a7 98    	lea    0x98a717a4,%esi
  402057:	81 ee 21 e3 64 98    	sub    $0x9864e321,%esi
  40205d:	56                   	push   %esi
  40205e:	a1 10 f1 41 00       	mov    0x41f110,%eax
  402063:	ff d0                	call   *%eax
  402065:	8d 35 97 17 a7 98    	lea    0x98a71797,%esi
  40206b:	81 ee 21 e3 64 98    	sub    $0x9864e321,%esi
  402071:	56                   	push   %esi
  402072:	6a 01                	push   $0x1
  402074:	ff 0c 24             	decl   (%esp)
  402077:	68 01 00 10 00       	push   $0x100001
  40207c:	ff 0c 24             	decl   (%esp)
  40207f:	a1 e8 f0 41 00       	mov    0x41f0e8,%eax
  402084:	ff d0                	call   *%eax
  402086:	83 f8 00             	cmp    $0x0,%eax
  402089:	0f 85 1f 99 00 00    	jne    0x40b9ae
  40208f:	b9 01 00 00 00       	mov    $0x1,%ecx
  402094:	83 c1 06             	add    $0x6,%ecx
  402097:	8d 15 af 17 a7 98    	lea    0x98a717af,%edx
  40209d:	81 ea 21 e3 64 98    	sub    $0x9864e321,%edx
  4020a3:	52                   	push   %edx
  4020a4:	8d 35 a4 17 a7 98    	lea    0x98a717a4,%esi
  4020aa:	81 ee 21 e3 64 98    	sub    $0x9864e321,%esi
  4020b0:	56                   	push   %esi
  4020b1:	a1 10 f1 41 00       	mov    0x41f110,%eax
  4020b6:	ff d0                	call   *%eax
  4020b8:	c7 05 7e 31 42 00 c9 	movl   $0xc9,0x42317e
  4020bf:	00 00 00 
  4020c2:	01 df                	add    %ebx,%edi
  4020c4:	83 f0 24             	xor    $0x24,%eax
  4020c7:	2e e9 0b 94 00 00    	cs jmp 0x40b4d8
  4020cd:	00 00                	add    %al,(%eax)
  4020cf:	00 00                	add    %al,(%eax)
  4020d1:	31 c7                	xor    %eax,%edi
  4020d3:	c7 05 99 30 42 00 f1 	movl   $0xf1,0x423099
  4020da:	00 00 00 
  4020dd:	01 3d 9b 31 42 00    	add    %edi,0x42319b
  4020e3:	8d 35 af 17 a7 98    	lea    0x98a717af,%esi
  4020e9:	81 ee 21 e3 64 98    	sub    $0x9864e321,%esi
  4020ef:	56                   	push   %esi
  4020f0:	8d 0d a4 17 a7 98    	lea    0x98a717a4,%ecx
  4020f6:	81 e9 21 e3 64 98    	sub    $0x9864e321,%ecx
  4020fc:	51                   	push   %ecx
  4020fd:	a1 10 f1 41 00       	mov    0x41f110,%eax
  402102:	ff d0                	call   *%eax
  402104:	31 f0                	xor    %esi,%eax
  402106:	31 35 de 30 42 00    	xor    %esi,0x4230de
  40210c:	83 f3 a5             	xor    $0xffffffa5,%ebx
  40210f:	8d 15 97 17 a7 98    	lea    0x98a71797,%edx
  402115:	81 ea 21 e3 64 98    	sub    $0x9864e321,%edx
  40211b:	52                   	push   %edx
  40211c:	6a 01                	push   $0x1
  40211e:	ff 0c 24             	decl   (%esp)
  402121:	68 01 00 10 00       	push   $0x100001
  402126:	ff 0c 24             	decl   (%esp)
  402129:	a1 e8 f0 41 00       	mov    0x41f0e8,%eax
  40212e:	ff d0                	call   *%eax
  402130:	85 c0                	test   %eax,%eax
  402132:	0f 85 76 98 00 00    	jne    0x40b9ae
  402138:	8d 35 af 17 a7 98    	lea    0x98a717af,%esi
  40213e:	81 ee 21 e3 64 98    	sub    $0x9864e321,%esi
  402144:	56                   	push   %esi
  402145:	8d 3d a4 17 a7 98    	lea    0x98a717a4,%edi
  40214b:	81 ef 21 e3 64 98    	sub    $0x9864e321,%edi
  402151:	57                   	push   %edi
  402152:	a1 10 f1 41 00       	mov    0x41f110,%eax
  402157:	ff d0                	call   *%eax
  402159:	20 25 6b 31 42 00    	and    %ah,0x42316b
  40215f:	8d 15 97 17 a7 98    	lea    0x98a71797,%edx
  402165:	81 ea 21 e3 64 98    	sub    $0x9864e321,%edx
  40216b:	52                   	push   %edx
  40216c:	6a 01                	push   $0x1
  40216e:	ff 0c 24             	decl   (%esp)
  402171:	68 01 00 10 00       	push   $0x100001
  402176:	ff 0c 24             	decl   (%esp)
  402179:	a1 e8 f0 41 00       	mov    0x41f0e8,%eax
  40217e:	ff d0                	call   *%eax
  402180:	85 c0                	test   %eax,%eax
  402182:	0f 85 26 98 00 00    	jne    0x40b9ae
  402188:	83 35 27 31 42 00 12 	xorl   $0x12,0x423127
  40218f:	09 05 24 31 42 00    	or     %eax,0x423124
  402195:	8d 35 af 17 a7 98    	lea    0x98a717af,%esi
  40219b:	81 ee 21 e3 64 98    	sub    $0x9864e321,%esi
  4021a1:	56                   	push   %esi
  4021a2:	8d 15 a4 17 a7 98    	lea    0x98a717a4,%edx
  4021a8:	81 ea 21 e3 64 98    	sub    $0x9864e321,%edx
  4021ae:	52                   	push   %edx
  4021af:	a1 10 f1 41 00       	mov    0x41f110,%eax
  4021b4:	ff d0                	call   *%eax
  4021b6:	83 15 26 30 42 00 0f 	adcl   $0xf,0x423026
  4021bd:	83 f7 cf             	xor    $0xffffffcf,%edi
  4021c0:	13 35 a9 30 42 00    	adc    0x4230a9,%esi
  4021c6:	81 35 43 30 42 00 e1 	xorl   $0xe1,0x423043
  4021cd:	00 00 00 
  4021d0:	b9 01 00 00 00       	mov    $0x1,%ecx
  4021d5:	83 c1 0a             	add    $0xa,%ecx
  4021d8:	8d 0d 97 17 a7 98    	lea    0x98a71797,%ecx
  4021de:	81 e9 21 e3 64 98    	sub    $0x9864e321,%ecx
  4021e4:	51                   	push   %ecx
  4021e5:	6a 01                	push   $0x1
  4021e7:	ff 0c 24             	decl   (%esp)
  4021ea:	68 01 00 10 00       	push   $0x100001
  4021ef:	ff 0c 24             	decl   (%esp)
  4021f2:	a1 e8 f0 41 00       	mov    0x41f0e8,%eax
  4021f7:	ff d0                	call   *%eax
  4021f9:	83 f8 00             	cmp    $0x0,%eax
  4021fc:	0f 85 ac 97 00 00    	jne    0x40b9ae
  402202:	0b 35 a6 31 42 00    	or     0x4231a6,%esi
  402208:	19 05 ee 31 42 00    	sbb    %eax,0x4231ee
  40220e:	83 25 88 30 42 00 6f 	andl   $0x6f,0x423088
  402215:	8d 3d af 17 a7 98    	lea    0x98a717af,%edi
  40221b:	81 ef 21 e3 64 98    	sub    $0x9864e321,%edi
  402221:	57                   	push   %edi
  402222:	8d 3d a4 17 a7 98    	lea    0x98a717a4,%edi
  402228:	81 ef 21 e3 64 98    	sub    $0x9864e321,%edi
  40222e:	57                   	push   %edi
  40222f:	a1 10 f1 41 00       	mov    0x41f110,%eax
  402234:	ff d0                	call   *%eax
  402236:	b5 01                	mov    $0x1,%ch
  402238:	00 dd                	add    %bl,%ch
  40223a:	8d 35 af 17 a7 98    	lea    0x98a717af,%esi
  402240:	81 ee 21 e3 64 98    	sub    $0x9864e321,%esi
  402246:	56                   	push   %esi
  402247:	8d 3d a4 17 a7 98    	lea    0x98a717a4,%edi
  40224d:	81 ef 21 e3 64 98    	sub    $0x9864e321,%edi
  402253:	57                   	push   %edi
  402254:	a1 10 f1 41 00       	mov    0x41f110,%eax
  402259:	ff d0                	call   *%eax
  40225b:	13 35 54 30 42 00    	adc    0x423054,%esi
  402261:	8d 35 97 17 a7 98    	lea    0x98a71797,%esi
  402267:	81 ee 21 e3 64 98    	sub    $0x9864e321,%esi
  40226d:	56                   	push   %esi
  40226e:	6a 01                	push   $0x1
  402270:	ff 0c 24             	decl   (%esp)
  402273:	68 01 00 10 00       	push   $0x100001
  402278:	ff 0c 24             	decl   (%esp)
  40227b:	a1 e8 f0 41 00       	mov    0x41f0e8,%eax
  402280:	ff d0                	call   *%eax
  402282:	85 c0                	test   %eax,%eax
  402284:	0f 85 24 97 00 00    	jne    0x40b9ae
  40228a:	83 15 d7 30 42 00 61 	adcl   $0x61,0x4230d7
  402291:	31 df                	xor    %ebx,%edi
  402293:	8d 0d af 17 a7 98    	lea    0x98a717af,%ecx
  402299:	81 e9 21 e3 64 98    	sub    $0x9864e321,%ecx
  40229f:	51                   	push   %ecx
  4022a0:	8d 1d a4 17 a7 98    	lea    0x98a717a4,%ebx
  4022a6:	81 eb 21 e3 64 98    	sub    $0x9864e321,%ebx
  4022ac:	53                   	push   %ebx
  4022ad:	a1 10 f1 41 00       	mov    0x41f110,%eax
  4022b2:	ff d0                	call   *%eax
  4022b4:	31 c7                	xor    %eax,%edi
  4022b6:	c7 05 1b 31 42 00 1c 	movl   $0x1c,0x42311b
  4022bd:	00 00 00 
  4022c0:	83 e7 24             	and    $0x24,%edi
  4022c3:	21 1d bf 31 42 00    	and    %ebx,0x4231bf
  4022c9:	8d 1d 97 17 a7 98    	lea    0x98a71797,%ebx
  4022cf:	81 eb 21 e3 64 98    	sub    $0x9864e321,%ebx
  4022d5:	53                   	push   %ebx
  4022d6:	6a 01                	push   $0x1
  4022d8:	ff 0c 24             	decl   (%esp)
  4022db:	68 01 00 10 00       	push   $0x100001
  4022e0:	ff 0c 24             	decl   (%esp)
  4022e3:	a1 e8 f0 41 00       	mov    0x41f0e8,%eax
  4022e8:	ff d0                	call   *%eax
  4022ea:	83 f8 00             	cmp    $0x0,%eax
  4022ed:	0f 85 bb 96 00 00    	jne    0x40b9ae
  4022f3:	13 05 f3 31 42 00    	adc    0x4231f3,%eax
  4022f9:	19 c7                	sbb    %eax,%edi
  4022fb:	83 df d4             	sbb    $0xffffffd4,%edi
  4022fe:	09 05 67 30 42 00    	or     %eax,0x423067
  402304:	2e e9 ce 91 00 00    	cs jmp 0x40b4d8
  40230a:	19 1d de 31 42 00    	sbb    %ebx,0x4231de
  402310:	01 05 cb 30 42 00    	add    %eax,0x4230cb
  402316:	ba 01 00 00 00       	mov    $0x1,%edx
  40231b:	13 15 8c 30 42 00    	adc    0x42308c,%edx
  402321:	13 05 55 30 42 00    	adc    0x423055,%eax
  402327:	00 00                	add    %al,(%eax)
  402329:	00 00                	add    %al,(%eax)
  40232b:	00 00                	add    %al,(%eax)
  40232d:	00 83 1d 55 31 42    	add    %al,0x4231551d(%ebx)
  402333:	00 6e 83             	add    %ch,-0x7d(%esi)
  402336:	e3 e1                	jecxz  0x402319
  402338:	b9 01 00 00 00       	mov    $0x1,%ecx
  40233d:	01 f1                	add    %esi,%ecx
  40233f:	29 cf                	sub    %ecx,%edi
  402341:	8d 15 af 17 a7 98    	lea    0x98a717af,%edx
  402347:	81 ea 21 e3 64 98    	sub    $0x9864e321,%edx
  40234d:	52                   	push   %edx
  40234e:	8d 0d a4 17 a7 98    	lea    0x98a717a4,%ecx
  402354:	81 e9 21 e3 64 98    	sub    $0x9864e321,%ecx
  40235a:	51                   	push   %ecx
  40235b:	a1 10 f1 41 00       	mov    0x41f110,%eax
  402360:	ff d0                	call   *%eax
  402362:	8d 05 af 17 a7 98    	lea    0x98a717af,%eax
  402368:	2d 21 e3 64 98       	sub    $0x9864e321,%eax
  40236d:	50                   	push   %eax
  40236e:	8d 05 a4 17 a7 98    	lea    0x98a717a4,%eax
  402374:	2d 21 e3 64 98       	sub    $0x9864e321,%eax
  402379:	50                   	push   %eax
  40237a:	a1 10 f1 41 00       	mov    0x41f110,%eax
  40237f:	ff d0                	call   *%eax
  402381:	82 2d 6e 30 42 00 ab 	subb   $0xab,0x42306e
  402388:	83 c7 5d             	add    $0x5d,%edi
  40238b:	83 c8 8b             	or     $0xffffff8b,%eax
  40238e:	83 15 9b 31 42 00 26 	adcl   $0x26,0x42319b
  402395:	8d 0d af 17 a7 98    	lea    0x98a717af,%ecx
  40239b:	81 e9 21 e3 64 98    	sub    $0x9864e321,%ecx
  4023a1:	51                   	push   %ecx
  4023a2:	8d 35 a4 17 a7 98    	lea    0x98a717a4,%esi
  4023a8:	81 ee 21 e3 64 98    	sub    $0x9864e321,%esi
  4023ae:	56                   	push   %esi
  4023af:	a1 10 f1 41 00       	mov    0x41f110,%eax
  4023b4:	ff d0                	call   *%eax
  4023b6:	01 1d 83 30 42 00    	add    %ebx,0x423083
  4023bc:	01 35 3f 31 42 00    	add    %esi,0x42313f
  4023c2:	8d 0d af 17 a7 98    	lea    0x98a717af,%ecx
  4023c8:	81 e9 21 e3 64 98    	sub    $0x9864e321,%ecx
  4023ce:	51                   	push   %ecx
  4023cf:	8d 35 a4 17 a7 98    	lea    0x98a717a4,%esi
  4023d5:	81 ee 21 e3 64 98    	sub    $0x9864e321,%esi
  4023db:	56                   	push   %esi
  4023dc:	a1 10 f1 41 00       	mov    0x41f110,%eax
  4023e1:	ff d0                	call   *%eax
  4023e3:	8d 05 af 17 a7 98    	lea    0x98a717af,%eax
  4023e9:	2d 21 e3 64 98       	sub    $0x9864e321,%eax
  4023ee:	50                   	push   %eax
  4023ef:	8d 15 a4 17 a7 98    	lea    0x98a717a4,%edx
  4023f5:	81 ea 21 e3 64 98    	sub    $0x9864e321,%edx
  4023fb:	52                   	push   %edx
  4023fc:	a1 10 f1 41 00       	mov    0x41f110,%eax
  402401:	ff d0                	call   *%eax
  402403:	29 db                	sub    %ebx,%ebx
  402405:	0b 1d f5 31 42 00    	or     0x4231f5,%ebx
  40240b:	8d 15 af 17 a7 98    	lea    0x98a717af,%edx
  402411:	81 ea 21 e3 64 98    	sub    $0x9864e321,%edx
  402417:	52                   	push   %edx
  402418:	8d 05 a4 17 a7 98    	lea    0x98a717a4,%eax
  40241e:	2d 21 e3 64 98       	sub    $0x9864e321,%eax
  402423:	50                   	push   %eax
  402424:	a1 10 f1 41 00       	mov    0x41f110,%eax
  402429:	ff d0                	call   *%eax
  40242b:	31 35 65 31 42 00    	xor    %esi,0x423165
  402431:	82 2d 46 31 42 00 c0 	subb   $0xc0,0x423146
  402438:	ba 01 00 00 00       	mov    $0x1,%edx
  40243d:	13 15 89 31 42 00    	adc    0x423189,%edx
  402443:	19 05 18 31 42 00    	sbb    %eax,0x423118
  402449:	8d 05 af 17 a7 98    	lea    0x98a717af,%eax
  40244f:	2d 21 e3 64 98       	sub    $0x9864e321,%eax
  402454:	50                   	push   %eax
  402455:	8d 05 a4 17 a7 98    	lea    0x98a717a4,%eax
  40245b:	2d 21 e3 64 98       	sub    $0x9864e321,%eax
  402460:	50                   	push   %eax
  402461:	a1 10 f1 41 00       	mov    0x41f110,%eax
  402466:	ff d0                	call   *%eax
  402468:	83 15 c4 31 42 00 71 	adcl   $0x71,0x4231c4
  40246f:	8d 1d 97 17 a7 98    	lea    0x98a71797,%ebx
  402475:	81 eb 21 e3 64 98    	sub    $0x9864e321,%ebx
  40247b:	53                   	push   %ebx
  40247c:	6a 01                	push   $0x1
  40247e:	ff 0c 24             	decl   (%esp)
  402481:	68 01 00 10 00       	push   $0x100001
  402486:	ff 0c 24             	decl   (%esp)
  402489:	a1 e8 f0 41 00       	mov    0x41f0e8,%eax
  40248e:	ff d0                	call   *%eax
  402490:	85 c0                	test   %eax,%eax
  402492:	0f 85 16 95 00 00    	jne    0x40b9ae
  402498:	29 f0                	sub    %esi,%eax
  40249a:	13 05 6b 30 42 00    	adc    0x42306b,%eax
  4024a0:	81 35 a2 30 42 00 d1 	xorl   $0xd1,0x4230a2
  4024a7:	00 00 00 
  4024aa:	83 d3 1a             	adc    $0x1a,%ebx
  4024ad:	ba 01 00 00 00       	mov    $0x1,%edx
  4024b2:	83 c2 a4             	add    $0xffffffa4,%edx
  4024b5:	8d 05 af 17 a7 98    	lea    0x98a717af,%eax
  4024bb:	2d 21 e3 64 98       	sub    $0x9864e321,%eax
  4024c0:	50                   	push   %eax
  4024c1:	8d 1d a4 17 a7 98    	lea    0x98a717a4,%ebx
  4024c7:	81 eb 21 e3 64 98    	sub    $0x9864e321,%ebx
  4024cd:	53                   	push   %ebx
  4024ce:	a1 10 f1 41 00       	mov    0x41f110,%eax
  4024d3:	ff d0                	call   *%eax
  4024d5:	83 15 e3 31 42 00 70 	adcl   $0x70,0x4231e3
  4024dc:	b9 01 00 00 00       	mov    $0x1,%ecx
  4024e1:	01 f1                	add    %esi,%ecx
  4024e3:	21 3d b1 30 42 00    	and    %edi,0x4230b1
  4024e9:	8d 35 97 17 a7 98    	lea    0x98a71797,%esi
  4024ef:	81 ee 21 e3 64 98    	sub    $0x9864e321,%esi
  4024f5:	56                   	push   %esi
  4024f6:	6a 01                	push   $0x1
  4024f8:	ff 0c 24             	decl   (%esp)
  4024fb:	68 01 00 10 00       	push   $0x100001
  402500:	ff 0c 24             	decl   (%esp)
  402503:	a1 e8 f0 41 00       	mov    0x41f0e8,%eax
  402508:	ff d0                	call   *%eax
  40250a:	85 c0                	test   %eax,%eax
  40250c:	0f 85 9c 94 00 00    	jne    0x40b9ae
  402512:	8d 15 af 17 a7 98    	lea    0x98a717af,%edx
  402518:	81 ea 21 e3 64 98    	sub    $0x9864e321,%edx
  40251e:	52                   	push   %edx
  40251f:	8d 1d a4 17 a7 98    	lea    0x98a717a4,%ebx
  402525:	81 eb 21 e3 64 98    	sub    $0x9864e321,%ebx
  40252b:	53                   	push   %ebx
  40252c:	a1 10 f1 41 00       	mov    0x41f110,%eax
  402531:	ff d0                	call   *%eax
  402533:	13 35 eb 30 42 00    	adc    0x4230eb,%esi
  402539:	8d 3d 97 17 a7 98    	lea    0x98a71797,%edi
  40253f:	81 ef 21 e3 64 98    	sub    $0x9864e321,%edi
  402545:	57                   	push   %edi
  402546:	6a 01                	push   $0x1
  402548:	ff 0c 24             	decl   (%esp)
  40254b:	68 01 00 10 00       	push   $0x100001
  402550:	ff 0c 24             	decl   (%esp)
  402553:	a1 e8 f0 41 00       	mov    0x41f0e8,%eax
  402558:	ff d0                	call   *%eax
  40255a:	85 c0                	test   %eax,%eax
  40255c:	0f 85 4c 94 00 00    	jne    0x40b9ae
  402562:	81 15 7b 31 42 00 92 	adcl   $0x92,0x42317b
  402569:	00 00 00 
  40256c:	31 f6                	xor    %esi,%esi
  40256e:	83 eb b5             	sub    $0xffffffb5,%ebx
  402571:	13 3d b1 30 42 00    	adc    0x4230b1,%edi
  402577:	2e e9 5b 8f 00 00    	cs jmp 0x40b4d8
  40257d:	c7 05 71 30 42 00 d3 	movl   $0xd3,0x423071
  402584:	00 00 00 
  402587:	ba 01 00 00 00       	mov    $0x1,%edx
  40258c:	13 15 9f 30 42 00    	adc    0x42309f,%edx
  402592:	01 fb                	add    %edi,%ebx
  402594:	83 da b5             	sbb    $0xffffffb5,%edx
	...
  40259f:	00 00                	add    %al,(%eax)
  4025a1:	11 1d a0 30 42 00    	adc    %ebx,0x4230a0
  4025a7:	01 05 1f 31 42 00    	add    %eax,0x42311f
  4025ad:	13 1d 2d 31 42 00    	adc    0x42312d,%ebx
  4025b3:	13 3d 35 31 42 00    	adc    0x423135,%edi
  4025b9:	b9 01 00 00 00       	mov    $0x1,%ecx
  4025be:	01 d9                	add    %ebx,%ecx
  4025c0:	8d 15 af 17 a7 98    	lea    0x98a717af,%edx
  4025c6:	81 ea 21 e3 64 98    	sub    $0x9864e321,%edx
  4025cc:	52                   	push   %edx
  4025cd:	8d 15 a4 17 a7 98    	lea    0x98a717a4,%edx
  4025d3:	81 ea 21 e3 64 98    	sub    $0x9864e321,%edx
  4025d9:	52                   	push   %edx
  4025da:	a1 10 f1 41 00       	mov    0x41f110,%eax
  4025df:	ff d0                	call   *%eax
  4025e1:	8d 3d 97 17 a7 98    	lea    0x98a71797,%edi
  4025e7:	81 ef 21 e3 64 98    	sub    $0x9864e321,%edi
  4025ed:	57                   	push   %edi
  4025ee:	6a 01                	push   $0x1
  4025f0:	ff 0c 24             	decl   (%esp)
  4025f3:	68 01 00 10 00       	push   $0x100001
  4025f8:	ff 0c 24             	decl   (%esp)
  4025fb:	a1 e8 f0 41 00       	mov    0x41f0e8,%eax
  402600:	ff d0                	call   *%eax
  402602:	85 c0                	test   %eax,%eax
  402604:	0f 85 a4 93 00 00    	jne    0x40b9ae
  40260a:	31 c3                	xor    %eax,%ebx
  40260c:	83 e7 1e             	and    $0x1e,%edi
  40260f:	01 35 c4 30 42 00    	add    %esi,0x4230c4
  402615:	b9 01 00 00 00       	mov    $0x1,%ecx
  40261a:	13 0d 73 31 42 00    	adc    0x423173,%ecx
  402620:	8d 15 af 17 a7 98    	lea    0x98a717af,%edx
  402626:	81 ea 21 e3 64 98    	sub    $0x9864e321,%edx
  40262c:	52                   	push   %edx
  40262d:	8d 0d a4 17 a7 98    	lea    0x98a717a4,%ecx
  402633:	81 e9 21 e3 64 98    	sub    $0x9864e321,%ecx
  402639:	51                   	push   %ecx
  40263a:	a1 10 f1 41 00       	mov    0x41f110,%eax
  40263f:	ff d0                	call   *%eax
  402641:	13 35 d0 31 42 00    	adc    0x4231d0,%esi
  402647:	b9 01 00 00 00       	mov    $0x1,%ecx
  40264c:	83 c1 ce             	add    $0xffffffce,%ecx
  40264f:	13 0d 51 31 42 00    	adc    0x423151,%ecx
  402655:	01 1d 8e 30 42 00    	add    %ebx,0x42308e
  40265b:	81 25 37 31 42 00 8d 	andl   $0x8d,0x423137
  402662:	00 00 00 
  402665:	8d 0d 97 17 a7 98    	lea    0x98a71797,%ecx
  40266b:	81 e9 21 e3 64 98    	sub    $0x9864e321,%ecx
  402671:	51                   	push   %ecx
  402672:	6a 01                	push   $0x1
  402674:	ff 0c 24             	decl   (%esp)
  402677:	68 01 00 10 00       	push   $0x100001
  40267c:	ff 0c 24             	decl   (%esp)
  40267f:	a1 e8 f0 41 00       	mov    0x41f0e8,%eax
  402684:	ff d0                	call   *%eax
  402686:	85 c0                	test   %eax,%eax
  402688:	0f 85 20 93 00 00    	jne    0x40b9ae
  40268e:	ba 01 00 00 00       	mov    $0x1,%edx
  402693:	13 15 e2 30 42 00    	adc    0x4230e2,%edx
  402699:	21 35 d1 30 42 00    	and    %esi,0x4230d1
  40269f:	8d 35 af 17 a7 98    	lea    0x98a717af,%esi
  4026a5:	81 ee 21 e3 64 98    	sub    $0x9864e321,%esi
  4026ab:	56                   	push   %esi
  4026ac:	8d 15 a4 17 a7 98    	lea    0x98a717a4,%edx
  4026b2:	81 ea 21 e3 64 98    	sub    $0x9864e321,%edx
  4026b8:	52                   	push   %edx
  4026b9:	a1 10 f1 41 00       	mov    0x41f110,%eax
  4026be:	ff d0                	call   *%eax
  4026c0:	81 15 b6 31 42 00 df 	adcl   $0xdf,0x4231b6
  4026c7:	00 00 00 
  4026ca:	83 1d b8 31 42 00 21 	sbbl   $0x21,0x4231b8
  4026d1:	19 f8                	sbb    %edi,%eax
  4026d3:	81 0d 45 31 42 00 fd 	orl    $0xfd,0x423145
  4026da:	00 00 00 
  4026dd:	8d 15 97 17 a7 98    	lea    0x98a71797,%edx
  4026e3:	81 ea 21 e3 64 98    	sub    $0x9864e321,%edx
  4026e9:	52                   	push   %edx
  4026ea:	6a 01                	push   $0x1
  4026ec:	ff 0c 24             	decl   (%esp)
  4026ef:	68 01 00 10 00       	push   $0x100001
  4026f4:	ff 0c 24             	decl   (%esp)
  4026f7:	a1 e8 f0 41 00       	mov    0x41f0e8,%eax
  4026fc:	ff d0                	call   *%eax
  4026fe:	83 f8 00             	cmp    $0x0,%eax
  402701:	0f 85 a7 92 00 00    	jne    0x40b9ae
  402707:	2b 05 71 31 42 00    	sub    0x423171,%eax
  40270d:	14 56                	adc    $0x56,%al
  40270f:	13 35 30 30 42 00    	adc    0x423030,%esi
  402715:	01 c6                	add    %eax,%esi
  402717:	81 15 75 30 42 00 de 	adcl   $0xde,0x423075
  40271e:	00 00 00 
  402721:	8d 3d 97 17 a7 98    	lea    0x98a71797,%edi
  402727:	81 ef 21 e3 64 98    	sub    $0x9864e321,%edi
  40272d:	57                   	push   %edi
  40272e:	6a 01                	push   $0x1
  402730:	ff 0c 24             	decl   (%esp)
  402733:	68 01 00 10 00       	push   $0x100001
  402738:	ff 0c 24             	decl   (%esp)
  40273b:	a1 e8 f0 41 00       	mov    0x41f0e8,%eax
  402740:	ff d0                	call   *%eax
  402742:	85 c0                	test   %eax,%eax
  402744:	0f 85 64 92 00 00    	jne    0x40b9ae
  40274a:	01 3d 30 30 42 00    	add    %edi,0x423030
  402750:	31 c6                	xor    %eax,%esi
  402752:	8d 3d af 17 a7 98    	lea    0x98a717af,%edi
  402758:	81 ef 21 e3 64 98    	sub    $0x9864e321,%edi
  40275e:	57                   	push   %edi
  40275f:	8d 05 a4 17 a7 98    	lea    0x98a717a4,%eax
  402765:	2d 21 e3 64 98       	sub    $0x9864e321,%eax
  40276a:	50                   	push   %eax
  40276b:	a1 10 f1 41 00       	mov    0x41f110,%eax
  402770:	ff d0                	call   *%eax
  402772:	8d 15 af 17 a7 98    	lea    0x98a717af,%edx
  402778:	81 ea 21 e3 64 98    	sub    $0x9864e321,%edx
  40277e:	52                   	push   %edx
  40277f:	8d 05 a4 17 a7 98    	lea    0x98a717a4,%eax
  402785:	2d 21 e3 64 98       	sub    $0x9864e321,%eax
  40278a:	50                   	push   %eax
  40278b:	a1 10 f1 41 00       	mov    0x41f110,%eax
  402790:	ff d0                	call   *%eax
  402792:	0a 3d e4 31 42 00    	or     0x4231e4,%bh
  402798:	13 1d de 31 42 00    	adc    0x4231de,%ebx
  40279e:	19 05 fc 30 42 00    	sbb    %eax,0x4230fc
  4027a4:	01 05 69 31 42 00    	add    %eax,0x423169
  4027aa:	82 c3 98             	add    $0x98,%bl
  4027ad:	8d 3d 97 17 a7 98    	lea    0x98a71797,%edi
  4027b3:	81 ef 21 e3 64 98    	sub    $0x9864e321,%edi
  4027b9:	57                   	push   %edi
  4027ba:	6a 01                	push   $0x1
  4027bc:	ff 0c 24             	decl   (%esp)
  4027bf:	68 01 00 10 00       	push   $0x100001
  4027c4:	ff 0c 24             	decl   (%esp)
  4027c7:	a1 e8 f0 41 00       	mov    0x41f0e8,%eax
  4027cc:	ff d0                	call   *%eax
  4027ce:	83 f8 00             	cmp    $0x0,%eax
  4027d1:	0f 85 d7 91 00 00    	jne    0x40b9ae
  4027d7:	ba 01 00 00 00       	mov    $0x1,%edx
  4027dc:	83 c2 a0             	add    $0xffffffa0,%edx
  4027df:	11 de                	adc    %ebx,%esi
  4027e1:	83 c0 8a             	add    $0xffffff8a,%eax
  4027e4:	2e e9 ee 8c 00 00    	cs jmp 0x40b4d8
  4027ea:	c7 05 77 31 42 00 fc 	movl   $0xfc,0x423177
  4027f1:	00 00 00 
  4027f4:	19 35 7b 30 42 00    	sbb    %esi,0x42307b
  4027fa:	29 1d b6 30 42 00    	sub    %ebx,0x4230b6
  402800:	81 1d 2d 30 42 00 a7 	sbbl   $0xa7,0x42302d
  402807:	00 00 00 
  40280a:	83 eb f6             	sub    $0xfffffff6,%ebx
	...
  402819:	00 01                	add    %al,(%ecx)
  40281b:	fb                   	sti
  40281c:	8d 15 97 17 a7 98    	lea    0x98a71797,%edx
  402822:	81 ea 21 e3 64 98    	sub    $0x9864e321,%edx
  402828:	52                   	push   %edx
  402829:	6a 01                	push   $0x1
  40282b:	ff 0c 24             	decl   (%esp)
  40282e:	68 01 00 10 00       	push   $0x100001
  402833:	ff 0c 24             	decl   (%esp)
  402836:	a1 e8 f0 41 00       	mov    0x41f0e8,%eax
  40283b:	ff d0                	call   *%eax
  40283d:	85 c0                	test   %eax,%eax
  40283f:	0f 85 69 91 00 00    	jne    0x40b9ae
  402845:	09 3d ac 30 42 00    	or     %edi,0x4230ac
  40284b:	8d 05 97 17 a7 98    	lea    0x98a71797,%eax
  402851:	2d 21 e3 64 98       	sub    $0x9864e321,%eax
  402856:	50                   	push   %eax
  402857:	6a 01                	push   $0x1
  402859:	ff 0c 24             	decl   (%esp)
  40285c:	68 01 00 10 00       	push   $0x100001
  402861:	ff 0c 24             	decl   (%esp)
  402864:	a1 e8 f0 41 00       	mov    0x41f0e8,%eax
  402869:	ff d0                	call   *%eax
  40286b:	85 c0                	test   %eax,%eax
  40286d:	0f 85 3b 91 00 00    	jne    0x40b9ae
  402873:	81 1d 65 31 42 00 aa 	sbbl   $0xaa,0x423165
  40287a:	00 00 00 
  40287d:	21 1d d4 31 42 00    	and    %ebx,0x4231d4
  402883:	8d 3d 97 17 a7 98    	lea    0x98a71797,%edi
  402889:	81 ef 21 e3 64 98    	sub    $0x9864e321,%edi
  40288f:	57                   	push   %edi
  402890:	6a 01                	push   $0x1
  402892:	ff 0c 24             	decl   (%esp)
  402895:	68 01 00 10 00       	push   $0x100001
  40289a:	ff 0c 24             	decl   (%esp)
  40289d:	a1 e8 f0 41 00       	mov    0x41f0e8,%eax
  4028a2:	ff d0                	call   *%eax
  4028a4:	85 c0                	test   %eax,%eax
  4028a6:	0f 85 02 91 00 00    	jne    0x40b9ae
  4028ac:	81 0d f8 30 42 00 f3 	orl    $0xf3,0x4230f8
  4028b3:	00 00 00 
  4028b6:	83 c7 90             	add    $0xffffff90,%edi
  4028b9:	83 ce 21             	or     $0x21,%esi
  4028bc:	83 c0 c4             	add    $0xffffffc4,%eax
  4028bf:	09 35 b6 31 42 00    	or     %esi,0x4231b6
  4028c5:	8d 05 af 17 a7 98    	lea    0x98a717af,%eax
  4028cb:	2d 21 e3 64 98       	sub    $0x9864e321,%eax
  4028d0:	50                   	push   %eax
  4028d1:	8d 15 a4 17 a7 98    	lea    0x98a717a4,%edx
  4028d7:	81 ea 21 e3 64 98    	sub    $0x9864e321,%edx
  4028dd:	52                   	push   %edx
  4028de:	a1 10 f1 41 00       	mov    0x41f110,%eax
  4028e3:	ff d0                	call   *%eax
  4028e5:	83 0d 05 30 42 00 65 	orl    $0x65,0x423005
  4028ec:	29 ff                	sub    %edi,%edi
  4028ee:	8d 3d af 17 a7 98    	lea    0x98a717af,%edi
  4028f4:	81 ef 21 e3 64 98    	sub    $0x9864e321,%edi
  4028fa:	57                   	push   %edi
  4028fb:	8d 3d a4 17 a7 98    	lea    0x98a717a4,%edi
  402901:	81 ef 21 e3 64 98    	sub    $0x9864e321,%edi
  402907:	57                   	push   %edi
  402908:	a1 10 f1 41 00       	mov    0x41f110,%eax
  40290d:	ff d0                	call   *%eax
  40290f:	ba 01 00 00 00       	mov    $0x1,%edx
  402914:	83 c2 5f             	add    $0x5f,%edx
  402917:	19 d3                	sbb    %edx,%ebx
  402919:	8d 05 97 17 a7 98    	lea    0x98a71797,%eax
  40291f:	2d 21 e3 64 98       	sub    $0x9864e321,%eax
  402924:	50                   	push   %eax
  402925:	6a 01                	push   $0x1
  402927:	ff 0c 24             	decl   (%esp)
  40292a:	68 01 00 10 00       	push   $0x100001
  40292f:	ff 0c 24             	decl   (%esp)
  402932:	a1 e8 f0 41 00       	mov    0x41f0e8,%eax
  402937:	ff d0                	call   *%eax
  402939:	85 c0                	test   %eax,%eax
  40293b:	0f 85 6d 90 00 00    	jne    0x40b9ae
  402941:	81 1d 69 30 42 00 fc 	sbbl   $0xfc,0x423069
  402948:	00 00 00 
  40294b:	8d 05 97 17 a7 98    	lea    0x98a71797,%eax
  402951:	2d 21 e3 64 98       	sub    $0x9864e321,%eax
  402956:	50                   	push   %eax
  402957:	6a 01                	push   $0x1
  402959:	ff 0c 24             	decl   (%esp)
  40295c:	68 01 00 10 00       	push   $0x100001
  402961:	ff 0c 24             	decl   (%esp)
  402964:	a1 e8 f0 41 00       	mov    0x41f0e8,%eax
  402969:	ff d0                	call   *%eax
  40296b:	83 f8 00             	cmp    $0x0,%eax
  40296e:	0f 85 3a 90 00 00    	jne    0x40b9ae
  402974:	83 c6 f2             	add    $0xfffffff2,%esi
  402977:	b2 01                	mov    $0x1,%dl
  402979:	82 c2 66             	add    $0x66,%dl
  40297c:	b9 01 00 00 00       	mov    $0x1,%ecx
  402981:	83 c1 36             	add    $0x36,%ecx
  402984:	81 15 41 30 42 00 d4 	adcl   $0xd4,0x423041
  40298b:	00 00 00 
  40298e:	01 cb                	add    %ecx,%ebx
  402990:	8d 35 af 17 a7 98    	lea    0x98a717af,%esi
  402996:	81 ee 21 e3 64 98    	sub    $0x9864e321,%esi
  40299c:	56                   	push   %esi
  40299d:	8d 3d a4 17 a7 98    	lea    0x98a717a4,%edi
  4029a3:	81 ef 21 e3 64 98    	sub    $0x9864e321,%edi
  4029a9:	57                   	push   %edi
  4029aa:	a1 10 f1 41 00       	mov    0x41f110,%eax
  4029af:	ff d0                	call   *%eax
  4029b1:	8d 0d af 17 a7 98    	lea    0x98a717af,%ecx
  4029b7:	81 e9 21 e3 64 98    	sub    $0x9864e321,%ecx
  4029bd:	51                   	push   %ecx
  4029be:	8d 0d a4 17 a7 98    	lea    0x98a717a4,%ecx
  4029c4:	81 e9 21 e3 64 98    	sub    $0x9864e321,%ecx
  4029ca:	51                   	push   %ecx
  4029cb:	a1 10 f1 41 00       	mov    0x41f110,%eax
  4029d0:	ff d0                	call   *%eax
  4029d2:	83 15 b1 30 42 00 36 	adcl   $0x36,0x4230b1
  4029d9:	24 af                	and    $0xaf,%al
  4029db:	8d 0d af 17 a7 98    	lea    0x98a717af,%ecx
  4029e1:	81 e9 21 e3 64 98    	sub    $0x9864e321,%ecx
  4029e7:	51                   	push   %ecx
  4029e8:	8d 3d a4 17 a7 98    	lea    0x98a717a4,%edi
  4029ee:	81 ef 21 e3 64 98    	sub    $0x9864e321,%edi
  4029f4:	57                   	push   %edi
  4029f5:	a1 10 f1 41 00       	mov    0x41f110,%eax
  4029fa:	ff d0                	call   *%eax
  4029fc:	11 c6                	adc    %eax,%esi
  4029fe:	c7 05 24 31 42 00 cd 	movl   $0xcd,0x423124
  402a05:	00 00 00 
  402a08:	83 35 79 31 42 00 57 	xorl   $0x57,0x423179
  402a0f:	8d 35 af 17 a7 98    	lea    0x98a717af,%esi
  402a15:	81 ee 21 e3 64 98    	sub    $0x9864e321,%esi
  402a1b:	56                   	push   %esi
  402a1c:	8d 3d a4 17 a7 98    	lea    0x98a717a4,%edi
  402a22:	81 ef 21 e3 64 98    	sub    $0x9864e321,%edi
  402a28:	57                   	push   %edi
  402a29:	a1 10 f1 41 00       	mov    0x41f110,%eax
  402a2e:	ff d0                	call   *%eax
  402a30:	8d 3d af 17 a7 98    	lea    0x98a717af,%edi
  402a36:	81 ef 21 e3 64 98    	sub    $0x9864e321,%edi
  402a3c:	57                   	push   %edi
  402a3d:	8d 1d a4 17 a7 98    	lea    0x98a717a4,%ebx
  402a43:	81 eb 21 e3 64 98    	sub    $0x9864e321,%ebx
  402a49:	53                   	push   %ebx
  402a4a:	a1 10 f1 41 00       	mov    0x41f110,%eax
  402a4f:	ff d0                	call   *%eax
  402a51:	19 de                	sbb    %ebx,%esi
  402a53:	b6 01                	mov    $0x1,%dh
  402a55:	82 c6 d8             	add    $0xd8,%dh
  402a58:	b9 01 00 00 00       	mov    $0x1,%ecx
  402a5d:	13 0d 0f 30 42 00    	adc    0x42300f,%ecx
  402a63:	83 c0 65             	add    $0x65,%eax
  402a66:	82 2d bd 31 42 00 94 	subb   $0x94,0x4231bd
  402a6d:	2e e9 65 8a 00 00    	cs jmp 0x40b4d8
  402a73:	01 15 e6 30 42 00    	add    %edx,0x4230e6
  402a79:	13 15 43 31 42 00    	adc    0x423143,%edx
  402a7f:	01 15 00 31 42 00    	add    %edx,0x423100
  402a85:	11 c1                	adc    %eax,%ecx
	...
  402a93:	00 00                	add    %al,(%eax)
  402a95:	01 c6                	add    %eax,%esi
  402a97:	81 0d 20 30 42 00 a8 	orl    $0xa8,0x423020
  402a9e:	00 00 00 
  402aa1:	8d 3d 97 17 a7 98    	lea    0x98a71797,%edi
  402aa7:	81 ef 21 e3 64 98    	sub    $0x9864e321,%edi
  402aad:	57                   	push   %edi
  402aae:	6a 01                	push   $0x1
  402ab0:	ff 0c 24             	decl   (%esp)
  402ab3:	68 01 00 10 00       	push   $0x100001
  402ab8:	ff 0c 24             	decl   (%esp)
  402abb:	a1 e8 f0 41 00       	mov    0x41f0e8,%eax
  402ac0:	ff d0                	call   *%eax
  402ac2:	83 f8 00             	cmp    $0x0,%eax
  402ac5:	0f 85 e3 8e 00 00    	jne    0x40b9ae
  402acb:	31 1d ef 30 42 00    	xor    %ebx,0x4230ef
  402ad1:	01 1d b5 31 42 00    	add    %ebx,0x4231b5
  402ad7:	b9 01 00 00 00       	mov    $0x1,%ecx
  402adc:	83 c1 f4             	add    $0xfffffff4,%ecx
  402adf:	ba 01 00 00 00       	mov    $0x1,%edx
  402ae4:	83 c2 d3             	add    $0xffffffd3,%edx
  402ae7:	21 3d 1c 31 42 00    	and    %edi,0x42311c
  402aed:	8d 3d af 17 a7 98    	lea    0x98a717af,%edi
  402af3:	81 ef 21 e3 64 98    	sub    $0x9864e321,%edi
  402af9:	57                   	push   %edi
  402afa:	8d 0d a4 17 a7 98    	lea    0x98a717a4,%ecx
  402b00:	81 e9 21 e3 64 98    	sub    $0x9864e321,%ecx
  402b06:	51                   	push   %ecx
  402b07:	a1 10 f1 41 00       	mov    0x41f110,%eax
  402b0c:	ff d0                	call   *%eax
  402b0e:	8d 0d af 17 a7 98    	lea    0x98a717af,%ecx
  402b14:	81 e9 21 e3 64 98    	sub    $0x9864e321,%ecx
  402b1a:	51                   	push   %ecx
  402b1b:	8d 15 a4 17 a7 98    	lea    0x98a717a4,%edx
  402b21:	81 ea 21 e3 64 98    	sub    $0x9864e321,%edx
  402b27:	52                   	push   %edx
  402b28:	a1 10 f1 41 00       	mov    0x41f110,%eax
  402b2d:	ff d0                	call   *%eax
  402b2f:	83 d6 45             	adc    $0x45,%esi
  402b32:	11 db                	adc    %ebx,%ebx
  402b34:	8d 15 97 17 a7 98    	lea    0x98a71797,%edx
  402b3a:	81 ea 21 e3 64 98    	sub    $0x9864e321,%edx
  402b40:	52                   	push   %edx
  402b41:	6a 01                	push   $0x1
  402b43:	ff 0c 24             	decl   (%esp)
  402b46:	68 01 00 10 00       	push   $0x100001
  402b4b:	ff 0c 24             	decl   (%esp)
  402b4e:	a1 e8 f0 41 00       	mov    0x41f0e8,%eax
  402b53:	ff d0                	call   *%eax
  402b55:	83 f8 00             	cmp    $0x0,%eax
  402b58:	0f 85 50 8e 00 00    	jne    0x40b9ae
  402b5e:	8d 1d 97 17 a7 98    	lea    0x98a71797,%ebx
  402b64:	81 eb 21 e3 64 98    	sub    $0x9864e321,%ebx
  402b6a:	53                   	push   %ebx
  402b6b:	6a 01                	push   $0x1
  402b6d:	ff 0c 24             	decl   (%esp)
  402b70:	68 01 00 10 00       	push   $0x100001
  402b75:	ff 0c 24             	decl   (%esp)
  402b78:	a1 e8 f0 41 00       	mov    0x41f0e8,%eax
  402b7d:	ff d0                	call   *%eax
  402b7f:	83 f8 00             	cmp    $0x0,%eax
  402b82:	0f 85 26 8e 00 00    	jne    0x40b9ae
  402b88:	81 15 14 30 42 00 c1 	adcl   $0xc1,0x423014
  402b8f:	00 00 00 
  402b92:	b6 01                	mov    $0x1,%dh
  402b94:	82 c6 fb             	add    $0xfb,%dh
  402b97:	81 25 9f 30 42 00 f2 	andl   $0xf2,0x42309f
  402b9e:	00 00 00 
  402ba1:	8d 05 97 17 a7 98    	lea    0x98a71797,%eax
  402ba7:	2d 21 e3 64 98       	sub    $0x9864e321,%eax
  402bac:	50                   	push   %eax
  402bad:	6a 01                	push   $0x1
  402baf:	ff 0c 24             	decl   (%esp)
  402bb2:	68 01 00 10 00       	push   $0x100001
  402bb7:	ff 0c 24             	decl   (%esp)
  402bba:	a1 e8 f0 41 00       	mov    0x41f0e8,%eax
  402bbf:	ff d0                	call   *%eax
  402bc1:	83 f8 00             	cmp    $0x0,%eax
  402bc4:	0f 85 e4 8d 00 00    	jne    0x40b9ae
  402bca:	81 35 48 30 42 00 db 	xorl   $0xdb,0x423048
  402bd1:	00 00 00 
  402bd4:	01 35 e7 30 42 00    	add    %esi,0x4230e7
  402bda:	13 3d 79 30 42 00    	adc    0x423079,%edi
  402be0:	8d 05 af 17 a7 98    	lea    0x98a717af,%eax
  402be6:	2d 21 e3 64 98       	sub    $0x9864e321,%eax
  402beb:	50                   	push   %eax
  402bec:	8d 1d a4 17 a7 98    	lea    0x98a717a4,%ebx
  402bf2:	81 eb 21 e3 64 98    	sub    $0x9864e321,%ebx
  402bf8:	53                   	push   %ebx
  402bf9:	a1 10 f1 41 00       	mov    0x41f110,%eax
  402bfe:	ff d0                	call   *%eax
  402c00:	11 f0                	adc    %esi,%eax
  402c02:	13 05 c2 31 42 00    	adc    0x4231c2,%eax
  402c08:	11 05 10 31 42 00    	adc    %eax,0x423110
  402c0e:	81 25 ba 30 42 00 8d 	andl   $0x8d,0x4230ba
  402c15:	00 00 00 
  402c18:	ba 01 00 00 00       	mov    $0x1,%edx
  402c1d:	13 15 b1 31 42 00    	adc    0x4231b1,%edx
  402c23:	8d 3d 97 17 a7 98    	lea    0x98a71797,%edi
  402c29:	81 ef 21 e3 64 98    	sub    $0x9864e321,%edi
  402c2f:	57                   	push   %edi
  402c30:	6a 01                	push   $0x1
  402c32:	ff 0c 24             	decl   (%esp)
  402c35:	68 01 00 10 00       	push   $0x100001
  402c3a:	ff 0c 24             	decl   (%esp)
  402c3d:	a1 e8 f0 41 00       	mov    0x41f0e8,%eax
  402c42:	ff d0                	call   *%eax
  402c44:	85 c0                	test   %eax,%eax
  402c46:	0f 85 62 8d 00 00    	jne    0x40b9ae
  402c4c:	b9 01 00 00 00       	mov    $0x1,%ecx
  402c51:	13 0d fb 31 42 00    	adc    0x4231fb,%ecx
  402c57:	81 35 7e 30 42 00 ab 	xorl   $0xab,0x42307e
  402c5e:	00 00 00 
  402c61:	83 1d 4e 31 42 00 39 	sbbl   $0x39,0x42314e
  402c68:	8d 0d 97 17 a7 98    	lea    0x98a71797,%ecx
  402c6e:	81 e9 21 e3 64 98    	sub    $0x9864e321,%ecx
  402c74:	51                   	push   %ecx
  402c75:	6a 01                	push   $0x1
  402c77:	ff 0c 24             	decl   (%esp)
  402c7a:	68 01 00 10 00       	push   $0x100001
  402c7f:	ff 0c 24             	decl   (%esp)
  402c82:	a1 e8 f0 41 00       	mov    0x41f0e8,%eax
  402c87:	ff d0                	call   *%eax
  402c89:	85 c0                	test   %eax,%eax
  402c8b:	0f 85 1d 8d 00 00    	jne    0x40b9ae
  402c91:	13 05 df 30 42 00    	adc    0x4230df,%eax
  402c97:	ba 01 00 00 00       	mov    $0x1,%edx
  402c9c:	01 da                	add    %ebx,%edx
  402c9e:	8d 1d af 17 a7 98    	lea    0x98a717af,%ebx
  402ca4:	81 eb 21 e3 64 98    	sub    $0x9864e321,%ebx
  402caa:	53                   	push   %ebx
  402cab:	8d 1d a4 17 a7 98    	lea    0x98a717a4,%ebx
  402cb1:	81 eb 21 e3 64 98    	sub    $0x9864e321,%ebx
  402cb7:	53                   	push   %ebx
  402cb8:	a1 10 f1 41 00       	mov    0x41f110,%eax
  402cbd:	ff d0                	call   *%eax
  402cbf:	81 25 f7 30 42 00 8a 	andl   $0x8a,0x4230f7
  402cc6:	00 00 00 
  402cc9:	01 05 71 30 42 00    	add    %eax,0x423071
  402ccf:	0a 1d e6 30 42 00    	or     0x4230e6,%bl
  402cd5:	30 05 69 30 42 00    	xor    %al,0x423069
  402cdb:	8d 1d 97 17 a7 98    	lea    0x98a71797,%ebx
  402ce1:	81 eb 21 e3 64 98    	sub    $0x9864e321,%ebx
  402ce7:	53                   	push   %ebx
  402ce8:	6a 01                	push   $0x1
  402cea:	ff 0c 24             	decl   (%esp)
  402ced:	68 01 00 10 00       	push   $0x100001
  402cf2:	ff 0c 24             	decl   (%esp)
  402cf5:	a1 e8 f0 41 00       	mov    0x41f0e8,%eax
  402cfa:	ff d0                	call   *%eax
  402cfc:	83 f8 00             	cmp    $0x0,%eax
  402cff:	0f 85 a9 8c 00 00    	jne    0x40b9ae
  402d05:	13 1d 16 31 42 00    	adc    0x423116,%ebx
  402d0b:	0a 05 77 30 42 00    	or     0x423077,%al
  402d11:	31 35 27 30 42 00    	xor    %esi,0x423027
  402d17:	01 1d fd 30 42 00    	add    %ebx,0x4230fd
  402d1d:	11 35 27 30 42 00    	adc    %esi,0x423027
  402d23:	2e e9 af 87 00 00    	cs jmp 0x40b4d8
  402d29:	81 15 e5 30 42 00 97 	adcl   $0x97,0x4230e5
  402d30:	00 00 00 
  402d33:	01 df                	add    %ebx,%edi
  402d35:	00 83 15 a1 30 42    	add    %al,0x4230a115(%ebx)
  402d3b:	00 39                	add    %bh,(%ecx)
  402d3d:	b9 01 00 00 00       	mov    $0x1,%ecx
  402d42:	01 f9                	add    %edi,%ecx
  402d44:	01 c9                	add    %ecx,%ecx
  402d46:	ba 01 00 00 00       	mov    $0x1,%edx
  402d4b:	83 c2 a4             	add    $0xffffffa4,%edx
  402d4e:	19 05 3c 31 42 00    	sbb    %eax,0x42313c
  402d54:	8d 0d af 17 a7 98    	lea    0x98a717af,%ecx
  402d5a:	81 e9 21 e3 64 98    	sub    $0x9864e321,%ecx
  402d60:	51                   	push   %ecx
  402d61:	8d 3d a4 17 a7 98    	lea    0x98a717a4,%edi
  402d67:	81 ef 21 e3 64 98    	sub    $0x9864e321,%edi
  402d6d:	57                   	push   %edi
  402d6e:	a1 10 f1 41 00       	mov    0x41f110,%eax
  402d73:	ff d0                	call   *%eax
  402d75:	8d 15 97 17 a7 98    	lea    0x98a71797,%edx
  402d7b:	81 ea 21 e3 64 98    	sub    $0x9864e321,%edx
  402d81:	52                   	push   %edx
  402d82:	6a 01                	push   $0x1
  402d84:	ff 0c 24             	decl   (%esp)
  402d87:	68 01 00 10 00       	push   $0x100001
  402d8c:	ff 0c 24             	decl   (%esp)
  402d8f:	a1 e8 f0 41 00       	mov    0x41f0e8,%eax
  402d94:	ff d0                	call   *%eax
  402d96:	85 c0                	test   %eax,%eax
  402d98:	0f 85 10 8c 00 00    	jne    0x40b9ae
  402d9e:	2b 35 97 30 42 00    	sub    0x423097,%esi
  402da4:	19 3d 29 30 42 00    	sbb    %edi,0x423029
  402daa:	18 c7                	sbb    %al,%bh
  402dac:	b9 01 00 00 00       	mov    $0x1,%ecx
  402db1:	13 0d ec 30 42 00    	adc    0x4230ec,%ecx
  402db7:	0a 05 ca 31 42 00    	or     0x4231ca,%al
  402dbd:	8d 0d 97 17 a7 98    	lea    0x98a71797,%ecx
  402dc3:	81 e9 21 e3 64 98    	sub    $0x9864e321,%ecx
  402dc9:	51                   	push   %ecx
  402dca:	6a 01                	push   $0x1
  402dcc:	ff 0c 24             	decl   (%esp)
  402dcf:	68 01 00 10 00       	push   $0x100001
  402dd4:	ff 0c 24             	decl   (%esp)
  402dd7:	a1 e8 f0 41 00       	mov    0x41f0e8,%eax
  402ddc:	ff d0                	call   *%eax
  402dde:	85 c0                	test   %eax,%eax
  402de0:	0f 85 c8 8b 00 00    	jne    0x40b9ae
  402de6:	c7 05 9a 30 42 00 7e 	movl   $0x7e,0x42309a
  402ded:	00 00 00 
  402df0:	ba 01 00 00 00       	mov    $0x1,%edx
  402df5:	01 fa                	add    %edi,%edx
  402df7:	82 d4 17             	adc    $0x17,%ah
  402dfa:	83 35 23 31 42 00 4b 	xorl   $0x4b,0x423123
  402e01:	81 1d 9a 31 42 00 e9 	sbbl   $0xe9,0x42319a
  402e08:	00 00 00 
  402e0b:	8d 05 af 17 a7 98    	lea    0x98a717af,%eax
  402e11:	2d 21 e3 64 98       	sub    $0x9864e321,%eax
  402e16:	50                   	push   %eax
  402e17:	8d 1d a4 17 a7 98    	lea    0x98a717a4,%ebx
  402e1d:	81 eb 21 e3 64 98    	sub    $0x9864e321,%ebx
  402e23:	53                   	push   %ebx
  402e24:	a1 10 f1 41 00       	mov    0x41f110,%eax
  402e29:	ff d0                	call   *%eax
  402e2b:	83 15 fe 31 42 00 13 	adcl   $0x13,0x4231fe
  402e32:	82 2d 9b 30 42 00 60 	subb   $0x60,0x42309b
  402e39:	01 fe                	add    %edi,%esi
  402e3b:	ba 01 00 00 00       	mov    $0x1,%edx
  402e40:	83 c2 21             	add    $0x21,%edx
  402e43:	b9 01 00 00 00       	mov    $0x1,%ecx
  402e48:	01 d9                	add    %ebx,%ecx
  402e4a:	8d 05 97 17 a7 98    	lea    0x98a71797,%eax
  402e50:	2d 21 e3 64 98       	sub    $0x9864e321,%eax
  402e55:	50                   	push   %eax
  402e56:	6a 01                	push   $0x1
  402e58:	ff 0c 24             	decl   (%esp)
  402e5b:	68 01 00 10 00       	push   $0x100001
  402e60:	ff 0c 24             	decl   (%esp)
  402e63:	a1 e8 f0 41 00       	mov    0x41f0e8,%eax
  402e68:	ff d0                	call   *%eax
  402e6a:	85 c0                	test   %eax,%eax
  402e6c:	0f 85 3c 8b 00 00    	jne    0x40b9ae
  402e72:	13 1d e6 31 42 00    	adc    0x4231e6,%ebx
  402e78:	29 c6                	sub    %eax,%esi
  402e7a:	2b 3d 47 30 42 00    	sub    0x423047,%edi
  402e80:	8d 1d af 17 a7 98    	lea    0x98a717af,%ebx
  402e86:	81 eb 21 e3 64 98    	sub    $0x9864e321,%ebx
  402e8c:	53                   	push   %ebx
  402e8d:	8d 3d a4 17 a7 98    	lea    0x98a717a4,%edi
  402e93:	81 ef 21 e3 64 98    	sub    $0x9864e321,%edi
  402e99:	57                   	push   %edi
  402e9a:	a1 10 f1 41 00       	mov    0x41f110,%eax
  402e9f:	ff d0                	call   *%eax
  402ea1:	ba 01 00 00 00       	mov    $0x1,%edx
  402ea6:	83 c2 23             	add    $0x23,%edx
  402ea9:	01 1d 50 30 42 00    	add    %ebx,0x423050
  402eaf:	81 15 5c 31 42 00 9b 	adcl   $0x9b,0x42315c
  402eb6:	00 00 00 
  402eb9:	19 05 35 31 42 00    	sbb    %eax,0x423135
  402ebf:	8d 05 97 17 a7 98    	lea    0x98a71797,%eax
  402ec5:	2d 21 e3 64 98       	sub    $0x9864e321,%eax
  402eca:	50                   	push   %eax
  402ecb:	6a 01                	push   $0x1
  402ecd:	ff 0c 24             	decl   (%esp)
  402ed0:	68 01 00 10 00       	push   $0x100001
  402ed5:	ff 0c 24             	decl   (%esp)
  402ed8:	a1 e8 f0 41 00       	mov    0x41f0e8,%eax
  402edd:	ff d0                	call   *%eax
  402edf:	83 f8 00             	cmp    $0x0,%eax
  402ee2:	0f 85 c6 8a 00 00    	jne    0x40b9ae
  402ee8:	ba 01 00 00 00       	mov    $0x1,%edx
  402eed:	01 da                	add    %ebx,%edx
  402eef:	83 1d 20 31 42 00 19 	sbbl   $0x19,0x423120
  402ef6:	8d 35 af 17 a7 98    	lea    0x98a717af,%esi
  402efc:	81 ee 21 e3 64 98    	sub    $0x9864e321,%esi
  402f02:	56                   	push   %esi
  402f03:	8d 1d a4 17 a7 98    	lea    0x98a717a4,%ebx
  402f09:	81 eb 21 e3 64 98    	sub    $0x9864e321,%ebx
  402f0f:	53                   	push   %ebx
  402f10:	a1 10 f1 41 00       	mov    0x41f110,%eax
  402f15:	ff d0                	call   *%eax
  402f17:	2b 05 f2 30 42 00    	sub    0x4230f2,%eax
  402f1d:	11 05 e0 30 42 00    	adc    %eax,0x4230e0
  402f23:	0b 35 2c 31 42 00    	or     0x42312c,%esi
  402f29:	19 3d 46 30 42 00    	sbb    %edi,0x423046
  402f2f:	83 e7 3d             	and    $0x3d,%edi
  402f32:	8d 1d af 17 a7 98    	lea    0x98a717af,%ebx
  402f38:	81 eb 21 e3 64 98    	sub    $0x9864e321,%ebx
  402f3e:	53                   	push   %ebx
  402f3f:	8d 0d a4 17 a7 98    	lea    0x98a717a4,%ecx
  402f45:	81 e9 21 e3 64 98    	sub    $0x9864e321,%ecx
  402f4b:	51                   	push   %ecx
  402f4c:	a1 10 f1 41 00       	mov    0x41f110,%eax
  402f51:	ff d0                	call   *%eax
  402f53:	81 15 f7 30 42 00 8d 	adcl   $0x8d,0x4230f7
  402f5a:	00 00 00 
  402f5d:	0a 3d 89 30 42 00    	or     0x423089,%bh
  402f63:	21 3d ca 31 42 00    	and    %edi,0x4231ca
  402f69:	8d 05 af 17 a7 98    	lea    0x98a717af,%eax
  402f6f:	2d 21 e3 64 98       	sub    $0x9864e321,%eax
  402f74:	50                   	push   %eax
  402f75:	8d 3d a4 17 a7 98    	lea    0x98a717a4,%edi
  402f7b:	81 ef 21 e3 64 98    	sub    $0x9864e321,%edi
  402f81:	57                   	push   %edi
  402f82:	a1 10 f1 41 00       	mov    0x41f110,%eax
  402f87:	ff d0                	call   *%eax
  402f89:	13 1d 3c 31 42 00    	adc    0x42313c,%ebx
  402f8f:	13 35 c9 31 42 00    	adc    0x4231c9,%esi
  402f95:	b9 01 00 00 00       	mov    $0x1,%ecx
  402f9a:	01 f1                	add    %esi,%ecx
  402f9c:	01 3d aa 30 42 00    	add    %edi,0x4230aa
  402fa2:	c7 05 a1 30 42 00 cf 	movl   $0xcf,0x4230a1
  402fa9:	00 00 00 
  402fac:	2e e9 26 85 00 00    	cs jmp 0x40b4d8
  402fb2:	11 3d 78 30 42 00    	adc    %edi,0x423078
  402fb8:	13 3d 1d 31 42 00    	adc    0x42311d,%edi
  402fbe:	0b 05 cb 31 42 00    	or     0x4231cb,%eax
	...
  402fd0:	00 00                	add    %al,(%eax)
  402fd2:	00 83 de 3b 12 25    	add    %al,0x25123bde(%ebx)
  402fd8:	e0 30                	loopne 0x40300a
  402fda:	42                   	inc    %edx
  402fdb:	00 01                	add    %al,(%ecx)
  402fdd:	c6 83 35 22 30 42 00 	movb   $0x0,0x42302235(%ebx)
  402fe4:	7b 8d                	jnp    0x402f73
  402fe6:	15 97 17 a7 98       	adc    $0x98a71797,%eax
  402feb:	81 ea 21 e3 64 98    	sub    $0x9864e321,%edx
  402ff1:	52                   	push   %edx
  402ff2:	6a 01                	push   $0x1
  402ff4:	ff 0c 24             	decl   (%esp)
  402ff7:	68 01 00 10 00       	push   $0x100001
  402ffc:	ff 0c 24             	decl   (%esp)
  402fff:	a1 e8 f0 41 00       	mov    0x41f0e8,%eax
  403004:	ff d0                	call   *%eax
  403006:	83 f8 00             	cmp    $0x0,%eax
  403009:	0f 85 9f 89 00 00    	jne    0x40b9ae
  40300f:	8d 0d af 17 a7 98    	lea    0x98a717af,%ecx
  403015:	81 e9 21 e3 64 98    	sub    $0x9864e321,%ecx
  40301b:	51                   	push   %ecx
  40301c:	8d 05 a4 17 a7 98    	lea    0x98a717a4,%eax
  403022:	2d 21 e3 64 98       	sub    $0x9864e321,%eax
  403027:	50                   	push   %eax
  403028:	a1 10 f1 41 00       	mov    0x41f110,%eax
  40302d:	ff d0                	call   *%eax
  40302f:	19 c3                	sbb    %eax,%ebx
  403031:	c7 05 ff 31 42 00 d5 	movl   $0xd5,0x4231ff
  403038:	00 00 00 
  40303b:	01 05 15 30 42 00    	add    %eax,0x423015
  403041:	83 d7 12             	adc    $0x12,%edi
  403044:	8d 3d 97 17 a7 98    	lea    0x98a71797,%edi
  40304a:	81 ef 21 e3 64 98    	sub    $0x9864e321,%edi
  403050:	57                   	push   %edi
  403051:	6a 01                	push   $0x1
  403053:	ff 0c 24             	decl   (%esp)
  403056:	68 01 00 10 00       	push   $0x100001
  40305b:	ff 0c 24             	decl   (%esp)
  40305e:	a1 e8 f0 41 00       	mov    0x41f0e8,%eax
  403063:	ff d0                	call   *%eax
  403065:	85 c0                	test   %eax,%eax
  403067:	0f 85 41 89 00 00    	jne    0x40b9ae
  40306d:	01 f8                	add    %edi,%eax
  40306f:	19 35 f8 30 42 00    	sbb    %esi,0x4230f8
  403075:	83 eb 46             	sub    $0x46,%ebx
  403078:	ba 01 00 00 00       	mov    $0x1,%edx
  40307d:	83 c2 a6             	add    $0xffffffa6,%edx
  403080:	13 3d 74 30 42 00    	adc    0x423074,%edi
  403086:	8d 3d af 17 a7 98    	lea    0x98a717af,%edi
  40308c:	81 ef 21 e3 64 98    	sub    $0x9864e321,%edi
  403092:	57                   	push   %edi
  403093:	8d 15 a4 17 a7 98    	lea    0x98a717a4,%edx
  403099:	81 ea 21 e3 64 98    	sub    $0x9864e321,%edx
  40309f:	52                   	push   %edx
  4030a0:	a1 10 f1 41 00       	mov    0x41f110,%eax
  4030a5:	ff d0                	call   *%eax
  4030a7:	83 15 b9 31 42 00 60 	adcl   $0x60,0x4231b9
  4030ae:	8d 35 af 17 a7 98    	lea    0x98a717af,%esi
  4030b4:	81 ee 21 e3 64 98    	sub    $0x9864e321,%esi
  4030ba:	56                   	push   %esi
  4030bb:	8d 05 a4 17 a7 98    	lea    0x98a717a4,%eax
  4030c1:	2d 21 e3 64 98       	sub    $0x9864e321,%eax
  4030c6:	50                   	push   %eax
  4030c7:	a1 10 f1 41 00       	mov    0x41f110,%eax
  4030cc:	ff d0                	call   *%eax
  4030ce:	13 1d 9f 30 42 00    	adc    0x42309f,%ebx
  4030d4:	21 05 3c 31 42 00    	and    %eax,0x42313c
  4030da:	83 0d c0 31 42 00 22 	orl    $0x22,0x4231c0
  4030e1:	8d 0d af 17 a7 98    	lea    0x98a717af,%ecx
  4030e7:	81 e9 21 e3 64 98    	sub    $0x9864e321,%ecx
  4030ed:	51                   	push   %ecx
  4030ee:	8d 05 a4 17 a7 98    	lea    0x98a717a4,%eax
  4030f4:	2d 21 e3 64 98       	sub    $0x9864e321,%eax
  4030f9:	50                   	push   %eax
  4030fa:	a1 10 f1 41 00       	mov    0x41f110,%eax
  4030ff:	ff d0                	call   *%eax
  403101:	2b 05 98 30 42 00    	sub    0x423098,%eax
  403107:	19 f7                	sbb    %esi,%edi
  403109:	29 1d 74 31 42 00    	sub    %ebx,0x423174
  40310f:	8d 3d af 17 a7 98    	lea    0x98a717af,%edi
  403115:	81 ef 21 e3 64 98    	sub    $0x9864e321,%edi
  40311b:	57                   	push   %edi
  40311c:	8d 35 a4 17 a7 98    	lea    0x98a717a4,%esi
  403122:	81 ee 21 e3 64 98    	sub    $0x9864e321,%esi
  403128:	56                   	push   %esi
  403129:	a1 10 f1 41 00       	mov    0x41f110,%eax
  40312e:	ff d0                	call   *%eax
  403130:	83 c0 96             	add    $0xffffff96,%eax
  403133:	8d 35 97 17 a7 98    	lea    0x98a71797,%esi
  403139:	81 ee 21 e3 64 98    	sub    $0x9864e321,%esi
  40313f:	56                   	push   %esi
  403140:	6a 01                	push   $0x1
  403142:	ff 0c 24             	decl   (%esp)
  403145:	68 01 00 10 00       	push   $0x100001
  40314a:	ff 0c 24             	decl   (%esp)
  40314d:	a1 e8 f0 41 00       	mov    0x41f0e8,%eax
  403152:	ff d0                	call   *%eax
  403154:	83 f8 00             	cmp    $0x0,%eax
  403157:	0f 85 51 88 00 00    	jne    0x40b9ae
  40315d:	11 05 be 30 42 00    	adc    %eax,0x4230be
  403163:	01 c0                	add    %eax,%eax
  403165:	81 1d 78 30 42 00 92 	sbbl   $0x92,0x423078
  40316c:	00 00 00 
  40316f:	13 05 65 30 42 00    	adc    0x423065,%eax
  403175:	8d 15 af 17 a7 98    	lea    0x98a717af,%edx
  40317b:	81 ea 21 e3 64 98    	sub    $0x9864e321,%edx
  403181:	52                   	push   %edx
  403182:	8d 3d a4 17 a7 98    	lea    0x98a717a4,%edi
  403188:	81 ef 21 e3 64 98    	sub    $0x9864e321,%edi
  40318e:	57                   	push   %edi
  40318f:	a1 10 f1 41 00       	mov    0x41f110,%eax
  403194:	ff d0                	call   *%eax
  403196:	83 15 f9 31 42 00 5d 	adcl   $0x5d,0x4231f9
  40319d:	8d 1d 97 17 a7 98    	lea    0x98a71797,%ebx
  4031a3:	81 eb 21 e3 64 98    	sub    $0x9864e321,%ebx
  4031a9:	53                   	push   %ebx
  4031aa:	6a 01                	push   $0x1
  4031ac:	ff 0c 24             	decl   (%esp)
  4031af:	68 01 00 10 00       	push   $0x100001
  4031b4:	ff 0c 24             	decl   (%esp)
  4031b7:	a1 e8 f0 41 00       	mov    0x41f0e8,%eax
  4031bc:	ff d0                	call   *%eax
  4031be:	83 f8 00             	cmp    $0x0,%eax
  4031c1:	0f 85 e7 87 00 00    	jne    0x40b9ae
  4031c7:	19 35 be 31 42 00    	sbb    %esi,0x4231be
  4031cd:	8d 3d af 17 a7 98    	lea    0x98a717af,%edi
  4031d3:	81 ef 21 e3 64 98    	sub    $0x9864e321,%edi
  4031d9:	57                   	push   %edi
  4031da:	8d 05 a4 17 a7 98    	lea    0x98a717a4,%eax
  4031e0:	2d 21 e3 64 98       	sub    $0x9864e321,%eax
  4031e5:	50                   	push   %eax
  4031e6:	a1 10 f1 41 00       	mov    0x41f110,%eax
  4031eb:	ff d0                	call   *%eax
  4031ed:	83 15 eb 31 42 00 14 	adcl   $0x14,0x4231eb
  4031f4:	c7 05 f2 30 42 00 80 	movl   $0x80,0x4230f2
  4031fb:	00 00 00 
  4031fe:	13 1d 3f 30 42 00    	adc    0x42303f,%ebx
  403204:	81 0d 31 31 42 00 8d 	orl    $0x8d,0x423131
  40320b:	00 00 00 
  40320e:	81 15 dc 30 42 00 8d 	adcl   $0x8d,0x4230dc
  403215:	00 00 00 
  403218:	2e e9 ba 82 00 00    	cs jmp 0x40b4d8
  40321e:	83 c0 93             	add    $0xffffff93,%eax
  403221:	01 fb                	add    %edi,%ebx
  403223:	c7 05 73 30 42 00 3f 	movl   $0x3f,0x423073
  40322a:	00 00 00 
	...
  403235:	00 00                	add    %al,(%eax)
  403237:	00 ba 01 00 00 00    	add    %bh,0x1(%edx)
  40323d:	01 da                	add    %ebx,%edx
  40323f:	2b 35 ad 30 42 00    	sub    0x4230ad,%esi
  403245:	01 c3                	add    %eax,%ebx
  403247:	83 c3 e4             	add    $0xffffffe4,%ebx
  40324a:	13 15 28 30 42 00    	adc    0x423028,%edx
  403250:	8d 0d af 17 a7 98    	lea    0x98a717af,%ecx
  403256:	81 e9 21 e3 64 98    	sub    $0x9864e321,%ecx
  40325c:	51                   	push   %ecx
  40325d:	8d 05 a4 17 a7 98    	lea    0x98a717a4,%eax
  403263:	2d 21 e3 64 98       	sub    $0x9864e321,%eax
  403268:	50                   	push   %eax
  403269:	a1 10 f1 41 00       	mov    0x41f110,%eax
  40326e:	ff d0                	call   *%eax
  403270:	31 d8                	xor    %ebx,%eax
  403272:	83 15 6d 30 42 00 1c 	adcl   $0x1c,0x42306d
  403279:	8d 3d 97 17 a7 98    	lea    0x98a71797,%edi
  40327f:	81 ef 21 e3 64 98    	sub    $0x9864e321,%edi
  403285:	57                   	push   %edi
  403286:	6a 01                	push   $0x1
  403288:	ff 0c 24             	decl   (%esp)
  40328b:	68 01 00 10 00       	push   $0x100001
  403290:	ff 0c 24             	decl   (%esp)
  403293:	a1 e8 f0 41 00       	mov    0x41f0e8,%eax
  403298:	ff d0                	call   *%eax
  40329a:	85 c0                	test   %eax,%eax
  40329c:	0f 85 0c 87 00 00    	jne    0x40b9ae
  4032a2:	29 df                	sub    %ebx,%edi
  4032a4:	83 d0 dd             	adc    $0xffffffdd,%eax
  4032a7:	01 c3                	add    %eax,%ebx
  4032a9:	83 35 84 30 42 00 34 	xorl   $0x34,0x423084
  4032b0:	8d 15 af 17 a7 98    	lea    0x98a717af,%edx
  4032b6:	81 ea 21 e3 64 98    	sub    $0x9864e321,%edx
  4032bc:	52                   	push   %edx
  4032bd:	8d 35 a4 17 a7 98    	lea    0x98a717a4,%esi
  4032c3:	81 ee 21 e3 64 98    	sub    $0x9864e321,%esi
  4032c9:	56                   	push   %esi
  4032ca:	a1 10 f1 41 00       	mov    0x41f110,%eax
  4032cf:	ff d0                	call   *%eax
  4032d1:	8d 0d af 17 a7 98    	lea    0x98a717af,%ecx
  4032d7:	81 e9 21 e3 64 98    	sub    $0x9864e321,%ecx
  4032dd:	51                   	push   %ecx
  4032de:	8d 0d a4 17 a7 98    	lea    0x98a717a4,%ecx
  4032e4:	81 e9 21 e3 64 98    	sub    $0x9864e321,%ecx
  4032ea:	51                   	push   %ecx
  4032eb:	a1 10 f1 41 00       	mov    0x41f110,%eax
  4032f0:	ff d0                	call   *%eax
  4032f2:	ba 01 00 00 00       	mov    $0x1,%edx
  4032f7:	01 c2                	add    %eax,%edx
  4032f9:	2a 1d ee 30 42 00    	sub    0x4230ee,%bl
  4032ff:	83 ce 12             	or     $0x12,%esi
  403302:	83 c6 fc             	add    $0xfffffffc,%esi
  403305:	8d 0d 97 17 a7 98    	lea    0x98a71797,%ecx
  40330b:	81 e9 21 e3 64 98    	sub    $0x9864e321,%ecx
  403311:	51                   	push   %ecx
  403312:	6a 01                	push   $0x1
  403314:	ff 0c 24             	decl   (%esp)
  403317:	68 01 00 10 00       	push   $0x100001
  40331c:	ff 0c 24             	decl   (%esp)
  40331f:	a1 e8 f0 41 00       	mov    0x41f0e8,%eax
  403324:	ff d0                	call   *%eax
  403326:	85 c0                	test   %eax,%eax
  403328:	0f 85 80 86 00 00    	jne    0x40b9ae
  40332e:	82 2d e9 30 42 00 e9 	subb   $0xe9,0x4230e9
  403335:	ba 01 00 00 00       	mov    $0x1,%edx
  40333a:	83 c2 97             	add    $0xffffff97,%edx
  40333d:	8d 3d af 17 a7 98    	lea    0x98a717af,%edi
  403343:	81 ef 21 e3 64 98    	sub    $0x9864e321,%edi
  403349:	57                   	push   %edi
  40334a:	8d 3d a4 17 a7 98    	lea    0x98a717a4,%edi
  403350:	81 ef 21 e3 64 98    	sub    $0x9864e321,%edi
  403356:	57                   	push   %edi
  403357:	a1 10 f1 41 00       	mov    0x41f110,%eax
  40335c:	ff d0                	call   *%eax
  40335e:	ba 01 00 00 00       	mov    $0x1,%edx
  403363:	13 15 08 31 42 00    	adc    0x423108,%edx
  403369:	29 c2                	sub    %eax,%edx
  40336b:	08 15 1b 30 42 00    	or     %dl,0x42301b
  403371:	b1 01                	mov    $0x1,%cl
  403373:	00 f1                	add    %dh,%cl
  403375:	8d 15 af 17 a7 98    	lea    0x98a717af,%edx
  40337b:	81 ea 21 e3 64 98    	sub    $0x9864e321,%edx
  403381:	52                   	push   %edx
  403382:	8d 0d a4 17 a7 98    	lea    0x98a717a4,%ecx
  403388:	81 e9 21 e3 64 98    	sub    $0x9864e321,%ecx
  40338e:	51                   	push   %ecx
  40338f:	a1 10 f1 41 00       	mov    0x41f110,%eax
  403394:	ff d0                	call   *%eax
  403396:	21 3d ef 31 42 00    	and    %edi,0x4231ef
  40339c:	81 1d 63 31 42 00 bc 	sbbl   $0xbc,0x423163
  4033a3:	00 00 00 
  4033a6:	83 df 80             	sbb    $0xffffff80,%edi
  4033a9:	8d 05 af 17 a7 98    	lea    0x98a717af,%eax
  4033af:	2d 21 e3 64 98       	sub    $0x9864e321,%eax
  4033b4:	50                   	push   %eax
  4033b5:	8d 05 a4 17 a7 98    	lea    0x98a717a4,%eax
  4033bb:	2d 21 e3 64 98       	sub    $0x9864e321,%eax
  4033c0:	50                   	push   %eax
  4033c1:	a1 10 f1 41 00       	mov    0x41f110,%eax
  4033c6:	ff d0                	call   *%eax
  4033c8:	ba 01 00 00 00       	mov    $0x1,%edx
  4033cd:	83 c2 86             	add    $0xffffff86,%edx
  4033d0:	01 ff                	add    %edi,%edi
  4033d2:	81 15 2c 31 42 00 b9 	adcl   $0xb9,0x42312c
  4033d9:	00 00 00 
  4033dc:	11 1d 05 31 42 00    	adc    %ebx,0x423105
  4033e2:	81 1d fd 30 42 00 f6 	sbbl   $0xf6,0x4230fd
  4033e9:	00 00 00 
  4033ec:	8d 15 af 17 a7 98    	lea    0x98a717af,%edx
  4033f2:	81 ea 21 e3 64 98    	sub    $0x9864e321,%edx
  4033f8:	52                   	push   %edx
  4033f9:	8d 35 a4 17 a7 98    	lea    0x98a717a4,%esi
  4033ff:	81 ee 21 e3 64 98    	sub    $0x9864e321,%esi
  403405:	56                   	push   %esi
  403406:	a1 10 f1 41 00       	mov    0x41f110,%eax
  40340b:	ff d0                	call   *%eax
  40340d:	83 df c9             	sbb    $0xffffffc9,%edi
  403410:	12 05 69 30 42 00    	adc    0x423069,%al
  403416:	83 25 5b 31 42 00 01 	andl   $0x1,0x42315b
  40341d:	c7 05 ed 31 42 00 87 	movl   $0x87,0x4231ed
  403424:	00 00 00 
  403427:	8d 35 97 17 a7 98    	lea    0x98a71797,%esi
  40342d:	81 ee 21 e3 64 98    	sub    $0x9864e321,%esi
  403433:	56                   	push   %esi
  403434:	6a 01                	push   $0x1
  403436:	ff 0c 24             	decl   (%esp)
  403439:	68 01 00 10 00       	push   $0x100001
  40343e:	ff 0c 24             	decl   (%esp)
  403441:	a1 e8 f0 41 00       	mov    0x41f0e8,%eax
  403446:	ff d0                	call   *%eax
  403448:	83 f8 00             	cmp    $0x0,%eax
  40344b:	0f 85 5d 85 00 00    	jne    0x40b9ae
  403451:	10 ff                	adc    %bh,%bh
  403453:	13 05 9b 30 42 00    	adc    0x42309b,%eax
  403459:	83 25 3c 30 42 00 2e 	andl   $0x2e,0x42303c
  403460:	83 c0 eb             	add    $0xffffffeb,%eax
  403463:	83 1d 2a 30 42 00 76 	sbbl   $0x76,0x42302a
  40346a:	2e e9 68 80 00 00    	cs jmp 0x40b4d8
  403470:	01 f0                	add    %esi,%eax
  403472:	12 05 82 30 42 00    	adc    0x423082,%al
  403478:	01 fb                	add    %edi,%ebx
  40347a:	10 c0                	adc    %al,%al
  40347c:	00 00                	add    %al,(%eax)
  40347e:	00 00                	add    %al,(%eax)
  403480:	00 8d 35 af 17 a7    	add    %cl,-0x58e850cb(%ebp)
  403486:	98                   	cwtl
  403487:	81 ee 21 e3 64 98    	sub    $0x9864e321,%esi
  40348d:	56                   	push   %esi
  40348e:	8d 15 a4 17 a7 98    	lea    0x98a717a4,%edx
  403494:	81 ea 21 e3 64 98    	sub    $0x9864e321,%edx
  40349a:	52                   	push   %edx
  40349b:	a1 10 f1 41 00       	mov    0x41f110,%eax
  4034a0:	ff d0                	call   *%eax
  4034a2:	01 35 c5 31 42 00    	add    %esi,0x4231c5
  4034a8:	8d 3d 97 17 a7 98    	lea    0x98a71797,%edi
  4034ae:	81 ef 21 e3 64 98    	sub    $0x9864e321,%edi
  4034b4:	57                   	push   %edi
  4034b5:	6a 01                	push   $0x1
  4034b7:	ff 0c 24             	decl   (%esp)
  4034ba:	68 01 00 10 00       	push   $0x100001
  4034bf:	ff 0c 24             	decl   (%esp)
  4034c2:	a1 e8 f0 41 00       	mov    0x41f0e8,%eax
  4034c7:	ff d0                	call   *%eax
  4034c9:	85 c0                	test   %eax,%eax
  4034cb:	0f 85 dd 84 00 00    	jne    0x40b9ae
  4034d1:	b9 01 00 00 00       	mov    $0x1,%ecx
  4034d6:	13 0d 1b 31 42 00    	adc    0x42311b,%ecx
  4034dc:	8d 05 af 17 a7 98    	lea    0x98a717af,%eax
  4034e2:	2d 21 e3 64 98       	sub    $0x9864e321,%eax
  4034e7:	50                   	push   %eax
  4034e8:	8d 0d a4 17 a7 98    	lea    0x98a717a4,%ecx
  4034ee:	81 e9 21 e3 64 98    	sub    $0x9864e321,%ecx
  4034f4:	51                   	push   %ecx
  4034f5:	a1 10 f1 41 00       	mov    0x41f110,%eax
  4034fa:	ff d0                	call   *%eax
  4034fc:	13 05 bc 30 42 00    	adc    0x4230bc,%eax
  403502:	81 1d ea 30 42 00 fb 	sbbl   $0xfb,0x4230ea
  403509:	00 00 00 
  40350c:	8d 35 af 17 a7 98    	lea    0x98a717af,%esi
  403512:	81 ee 21 e3 64 98    	sub    $0x9864e321,%esi
  403518:	56                   	push   %esi
  403519:	8d 05 a4 17 a7 98    	lea    0x98a717a4,%eax
  40351f:	2d 21 e3 64 98       	sub    $0x9864e321,%eax
  403524:	50                   	push   %eax
  403525:	a1 10 f1 41 00       	mov    0x41f110,%eax
  40352a:	ff d0                	call   *%eax
  40352c:	ba 01 00 00 00       	mov    $0x1,%edx
  403531:	01 f2                	add    %esi,%edx
  403533:	12 15 75 31 42 00    	adc    0x423175,%dl
  403539:	19 05 ee 30 42 00    	sbb    %eax,0x4230ee
  40353f:	31 15 11 31 42 00    	xor    %edx,0x423111
  403545:	8d 1d 97 17 a7 98    	lea    0x98a71797,%ebx
  40354b:	81 eb 21 e3 64 98    	sub    $0x9864e321,%ebx
  403551:	53                   	push   %ebx
  403552:	6a 01                	push   $0x1
  403554:	ff 0c 24             	decl   (%esp)
  403557:	68 01 00 10 00       	push   $0x100001
  40355c:	ff 0c 24             	decl   (%esp)
  40355f:	a1 e8 f0 41 00       	mov    0x41f0e8,%eax
  403564:	ff d0                	call   *%eax
  403566:	83 f8 00             	cmp    $0x0,%eax
  403569:	0f 85 3f 84 00 00    	jne    0x40b9ae
  40356f:	11 3d cb 31 42 00    	adc    %edi,0x4231cb
  403575:	01 f7                	add    %esi,%edi
  403577:	01 ff                	add    %edi,%edi
  403579:	0b 05 ca 31 42 00    	or     0x4231ca,%eax
  40357f:	81 15 56 30 42 00 82 	adcl   $0x82,0x423056
  403586:	00 00 00 
  403589:	8d 15 97 17 a7 98    	lea    0x98a71797,%edx
  40358f:	81 ea 21 e3 64 98    	sub    $0x9864e321,%edx
  403595:	52                   	push   %edx
  403596:	6a 01                	push   $0x1
  403598:	ff 0c 24             	decl   (%esp)
  40359b:	68 01 00 10 00       	push   $0x100001
  4035a0:	ff 0c 24             	decl   (%esp)
  4035a3:	a1 e8 f0 41 00       	mov    0x41f0e8,%eax
  4035a8:	ff d0                	call   *%eax
  4035aa:	83 f8 00             	cmp    $0x0,%eax
  4035ad:	0f 85 fb 83 00 00    	jne    0x40b9ae
  4035b3:	01 1d 64 30 42 00    	add    %ebx,0x423064
  4035b9:	b1 01                	mov    $0x1,%cl
  4035bb:	00 f9                	add    %bh,%cl
  4035bd:	09 1d 66 30 42 00    	or     %ebx,0x423066
  4035c3:	8d 35 97 17 a7 98    	lea    0x98a71797,%esi
  4035c9:	81 ee 21 e3 64 98    	sub    $0x9864e321,%esi
  4035cf:	56                   	push   %esi
  4035d0:	6a 01                	push   $0x1
  4035d2:	ff 0c 24             	decl   (%esp)
  4035d5:	68 01 00 10 00       	push   $0x100001
  4035da:	ff 0c 24             	decl   (%esp)
  4035dd:	a1 e8 f0 41 00       	mov    0x41f0e8,%eax
  4035e2:	ff d0                	call   *%eax
  4035e4:	85 c0                	test   %eax,%eax
  4035e6:	0f 85 c2 83 00 00    	jne    0x40b9ae
  4035ec:	83 e7 cc             	and    $0xffffffcc,%edi
  4035ef:	31 05 cb 30 42 00    	xor    %eax,0x4230cb
  4035f5:	09 1d e2 30 42 00    	or     %ebx,0x4230e2
  4035fb:	31 f6                	xor    %esi,%esi
  4035fd:	19 3d 36 30 42 00    	sbb    %edi,0x423036
  403603:	8d 15 97 17 a7 98    	lea    0x98a71797,%edx
  403609:	81 ea 21 e3 64 98    	sub    $0x9864e321,%edx
  40360f:	52                   	push   %edx
  403610:	6a 01                	push   $0x1
  403612:	ff 0c 24             	decl   (%esp)
  403615:	68 01 00 10 00       	push   $0x100001
  40361a:	ff 0c 24             	decl   (%esp)
  40361d:	a1 e8 f0 41 00       	mov    0x41f0e8,%eax
  403622:	ff d0                	call   *%eax
  403624:	85 c0                	test   %eax,%eax
  403626:	0f 85 82 83 00 00    	jne    0x40b9ae
  40362c:	83 15 34 30 42 00 24 	adcl   $0x24,0x423034
  403633:	0b 35 8a 30 42 00    	or     0x42308a,%esi
  403639:	0a 3d d6 30 42 00    	or     0x4230d6,%bh
  40363f:	01 fb                	add    %edi,%ebx
  403641:	ba 01 00 00 00       	mov    $0x1,%edx
  403646:	13 15 2c 30 42 00    	adc    0x42302c,%edx
  40364c:	8d 1d af 17 a7 98    	lea    0x98a717af,%ebx
  403652:	81 eb 21 e3 64 98    	sub    $0x9864e321,%ebx
  403658:	53                   	push   %ebx
  403659:	8d 15 a4 17 a7 98    	lea    0x98a717a4,%edx
  40365f:	81 ea 21 e3 64 98    	sub    $0x9864e321,%edx
  403665:	52                   	push   %edx
  403666:	a1 10 f1 41 00       	mov    0x41f110,%eax
  40366b:	ff d0                	call   *%eax
  40366d:	82 ef 1b             	sub    $0x1b,%bh
  403670:	18 f8                	sbb    %bh,%al
  403672:	01 f7                	add    %esi,%edi
  403674:	c7 05 4c 30 42 00 fc 	movl   $0xfc,0x42304c
  40367b:	00 00 00 
  40367e:	30 3d 51 30 42 00    	xor    %bh,0x423051
  403684:	8d 0d af 17 a7 98    	lea    0x98a717af,%ecx
  40368a:	81 e9 21 e3 64 98    	sub    $0x9864e321,%ecx
  403690:	51                   	push   %ecx
  403691:	8d 05 a4 17 a7 98    	lea    0x98a717a4,%eax
  403697:	2d 21 e3 64 98       	sub    $0x9864e321,%eax
  40369c:	50                   	push   %eax
  40369d:	a1 10 f1 41 00       	mov    0x41f110,%eax
  4036a2:	ff d0                	call   *%eax
  4036a4:	00 25 a7 31 42 00    	add    %ah,0x4231a7
  4036aa:	08 05 b3 30 42 00    	or     %al,0x4230b3
  4036b0:	b9 01 00 00 00       	mov    $0x1,%ecx
  4036b5:	83 c1 37             	add    $0x37,%ecx
  4036b8:	2b 05 2e 30 42 00    	sub    0x42302e,%eax
  4036be:	2e e9 14 7e 00 00    	cs jmp 0x40b4d8
  4036c4:	29 de                	sub    %ebx,%esi
  4036c6:	81 0d bf 30 42 00 d9 	orl    $0xd9,0x4230bf
  4036cd:	00 00 00 
  4036d0:	ba 01 00 00 00       	mov    $0x1,%edx
  4036d5:	01 ca                	add    %ecx,%edx
  4036d7:	81 25 16 30 42 00 be 	andl   $0xbe,0x423016
  4036de:	00 00 00 
  4036e1:	81 1d 72 30 42 00 84 	sbbl   $0x84,0x423072
  4036e8:	00 00 00 
	...
  4036f3:	00 00                	add    %al,(%eax)
  4036f5:	00 ba 01 00 00 00    	add    %bh,0x1(%edx)
  4036fb:	83 c2 8b             	add    $0xffffff8b,%edx
  4036fe:	83 d2 53             	adc    $0x53,%edx
  403701:	83 c7 86             	add    $0xffffff86,%edi
  403704:	01 c6                	add    %eax,%esi
  403706:	29 d7                	sub    %edx,%edi
  403708:	8d 35 97 17 a7 98    	lea    0x98a71797,%esi
  40370e:	81 ee 21 e3 64 98    	sub    $0x9864e321,%esi
  403714:	56                   	push   %esi
  403715:	6a 01                	push   $0x1
  403717:	ff 0c 24             	decl   (%esp)
  40371a:	68 01 00 10 00       	push   $0x100001
  40371f:	ff 0c 24             	decl   (%esp)
  403722:	a1 e8 f0 41 00       	mov    0x41f0e8,%eax
  403727:	ff d0                	call   *%eax
  403729:	85 c0                	test   %eax,%eax
  40372b:	0f 85 7d 82 00 00    	jne    0x40b9ae
  403731:	83 ce 2e             	or     $0x2e,%esi
  403734:	83 df 41             	sbb    $0x41,%edi
  403737:	04 86                	add    $0x86,%al
  403739:	8d 0d af 17 a7 98    	lea    0x98a717af,%ecx
  40373f:	81 e9 21 e3 64 98    	sub    $0x9864e321,%ecx
  403745:	51                   	push   %ecx
  403746:	8d 05 a4 17 a7 98    	lea    0x98a717a4,%eax
  40374c:	2d 21 e3 64 98       	sub    $0x9864e321,%eax
  403751:	50                   	push   %eax
  403752:	a1 10 f1 41 00       	mov    0x41f110,%eax
  403757:	ff d0                	call   *%eax
  403759:	83 f7 b5             	xor    $0xffffffb5,%edi
  40375c:	8d 35 97 17 a7 98    	lea    0x98a71797,%esi
  403762:	81 ee 21 e3 64 98    	sub    $0x9864e321,%esi
  403768:	56                   	push   %esi
  403769:	6a 01                	push   $0x1
  40376b:	ff 0c 24             	decl   (%esp)
  40376e:	68 01 00 10 00       	push   $0x100001
  403773:	ff 0c 24             	decl   (%esp)
  403776:	a1 e8 f0 41 00       	mov    0x41f0e8,%eax
  40377b:	ff d0                	call   *%eax
  40377d:	83 f8 00             	cmp    $0x0,%eax
  403780:	0f 85 28 82 00 00    	jne    0x40b9ae
  403786:	8d 1d af 17 a7 98    	lea    0x98a717af,%ebx
  40378c:	81 eb 21 e3 64 98    	sub    $0x9864e321,%ebx
  403792:	53                   	push   %ebx
  403793:	8d 05 a4 17 a7 98    	lea    0x98a717a4,%eax
  403799:	2d 21 e3 64 98       	sub    $0x9864e321,%eax
  40379e:	50                   	push   %eax
  40379f:	a1 10 f1 41 00       	mov    0x41f110,%eax
  4037a4:	ff d0                	call   *%eax
  4037a6:	8d 05 97 17 a7 98    	lea    0x98a71797,%eax
  4037ac:	2d 21 e3 64 98       	sub    $0x9864e321,%eax
  4037b1:	50                   	push   %eax
  4037b2:	6a 01                	push   $0x1
  4037b4:	ff 0c 24             	decl   (%esp)
  4037b7:	68 01 00 10 00       	push   $0x100001
  4037bc:	ff 0c 24             	decl   (%esp)
  4037bf:	a1 e8 f0 41 00       	mov    0x41f0e8,%eax
  4037c4:	ff d0                	call   *%eax
  4037c6:	83 f8 00             	cmp    $0x0,%eax
  4037c9:	0f 85 df 81 00 00    	jne    0x40b9ae
  4037cf:	19 c3                	sbb    %eax,%ebx
  4037d1:	82 2d a6 30 42 00 6f 	subb   $0x6f,0x4230a6
  4037d8:	8d 15 af 17 a7 98    	lea    0x98a717af,%edx
  4037de:	81 ea 21 e3 64 98    	sub    $0x9864e321,%edx
  4037e4:	52                   	push   %edx
  4037e5:	8d 3d a4 17 a7 98    	lea    0x98a717a4,%edi
  4037eb:	81 ef 21 e3 64 98    	sub    $0x9864e321,%edi
  4037f1:	57                   	push   %edi
  4037f2:	a1 10 f1 41 00       	mov    0x41f110,%eax
  4037f7:	ff d0                	call   *%eax
  4037f9:	19 f0                	sbb    %esi,%eax
  4037fb:	8d 1d 97 17 a7 98    	lea    0x98a71797,%ebx
  403801:	81 eb 21 e3 64 98    	sub    $0x9864e321,%ebx
  403807:	53                   	push   %ebx
  403808:	6a 01                	push   $0x1
  40380a:	ff 0c 24             	decl   (%esp)
  40380d:	68 01 00 10 00       	push   $0x100001
  403812:	ff 0c 24             	decl   (%esp)
  403815:	a1 e8 f0 41 00       	mov    0x41f0e8,%eax
  40381a:	ff d0                	call   *%eax
  40381c:	83 f8 00             	cmp    $0x0,%eax
  40381f:	0f 85 89 81 00 00    	jne    0x40b9ae
  403825:	09 35 d9 30 42 00    	or     %esi,0x4230d9
  40382b:	8d 3d af 17 a7 98    	lea    0x98a717af,%edi
  403831:	81 ef 21 e3 64 98    	sub    $0x9864e321,%edi
  403837:	57                   	push   %edi
  403838:	8d 35 a4 17 a7 98    	lea    0x98a717a4,%esi
  40383e:	81 ee 21 e3 64 98    	sub    $0x9864e321,%esi
  403844:	56                   	push   %esi
  403845:	a1 10 f1 41 00       	mov    0x41f110,%eax
  40384a:	ff d0                	call   *%eax
  40384c:	12 05 ca 31 42 00    	adc    0x4231ca,%al
  403852:	8d 15 97 17 a7 98    	lea    0x98a71797,%edx
  403858:	81 ea 21 e3 64 98    	sub    $0x9864e321,%edx
  40385e:	52                   	push   %edx
  40385f:	6a 01                	push   $0x1
  403861:	ff 0c 24             	decl   (%esp)
  403864:	68 01 00 10 00       	push   $0x100001
  403869:	ff 0c 24             	decl   (%esp)
  40386c:	a1 e8 f0 41 00       	mov    0x41f0e8,%eax
  403871:	ff d0                	call   *%eax
  403873:	85 c0                	test   %eax,%eax
  403875:	0f 85 33 81 00 00    	jne    0x40b9ae
  40387b:	81 15 c4 30 42 00 f4 	adcl   $0xf4,0x4230c4
  403882:	00 00 00 
  403885:	12 3d 2d 30 42 00    	adc    0x42302d,%bh
  40388b:	21 35 b3 31 42 00    	and    %esi,0x4231b3
  403891:	c7 05 c3 31 42 00 e9 	movl   $0xe9,0x4231c3
  403898:	00 00 00 
  40389b:	8d 0d af 17 a7 98    	lea    0x98a717af,%ecx
  4038a1:	81 e9 21 e3 64 98    	sub    $0x9864e321,%ecx
  4038a7:	51                   	push   %ecx
  4038a8:	8d 05 a4 17 a7 98    	lea    0x98a717a4,%eax
  4038ae:	2d 21 e3 64 98       	sub    $0x9864e321,%eax
  4038b3:	50                   	push   %eax
  4038b4:	a1 10 f1 41 00       	mov    0x41f110,%eax
  4038b9:	ff d0                	call   *%eax
  4038bb:	83 eb 5a             	sub    $0x5a,%ebx
  4038be:	31 1d 3b 31 42 00    	xor    %ebx,0x42313b
  4038c4:	09 3d 92 30 42 00    	or     %edi,0x423092
  4038ca:	8d 0d af 17 a7 98    	lea    0x98a717af,%ecx
  4038d0:	81 e9 21 e3 64 98    	sub    $0x9864e321,%ecx
  4038d6:	51                   	push   %ecx
  4038d7:	8d 3d a4 17 a7 98    	lea    0x98a717a4,%edi
  4038dd:	81 ef 21 e3 64 98    	sub    $0x9864e321,%edi
  4038e3:	57                   	push   %edi
  4038e4:	a1 10 f1 41 00       	mov    0x41f110,%eax
  4038e9:	ff d0                	call   *%eax
  4038eb:	81 15 b9 31 42 00 fc 	adcl   $0xfc,0x4231b9
  4038f2:	00 00 00 
  4038f5:	b9 01 00 00 00       	mov    $0x1,%ecx
  4038fa:	13 0d d2 30 42 00    	adc    0x4230d2,%ecx
  403900:	83 f7 53             	xor    $0x53,%edi
  403903:	21 35 e3 31 42 00    	and    %esi,0x4231e3
  403909:	2e e9 c9 7b 00 00    	cs jmp 0x40b4d8
  40390f:	01 1d cf 30 42 00    	add    %ebx,0x4230cf
  403915:	2c 8e                	sub    $0x8e,%al
  403917:	00 00                	add    %al,(%eax)
  403919:	21 05 a5 31 42 00    	and    %eax,0x4231a5
  40391f:	13 35 1d 31 42 00    	adc    0x42311d,%esi
  403925:	83 eb a3             	sub    $0xffffffa3,%ebx
  403928:	81 25 2d 31 42 00 a6 	andl   $0xa6,0x42312d
  40392f:	00 00 00 
  403932:	81 35 96 31 42 00 e0 	xorl   $0xe0,0x423196
  403939:	00 00 00 
  40393c:	8d 05 af 17 a7 98    	lea    0x98a717af,%eax
  403942:	2d 21 e3 64 98       	sub    $0x9864e321,%eax
  403947:	50                   	push   %eax
  403948:	8d 15 a4 17 a7 98    	lea    0x98a717a4,%edx
  40394e:	81 ea 21 e3 64 98    	sub    $0x9864e321,%edx
  403954:	52                   	push   %edx
  403955:	a1 10 f1 41 00       	mov    0x41f110,%eax
  40395a:	ff d0                	call   *%eax
  40395c:	83 c7 b4             	add    $0xffffffb4,%edi
  40395f:	c7 05 a2 30 42 00 cf 	movl   $0xcf,0x4230a2
  403966:	00 00 00 
  403969:	8d 0d af 17 a7 98    	lea    0x98a717af,%ecx
  40396f:	81 e9 21 e3 64 98    	sub    $0x9864e321,%ecx
  403975:	51                   	push   %ecx
  403976:	8d 1d a4 17 a7 98    	lea    0x98a717a4,%ebx
  40397c:	81 eb 21 e3 64 98    	sub    $0x9864e321,%ebx
  403982:	53                   	push   %ebx
  403983:	a1 10 f1 41 00       	mov    0x41f110,%eax
  403988:	ff d0                	call   *%eax
  40398a:	ba 01 00 00 00       	mov    $0x1,%edx
  40398f:	83 c2 2d             	add    $0x2d,%edx
  403992:	81 25 eb 30 42 00 e2 	andl   $0xe2,0x4230eb
  403999:	00 00 00 
  40399c:	8d 05 af 17 a7 98    	lea    0x98a717af,%eax
  4039a2:	2d 21 e3 64 98       	sub    $0x9864e321,%eax
  4039a7:	50                   	push   %eax
  4039a8:	8d 3d a4 17 a7 98    	lea    0x98a717a4,%edi
  4039ae:	81 ef 21 e3 64 98    	sub    $0x9864e321,%edi
  4039b4:	57                   	push   %edi
  4039b5:	a1 10 f1 41 00       	mov    0x41f110,%eax
  4039ba:	ff d0                	call   *%eax
  4039bc:	ba 01 00 00 00       	mov    $0x1,%edx
  4039c1:	83 c2 cb             	add    $0xffffffcb,%edx
  4039c4:	83 25 9c 31 42 00 51 	andl   $0x51,0x42319c
  4039cb:	13 35 7f 31 42 00    	adc    0x42317f,%esi
  4039d1:	8d 0d 97 17 a7 98    	lea    0x98a71797,%ecx
  4039d7:	81 e9 21 e3 64 98    	sub    $0x9864e321,%ecx
  4039dd:	51                   	push   %ecx
  4039de:	6a 01                	push   $0x1
  4039e0:	ff 0c 24             	decl   (%esp)
  4039e3:	68 01 00 10 00       	push   $0x100001
  4039e8:	ff 0c 24             	decl   (%esp)
  4039eb:	a1 e8 f0 41 00       	mov    0x41f0e8,%eax
  4039f0:	ff d0                	call   *%eax
  4039f2:	85 c0                	test   %eax,%eax
  4039f4:	0f 85 b4 7f 00 00    	jne    0x40b9ae
  4039fa:	12 1d 34 31 42 00    	adc    0x423134,%bl
  403a00:	b9 01 00 00 00       	mov    $0x1,%ecx
  403a05:	01 c1                	add    %eax,%ecx
  403a07:	08 25 17 30 42 00    	or     %ah,0x423017
  403a0d:	8d 35 af 17 a7 98    	lea    0x98a717af,%esi
  403a13:	81 ee 21 e3 64 98    	sub    $0x9864e321,%esi
  403a19:	56                   	push   %esi
  403a1a:	8d 3d a4 17 a7 98    	lea    0x98a717a4,%edi
  403a20:	81 ef 21 e3 64 98    	sub    $0x9864e321,%edi
  403a26:	57                   	push   %edi
  403a27:	a1 10 f1 41 00       	mov    0x41f110,%eax
  403a2c:	ff d0                	call   *%eax
  403a2e:	09 3d 0b 31 42 00    	or     %edi,0x42310b
  403a34:	ba 01 00 00 00       	mov    $0x1,%edx
  403a39:	01 da                	add    %ebx,%edx
  403a3b:	8d 3d af 17 a7 98    	lea    0x98a717af,%edi
  403a41:	81 ef 21 e3 64 98    	sub    $0x9864e321,%edi
  403a47:	57                   	push   %edi
  403a48:	8d 05 a4 17 a7 98    	lea    0x98a717a4,%eax
  403a4e:	2d 21 e3 64 98       	sub    $0x9864e321,%eax
  403a53:	50                   	push   %eax
  403a54:	a1 10 f1 41 00       	mov    0x41f110,%eax
  403a59:	ff d0                	call   *%eax
  403a5b:	81 15 fc 30 42 00 ba 	adcl   $0xba,0x4230fc
  403a62:	00 00 00 
  403a65:	8d 15 97 17 a7 98    	lea    0x98a71797,%edx
  403a6b:	81 ea 21 e3 64 98    	sub    $0x9864e321,%edx
  403a71:	52                   	push   %edx
  403a72:	6a 01                	push   $0x1
  403a74:	ff 0c 24             	decl   (%esp)
  403a77:	68 01 00 10 00       	push   $0x100001
  403a7c:	ff 0c 24             	decl   (%esp)
  403a7f:	a1 e8 f0 41 00       	mov    0x41f0e8,%eax
  403a84:	ff d0                	call   *%eax
  403a86:	85 c0                	test   %eax,%eax
  403a88:	0f 85 20 7f 00 00    	jne    0x40b9ae
  403a8e:	31 f7                	xor    %esi,%edi
  403a90:	83 d0 29             	adc    $0x29,%eax
  403a93:	8d 0d af 17 a7 98    	lea    0x98a717af,%ecx
  403a99:	81 e9 21 e3 64 98    	sub    $0x9864e321,%ecx
  403a9f:	51                   	push   %ecx
  403aa0:	8d 0d a4 17 a7 98    	lea    0x98a717a4,%ecx
  403aa6:	81 e9 21 e3 64 98    	sub    $0x9864e321,%ecx
  403aac:	51                   	push   %ecx
  403aad:	a1 10 f1 41 00       	mov    0x41f110,%eax
  403ab2:	ff d0                	call   *%eax
  403ab4:	19 35 8b 31 42 00    	sbb    %esi,0x42318b
  403aba:	8d 0d 97 17 a7 98    	lea    0x98a71797,%ecx
  403ac0:	81 e9 21 e3 64 98    	sub    $0x9864e321,%ecx
  403ac6:	51                   	push   %ecx
  403ac7:	6a 01                	push   $0x1
  403ac9:	ff 0c 24             	decl   (%esp)
  403acc:	68 01 00 10 00       	push   $0x100001
  403ad1:	ff 0c 24             	decl   (%esp)
  403ad4:	a1 e8 f0 41 00       	mov    0x41f0e8,%eax
  403ad9:	ff d0                	call   *%eax
  403adb:	83 f8 00             	cmp    $0x0,%eax
  403ade:	0f 85 ca 7e 00 00    	jne    0x40b9ae
  403ae4:	01 3d 9c 31 42 00    	add    %edi,0x42319c
  403aea:	01 f6                	add    %esi,%esi
  403aec:	b2 01                	mov    $0x1,%dl
  403aee:	00 e2                	add    %ah,%dl
  403af0:	8d 15 97 17 a7 98    	lea    0x98a71797,%edx
  403af6:	81 ea 21 e3 64 98    	sub    $0x9864e321,%edx
  403afc:	52                   	push   %edx
  403afd:	6a 01                	push   $0x1
  403aff:	ff 0c 24             	decl   (%esp)
  403b02:	68 01 00 10 00       	push   $0x100001
  403b07:	ff 0c 24             	decl   (%esp)
  403b0a:	a1 e8 f0 41 00       	mov    0x41f0e8,%eax
  403b0f:	ff d0                	call   *%eax
  403b11:	83 f8 00             	cmp    $0x0,%eax
  403b14:	0f 85 94 7e 00 00    	jne    0x40b9ae
  403b1a:	c7 05 6a 31 42 00 40 	movl   $0x40,0x42316a
  403b21:	00 00 00 
  403b24:	2b 3d 13 31 42 00    	sub    0x423113,%edi
  403b2a:	19 fe                	sbb    %edi,%esi
  403b2c:	13 05 ff 30 42 00    	adc    0x4230ff,%eax
  403b32:	2e e9 a0 79 00 00    	cs jmp 0x40b4d8
  403b38:	01 35 f5 31 42 00    	add    %esi,0x4231f5
  403b3e:	29 3d ef 31 42 00    	sub    %edi,0x4231ef
	...
  403b50:	01 1d bf 31 42 00    	add    %ebx,0x4231bf
  403b56:	29 1d 26 31 42 00    	sub    %ebx,0x423126
  403b5c:	ba 01 00 00 00       	mov    $0x1,%edx
  403b61:	13 15 13 30 42 00    	adc    0x423013,%edx
  403b67:	82 f4 34             	xor    $0x34,%ah
  403b6a:	8d 05 af 17 a7 98    	lea    0x98a717af,%eax
  403b70:	2d 21 e3 64 98       	sub    $0x9864e321,%eax
  403b75:	50                   	push   %eax
  403b76:	8d 0d a4 17 a7 98    	lea    0x98a717a4,%ecx
  403b7c:	81 e9 21 e3 64 98    	sub    $0x9864e321,%ecx
  403b82:	51                   	push   %ecx
  403b83:	a1 10 f1 41 00       	mov    0x41f110,%eax
  403b88:	ff d0                	call   *%eax
  403b8a:	2b 05 0a 31 42 00    	sub    0x42310a,%eax
  403b90:	19 f0                	sbb    %esi,%eax
  403b92:	b5 01                	mov    $0x1,%ch
  403b94:	82 c5 41             	add    $0x41,%ch
  403b97:	83 e8 27             	sub    $0x27,%eax
  403b9a:	83 35 a3 30 42 00 0e 	xorl   $0xe,0x4230a3
  403ba1:	8d 1d 97 17 a7 98    	lea    0x98a71797,%ebx
  403ba7:	81 eb 21 e3 64 98    	sub    $0x9864e321,%ebx
  403bad:	53                   	push   %ebx
  403bae:	6a 01                	push   $0x1
  403bb0:	ff 0c 24             	decl   (%esp)
  403bb3:	68 01 00 10 00       	push   $0x100001
  403bb8:	ff 0c 24             	decl   (%esp)
  403bbb:	a1 e8 f0 41 00       	mov    0x41f0e8,%eax
  403bc0:	ff d0                	call   *%eax
  403bc2:	83 f8 00             	cmp    $0x0,%eax
  403bc5:	0f 85 e3 7d 00 00    	jne    0x40b9ae
  403bcb:	8d 05 af 17 a7 98    	lea    0x98a717af,%eax
  403bd1:	2d 21 e3 64 98       	sub    $0x9864e321,%eax
  403bd6:	50                   	push   %eax
  403bd7:	8d 05 a4 17 a7 98    	lea    0x98a717a4,%eax
  403bdd:	2d 21 e3 64 98       	sub    $0x9864e321,%eax
  403be2:	50                   	push   %eax
  403be3:	a1 10 f1 41 00       	mov    0x41f110,%eax
  403be8:	ff d0                	call   *%eax
  403bea:	83 ee 03             	sub    $0x3,%esi
  403bed:	b9 01 00 00 00       	mov    $0x1,%ecx
  403bf2:	01 d9                	add    %ebx,%ecx
  403bf4:	8d 15 97 17 a7 98    	lea    0x98a71797,%edx
  403bfa:	81 ea 21 e3 64 98    	sub    $0x9864e321,%edx
  403c00:	52                   	push   %edx
  403c01:	6a 01                	push   $0x1
  403c03:	ff 0c 24             	decl   (%esp)
  403c06:	68 01 00 10 00       	push   $0x100001
  403c0b:	ff 0c 24             	decl   (%esp)
  403c0e:	a1 e8 f0 41 00       	mov    0x41f0e8,%eax
  403c13:	ff d0                	call   *%eax
  403c15:	83 f8 00             	cmp    $0x0,%eax
  403c18:	0f 85 90 7d 00 00    	jne    0x40b9ae
  403c1e:	0b 05 3f 30 42 00    	or     0x42303f,%eax
  403c24:	83 25 0b 30 42 00 7d 	andl   $0x7d,0x42300b
  403c2b:	31 1d 2b 30 42 00    	xor    %ebx,0x42302b
  403c31:	8d 15 af 17 a7 98    	lea    0x98a717af,%edx
  403c37:	81 ea 21 e3 64 98    	sub    $0x9864e321,%edx
  403c3d:	52                   	push   %edx
  403c3e:	8d 1d a4 17 a7 98    	lea    0x98a717a4,%ebx
  403c44:	81 eb 21 e3 64 98    	sub    $0x9864e321,%ebx
  403c4a:	53                   	push   %ebx
  403c4b:	a1 10 f1 41 00       	mov    0x41f110,%eax
  403c50:	ff d0                	call   *%eax
  403c52:	8d 1d 97 17 a7 98    	lea    0x98a71797,%ebx
  403c58:	81 eb 21 e3 64 98    	sub    $0x9864e321,%ebx
  403c5e:	53                   	push   %ebx
  403c5f:	6a 01                	push   $0x1
  403c61:	ff 0c 24             	decl   (%esp)
  403c64:	68 01 00 10 00       	push   $0x100001
  403c69:	ff 0c 24             	decl   (%esp)
  403c6c:	a1 e8 f0 41 00       	mov    0x41f0e8,%eax
  403c71:	ff d0                	call   *%eax
  403c73:	83 f8 00             	cmp    $0x0,%eax
  403c76:	0f 85 32 7d 00 00    	jne    0x40b9ae
  403c7c:	31 f3                	xor    %esi,%ebx
  403c7e:	8d 35 af 17 a7 98    	lea    0x98a717af,%esi
  403c84:	81 ee 21 e3 64 98    	sub    $0x9864e321,%esi
  403c8a:	56                   	push   %esi
  403c8b:	8d 35 a4 17 a7 98    	lea    0x98a717a4,%esi
  403c91:	81 ee 21 e3 64 98    	sub    $0x9864e321,%esi
  403c97:	56                   	push   %esi
  403c98:	a1 10 f1 41 00       	mov    0x41f110,%eax
  403c9d:	ff d0                	call   *%eax
  403c9f:	31 05 2f 31 42 00    	xor    %eax,0x42312f
  403ca5:	01 c6                	add    %eax,%esi
  403ca7:	8d 1d 97 17 a7 98    	lea    0x98a71797,%ebx
  403cad:	81 eb 21 e3 64 98    	sub    $0x9864e321,%ebx
  403cb3:	53                   	push   %ebx
  403cb4:	6a 01                	push   $0x1
  403cb6:	ff 0c 24             	decl   (%esp)
  403cb9:	68 01 00 10 00       	push   $0x100001
  403cbe:	ff 0c 24             	decl   (%esp)
  403cc1:	a1 e8 f0 41 00       	mov    0x41f0e8,%eax
  403cc6:	ff d0                	call   *%eax
  403cc8:	85 c0                	test   %eax,%eax
  403cca:	0f 85 de 7c 00 00    	jne    0x40b9ae
  403cd0:	13 1d 22 30 42 00    	adc    0x423022,%ebx
  403cd6:	19 c3                	sbb    %eax,%ebx
  403cd8:	8d 15 97 17 a7 98    	lea    0x98a71797,%edx
  403cde:	81 ea 21 e3 64 98    	sub    $0x9864e321,%edx
  403ce4:	52                   	push   %edx
  403ce5:	6a 01                	push   $0x1
  403ce7:	ff 0c 24             	decl   (%esp)
  403cea:	68 01 00 10 00       	push   $0x100001
  403cef:	ff 0c 24             	decl   (%esp)
  403cf2:	a1 e8 f0 41 00       	mov    0x41f0e8,%eax
  403cf7:	ff d0                	call   *%eax
  403cf9:	85 c0                	test   %eax,%eax
  403cfb:	0f 85 ad 7c 00 00    	jne    0x40b9ae
  403d01:	8d 1d 97 17 a7 98    	lea    0x98a71797,%ebx
  403d07:	81 eb 21 e3 64 98    	sub    $0x9864e321,%ebx
  403d0d:	53                   	push   %ebx
  403d0e:	6a 01                	push   $0x1
  403d10:	ff 0c 24             	decl   (%esp)
  403d13:	68 01 00 10 00       	push   $0x100001
  403d18:	ff 0c 24             	decl   (%esp)
  403d1b:	a1 e8 f0 41 00       	mov    0x41f0e8,%eax
  403d20:	ff d0                	call   *%eax
  403d22:	83 f8 00             	cmp    $0x0,%eax
  403d25:	0f 85 83 7c 00 00    	jne    0x40b9ae
  403d2b:	b9 01 00 00 00       	mov    $0x1,%ecx
  403d30:	83 c1 23             	add    $0x23,%ecx
  403d33:	82 2d 57 30 42 00 93 	subb   $0x93,0x423057
  403d3a:	11 cf                	adc    %ecx,%edi
  403d3c:	8d 35 97 17 a7 98    	lea    0x98a71797,%esi
  403d42:	81 ee 21 e3 64 98    	sub    $0x9864e321,%esi
  403d48:	56                   	push   %esi
  403d49:	6a 01                	push   $0x1
  403d4b:	ff 0c 24             	decl   (%esp)
  403d4e:	68 01 00 10 00       	push   $0x100001
  403d53:	ff 0c 24             	decl   (%esp)
  403d56:	a1 e8 f0 41 00       	mov    0x41f0e8,%eax
  403d5b:	ff d0                	call   *%eax
  403d5d:	83 f8 00             	cmp    $0x0,%eax
  403d60:	0f 85 48 7c 00 00    	jne    0x40b9ae
  403d66:	b9 01 00 00 00       	mov    $0x1,%ecx
  403d6b:	13 0d 59 31 42 00    	adc    0x423159,%ecx
  403d71:	8d 35 af 17 a7 98    	lea    0x98a717af,%esi
  403d77:	81 ee 21 e3 64 98    	sub    $0x9864e321,%esi
  403d7d:	56                   	push   %esi
  403d7e:	8d 35 a4 17 a7 98    	lea    0x98a717a4,%esi
  403d84:	81 ee 21 e3 64 98    	sub    $0x9864e321,%esi
  403d8a:	56                   	push   %esi
  403d8b:	a1 10 f1 41 00       	mov    0x41f110,%eax
  403d90:	ff d0                	call   *%eax
  403d92:	c7 05 0c 30 42 00 e0 	movl   $0xe0,0x42300c
  403d99:	00 00 00 
  403d9c:	ba 01 00 00 00       	mov    $0x1,%edx
  403da1:	01 f2                	add    %esi,%edx
  403da3:	b9 01 00 00 00       	mov    $0x1,%ecx
  403da8:	01 f1                	add    %esi,%ecx
  403daa:	13 05 d2 30 42 00    	adc    0x4230d2,%eax
  403db0:	13 35 87 30 42 00    	adc    0x423087,%esi
  403db6:	2e e9 1c 77 00 00    	cs jmp 0x40b4d8
  403dbc:	83 0d bf 31 42 00 6b 	orl    $0x6b,0x4231bf
  403dc3:	29 f9                	sub    %edi,%ecx
  403dc5:	13 05 38 30 42 00    	adc    0x423038,%eax
  403dcb:	01 15 99 31 42 00    	add    %edx,0x423199
  403dd1:	13 35 a3 31 42 00    	adc    0x4231a3,%esi
	...
  403ddf:	00 dc                	add    %bl,%ah
  403de1:	ba 01 00 00 00       	mov    $0x1,%edx
  403de6:	01 da                	add    %ebx,%edx
  403de8:	31 f0                	xor    %esi,%eax
  403dea:	8d 0d 97 17 a7 98    	lea    0x98a71797,%ecx
  403df0:	81 e9 21 e3 64 98    	sub    $0x9864e321,%ecx
  403df6:	51                   	push   %ecx
  403df7:	6a 01                	push   $0x1
  403df9:	ff 0c 24             	decl   (%esp)
  403dfc:	68 01 00 10 00       	push   $0x100001
  403e01:	ff 0c 24             	decl   (%esp)
  403e04:	a1 e8 f0 41 00       	mov    0x41f0e8,%eax
  403e09:	ff d0                	call   *%eax
  403e0b:	83 f8 00             	cmp    $0x0,%eax
  403e0e:	0f 85 9a 7b 00 00    	jne    0x40b9ae
  403e14:	83 0d 2a 31 42 00 6d 	orl    $0x6d,0x42312a
  403e1b:	8d 15 97 17 a7 98    	lea    0x98a71797,%edx
  403e21:	81 ea 21 e3 64 98    	sub    $0x9864e321,%edx
  403e27:	52                   	push   %edx
  403e28:	6a 01                	push   $0x1
  403e2a:	ff 0c 24             	decl   (%esp)
  403e2d:	68 01 00 10 00       	push   $0x100001
  403e32:	ff 0c 24             	decl   (%esp)
  403e35:	a1 e8 f0 41 00       	mov    0x41f0e8,%eax
  403e3a:	ff d0                	call   *%eax
  403e3c:	85 c0                	test   %eax,%eax
  403e3e:	0f 85 6a 7b 00 00    	jne    0x40b9ae
  403e44:	83 1d a1 31 42 00 01 	sbbl   $0x1,0x4231a1
  403e4b:	8d 15 af 17 a7 98    	lea    0x98a717af,%edx
  403e51:	81 ea 21 e3 64 98    	sub    $0x9864e321,%edx
  403e57:	52                   	push   %edx
  403e58:	8d 1d a4 17 a7 98    	lea    0x98a717a4,%ebx
  403e5e:	81 eb 21 e3 64 98    	sub    $0x9864e321,%ebx
  403e64:	53                   	push   %ebx
  403e65:	a1 10 f1 41 00       	mov    0x41f110,%eax
  403e6a:	ff d0                	call   *%eax
  403e6c:	b9 01 00 00 00       	mov    $0x1,%ecx
  403e71:	83 c1 72             	add    $0x72,%ecx
  403e74:	8d 3d 97 17 a7 98    	lea    0x98a71797,%edi
  403e7a:	81 ef 21 e3 64 98    	sub    $0x9864e321,%edi
  403e80:	57                   	push   %edi
  403e81:	6a 01                	push   $0x1
  403e83:	ff 0c 24             	decl   (%esp)
  403e86:	68 01 00 10 00       	push   $0x100001
  403e8b:	ff 0c 24             	decl   (%esp)
  403e8e:	a1 e8 f0 41 00       	mov    0x41f0e8,%eax
  403e93:	ff d0                	call   *%eax
  403e95:	83 f8 00             	cmp    $0x0,%eax
  403e98:	0f 85 10 7b 00 00    	jne    0x40b9ae
  403e9e:	31 c7                	xor    %eax,%edi
  403ea0:	31 c3                	xor    %eax,%ebx
  403ea2:	81 1d e2 30 42 00 b1 	sbbl   $0xb1,0x4230e2
  403ea9:	00 00 00 
  403eac:	13 1d c5 31 42 00    	adc    0x4231c5,%ebx
  403eb2:	b9 01 00 00 00       	mov    $0x1,%ecx
  403eb7:	01 c1                	add    %eax,%ecx
  403eb9:	8d 0d af 17 a7 98    	lea    0x98a717af,%ecx
  403ebf:	81 e9 21 e3 64 98    	sub    $0x9864e321,%ecx
  403ec5:	51                   	push   %ecx
  403ec6:	8d 3d a4 17 a7 98    	lea    0x98a717a4,%edi
  403ecc:	81 ef 21 e3 64 98    	sub    $0x9864e321,%edi
  403ed2:	57                   	push   %edi
  403ed3:	a1 10 f1 41 00       	mov    0x41f110,%eax
  403ed8:	ff d0                	call   *%eax
  403eda:	83 0d 41 31 42 00 4c 	orl    $0x4c,0x423141
  403ee1:	c7 05 ea 30 42 00 c2 	movl   $0xc2,0x4230ea
  403ee8:	00 00 00 
  403eeb:	83 15 35 30 42 00 7b 	adcl   $0x7b,0x423035
  403ef2:	01 fb                	add    %edi,%ebx
  403ef4:	8d 3d af 17 a7 98    	lea    0x98a717af,%edi
  403efa:	81 ef 21 e3 64 98    	sub    $0x9864e321,%edi
  403f00:	57                   	push   %edi
  403f01:	8d 3d a4 17 a7 98    	lea    0x98a717a4,%edi
  403f07:	81 ef 21 e3 64 98    	sub    $0x9864e321,%edi
  403f0d:	57                   	push   %edi
  403f0e:	a1 10 f1 41 00       	mov    0x41f110,%eax
  403f13:	ff d0                	call   *%eax
  403f15:	83 15 33 31 42 00 3a 	adcl   $0x3a,0x423133
  403f1c:	11 ff                	adc    %edi,%edi
  403f1e:	81 25 e5 30 42 00 b2 	andl   $0xb2,0x4230e5
  403f25:	00 00 00 
  403f28:	31 05 d2 31 42 00    	xor    %eax,0x4231d2
  403f2e:	8d 3d af 17 a7 98    	lea    0x98a717af,%edi
  403f34:	81 ef 21 e3 64 98    	sub    $0x9864e321,%edi
  403f3a:	57                   	push   %edi
  403f3b:	8d 3d a4 17 a7 98    	lea    0x98a717a4,%edi
  403f41:	81 ef 21 e3 64 98    	sub    $0x9864e321,%edi
  403f47:	57                   	push   %edi
  403f48:	a1 10 f1 41 00       	mov    0x41f110,%eax
  403f4d:	ff d0                	call   *%eax
  403f4f:	ba 01 00 00 00       	mov    $0x1,%edx
  403f54:	01 f2                	add    %esi,%edx
  403f56:	8d 0d 97 17 a7 98    	lea    0x98a71797,%ecx
  403f5c:	81 e9 21 e3 64 98    	sub    $0x9864e321,%ecx
  403f62:	51                   	push   %ecx
  403f63:	6a 01                	push   $0x1
  403f65:	ff 0c 24             	decl   (%esp)
  403f68:	68 01 00 10 00       	push   $0x100001
  403f6d:	ff 0c 24             	decl   (%esp)
  403f70:	a1 e8 f0 41 00       	mov    0x41f0e8,%eax
  403f75:	ff d0                	call   *%eax
  403f77:	83 f8 00             	cmp    $0x0,%eax
  403f7a:	0f 85 2e 7a 00 00    	jne    0x40b9ae
  403f80:	8d 15 97 17 a7 98    	lea    0x98a71797,%edx
  403f86:	81 ea 21 e3 64 98    	sub    $0x9864e321,%edx
  403f8c:	52                   	push   %edx
  403f8d:	6a 01                	push   $0x1
  403f8f:	ff 0c 24             	decl   (%esp)
  403f92:	68 01 00 10 00       	push   $0x100001
  403f97:	ff 0c 24             	decl   (%esp)
  403f9a:	a1 e8 f0 41 00       	mov    0x41f0e8,%eax
  403f9f:	ff d0                	call   *%eax
  403fa1:	83 f8 00             	cmp    $0x0,%eax
  403fa4:	0f 85 04 7a 00 00    	jne    0x40b9ae
  403faa:	ba 01 00 00 00       	mov    $0x1,%edx
  403faf:	13 15 82 30 42 00    	adc    0x423082,%edx
  403fb5:	8d 15 af 17 a7 98    	lea    0x98a717af,%edx
  403fbb:	81 ea 21 e3 64 98    	sub    $0x9864e321,%edx
  403fc1:	52                   	push   %edx
  403fc2:	8d 1d a4 17 a7 98    	lea    0x98a717a4,%ebx
  403fc8:	81 eb 21 e3 64 98    	sub    $0x9864e321,%ebx
  403fce:	53                   	push   %ebx
  403fcf:	a1 10 f1 41 00       	mov    0x41f110,%eax
  403fd4:	ff d0                	call   *%eax
  403fd6:	83 f6 da             	xor    $0xffffffda,%esi
  403fd9:	b9 01 00 00 00       	mov    $0x1,%ecx
  403fde:	01 f9                	add    %edi,%ecx
  403fe0:	c7 05 0e 30 42 00 25 	movl   $0x25,0x42300e
  403fe7:	00 00 00 
  403fea:	8d 1d af 17 a7 98    	lea    0x98a717af,%ebx
  403ff0:	81 eb 21 e3 64 98    	sub    $0x9864e321,%ebx
  403ff6:	53                   	push   %ebx
  403ff7:	8d 35 a4 17 a7 98    	lea    0x98a717a4,%esi
  403ffd:	81 ee 21 e3 64 98    	sub    $0x9864e321,%esi
  404003:	56                   	push   %esi
  404004:	a1 10 f1 41 00       	mov    0x41f110,%eax
  404009:	ff d0                	call   *%eax
  40400b:	b9 01 00 00 00       	mov    $0x1,%ecx
  404010:	13 0d d7 31 42 00    	adc    0x4231d7,%ecx
  404016:	19 fb                	sbb    %edi,%ebx
  404018:	83 e1 b7             	and    $0xffffffb7,%ecx
  40401b:	31 1d 0e 31 42 00    	xor    %ebx,0x42310e
  404021:	2e e9 b1 74 00 00    	cs jmp 0x40b4d8
  404027:	81 15 bf 31 42 00 ce 	adcl   $0xce,0x4231bf
  40402e:	00 00 00 
  404031:	00 00                	add    %al,(%eax)
  404033:	00 83 0d 5a 30 42    	add    %al,0x42305a0d(%ebx)
  404039:	00 7c 01 c3          	add    %bh,-0x3d(%ecx,%eax,1)
  40403d:	13 3d 89 31 42 00    	adc    0x423189,%edi
  404043:	83 c6 33             	add    $0x33,%esi
  404046:	01 de                	add    %ebx,%esi
  404048:	8d 0d af 17 a7 98    	lea    0x98a717af,%ecx
  40404e:	81 e9 21 e3 64 98    	sub    $0x9864e321,%ecx
  404054:	51                   	push   %ecx
  404055:	8d 3d a4 17 a7 98    	lea    0x98a717a4,%edi
  40405b:	81 ef 21 e3 64 98    	sub    $0x9864e321,%edi
  404061:	57                   	push   %edi
  404062:	a1 10 f1 41 00       	mov    0x41f110,%eax
  404067:	ff d0                	call   *%eax
  404069:	01 fb                	add    %edi,%ebx
  40406b:	01 05 43 30 42 00    	add    %eax,0x423043
  404071:	83 d3 f4             	adc    $0xfffffff4,%ebx
  404074:	11 3d 5c 30 42 00    	adc    %edi,0x42305c
  40407a:	b9 01 00 00 00       	mov    $0x1,%ecx
  40407f:	13 0d 21 30 42 00    	adc    0x423021,%ecx
  404085:	8d 05 af 17 a7 98    	lea    0x98a717af,%eax
  40408b:	2d 21 e3 64 98       	sub    $0x9864e321,%eax
  404090:	50                   	push   %eax
  404091:	8d 05 a4 17 a7 98    	lea    0x98a717a4,%eax
  404097:	2d 21 e3 64 98       	sub    $0x9864e321,%eax
  40409c:	50                   	push   %eax
  40409d:	a1 10 f1 41 00       	mov    0x41f110,%eax
  4040a2:	ff d0                	call   *%eax
  4040a4:	83 c0 c6             	add    $0xffffffc6,%eax
  4040a7:	13 05 e8 30 42 00    	adc    0x4230e8,%eax
  4040ad:	82 2d 3e 30 42 00 df 	subb   $0xdf,0x42303e
  4040b4:	83 eb 66             	sub    $0x66,%ebx
  4040b7:	8d 05 af 17 a7 98    	lea    0x98a717af,%eax
  4040bd:	2d 21 e3 64 98       	sub    $0x9864e321,%eax
  4040c2:	50                   	push   %eax
  4040c3:	8d 05 a4 17 a7 98    	lea    0x98a717a4,%eax
  4040c9:	2d 21 e3 64 98       	sub    $0x9864e321,%eax
  4040ce:	50                   	push   %eax
  4040cf:	a1 10 f1 41 00       	mov    0x41f110,%eax
  4040d4:	ff d0                	call   *%eax
  4040d6:	13 3d b4 31 42 00    	adc    0x4231b4,%edi
  4040dc:	8d 05 af 17 a7 98    	lea    0x98a717af,%eax
  4040e2:	2d 21 e3 64 98       	sub    $0x9864e321,%eax
  4040e7:	50                   	push   %eax
  4040e8:	8d 15 a4 17 a7 98    	lea    0x98a717a4,%edx
  4040ee:	81 ea 21 e3 64 98    	sub    $0x9864e321,%edx
  4040f4:	52                   	push   %edx
  4040f5:	a1 10 f1 41 00       	mov    0x41f110,%eax
  4040fa:	ff d0                	call   *%eax
  4040fc:	b9 01 00 00 00       	mov    $0x1,%ecx
  404101:	13 0d 37 31 42 00    	adc    0x423137,%ecx
  404107:	2a 05 93 31 42 00    	sub    0x423193,%al
  40410d:	13 0d 46 30 42 00    	adc    0x423046,%ecx
  404113:	83 f1 18             	xor    $0x18,%ecx
  404116:	01 35 0d 30 42 00    	add    %esi,0x42300d
  40411c:	8d 05 af 17 a7 98    	lea    0x98a717af,%eax
  404122:	2d 21 e3 64 98       	sub    $0x9864e321,%eax
  404127:	50                   	push   %eax
  404128:	8d 1d a4 17 a7 98    	lea    0x98a717a4,%ebx
  40412e:	81 eb 21 e3 64 98    	sub    $0x9864e321,%ebx
  404134:	53                   	push   %ebx
  404135:	a1 10 f1 41 00       	mov    0x41f110,%eax
  40413a:	ff d0                	call   *%eax
  40413c:	8d 1d 97 17 a7 98    	lea    0x98a71797,%ebx
  404142:	81 eb 21 e3 64 98    	sub    $0x9864e321,%ebx
  404148:	53                   	push   %ebx
  404149:	6a 01                	push   $0x1
  40414b:	ff 0c 24             	decl   (%esp)
  40414e:	68 01 00 10 00       	push   $0x100001
  404153:	ff 0c 24             	decl   (%esp)
  404156:	a1 e8 f0 41 00       	mov    0x41f0e8,%eax
  40415b:	ff d0                	call   *%eax
  40415d:	85 c0                	test   %eax,%eax
  40415f:	0f 85 49 78 00 00    	jne    0x40b9ae
  404165:	ba 01 00 00 00       	mov    $0x1,%edx
  40416a:	13 15 a7 31 42 00    	adc    0x4231a7,%edx
  404170:	12 25 3f 31 42 00    	adc    0x42313f,%ah
  404176:	8d 1d 97 17 a7 98    	lea    0x98a71797,%ebx
  40417c:	81 eb 21 e3 64 98    	sub    $0x9864e321,%ebx
  404182:	53                   	push   %ebx
  404183:	6a 01                	push   $0x1
  404185:	ff 0c 24             	decl   (%esp)
  404188:	68 01 00 10 00       	push   $0x100001
  40418d:	ff 0c 24             	decl   (%esp)
  404190:	a1 e8 f0 41 00       	mov    0x41f0e8,%eax
  404195:	ff d0                	call   *%eax
  404197:	85 c0                	test   %eax,%eax
  404199:	0f 85 0f 78 00 00    	jne    0x40b9ae
  40419f:	01 05 75 30 42 00    	add    %eax,0x423075
  4041a5:	b2 01                	mov    $0x1,%dl
  4041a7:	82 c2 b9             	add    $0xb9,%dl
  4041aa:	8d 05 97 17 a7 98    	lea    0x98a71797,%eax
  4041b0:	2d 21 e3 64 98       	sub    $0x9864e321,%eax
  4041b5:	50                   	push   %eax
  4041b6:	6a 01                	push   $0x1
  4041b8:	ff 0c 24             	decl   (%esp)
  4041bb:	68 01 00 10 00       	push   $0x100001
  4041c0:	ff 0c 24             	decl   (%esp)
  4041c3:	a1 e8 f0 41 00       	mov    0x41f0e8,%eax
  4041c8:	ff d0                	call   *%eax
  4041ca:	85 c0                	test   %eax,%eax
  4041cc:	0f 85 dc 77 00 00    	jne    0x40b9ae
  4041d2:	83 c8 51             	or     $0x51,%eax
  4041d5:	19 05 79 30 42 00    	sbb    %eax,0x423079
  4041db:	b9 01 00 00 00       	mov    $0x1,%ecx
  4041e0:	01 c1                	add    %eax,%ecx
  4041e2:	c7 05 09 30 42 00 32 	movl   $0x32,0x423009
  4041e9:	00 00 00 
  4041ec:	83 0d be 30 42 00 2e 	orl    $0x2e,0x4230be
  4041f3:	8d 35 97 17 a7 98    	lea    0x98a71797,%esi
  4041f9:	81 ee 21 e3 64 98    	sub    $0x9864e321,%esi
  4041ff:	56                   	push   %esi
  404200:	6a 01                	push   $0x1
  404202:	ff 0c 24             	decl   (%esp)
  404205:	68 01 00 10 00       	push   $0x100001
  40420a:	ff 0c 24             	decl   (%esp)
  40420d:	a1 e8 f0 41 00       	mov    0x41f0e8,%eax
  404212:	ff d0                	call   *%eax
  404214:	83 f8 00             	cmp    $0x0,%eax
  404217:	0f 85 91 77 00 00    	jne    0x40b9ae
  40421d:	21 35 7e 30 42 00    	and    %esi,0x42307e
  404223:	8d 15 af 17 a7 98    	lea    0x98a717af,%edx
  404229:	81 ea 21 e3 64 98    	sub    $0x9864e321,%edx
  40422f:	52                   	push   %edx
  404230:	8d 35 a4 17 a7 98    	lea    0x98a717a4,%esi
  404236:	81 ee 21 e3 64 98    	sub    $0x9864e321,%esi
  40423c:	56                   	push   %esi
  40423d:	a1 10 f1 41 00       	mov    0x41f110,%eax
  404242:	ff d0                	call   *%eax
  404244:	19 c0                	sbb    %eax,%eax
  404246:	8d 3d 97 17 a7 98    	lea    0x98a71797,%edi
  40424c:	81 ef 21 e3 64 98    	sub    $0x9864e321,%edi
  404252:	57                   	push   %edi
  404253:	6a 01                	push   $0x1
  404255:	ff 0c 24             	decl   (%esp)
  404258:	68 01 00 10 00       	push   $0x100001
  40425d:	ff 0c 24             	decl   (%esp)
  404260:	a1 e8 f0 41 00       	mov    0x41f0e8,%eax
  404265:	ff d0                	call   *%eax
  404267:	83 f8 00             	cmp    $0x0,%eax
  40426a:	0f 85 3e 77 00 00    	jne    0x40b9ae
  404270:	21 35 c8 30 42 00    	and    %esi,0x4230c8
  404276:	b1 01                	mov    $0x1,%cl
  404278:	00 e1                	add    %ah,%cl
  40427a:	8d 15 97 17 a7 98    	lea    0x98a71797,%edx
  404280:	81 ea 21 e3 64 98    	sub    $0x9864e321,%edx
  404286:	52                   	push   %edx
  404287:	6a 01                	push   $0x1
  404289:	ff 0c 24             	decl   (%esp)
  40428c:	68 01 00 10 00       	push   $0x100001
  404291:	ff 0c 24             	decl   (%esp)
  404294:	a1 e8 f0 41 00       	mov    0x41f0e8,%eax
  404299:	ff d0                	call   *%eax
  40429b:	85 c0                	test   %eax,%eax
  40429d:	0f 85 0b 77 00 00    	jne    0x40b9ae
  4042a3:	81 1d ae 30 42 00 a0 	sbbl   $0xa0,0x4230ae
  4042aa:	00 00 00 
  4042ad:	20 1d 69 30 42 00    	and    %bl,0x423069
  4042b3:	29 35 35 31 42 00    	sub    %esi,0x423135
  4042b9:	82 2d 17 30 42 00 e6 	subb   $0xe6,0x423017
  4042c0:	ba 01 00 00 00       	mov    $0x1,%edx
  4042c5:	83 c2 9e             	add    $0xffffff9e,%edx
  4042c8:	2e e9 0a 72 00 00    	cs jmp 0x40b4d8
  4042ce:	21 1d eb 30 42 00    	and    %ebx,0x4230eb
  4042d4:	11 c7                	adc    %eax,%edi
  4042d6:	b9 01 00 00 00       	mov    $0x1,%ecx
  4042db:	13 0d 93 31 42 00    	adc    0x423193,%ecx
	...
  4042ed:	00 00                	add    %al,(%eax)
  4042ef:	8d 0d 97 17 a7 98    	lea    0x98a71797,%ecx
  4042f5:	81 e9 21 e3 64 98    	sub    $0x9864e321,%ecx
  4042fb:	51                   	push   %ecx
  4042fc:	6a 01                	push   $0x1
  4042fe:	ff 0c 24             	decl   (%esp)
  404301:	68 01 00 10 00       	push   $0x100001
  404306:	ff 0c 24             	decl   (%esp)
  404309:	a1 e8 f0 41 00       	mov    0x41f0e8,%eax
  40430e:	ff d0                	call   *%eax
  404310:	83 f8 00             	cmp    $0x0,%eax
  404313:	0f 85 95 76 00 00    	jne    0x40b9ae
  404319:	09 35 23 30 42 00    	or     %esi,0x423023
  40431f:	0b 1d 3b 30 42 00    	or     0x42303b,%ebx
  404325:	83 d0 05             	adc    $0x5,%eax
  404328:	82 2d 9f 31 42 00 97 	subb   $0x97,0x42319f
  40432f:	8d 0d 97 17 a7 98    	lea    0x98a71797,%ecx
  404335:	81 e9 21 e3 64 98    	sub    $0x9864e321,%ecx
  40433b:	51                   	push   %ecx
  40433c:	6a 01                	push   $0x1
  40433e:	ff 0c 24             	decl   (%esp)
  404341:	68 01 00 10 00       	push   $0x100001
  404346:	ff 0c 24             	decl   (%esp)
  404349:	a1 e8 f0 41 00       	mov    0x41f0e8,%eax
  40434e:	ff d0                	call   *%eax
  404350:	83 f8 00             	cmp    $0x0,%eax
  404353:	0f 85 55 76 00 00    	jne    0x40b9ae
  404359:	b6 01                	mov    $0x1,%dh
  40435b:	00 c6                	add    %al,%dh
  40435d:	82 2d f3 30 42 00 26 	subb   $0x26,0x4230f3
  404364:	83 25 25 30 42 00 26 	andl   $0x26,0x423025
  40436b:	21 35 a7 31 42 00    	and    %esi,0x4231a7
  404371:	31 fb                	xor    %edi,%ebx
  404373:	8d 15 af 17 a7 98    	lea    0x98a717af,%edx
  404379:	81 ea 21 e3 64 98    	sub    $0x9864e321,%edx
  40437f:	52                   	push   %edx
  404380:	8d 3d a4 17 a7 98    	lea    0x98a717a4,%edi
  404386:	81 ef 21 e3 64 98    	sub    $0x9864e321,%edi
  40438c:	57                   	push   %edi
  40438d:	a1 10 f1 41 00       	mov    0x41f110,%eax
  404392:	ff d0                	call   *%eax
  404394:	83 0d ec 31 42 00 65 	orl    $0x65,0x4231ec
  40439b:	b2 01                	mov    $0x1,%dl
  40439d:	00 fa                	add    %bh,%dl
  40439f:	8d 0d 97 17 a7 98    	lea    0x98a71797,%ecx
  4043a5:	81 e9 21 e3 64 98    	sub    $0x9864e321,%ecx
  4043ab:	51                   	push   %ecx
  4043ac:	6a 01                	push   $0x1
  4043ae:	ff 0c 24             	decl   (%esp)
  4043b1:	68 01 00 10 00       	push   $0x100001
  4043b6:	ff 0c 24             	decl   (%esp)
  4043b9:	a1 e8 f0 41 00       	mov    0x41f0e8,%eax
  4043be:	ff d0                	call   *%eax
  4043c0:	85 c0                	test   %eax,%eax
  4043c2:	0f 85 e6 75 00 00    	jne    0x40b9ae
  4043c8:	2b 05 66 31 42 00    	sub    0x423166,%eax
  4043ce:	11 db                	adc    %ebx,%ebx
  4043d0:	83 cb 82             	or     $0xffffff82,%ebx
  4043d3:	01 35 fd 30 42 00    	add    %esi,0x4230fd
  4043d9:	8d 15 af 17 a7 98    	lea    0x98a717af,%edx
  4043df:	81 ea 21 e3 64 98    	sub    $0x9864e321,%edx
  4043e5:	52                   	push   %edx
  4043e6:	8d 05 a4 17 a7 98    	lea    0x98a717a4,%eax
  4043ec:	2d 21 e3 64 98       	sub    $0x9864e321,%eax
  4043f1:	50                   	push   %eax
  4043f2:	a1 10 f1 41 00       	mov    0x41f110,%eax
  4043f7:	ff d0                	call   *%eax
  4043f9:	11 de                	adc    %ebx,%esi
  4043fb:	29 1d 82 31 42 00    	sub    %ebx,0x423182
  404401:	01 1d 1c 31 42 00    	add    %ebx,0x42311c
  404407:	83 f3 ac             	xor    $0xffffffac,%ebx
  40440a:	83 35 d9 30 42 00 5f 	xorl   $0x5f,0x4230d9
  404411:	8d 05 97 17 a7 98    	lea    0x98a71797,%eax
  404417:	2d 21 e3 64 98       	sub    $0x9864e321,%eax
  40441c:	50                   	push   %eax
  40441d:	6a 01                	push   $0x1
  40441f:	ff 0c 24             	decl   (%esp)
  404422:	68 01 00 10 00       	push   $0x100001
  404427:	ff 0c 24             	decl   (%esp)
  40442a:	a1 e8 f0 41 00       	mov    0x41f0e8,%eax
  40442f:	ff d0                	call   *%eax
  404431:	85 c0                	test   %eax,%eax
  404433:	0f 85 75 75 00 00    	jne    0x40b9ae
  404439:	8d 0d 97 17 a7 98    	lea    0x98a71797,%ecx
  40443f:	81 e9 21 e3 64 98    	sub    $0x9864e321,%ecx
  404445:	51                   	push   %ecx
  404446:	6a 01                	push   $0x1
  404448:	ff 0c 24             	decl   (%esp)
  40444b:	68 01 00 10 00       	push   $0x100001
  404450:	ff 0c 24             	decl   (%esp)
  404453:	a1 e8 f0 41 00       	mov    0x41f0e8,%eax
  404458:	ff d0                	call   *%eax
  40445a:	83 f8 00             	cmp    $0x0,%eax
  40445d:	0f 85 4b 75 00 00    	jne    0x40b9ae
  404463:	11 35 d5 30 42 00    	adc    %esi,0x4230d5
  404469:	01 1d 6e 30 42 00    	add    %ebx,0x42306e
  40446f:	82 ec 61             	sub    $0x61,%ah
  404472:	8d 0d af 17 a7 98    	lea    0x98a717af,%ecx
  404478:	81 e9 21 e3 64 98    	sub    $0x9864e321,%ecx
  40447e:	51                   	push   %ecx
  40447f:	8d 05 a4 17 a7 98    	lea    0x98a717a4,%eax
  404485:	2d 21 e3 64 98       	sub    $0x9864e321,%eax
  40448a:	50                   	push   %eax
  40448b:	a1 10 f1 41 00       	mov    0x41f110,%eax
  404490:	ff d0                	call   *%eax
  404492:	0b 35 ec 30 42 00    	or     0x4230ec,%esi
  404498:	ba 01 00 00 00       	mov    $0x1,%edx
  40449d:	83 c2 6b             	add    $0x6b,%edx
  4044a0:	83 ca 13             	or     $0x13,%edx
  4044a3:	01 c7                	add    %eax,%edi
  4044a5:	8d 0d af 17 a7 98    	lea    0x98a717af,%ecx
  4044ab:	81 e9 21 e3 64 98    	sub    $0x9864e321,%ecx
  4044b1:	51                   	push   %ecx
  4044b2:	8d 0d a4 17 a7 98    	lea    0x98a717a4,%ecx
  4044b8:	81 e9 21 e3 64 98    	sub    $0x9864e321,%ecx
  4044be:	51                   	push   %ecx
  4044bf:	a1 10 f1 41 00       	mov    0x41f110,%eax
  4044c4:	ff d0                	call   *%eax
  4044c6:	8d 3d af 17 a7 98    	lea    0x98a717af,%edi
  4044cc:	81 ef 21 e3 64 98    	sub    $0x9864e321,%edi
  4044d2:	57                   	push   %edi
  4044d3:	8d 1d a4 17 a7 98    	lea    0x98a717a4,%ebx
  4044d9:	81 eb 21 e3 64 98    	sub    $0x9864e321,%ebx
  4044df:	53                   	push   %ebx
  4044e0:	a1 10 f1 41 00       	mov    0x41f110,%eax
  4044e5:	ff d0                	call   *%eax
  4044e7:	b2 01                	mov    $0x1,%dl
  4044e9:	82 c2 3f             	add    $0x3f,%dl
  4044ec:	83 0d c8 30 42 00 1b 	orl    $0x1b,0x4230c8
  4044f3:	83 ea 35             	sub    $0x35,%edx
  4044f6:	13 1d 30 30 42 00    	adc    0x423030,%ebx
  4044fc:	2e e9 d6 6f 00 00    	cs jmp 0x40b4d8
  404502:	b9 01 00 00 00       	mov    $0x1,%ecx
  404507:	83 c1 30             	add    $0x30,%ecx
  40450a:	31 d8                	xor    %ebx,%eax
	...
  404518:	00 00                	add    %al,(%eax)
  40451a:	8d 3d af 17 a7 98    	lea    0x98a717af,%edi
  404520:	81 ef 21 e3 64 98    	sub    $0x9864e321,%edi
  404526:	57                   	push   %edi
  404527:	8d 05 a4 17 a7 98    	lea    0x98a717a4,%eax
  40452d:	2d 21 e3 64 98       	sub    $0x9864e321,%eax
  404532:	50                   	push   %eax
  404533:	a1 10 f1 41 00       	mov    0x41f110,%eax
  404538:	ff d0                	call   *%eax
  40453a:	31 c0                	xor    %eax,%eax
  40453c:	83 15 0b 30 42 00 1c 	adcl   $0x1c,0x42300b
  404543:	8d 35 97 17 a7 98    	lea    0x98a71797,%esi
  404549:	81 ee 21 e3 64 98    	sub    $0x9864e321,%esi
  40454f:	56                   	push   %esi
  404550:	6a 01                	push   $0x1
  404552:	ff 0c 24             	decl   (%esp)
  404555:	68 01 00 10 00       	push   $0x100001
  40455a:	ff 0c 24             	decl   (%esp)
  40455d:	a1 e8 f0 41 00       	mov    0x41f0e8,%eax
  404562:	ff d0                	call   *%eax
  404564:	83 f8 00             	cmp    $0x0,%eax
  404567:	0f 85 41 74 00 00    	jne    0x40b9ae
  40456d:	ba 01 00 00 00       	mov    $0x1,%edx
  404572:	13 15 1c 30 42 00    	adc    0x42301c,%edx
  404578:	8d 35 af 17 a7 98    	lea    0x98a717af,%esi
  40457e:	81 ee 21 e3 64 98    	sub    $0x9864e321,%esi
  404584:	56                   	push   %esi
  404585:	8d 3d a4 17 a7 98    	lea    0x98a717a4,%edi
  40458b:	81 ef 21 e3 64 98    	sub    $0x9864e321,%edi
  404591:	57                   	push   %edi
  404592:	a1 10 f1 41 00       	mov    0x41f110,%eax
  404597:	ff d0                	call   *%eax
  404599:	8d 3d 97 17 a7 98    	lea    0x98a71797,%edi
  40459f:	81 ef 21 e3 64 98    	sub    $0x9864e321,%edi
  4045a5:	57                   	push   %edi
  4045a6:	6a 01                	push   $0x1
  4045a8:	ff 0c 24             	decl   (%esp)
  4045ab:	68 01 00 10 00       	push   $0x100001
  4045b0:	ff 0c 24             	decl   (%esp)
  4045b3:	a1 e8 f0 41 00       	mov    0x41f0e8,%eax
  4045b8:	ff d0                	call   *%eax
  4045ba:	85 c0                	test   %eax,%eax
  4045bc:	0f 85 ec 73 00 00    	jne    0x40b9ae
  4045c2:	01 df                	add    %ebx,%edi
  4045c4:	13 35 ec 31 42 00    	adc    0x4231ec,%esi
  4045ca:	18 1d d3 30 42 00    	sbb    %bl,0x4230d3
  4045d0:	ba 01 00 00 00       	mov    $0x1,%edx
  4045d5:	01 c2                	add    %eax,%edx
  4045d7:	8d 3d af 17 a7 98    	lea    0x98a717af,%edi
  4045dd:	81 ef 21 e3 64 98    	sub    $0x9864e321,%edi
  4045e3:	57                   	push   %edi
  4045e4:	8d 3d a4 17 a7 98    	lea    0x98a717a4,%edi
  4045ea:	81 ef 21 e3 64 98    	sub    $0x9864e321,%edi
  4045f0:	57                   	push   %edi
  4045f1:	a1 10 f1 41 00       	mov    0x41f110,%eax
  4045f6:	ff d0                	call   *%eax
  4045f8:	b9 01 00 00 00       	mov    $0x1,%ecx
  4045fd:	01 d9                	add    %ebx,%ecx
  4045ff:	09 0d be 30 42 00    	or     %ecx,0x4230be
  404605:	29 c9                	sub    %ecx,%ecx
  404607:	81 35 a6 30 42 00 ca 	xorl   $0xca,0x4230a6
  40460e:	00 00 00 
  404611:	8d 0d 97 17 a7 98    	lea    0x98a71797,%ecx
  404617:	81 e9 21 e3 64 98    	sub    $0x9864e321,%ecx
  40461d:	51                   	push   %ecx
  40461e:	6a 01                	push   $0x1
  404620:	ff 0c 24             	decl   (%esp)
  404623:	68 01 00 10 00       	push   $0x100001
  404628:	ff 0c 24             	decl   (%esp)
  40462b:	a1 e8 f0 41 00       	mov    0x41f0e8,%eax
  404630:	ff d0                	call   *%eax
  404632:	85 c0                	test   %eax,%eax
  404634:	0f 85 74 73 00 00    	jne    0x40b9ae
  40463a:	8d 0d af 17 a7 98    	lea    0x98a717af,%ecx
  404640:	81 e9 21 e3 64 98    	sub    $0x9864e321,%ecx
  404646:	51                   	push   %ecx
  404647:	8d 1d a4 17 a7 98    	lea    0x98a717a4,%ebx
  40464d:	81 eb 21 e3 64 98    	sub    $0x9864e321,%ebx
  404653:	53                   	push   %ebx
  404654:	a1 10 f1 41 00       	mov    0x41f110,%eax
  404659:	ff d0                	call   *%eax
  40465b:	21 35 e4 31 42 00    	and    %esi,0x4231e4
  404661:	31 de                	xor    %ebx,%esi
  404663:	29 f8                	sub    %edi,%eax
  404665:	12 25 b4 30 42 00    	adc    0x4230b4,%ah
  40466b:	19 db                	sbb    %ebx,%ebx
  40466d:	8d 15 af 17 a7 98    	lea    0x98a717af,%edx
  404673:	81 ea 21 e3 64 98    	sub    $0x9864e321,%edx
  404679:	52                   	push   %edx
  40467a:	8d 3d a4 17 a7 98    	lea    0x98a717a4,%edi
  404680:	81 ef 21 e3 64 98    	sub    $0x9864e321,%edi
  404686:	57                   	push   %edi
  404687:	a1 10 f1 41 00       	mov    0x41f110,%eax
  40468c:	ff d0                	call   *%eax
  40468e:	01 f7                	add    %esi,%edi
  404690:	8d 3d 97 17 a7 98    	lea    0x98a71797,%edi
  404696:	81 ef 21 e3 64 98    	sub    $0x9864e321,%edi
  40469c:	57                   	push   %edi
  40469d:	6a 01                	push   $0x1
  40469f:	ff 0c 24             	decl   (%esp)
  4046a2:	68 01 00 10 00       	push   $0x100001
  4046a7:	ff 0c 24             	decl   (%esp)
  4046aa:	a1 e8 f0 41 00       	mov    0x41f0e8,%eax
  4046af:	ff d0                	call   *%eax
  4046b1:	83 f8 00             	cmp    $0x0,%eax
  4046b4:	0f 85 f4 72 00 00    	jne    0x40b9ae
  4046ba:	2b 05 f9 31 42 00    	sub    0x4231f9,%eax
  4046c0:	ba 01 00 00 00       	mov    $0x1,%edx
  4046c5:	13 15 48 31 42 00    	adc    0x423148,%edx
  4046cb:	82 ec 98             	sub    $0x98,%ah
  4046ce:	8d 3d af 17 a7 98    	lea    0x98a717af,%edi
  4046d4:	81 ef 21 e3 64 98    	sub    $0x9864e321,%edi
  4046da:	57                   	push   %edi
  4046db:	8d 3d a4 17 a7 98    	lea    0x98a717a4,%edi
  4046e1:	81 ef 21 e3 64 98    	sub    $0x9864e321,%edi
  4046e7:	57                   	push   %edi
  4046e8:	a1 10 f1 41 00       	mov    0x41f110,%eax
  4046ed:	ff d0                	call   *%eax
  4046ef:	11 05 b4 30 42 00    	adc    %eax,0x4230b4
  4046f5:	81 0d 46 31 42 00 de 	orl    $0xde,0x423146
  4046fc:	00 00 00 
  4046ff:	2e e9 d3 6d 00 00    	cs jmp 0x40b4d8
  404705:	01 35 8b 31 42 00    	add    %esi,0x42318b
  40470b:	01 3d 66 30 42 00    	add    %edi,0x423066
  404711:	ba 01 00 00 00       	mov    $0x1,%edx
  404716:	83 c2 3d             	add    $0x3d,%edx
  404719:	2b 05 2c 31 42 00    	sub    0x42312c,%eax
  40471f:	00 00                	add    %al,(%eax)
  404721:	00 00                	add    %al,(%eax)
  404723:	00 00                	add    %al,(%eax)
  404725:	29 1d a6 30 42 00    	sub    %ebx,0x4230a6
  40472b:	09 1d e0 31 42 00    	or     %ebx,0x4231e0
  404731:	b9 01 00 00 00       	mov    $0x1,%ecx
  404736:	83 c1 49             	add    $0x49,%ecx
  404739:	c7 05 d4 30 42 00 55 	movl   $0x55,0x4230d4
  404740:	00 00 00 
  404743:	82 d5 b6             	adc    $0xb6,%ch
  404746:	8d 0d af 17 a7 98    	lea    0x98a717af,%ecx
  40474c:	81 e9 21 e3 64 98    	sub    $0x9864e321,%ecx
  404752:	51                   	push   %ecx
  404753:	8d 3d a4 17 a7 98    	lea    0x98a717a4,%edi
  404759:	81 ef 21 e3 64 98    	sub    $0x9864e321,%edi
  40475f:	57                   	push   %edi
  404760:	a1 10 f1 41 00       	mov    0x41f110,%eax
  404765:	ff d0                	call   *%eax
  404767:	8d 35 97 17 a7 98    	lea    0x98a71797,%esi
  40476d:	81 ee 21 e3 64 98    	sub    $0x9864e321,%esi
  404773:	56                   	push   %esi
  404774:	6a 01                	push   $0x1
  404776:	ff 0c 24             	decl   (%esp)
  404779:	68 01 00 10 00       	push   $0x100001
  40477e:	ff 0c 24             	decl   (%esp)
  404781:	a1 e8 f0 41 00       	mov    0x41f0e8,%eax
  404786:	ff d0                	call   *%eax
  404788:	85 c0                	test   %eax,%eax
  40478a:	0f 85 1e 72 00 00    	jne    0x40b9ae
  404790:	01 de                	add    %ebx,%esi
  404792:	8d 3d 97 17 a7 98    	lea    0x98a71797,%edi
  404798:	81 ef 21 e3 64 98    	sub    $0x9864e321,%edi
  40479e:	57                   	push   %edi
  40479f:	6a 01                	push   $0x1
  4047a1:	ff 0c 24             	decl   (%esp)
  4047a4:	68 01 00 10 00       	push   $0x100001
  4047a9:	ff 0c 24             	decl   (%esp)
  4047ac:	a1 e8 f0 41 00       	mov    0x41f0e8,%eax
  4047b1:	ff d0                	call   *%eax
  4047b3:	83 f8 00             	cmp    $0x0,%eax
  4047b6:	0f 85 f2 71 00 00    	jne    0x40b9ae
  4047bc:	c7 05 1e 30 42 00 8f 	movl   $0x8f,0x42301e
  4047c3:	00 00 00 
  4047c6:	c7 05 e3 31 42 00 22 	movl   $0x22,0x4231e3
  4047cd:	00 00 00 
  4047d0:	8d 0d 97 17 a7 98    	lea    0x98a71797,%ecx
  4047d6:	81 e9 21 e3 64 98    	sub    $0x9864e321,%ecx
  4047dc:	51                   	push   %ecx
  4047dd:	6a 01                	push   $0x1
  4047df:	ff 0c 24             	decl   (%esp)
  4047e2:	68 01 00 10 00       	push   $0x100001
  4047e7:	ff 0c 24             	decl   (%esp)
  4047ea:	a1 e8 f0 41 00       	mov    0x41f0e8,%eax
  4047ef:	ff d0                	call   *%eax
  4047f1:	85 c0                	test   %eax,%eax
  4047f3:	0f 85 b5 71 00 00    	jne    0x40b9ae
  4047f9:	0b 1d 28 31 42 00    	or     0x423128,%ebx
  4047ff:	ba 01 00 00 00       	mov    $0x1,%edx
  404804:	01 c2                	add    %eax,%edx
  404806:	b1 01                	mov    $0x1,%cl
  404808:	82 c1 0f             	add    $0xf,%cl
  40480b:	8d 05 97 17 a7 98    	lea    0x98a71797,%eax
  404811:	2d 21 e3 64 98       	sub    $0x9864e321,%eax
  404816:	50                   	push   %eax
  404817:	6a 01                	push   $0x1
  404819:	ff 0c 24             	decl   (%esp)
  40481c:	68 01 00 10 00       	push   $0x100001
  404821:	ff 0c 24             	decl   (%esp)
  404824:	a1 e8 f0 41 00       	mov    0x41f0e8,%eax
  404829:	ff d0                	call   *%eax
  40482b:	83 f8 00             	cmp    $0x0,%eax
  40482e:	0f 85 7a 71 00 00    	jne    0x40b9ae
  404834:	83 15 94 30 42 00 37 	adcl   $0x37,0x423094
  40483b:	8d 1d 97 17 a7 98    	lea    0x98a71797,%ebx
  404841:	81 eb 21 e3 64 98    	sub    $0x9864e321,%ebx
  404847:	53                   	push   %ebx
  404848:	6a 01                	push   $0x1
  40484a:	ff 0c 24             	decl   (%esp)
  40484d:	68 01 00 10 00       	push   $0x100001
  404852:	ff 0c 24             	decl   (%esp)
  404855:	a1 e8 f0 41 00       	mov    0x41f0e8,%eax
  40485a:	ff d0                	call   *%eax
  40485c:	85 c0                	test   %eax,%eax
  40485e:	0f 85 4a 71 00 00    	jne    0x40b9ae
  404864:	8d 0d 97 17 a7 98    	lea    0x98a71797,%ecx
  40486a:	81 e9 21 e3 64 98    	sub    $0x9864e321,%ecx
  404870:	51                   	push   %ecx
  404871:	6a 01                	push   $0x1
  404873:	ff 0c 24             	decl   (%esp)
  404876:	68 01 00 10 00       	push   $0x100001
  40487b:	ff 0c 24             	decl   (%esp)
  40487e:	a1 e8 f0 41 00       	mov    0x41f0e8,%eax
  404883:	ff d0                	call   *%eax
  404885:	83 f8 00             	cmp    $0x0,%eax
  404888:	0f 85 20 71 00 00    	jne    0x40b9ae
  40488e:	00 3d b6 31 42 00    	add    %bh,0x4231b6
  404894:	83 35 31 31 42 00 6f 	xorl   $0x6f,0x423131
  40489b:	01 3d 71 30 42 00    	add    %edi,0x423071
  4048a1:	ba 01 00 00 00       	mov    $0x1,%edx
  4048a6:	83 c2 5f             	add    $0x5f,%edx
  4048a9:	29 3d ae 31 42 00    	sub    %edi,0x4231ae
  4048af:	8d 35 af 17 a7 98    	lea    0x98a717af,%esi
  4048b5:	81 ee 21 e3 64 98    	sub    $0x9864e321,%esi
  4048bb:	56                   	push   %esi
  4048bc:	8d 15 a4 17 a7 98    	lea    0x98a717a4,%edx
  4048c2:	81 ea 21 e3 64 98    	sub    $0x9864e321,%edx
  4048c8:	52                   	push   %edx
  4048c9:	a1 10 f1 41 00       	mov    0x41f110,%eax
  4048ce:	ff d0                	call   *%eax
  4048d0:	8d 3d af 17 a7 98    	lea    0x98a717af,%edi
  4048d6:	81 ef 21 e3 64 98    	sub    $0x9864e321,%edi
  4048dc:	57                   	push   %edi
  4048dd:	8d 1d a4 17 a7 98    	lea    0x98a717a4,%ebx
  4048e3:	81 eb 21 e3 64 98    	sub    $0x9864e321,%ebx
  4048e9:	53                   	push   %ebx
  4048ea:	a1 10 f1 41 00       	mov    0x41f110,%eax
  4048ef:	ff d0                	call   *%eax
  4048f1:	31 1d 6e 30 42 00    	xor    %ebx,0x42306e
  4048f7:	28 db                	sub    %bl,%bl
  4048f9:	11 fb                	adc    %edi,%ebx
  4048fb:	31 1d ca 30 42 00    	xor    %ebx,0x4230ca
  404901:	b9 01 00 00 00       	mov    $0x1,%ecx
  404906:	83 c1 be             	add    $0xffffffbe,%ecx
  404909:	8d 15 97 17 a7 98    	lea    0x98a71797,%edx
  40490f:	81 ea 21 e3 64 98    	sub    $0x9864e321,%edx
  404915:	52                   	push   %edx
  404916:	6a 01                	push   $0x1
  404918:	ff 0c 24             	decl   (%esp)
  40491b:	68 01 00 10 00       	push   $0x100001
  404920:	ff 0c 24             	decl   (%esp)
  404923:	a1 e8 f0 41 00       	mov    0x41f0e8,%eax
  404928:	ff d0                	call   *%eax
  40492a:	83 f8 00             	cmp    $0x0,%eax
  40492d:	0f 85 7b 70 00 00    	jne    0x40b9ae
  404933:	83 f6 94             	xor    $0xffffff94,%esi
  404936:	ba 01 00 00 00       	mov    $0x1,%edx
  40493b:	01 f2                	add    %esi,%edx
  40493d:	31 1d 25 30 42 00    	xor    %ebx,0x423025
  404943:	8d 0d 97 17 a7 98    	lea    0x98a71797,%ecx
  404949:	81 e9 21 e3 64 98    	sub    $0x9864e321,%ecx
  40494f:	51                   	push   %ecx
  404950:	6a 01                	push   $0x1
  404952:	ff 0c 24             	decl   (%esp)
  404955:	68 01 00 10 00       	push   $0x100001
  40495a:	ff 0c 24             	decl   (%esp)
  40495d:	a1 e8 f0 41 00       	mov    0x41f0e8,%eax
  404962:	ff d0                	call   *%eax
  404964:	85 c0                	test   %eax,%eax
  404966:	0f 85 42 70 00 00    	jne    0x40b9ae
  40496c:	8d 15 97 17 a7 98    	lea    0x98a71797,%edx
  404972:	81 ea 21 e3 64 98    	sub    $0x9864e321,%edx
  404978:	52                   	push   %edx
  404979:	6a 01                	push   $0x1
  40497b:	ff 0c 24             	decl   (%esp)
  40497e:	68 01 00 10 00       	push   $0x100001
  404983:	ff 0c 24             	decl   (%esp)
  404986:	a1 e8 f0 41 00       	mov    0x41f0e8,%eax
  40498b:	ff d0                	call   *%eax
  40498d:	85 c0                	test   %eax,%eax
  40498f:	0f 85 19 70 00 00    	jne    0x40b9ae
  404995:	30 05 6a 30 42 00    	xor    %al,0x42306a
  40499b:	2e e9 37 6b 00 00    	cs jmp 0x40b4d8
  4049a1:	b9 01 00 00 00       	mov    $0x1,%ecx
  4049a6:	83 c1 ea             	add    $0xffffffea,%ecx
  4049a9:	81 35 d3 30 42 00 d5 	xorl   $0xd5,0x4230d3
  4049b0:	00 00 00 
	...
  4049bf:	00 00                	add    %al,(%eax)
  4049c1:	00 83 c6 fe 29 3d    	add    %al,0x3d29fec6(%ebx)
  4049c7:	86 31                	xchg   %dh,(%ecx)
  4049c9:	42                   	inc    %edx
  4049ca:	00 8d 3d 97 17 a7    	add    %cl,-0x58e868c3(%ebp)
  4049d0:	98                   	cwtl
  4049d1:	81 ef 21 e3 64 98    	sub    $0x9864e321,%edi
  4049d7:	57                   	push   %edi
  4049d8:	6a 01                	push   $0x1
  4049da:	ff 0c 24             	decl   (%esp)
  4049dd:	68 01 00 10 00       	push   $0x100001
  4049e2:	ff 0c 24             	decl   (%esp)
  4049e5:	a1 e8 f0 41 00       	mov    0x41f0e8,%eax
  4049ea:	ff d0                	call   *%eax
  4049ec:	85 c0                	test   %eax,%eax
  4049ee:	0f 85 ba 6f 00 00    	jne    0x40b9ae
  4049f4:	13 35 fb 30 42 00    	adc    0x4230fb,%esi
  4049fa:	8d 3d 97 17 a7 98    	lea    0x98a71797,%edi
  404a00:	81 ef 21 e3 64 98    	sub    $0x9864e321,%edi
  404a06:	57                   	push   %edi
  404a07:	6a 01                	push   $0x1
  404a09:	ff 0c 24             	decl   (%esp)
  404a0c:	68 01 00 10 00       	push   $0x100001
  404a11:	ff 0c 24             	decl   (%esp)
  404a14:	a1 e8 f0 41 00       	mov    0x41f0e8,%eax
  404a19:	ff d0                	call   *%eax
  404a1b:	85 c0                	test   %eax,%eax
  404a1d:	0f 85 8b 6f 00 00    	jne    0x40b9ae
  404a23:	82 2d 68 30 42 00 63 	subb   $0x63,0x423068
  404a2a:	8d 1d 97 17 a7 98    	lea    0x98a71797,%ebx
  404a30:	81 eb 21 e3 64 98    	sub    $0x9864e321,%ebx
  404a36:	53                   	push   %ebx
  404a37:	6a 01                	push   $0x1
  404a39:	ff 0c 24             	decl   (%esp)
  404a3c:	68 01 00 10 00       	push   $0x100001
  404a41:	ff 0c 24             	decl   (%esp)
  404a44:	a1 e8 f0 41 00       	mov    0x41f0e8,%eax
  404a49:	ff d0                	call   *%eax
  404a4b:	83 f8 00             	cmp    $0x0,%eax
  404a4e:	0f 85 5a 6f 00 00    	jne    0x40b9ae
  404a54:	8d 35 97 17 a7 98    	lea    0x98a71797,%esi
  404a5a:	81 ee 21 e3 64 98    	sub    $0x9864e321,%esi
  404a60:	56                   	push   %esi
  404a61:	6a 01                	push   $0x1
  404a63:	ff 0c 24             	decl   (%esp)
  404a66:	68 01 00 10 00       	push   $0x100001
  404a6b:	ff 0c 24             	decl   (%esp)
  404a6e:	a1 e8 f0 41 00       	mov    0x41f0e8,%eax
  404a73:	ff d0                	call   *%eax
  404a75:	85 c0                	test   %eax,%eax
  404a77:	0f 85 31 6f 00 00    	jne    0x40b9ae
  404a7d:	01 05 0a 30 42 00    	add    %eax,0x42300a
  404a83:	83 db 29             	sbb    $0x29,%ebx
  404a86:	b9 01 00 00 00       	mov    $0x1,%ecx
  404a8b:	13 0d 49 30 42 00    	adc    0x423049,%ecx
  404a91:	19 ce                	sbb    %ecx,%esi
  404a93:	8d 1d af 17 a7 98    	lea    0x98a717af,%ebx
  404a99:	81 eb 21 e3 64 98    	sub    $0x9864e321,%ebx
  404a9f:	53                   	push   %ebx
  404aa0:	8d 05 a4 17 a7 98    	lea    0x98a717a4,%eax
  404aa6:	2d 21 e3 64 98       	sub    $0x9864e321,%eax
  404aab:	50                   	push   %eax
  404aac:	a1 10 f1 41 00       	mov    0x41f110,%eax
  404ab1:	ff d0                	call   *%eax
  404ab3:	8d 1d 97 17 a7 98    	lea    0x98a71797,%ebx
  404ab9:	81 eb 21 e3 64 98    	sub    $0x9864e321,%ebx
  404abf:	53                   	push   %ebx
  404ac0:	6a 01                	push   $0x1
  404ac2:	ff 0c 24             	decl   (%esp)
  404ac5:	68 01 00 10 00       	push   $0x100001
  404aca:	ff 0c 24             	decl   (%esp)
  404acd:	a1 e8 f0 41 00       	mov    0x41f0e8,%eax
  404ad2:	ff d0                	call   *%eax
  404ad4:	83 f8 00             	cmp    $0x0,%eax
  404ad7:	0f 85 d1 6e 00 00    	jne    0x40b9ae
  404add:	8d 35 97 17 a7 98    	lea    0x98a71797,%esi
  404ae3:	81 ee 21 e3 64 98    	sub    $0x9864e321,%esi
  404ae9:	56                   	push   %esi
  404aea:	6a 01                	push   $0x1
  404aec:	ff 0c 24             	decl   (%esp)
  404aef:	68 01 00 10 00       	push   $0x100001
  404af4:	ff 0c 24             	decl   (%esp)
  404af7:	a1 e8 f0 41 00       	mov    0x41f0e8,%eax
  404afc:	ff d0                	call   *%eax
  404afe:	83 f8 00             	cmp    $0x0,%eax
  404b01:	0f 85 a7 6e 00 00    	jne    0x40b9ae
  404b07:	8d 15 af 17 a7 98    	lea    0x98a717af,%edx
  404b0d:	81 ea 21 e3 64 98    	sub    $0x9864e321,%edx
  404b13:	52                   	push   %edx
  404b14:	8d 05 a4 17 a7 98    	lea    0x98a717a4,%eax
  404b1a:	2d 21 e3 64 98       	sub    $0x9864e321,%eax
  404b1f:	50                   	push   %eax
  404b20:	a1 10 f1 41 00       	mov    0x41f110,%eax
  404b25:	ff d0                	call   *%eax
  404b27:	21 35 73 30 42 00    	and    %esi,0x423073
  404b2d:	01 c0                	add    %eax,%eax
  404b2f:	8d 3d 97 17 a7 98    	lea    0x98a71797,%edi
  404b35:	81 ef 21 e3 64 98    	sub    $0x9864e321,%edi
  404b3b:	57                   	push   %edi
  404b3c:	6a 01                	push   $0x1
  404b3e:	ff 0c 24             	decl   (%esp)
  404b41:	68 01 00 10 00       	push   $0x100001
  404b46:	ff 0c 24             	decl   (%esp)
  404b49:	a1 e8 f0 41 00       	mov    0x41f0e8,%eax
  404b4e:	ff d0                	call   *%eax
  404b50:	83 f8 00             	cmp    $0x0,%eax
  404b53:	0f 85 55 6e 00 00    	jne    0x40b9ae
  404b59:	8d 1d 97 17 a7 98    	lea    0x98a71797,%ebx
  404b5f:	81 eb 21 e3 64 98    	sub    $0x9864e321,%ebx
  404b65:	53                   	push   %ebx
  404b66:	6a 01                	push   $0x1
  404b68:	ff 0c 24             	decl   (%esp)
  404b6b:	68 01 00 10 00       	push   $0x100001
  404b70:	ff 0c 24             	decl   (%esp)
  404b73:	a1 e8 f0 41 00       	mov    0x41f0e8,%eax
  404b78:	ff d0                	call   *%eax
  404b7a:	85 c0                	test   %eax,%eax
  404b7c:	0f 85 2c 6e 00 00    	jne    0x40b9ae
  404b82:	11 1d 81 30 42 00    	adc    %ebx,0x423081
  404b88:	31 df                	xor    %ebx,%edi
  404b8a:	2e e9 48 69 00 00    	cs jmp 0x40b4d8
  404b90:	83 f6 f0             	xor    $0xfffffff0,%esi
  404b93:	31 35 f0 30 42 00    	xor    %esi,0x4230f0
	...
  404ba1:	13 1d c9 31 42 00    	adc    0x4231c9,%ebx
  404ba7:	13 05 5e 31 42 00    	adc    0x42315e,%eax
  404bad:	ba 01 00 00 00       	mov    $0x1,%edx
  404bb2:	83 c2 af             	add    $0xffffffaf,%edx
  404bb5:	c7 05 f7 31 42 00 ba 	movl   $0xba,0x4231f7
  404bbc:	00 00 00 
  404bbf:	8d 0d af 17 a7 98    	lea    0x98a717af,%ecx
  404bc5:	81 e9 21 e3 64 98    	sub    $0x9864e321,%ecx
  404bcb:	51                   	push   %ecx
  404bcc:	8d 15 a4 17 a7 98    	lea    0x98a717a4,%edx
  404bd2:	81 ea 21 e3 64 98    	sub    $0x9864e321,%edx
  404bd8:	52                   	push   %edx
  404bd9:	a1 10 f1 41 00       	mov    0x41f110,%eax
  404bde:	ff d0                	call   *%eax
  404be0:	81 1d 0f 30 42 00 b4 	sbbl   $0xb4,0x42300f
  404be7:	00 00 00 
  404bea:	13 35 2b 31 42 00    	adc    0x42312b,%esi
  404bf0:	13 1d 53 31 42 00    	adc    0x423153,%ebx
  404bf6:	13 1d 25 30 42 00    	adc    0x423025,%ebx
  404bfc:	8d 0d af 17 a7 98    	lea    0x98a717af,%ecx
  404c02:	81 e9 21 e3 64 98    	sub    $0x9864e321,%ecx
  404c08:	51                   	push   %ecx
  404c09:	8d 35 a4 17 a7 98    	lea    0x98a717a4,%esi
  404c0f:	81 ee 21 e3 64 98    	sub    $0x9864e321,%esi
  404c15:	56                   	push   %esi
  404c16:	a1 10 f1 41 00       	mov    0x41f110,%eax
  404c1b:	ff d0                	call   *%eax
  404c1d:	b9 01 00 00 00       	mov    $0x1,%ecx
  404c22:	01 c1                	add    %eax,%ecx
  404c24:	01 f8                	add    %edi,%eax
  404c26:	31 cb                	xor    %ecx,%ebx
  404c28:	13 3d 69 31 42 00    	adc    0x423169,%edi
  404c2e:	ba 01 00 00 00       	mov    $0x1,%edx
  404c33:	13 15 06 30 42 00    	adc    0x423006,%edx
  404c39:	8d 3d af 17 a7 98    	lea    0x98a717af,%edi
  404c3f:	81 ef 21 e3 64 98    	sub    $0x9864e321,%edi
  404c45:	57                   	push   %edi
  404c46:	8d 35 a4 17 a7 98    	lea    0x98a717a4,%esi
  404c4c:	81 ee 21 e3 64 98    	sub    $0x9864e321,%esi
  404c52:	56                   	push   %esi
  404c53:	a1 10 f1 41 00       	mov    0x41f110,%eax
  404c58:	ff d0                	call   *%eax
  404c5a:	34 e7                	xor    $0xe7,%al
  404c5c:	13 1d 14 31 42 00    	adc    0x423114,%ebx
  404c62:	83 0d 3c 30 42 00 2f 	orl    $0x2f,0x42303c
  404c69:	8d 05 97 17 a7 98    	lea    0x98a71797,%eax
  404c6f:	2d 21 e3 64 98       	sub    $0x9864e321,%eax
  404c74:	50                   	push   %eax
  404c75:	6a 01                	push   $0x1
  404c77:	ff 0c 24             	decl   (%esp)
  404c7a:	68 01 00 10 00       	push   $0x100001
  404c7f:	ff 0c 24             	decl   (%esp)
  404c82:	a1 e8 f0 41 00       	mov    0x41f0e8,%eax
  404c87:	ff d0                	call   *%eax
  404c89:	83 f8 00             	cmp    $0x0,%eax
  404c8c:	0f 85 1c 6d 00 00    	jne    0x40b9ae
  404c92:	b9 01 00 00 00       	mov    $0x1,%ecx
  404c97:	83 c1 18             	add    $0x18,%ecx
  404c9a:	31 ff                	xor    %edi,%edi
  404c9c:	ba 01 00 00 00       	mov    $0x1,%edx
  404ca1:	01 f2                	add    %esi,%edx
  404ca3:	83 e3 bd             	and    $0xffffffbd,%ebx
  404ca6:	8d 05 97 17 a7 98    	lea    0x98a71797,%eax
  404cac:	2d 21 e3 64 98       	sub    $0x9864e321,%eax
  404cb1:	50                   	push   %eax
  404cb2:	6a 01                	push   $0x1
  404cb4:	ff 0c 24             	decl   (%esp)
  404cb7:	68 01 00 10 00       	push   $0x100001
  404cbc:	ff 0c 24             	decl   (%esp)
  404cbf:	a1 e8 f0 41 00       	mov    0x41f0e8,%eax
  404cc4:	ff d0                	call   *%eax
  404cc6:	85 c0                	test   %eax,%eax
  404cc8:	0f 85 e0 6c 00 00    	jne    0x40b9ae
  404cce:	83 cb 14             	or     $0x14,%ebx
  404cd1:	82 2d a0 31 42 00 79 	subb   $0x79,0x4231a0
  404cd8:	29 df                	sub    %ebx,%edi
  404cda:	8d 35 97 17 a7 98    	lea    0x98a71797,%esi
  404ce0:	81 ee 21 e3 64 98    	sub    $0x9864e321,%esi
  404ce6:	56                   	push   %esi
  404ce7:	6a 01                	push   $0x1
  404ce9:	ff 0c 24             	decl   (%esp)
  404cec:	68 01 00 10 00       	push   $0x100001
  404cf1:	ff 0c 24             	decl   (%esp)
  404cf4:	a1 e8 f0 41 00       	mov    0x41f0e8,%eax
  404cf9:	ff d0                	call   *%eax
  404cfb:	85 c0                	test   %eax,%eax
  404cfd:	0f 85 ab 6c 00 00    	jne    0x40b9ae
  404d03:	81 0d 0c 30 42 00 cd 	orl    $0xcd,0x42300c
  404d0a:	00 00 00 
  404d0d:	b9 01 00 00 00       	mov    $0x1,%ecx
  404d12:	13 0d 34 31 42 00    	adc    0x423134,%ecx
  404d18:	21 3d 02 31 42 00    	and    %edi,0x423102
  404d1e:	8d 05 af 17 a7 98    	lea    0x98a717af,%eax
  404d24:	2d 21 e3 64 98       	sub    $0x9864e321,%eax
  404d29:	50                   	push   %eax
  404d2a:	8d 15 a4 17 a7 98    	lea    0x98a717a4,%edx
  404d30:	81 ea 21 e3 64 98    	sub    $0x9864e321,%edx
  404d36:	52                   	push   %edx
  404d37:	a1 10 f1 41 00       	mov    0x41f110,%eax
  404d3c:	ff d0                	call   *%eax
  404d3e:	83 1d 71 31 42 00 55 	sbbl   $0x55,0x423171
  404d45:	13 3d d7 31 42 00    	adc    0x4231d7,%edi
  404d4b:	83 15 8f 31 42 00 1e 	adcl   $0x1e,0x42318f
  404d52:	8d 15 af 17 a7 98    	lea    0x98a717af,%edx
  404d58:	81 ea 21 e3 64 98    	sub    $0x9864e321,%edx
  404d5e:	52                   	push   %edx
  404d5f:	8d 35 a4 17 a7 98    	lea    0x98a717a4,%esi
  404d65:	81 ee 21 e3 64 98    	sub    $0x9864e321,%esi
  404d6b:	56                   	push   %esi
  404d6c:	a1 10 f1 41 00       	mov    0x41f110,%eax
  404d71:	ff d0                	call   *%eax
  404d73:	83 c3 80             	add    $0xffffff80,%ebx
  404d76:	29 05 77 30 42 00    	sub    %eax,0x423077
  404d7c:	8d 35 af 17 a7 98    	lea    0x98a717af,%esi
  404d82:	81 ee 21 e3 64 98    	sub    $0x9864e321,%esi
  404d88:	56                   	push   %esi
  404d89:	8d 0d a4 17 a7 98    	lea    0x98a717a4,%ecx
  404d8f:	81 e9 21 e3 64 98    	sub    $0x9864e321,%ecx
  404d95:	51                   	push   %ecx
  404d96:	a1 10 f1 41 00       	mov    0x41f110,%eax
  404d9b:	ff d0                	call   *%eax
  404d9d:	81 35 57 31 42 00 dd 	xorl   $0xdd,0x423157
  404da4:	00 00 00 
  404da7:	31 ff                	xor    %edi,%edi
  404da9:	83 ee e2             	sub    $0xffffffe2,%esi
  404dac:	b9 01 00 00 00       	mov    $0x1,%ecx
  404db1:	83 c1 cf             	add    $0xffffffcf,%ecx
  404db4:	ba 01 00 00 00       	mov    $0x1,%edx
  404db9:	01 ca                	add    %ecx,%edx
  404dbb:	8d 3d 97 17 a7 98    	lea    0x98a71797,%edi
  404dc1:	81 ef 21 e3 64 98    	sub    $0x9864e321,%edi
  404dc7:	57                   	push   %edi
  404dc8:	6a 01                	push   $0x1
  404dca:	ff 0c 24             	decl   (%esp)
  404dcd:	68 01 00 10 00       	push   $0x100001
  404dd2:	ff 0c 24             	decl   (%esp)
  404dd5:	a1 e8 f0 41 00       	mov    0x41f0e8,%eax
  404dda:	ff d0                	call   *%eax
  404ddc:	85 c0                	test   %eax,%eax
  404dde:	0f 85 ca 6b 00 00    	jne    0x40b9ae
  404de4:	20 05 bb 30 42 00    	and    %al,0x4230bb
  404dea:	83 0d c8 30 42 00 1a 	orl    $0x1a,0x4230c8
  404df1:	0b 35 ad 30 42 00    	or     0x4230ad,%esi
  404df7:	8d 05 af 17 a7 98    	lea    0x98a717af,%eax
  404dfd:	2d 21 e3 64 98       	sub    $0x9864e321,%eax
  404e02:	50                   	push   %eax
  404e03:	8d 15 a4 17 a7 98    	lea    0x98a717a4,%edx
  404e09:	81 ea 21 e3 64 98    	sub    $0x9864e321,%edx
  404e0f:	52                   	push   %edx
  404e10:	a1 10 f1 41 00       	mov    0x41f110,%eax
  404e15:	ff d0                	call   *%eax
  404e17:	81 1d 0f 31 42 00 bf 	sbbl   $0xbf,0x42310f
  404e1e:	00 00 00 
  404e21:	01 35 44 31 42 00    	add    %esi,0x423144
  404e27:	8d 0d af 17 a7 98    	lea    0x98a717af,%ecx
  404e2d:	81 e9 21 e3 64 98    	sub    $0x9864e321,%ecx
  404e33:	51                   	push   %ecx
  404e34:	8d 05 a4 17 a7 98    	lea    0x98a717a4,%eax
  404e3a:	2d 21 e3 64 98       	sub    $0x9864e321,%eax
  404e3f:	50                   	push   %eax
  404e40:	a1 10 f1 41 00       	mov    0x41f110,%eax
  404e45:	ff d0                	call   *%eax
  404e47:	01 df                	add    %ebx,%edi
  404e49:	81 25 97 31 42 00 f9 	andl   $0xf9,0x423197
  404e50:	00 00 00 
  404e53:	ba 01 00 00 00       	mov    $0x1,%edx
  404e58:	01 fa                	add    %edi,%edx
  404e5a:	b9 01 00 00 00       	mov    $0x1,%ecx
  404e5f:	13 0d 47 30 42 00    	adc    0x423047,%ecx
  404e65:	2e e9 6d 66 00 00    	cs jmp 0x40b4d8
  404e6b:	12 05 70 30 42 00    	adc    0x423070,%al
  404e71:	29 c0                	sub    %eax,%eax
  404e73:	13 35 9a 30 42 00    	adc    0x42309a,%esi
  404e79:	13 1d 99 31 42 00    	adc    0x423199,%ebx
  404e7f:	01 15 7b 30 42 00    	add    %edx,0x42307b
  404e85:	00 00                	add    %al,(%eax)
  404e87:	00 00                	add    %al,(%eax)
  404e89:	00 2b                	add    %ch,(%ebx)
  404e8b:	1d 74 31 42 00       	sbb    $0x423174,%eax
  404e90:	29 35 41 31 42 00    	sub    %esi,0x423141
  404e96:	83 d0 1a             	adc    $0x1a,%eax
  404e99:	0a 25 cb 30 42 00    	or     0x4230cb,%ah
  404e9f:	13 05 3d 30 42 00    	adc    0x42303d,%eax
  404ea5:	8d 35 af 17 a7 98    	lea    0x98a717af,%esi
  404eab:	81 ee 21 e3 64 98    	sub    $0x9864e321,%esi
  404eb1:	56                   	push   %esi
  404eb2:	8d 0d a4 17 a7 98    	lea    0x98a717a4,%ecx
  404eb8:	81 e9 21 e3 64 98    	sub    $0x9864e321,%ecx
  404ebe:	51                   	push   %ecx
  404ebf:	a1 10 f1 41 00       	mov    0x41f110,%eax
  404ec4:	ff d0                	call   *%eax
  404ec6:	83 c3 f7             	add    $0xfffffff7,%ebx
  404ec9:	83 15 81 30 42 00 5a 	adcl   $0x5a,0x423081
  404ed0:	83 eb c7             	sub    $0xffffffc7,%ebx
  404ed3:	8d 15 af 17 a7 98    	lea    0x98a717af,%edx
  404ed9:	81 ea 21 e3 64 98    	sub    $0x9864e321,%edx
  404edf:	52                   	push   %edx
  404ee0:	8d 15 a4 17 a7 98    	lea    0x98a717a4,%edx
  404ee6:	81 ea 21 e3 64 98    	sub    $0x9864e321,%edx
  404eec:	52                   	push   %edx
  404eed:	a1 10 f1 41 00       	mov    0x41f110,%eax
  404ef2:	ff d0                	call   *%eax
  404ef4:	29 1d ac 31 42 00    	sub    %ebx,0x4231ac
  404efa:	8d 35 af 17 a7 98    	lea    0x98a717af,%esi
  404f00:	81 ee 21 e3 64 98    	sub    $0x9864e321,%esi
  404f06:	56                   	push   %esi
  404f07:	8d 1d a4 17 a7 98    	lea    0x98a717a4,%ebx
  404f0d:	81 eb 21 e3 64 98    	sub    $0x9864e321,%ebx
  404f13:	53                   	push   %ebx
  404f14:	a1 10 f1 41 00       	mov    0x41f110,%eax
  404f19:	ff d0                	call   *%eax
  404f1b:	09 05 99 31 42 00    	or     %eax,0x423199
  404f21:	81 25 a6 31 42 00 e4 	andl   $0xe4,0x4231a6
  404f28:	00 00 00 
  404f2b:	2b 3d 25 31 42 00    	sub    0x423125,%edi
  404f31:	13 05 ad 30 42 00    	adc    0x4230ad,%eax
  404f37:	ba 01 00 00 00       	mov    $0x1,%edx
  404f3c:	13 15 20 31 42 00    	adc    0x423120,%edx
  404f42:	8d 05 97 17 a7 98    	lea    0x98a71797,%eax
  404f48:	2d 21 e3 64 98       	sub    $0x9864e321,%eax
  404f4d:	50                   	push   %eax
  404f4e:	6a 01                	push   $0x1
  404f50:	ff 0c 24             	decl   (%esp)
  404f53:	68 01 00 10 00       	push   $0x100001
  404f58:	ff 0c 24             	decl   (%esp)
  404f5b:	a1 e8 f0 41 00       	mov    0x41f0e8,%eax
  404f60:	ff d0                	call   *%eax
  404f62:	85 c0                	test   %eax,%eax
  404f64:	0f 85 44 6a 00 00    	jne    0x40b9ae
  404f6a:	01 05 3c 30 42 00    	add    %eax,0x42303c
  404f70:	13 35 eb 30 42 00    	adc    0x4230eb,%esi
  404f76:	b9 01 00 00 00       	mov    $0x1,%ecx
  404f7b:	83 c1 c2             	add    $0xffffffc2,%ecx
  404f7e:	81 15 28 30 42 00 bf 	adcl   $0xbf,0x423028
  404f85:	00 00 00 
  404f88:	8d 05 af 17 a7 98    	lea    0x98a717af,%eax
  404f8e:	2d 21 e3 64 98       	sub    $0x9864e321,%eax
  404f93:	50                   	push   %eax
  404f94:	8d 1d a4 17 a7 98    	lea    0x98a717a4,%ebx
  404f9a:	81 eb 21 e3 64 98    	sub    $0x9864e321,%ebx
  404fa0:	53                   	push   %ebx
  404fa1:	a1 10 f1 41 00       	mov    0x41f110,%eax
  404fa6:	ff d0                	call   *%eax
  404fa8:	8d 3d af 17 a7 98    	lea    0x98a717af,%edi
  404fae:	81 ef 21 e3 64 98    	sub    $0x9864e321,%edi
  404fb4:	57                   	push   %edi
  404fb5:	8d 35 a4 17 a7 98    	lea    0x98a717a4,%esi
  404fbb:	81 ee 21 e3 64 98    	sub    $0x9864e321,%esi
  404fc1:	56                   	push   %esi
  404fc2:	a1 10 f1 41 00       	mov    0x41f110,%eax
  404fc7:	ff d0                	call   *%eax
  404fc9:	83 c7 15             	add    $0x15,%edi
  404fcc:	19 c0                	sbb    %eax,%eax
  404fce:	81 15 2c 31 42 00 b1 	adcl   $0xb1,0x42312c
  404fd5:	00 00 00 
  404fd8:	8d 35 97 17 a7 98    	lea    0x98a71797,%esi
  404fde:	81 ee 21 e3 64 98    	sub    $0x9864e321,%esi
  404fe4:	56                   	push   %esi
  404fe5:	6a 01                	push   $0x1
  404fe7:	ff 0c 24             	decl   (%esp)
  404fea:	68 01 00 10 00       	push   $0x100001
  404fef:	ff 0c 24             	decl   (%esp)
  404ff2:	a1 e8 f0 41 00       	mov    0x41f0e8,%eax
  404ff7:	ff d0                	call   *%eax
  404ff9:	85 c0                	test   %eax,%eax
  404ffb:	0f 85 ad 69 00 00    	jne    0x40b9ae
  405001:	01 db                	add    %ebx,%ebx
  405003:	2b 3d a2 31 42 00    	sub    0x4231a2,%edi
  405009:	8d 15 af 17 a7 98    	lea    0x98a717af,%edx
  40500f:	81 ea 21 e3 64 98    	sub    $0x9864e321,%edx
  405015:	52                   	push   %edx
  405016:	8d 0d a4 17 a7 98    	lea    0x98a717a4,%ecx
  40501c:	81 e9 21 e3 64 98    	sub    $0x9864e321,%ecx
  405022:	51                   	push   %ecx
  405023:	a1 10 f1 41 00       	mov    0x41f110,%eax
  405028:	ff d0                	call   *%eax
  40502a:	11 f8                	adc    %edi,%eax
  40502c:	29 df                	sub    %ebx,%edi
  40502e:	8d 3d 97 17 a7 98    	lea    0x98a71797,%edi
  405034:	81 ef 21 e3 64 98    	sub    $0x9864e321,%edi
  40503a:	57                   	push   %edi
  40503b:	6a 01                	push   $0x1
  40503d:	ff 0c 24             	decl   (%esp)
  405040:	68 01 00 10 00       	push   $0x100001
  405045:	ff 0c 24             	decl   (%esp)
  405048:	a1 e8 f0 41 00       	mov    0x41f0e8,%eax
  40504d:	ff d0                	call   *%eax
  40504f:	85 c0                	test   %eax,%eax
  405051:	0f 85 57 69 00 00    	jne    0x40b9ae
  405057:	8d 15 af 17 a7 98    	lea    0x98a717af,%edx
  40505d:	81 ea 21 e3 64 98    	sub    $0x9864e321,%edx
  405063:	52                   	push   %edx
  405064:	8d 35 a4 17 a7 98    	lea    0x98a717a4,%esi
  40506a:	81 ee 21 e3 64 98    	sub    $0x9864e321,%esi
  405070:	56                   	push   %esi
  405071:	a1 10 f1 41 00       	mov    0x41f110,%eax
  405076:	ff d0                	call   *%eax
  405078:	11 db                	adc    %ebx,%ebx
  40507a:	83 d8 23             	sbb    $0x23,%eax
  40507d:	83 de b8             	sbb    $0xffffffb8,%esi
  405080:	01 f0                	add    %esi,%eax
  405082:	81 0d ac 31 42 00 87 	orl    $0x87,0x4231ac
  405089:	00 00 00 
  40508c:	8d 15 af 17 a7 98    	lea    0x98a717af,%edx
  405092:	81 ea 21 e3 64 98    	sub    $0x9864e321,%edx
  405098:	52                   	push   %edx
  405099:	8d 15 a4 17 a7 98    	lea    0x98a717a4,%edx
  40509f:	81 ea 21 e3 64 98    	sub    $0x9864e321,%edx
  4050a5:	52                   	push   %edx
  4050a6:	a1 10 f1 41 00       	mov    0x41f110,%eax
  4050ab:	ff d0                	call   *%eax
  4050ad:	83 0d 5e 31 42 00 4d 	orl    $0x4d,0x42315e
  4050b4:	13 35 88 31 42 00    	adc    0x423188,%esi
  4050ba:	2e e9 18 64 00 00    	cs jmp 0x40b4d8
  4050c0:	b9 01 00 00 00       	mov    $0x1,%ecx
  4050c5:	01 d9                	add    %ebx,%ecx
  4050c7:	09 0d 7c 31 42 00    	or     %ecx,0x42317c
  4050cd:	ba 01 00 00 00       	mov    $0x1,%edx
  4050d2:	83 c2 ba             	add    $0xffffffba,%edx
	...
  4050e1:	11 f8                	adc    %edi,%eax
  4050e3:	81 25 2a 30 42 00 c0 	andl   $0xc0,0x42302a
  4050ea:	00 00 00 
  4050ed:	00 05 8a 31 42 00    	add    %al,0x42318a
  4050f3:	8d 3d 97 17 a7 98    	lea    0x98a71797,%edi
  4050f9:	81 ef 21 e3 64 98    	sub    $0x9864e321,%edi
  4050ff:	57                   	push   %edi
  405100:	6a 01                	push   $0x1
  405102:	ff 0c 24             	decl   (%esp)
  405105:	68 01 00 10 00       	push   $0x100001
  40510a:	ff 0c 24             	decl   (%esp)
  40510d:	a1 e8 f0 41 00       	mov    0x41f0e8,%eax
  405112:	ff d0                	call   *%eax
  405114:	83 f8 00             	cmp    $0x0,%eax
  405117:	0f 85 91 68 00 00    	jne    0x40b9ae
  40511d:	12 05 ed 30 42 00    	adc    0x4230ed,%al
  405123:	11 de                	adc    %ebx,%esi
  405125:	11 3d 6f 30 42 00    	adc    %edi,0x42306f
  40512b:	12 1d 2e 31 42 00    	adc    0x42312e,%bl
  405131:	8d 35 af 17 a7 98    	lea    0x98a717af,%esi
  405137:	81 ee 21 e3 64 98    	sub    $0x9864e321,%esi
  40513d:	56                   	push   %esi
  40513e:	8d 3d a4 17 a7 98    	lea    0x98a717a4,%edi
  405144:	81 ef 21 e3 64 98    	sub    $0x9864e321,%edi
  40514a:	57                   	push   %edi
  40514b:	a1 10 f1 41 00       	mov    0x41f110,%eax
  405150:	ff d0                	call   *%eax
  405152:	8d 15 af 17 a7 98    	lea    0x98a717af,%edx
  405158:	81 ea 21 e3 64 98    	sub    $0x9864e321,%edx
  40515e:	52                   	push   %edx
  40515f:	8d 3d a4 17 a7 98    	lea    0x98a717a4,%edi
  405165:	81 ef 21 e3 64 98    	sub    $0x9864e321,%edi
  40516b:	57                   	push   %edi
  40516c:	a1 10 f1 41 00       	mov    0x41f110,%eax
  405171:	ff d0                	call   *%eax
  405173:	81 15 73 31 42 00 de 	adcl   $0xde,0x423173
  40517a:	00 00 00 
  40517d:	b9 01 00 00 00       	mov    $0x1,%ecx
  405182:	13 0d 3a 30 42 00    	adc    0x42303a,%ecx
  405188:	83 15 95 31 42 00 37 	adcl   $0x37,0x423195
  40518f:	19 c1                	sbb    %eax,%ecx
  405191:	83 d6 7d             	adc    $0x7d,%esi
  405194:	8d 35 af 17 a7 98    	lea    0x98a717af,%esi
  40519a:	81 ee 21 e3 64 98    	sub    $0x9864e321,%esi
  4051a0:	56                   	push   %esi
  4051a1:	8d 35 a4 17 a7 98    	lea    0x98a717a4,%esi
  4051a7:	81 ee 21 e3 64 98    	sub    $0x9864e321,%esi
  4051ad:	56                   	push   %esi
  4051ae:	a1 10 f1 41 00       	mov    0x41f110,%eax
  4051b3:	ff d0                	call   *%eax
  4051b5:	19 f6                	sbb    %esi,%esi
  4051b7:	8d 0d 97 17 a7 98    	lea    0x98a71797,%ecx
  4051bd:	81 e9 21 e3 64 98    	sub    $0x9864e321,%ecx
  4051c3:	51                   	push   %ecx
  4051c4:	6a 01                	push   $0x1
  4051c6:	ff 0c 24             	decl   (%esp)
  4051c9:	68 01 00 10 00       	push   $0x100001
  4051ce:	ff 0c 24             	decl   (%esp)
  4051d1:	a1 e8 f0 41 00       	mov    0x41f0e8,%eax
  4051d6:	ff d0                	call   *%eax
  4051d8:	83 f8 00             	cmp    $0x0,%eax
  4051db:	0f 85 cd 67 00 00    	jne    0x40b9ae
  4051e1:	09 35 e5 31 42 00    	or     %esi,0x4231e5
  4051e7:	8d 3d af 17 a7 98    	lea    0x98a717af,%edi
  4051ed:	81 ef 21 e3 64 98    	sub    $0x9864e321,%edi
  4051f3:	57                   	push   %edi
  4051f4:	8d 05 a4 17 a7 98    	lea    0x98a717a4,%eax
  4051fa:	2d 21 e3 64 98       	sub    $0x9864e321,%eax
  4051ff:	50                   	push   %eax
  405200:	a1 10 f1 41 00       	mov    0x41f110,%eax
  405205:	ff d0                	call   *%eax
  405207:	00 3d 3b 30 42 00    	add    %bh,0x42303b
  40520d:	13 35 47 31 42 00    	adc    0x423147,%esi
  405213:	83 ce df             	or     $0xffffffdf,%esi
  405216:	8d 05 af 17 a7 98    	lea    0x98a717af,%eax
  40521c:	2d 21 e3 64 98       	sub    $0x9864e321,%eax
  405221:	50                   	push   %eax
  405222:	8d 1d a4 17 a7 98    	lea    0x98a717a4,%ebx
  405228:	81 eb 21 e3 64 98    	sub    $0x9864e321,%ebx
  40522e:	53                   	push   %ebx
  40522f:	a1 10 f1 41 00       	mov    0x41f110,%eax
  405234:	ff d0                	call   *%eax
  405236:	30 c3                	xor    %al,%bl
  405238:	8d 05 af 17 a7 98    	lea    0x98a717af,%eax
  40523e:	2d 21 e3 64 98       	sub    $0x9864e321,%eax
  405243:	50                   	push   %eax
  405244:	8d 35 a4 17 a7 98    	lea    0x98a717a4,%esi
  40524a:	81 ee 21 e3 64 98    	sub    $0x9864e321,%esi
  405250:	56                   	push   %esi
  405251:	a1 10 f1 41 00       	mov    0x41f110,%eax
  405256:	ff d0                	call   *%eax
  405258:	01 35 8c 30 42 00    	add    %esi,0x42308c
  40525e:	83 25 83 30 42 00 5a 	andl   $0x5a,0x423083
  405265:	8d 35 97 17 a7 98    	lea    0x98a71797,%esi
  40526b:	81 ee 21 e3 64 98    	sub    $0x9864e321,%esi
  405271:	56                   	push   %esi
  405272:	6a 01                	push   $0x1
  405274:	ff 0c 24             	decl   (%esp)
  405277:	68 01 00 10 00       	push   $0x100001
  40527c:	ff 0c 24             	decl   (%esp)
  40527f:	a1 e8 f0 41 00       	mov    0x41f0e8,%eax
  405284:	ff d0                	call   *%eax
  405286:	85 c0                	test   %eax,%eax
  405288:	0f 85 20 67 00 00    	jne    0x40b9ae
  40528e:	12 3d 9e 31 42 00    	adc    0x42319e,%bh
  405294:	ba 01 00 00 00       	mov    $0x1,%edx
  405299:	01 f2                	add    %esi,%edx
  40529b:	8d 1d 97 17 a7 98    	lea    0x98a71797,%ebx
  4052a1:	81 eb 21 e3 64 98    	sub    $0x9864e321,%ebx
  4052a7:	53                   	push   %ebx
  4052a8:	6a 01                	push   $0x1
  4052aa:	ff 0c 24             	decl   (%esp)
  4052ad:	68 01 00 10 00       	push   $0x100001
  4052b2:	ff 0c 24             	decl   (%esp)
  4052b5:	a1 e8 f0 41 00       	mov    0x41f0e8,%eax
  4052ba:	ff d0                	call   *%eax
  4052bc:	85 c0                	test   %eax,%eax
  4052be:	0f 85 ea 66 00 00    	jne    0x40b9ae
  4052c4:	29 35 06 30 42 00    	sub    %esi,0x423006
  4052ca:	83 35 55 30 42 00 66 	xorl   $0x66,0x423055
  4052d1:	8d 15 97 17 a7 98    	lea    0x98a71797,%edx
  4052d7:	81 ea 21 e3 64 98    	sub    $0x9864e321,%edx
  4052dd:	52                   	push   %edx
  4052de:	6a 01                	push   $0x1
  4052e0:	ff 0c 24             	decl   (%esp)
  4052e3:	68 01 00 10 00       	push   $0x100001
  4052e8:	ff 0c 24             	decl   (%esp)
  4052eb:	a1 e8 f0 41 00       	mov    0x41f0e8,%eax
  4052f0:	ff d0                	call   *%eax
  4052f2:	85 c0                	test   %eax,%eax
  4052f4:	0f 85 b4 66 00 00    	jne    0x40b9ae
  4052fa:	2e e9 d8 61 00 00    	cs jmp 0x40b4d8
  405300:	82 2d 79 30 42 00 01 	subb   $0x1,0x423079
  405307:	83 cf 06             	or     $0x6,%edi
  40530a:	b1 01                	mov    $0x1,%cl
  40530c:	00 c1                	add    %al,%cl
  40530e:	13 0d 99 30 42 00    	adc    0x423099,%ecx
  405314:	0b 35 84 31 42 00    	or     0x423184,%esi
	...
  405322:	00 00                	add    %al,(%eax)
  405324:	83 d7 45             	adc    $0x45,%edi
  405327:	83 15 b4 31 42 00 42 	adcl   $0x42,0x4231b4
  40532e:	83 ee 33             	sub    $0x33,%esi
  405331:	01 35 23 31 42 00    	add    %esi,0x423123
  405337:	0b 35 e1 31 42 00    	or     0x4231e1,%esi
  40533d:	8d 05 97 17 a7 98    	lea    0x98a71797,%eax
  405343:	2d 21 e3 64 98       	sub    $0x9864e321,%eax
  405348:	50                   	push   %eax
  405349:	6a 01                	push   $0x1
  40534b:	ff 0c 24             	decl   (%esp)
  40534e:	68 01 00 10 00       	push   $0x100001
  405353:	ff 0c 24             	decl   (%esp)
  405356:	a1 e8 f0 41 00       	mov    0x41f0e8,%eax
  40535b:	ff d0                	call   *%eax
  40535d:	83 f8 00             	cmp    $0x0,%eax
  405360:	0f 85 48 66 00 00    	jne    0x40b9ae
  405366:	ba 01 00 00 00       	mov    $0x1,%edx
  40536b:	83 c2 f7             	add    $0xfffffff7,%edx
  40536e:	8d 15 97 17 a7 98    	lea    0x98a71797,%edx
  405374:	81 ea 21 e3 64 98    	sub    $0x9864e321,%edx
  40537a:	52                   	push   %edx
  40537b:	6a 01                	push   $0x1
  40537d:	ff 0c 24             	decl   (%esp)
  405380:	68 01 00 10 00       	push   $0x100001
  405385:	ff 0c 24             	decl   (%esp)
  405388:	a1 e8 f0 41 00       	mov    0x41f0e8,%eax
  40538d:	ff d0                	call   *%eax
  40538f:	83 f8 00             	cmp    $0x0,%eax
  405392:	0f 85 16 66 00 00    	jne    0x40b9ae
  405398:	ba 01 00 00 00       	mov    $0x1,%edx
  40539d:	01 f2                	add    %esi,%edx
  40539f:	b9 01 00 00 00       	mov    $0x1,%ecx
  4053a4:	01 d1                	add    %edx,%ecx
  4053a6:	83 f6 34             	xor    $0x34,%esi
  4053a9:	8d 35 97 17 a7 98    	lea    0x98a71797,%esi
  4053af:	81 ee 21 e3 64 98    	sub    $0x9864e321,%esi
  4053b5:	56                   	push   %esi
  4053b6:	6a 01                	push   $0x1
  4053b8:	ff 0c 24             	decl   (%esp)
  4053bb:	68 01 00 10 00       	push   $0x100001
  4053c0:	ff 0c 24             	decl   (%esp)
  4053c3:	a1 e8 f0 41 00       	mov    0x41f0e8,%eax
  4053c8:	ff d0                	call   *%eax
  4053ca:	83 f8 00             	cmp    $0x0,%eax
  4053cd:	0f 85 db 65 00 00    	jne    0x40b9ae
  4053d3:	83 c7 a1             	add    $0xffffffa1,%edi
  4053d6:	ba 01 00 00 00       	mov    $0x1,%edx
  4053db:	83 c2 5a             	add    $0x5a,%edx
  4053de:	8d 3d 97 17 a7 98    	lea    0x98a71797,%edi
  4053e4:	81 ef 21 e3 64 98    	sub    $0x9864e321,%edi
  4053ea:	57                   	push   %edi
  4053eb:	6a 01                	push   $0x1
  4053ed:	ff 0c 24             	decl   (%esp)
  4053f0:	68 01 00 10 00       	push   $0x100001
  4053f5:	ff 0c 24             	decl   (%esp)
  4053f8:	a1 e8 f0 41 00       	mov    0x41f0e8,%eax
  4053fd:	ff d0                	call   *%eax
  4053ff:	85 c0                	test   %eax,%eax
  405401:	0f 85 a7 65 00 00    	jne    0x40b9ae
  405407:	13 1d 21 31 42 00    	adc    0x423121,%ebx
  40540d:	8d 35 97 17 a7 98    	lea    0x98a71797,%esi
  405413:	81 ee 21 e3 64 98    	sub    $0x9864e321,%esi
  405419:	56                   	push   %esi
  40541a:	6a 01                	push   $0x1
  40541c:	ff 0c 24             	decl   (%esp)
  40541f:	68 01 00 10 00       	push   $0x100001
  405424:	ff 0c 24             	decl   (%esp)
  405427:	a1 e8 f0 41 00       	mov    0x41f0e8,%eax
  40542c:	ff d0                	call   *%eax
  40542e:	85 c0                	test   %eax,%eax
  405430:	0f 85 78 65 00 00    	jne    0x40b9ae
  405436:	b1 01                	mov    $0x1,%cl
  405438:	00 e1                	add    %ah,%cl
  40543a:	83 15 fe 31 42 00 53 	adcl   $0x53,0x4231fe
  405441:	8d 1d 97 17 a7 98    	lea    0x98a71797,%ebx
  405447:	81 eb 21 e3 64 98    	sub    $0x9864e321,%ebx
  40544d:	53                   	push   %ebx
  40544e:	6a 01                	push   $0x1
  405450:	ff 0c 24             	decl   (%esp)
  405453:	68 01 00 10 00       	push   $0x100001
  405458:	ff 0c 24             	decl   (%esp)
  40545b:	a1 e8 f0 41 00       	mov    0x41f0e8,%eax
  405460:	ff d0                	call   *%eax
  405462:	83 f8 00             	cmp    $0x0,%eax
  405465:	0f 85 43 65 00 00    	jne    0x40b9ae
  40546b:	83 c8 ba             	or     $0xffffffba,%eax
  40546e:	12 25 c5 30 42 00    	adc    0x4230c5,%ah
  405474:	01 df                	add    %ebx,%edi
  405476:	81 25 cd 31 42 00 c9 	andl   $0xc9,0x4231cd
  40547d:	00 00 00 
  405480:	ba 01 00 00 00       	mov    $0x1,%edx
  405485:	83 c2 b1             	add    $0xffffffb1,%edx
  405488:	8d 3d af 17 a7 98    	lea    0x98a717af,%edi
  40548e:	81 ef 21 e3 64 98    	sub    $0x9864e321,%edi
  405494:	57                   	push   %edi
  405495:	8d 35 a4 17 a7 98    	lea    0x98a717a4,%esi
  40549b:	81 ee 21 e3 64 98    	sub    $0x9864e321,%esi
  4054a1:	56                   	push   %esi
  4054a2:	a1 10 f1 41 00       	mov    0x41f110,%eax
  4054a7:	ff d0                	call   *%eax
  4054a9:	13 05 65 30 42 00    	adc    0x423065,%eax
  4054af:	c7 05 64 30 42 00 6e 	movl   $0x6e,0x423064
  4054b6:	00 00 00 
  4054b9:	b9 01 00 00 00       	mov    $0x1,%ecx
  4054be:	01 f1                	add    %esi,%ecx
  4054c0:	8d 3d af 17 a7 98    	lea    0x98a717af,%edi
  4054c6:	81 ef 21 e3 64 98    	sub    $0x9864e321,%edi
  4054cc:	57                   	push   %edi
  4054cd:	8d 15 a4 17 a7 98    	lea    0x98a717a4,%edx
  4054d3:	81 ea 21 e3 64 98    	sub    $0x9864e321,%edx
  4054d9:	52                   	push   %edx
  4054da:	a1 10 f1 41 00       	mov    0x41f110,%eax
  4054df:	ff d0                	call   *%eax
  4054e1:	8d 0d 97 17 a7 98    	lea    0x98a71797,%ecx
  4054e7:	81 e9 21 e3 64 98    	sub    $0x9864e321,%ecx
  4054ed:	51                   	push   %ecx
  4054ee:	6a 01                	push   $0x1
  4054f0:	ff 0c 24             	decl   (%esp)
  4054f3:	68 01 00 10 00       	push   $0x100001
  4054f8:	ff 0c 24             	decl   (%esp)
  4054fb:	a1 e8 f0 41 00       	mov    0x41f0e8,%eax
  405500:	ff d0                	call   *%eax
  405502:	83 f8 00             	cmp    $0x0,%eax
  405505:	0f 85 a3 64 00 00    	jne    0x40b9ae
  40550b:	83 cb 6a             	or     $0x6a,%ebx
  40550e:	ba 01 00 00 00       	mov    $0x1,%edx
  405513:	13 15 4c 30 42 00    	adc    0x42304c,%edx
  405519:	83 35 10 30 42 00 4c 	xorl   $0x4c,0x423010
  405520:	11 05 b9 30 42 00    	adc    %eax,0x4230b9
  405526:	83 15 49 30 42 00 71 	adcl   $0x71,0x423049
  40552d:	8d 1d af 17 a7 98    	lea    0x98a717af,%ebx
  405533:	81 eb 21 e3 64 98    	sub    $0x9864e321,%ebx
  405539:	53                   	push   %ebx
  40553a:	8d 1d a4 17 a7 98    	lea    0x98a717a4,%ebx
  405540:	81 eb 21 e3 64 98    	sub    $0x9864e321,%ebx
  405546:	53                   	push   %ebx
  405547:	a1 10 f1 41 00       	mov    0x41f110,%eax
  40554c:	ff d0                	call   *%eax
  40554e:	83 0d 83 30 42 00 30 	orl    $0x30,0x423083
  405555:	21 3d 96 30 42 00    	and    %edi,0x423096
  40555b:	b1 01                	mov    $0x1,%cl
  40555d:	82 c1 82             	add    $0x82,%cl
  405560:	2b 05 d7 30 42 00    	sub    0x4230d7,%eax
  405566:	8d 1d 97 17 a7 98    	lea    0x98a71797,%ebx
  40556c:	81 eb 21 e3 64 98    	sub    $0x9864e321,%ebx
  405572:	53                   	push   %ebx
  405573:	6a 01                	push   $0x1
  405575:	ff 0c 24             	decl   (%esp)
  405578:	68 01 00 10 00       	push   $0x100001
  40557d:	ff 0c 24             	decl   (%esp)
  405580:	a1 e8 f0 41 00       	mov    0x41f0e8,%eax
  405585:	ff d0                	call   *%eax
  405587:	83 f8 00             	cmp    $0x0,%eax
  40558a:	0f 85 1e 64 00 00    	jne    0x40b9ae
  405590:	b9 01 00 00 00       	mov    $0x1,%ecx
  405595:	01 f9                	add    %edi,%ecx
  405597:	ba 01 00 00 00       	mov    $0x1,%edx
  40559c:	01 fa                	add    %edi,%edx
  40559e:	2e e9 34 5f 00 00    	cs jmp 0x40b4d8
  4055a4:	0b 1d 79 30 42 00    	or     0x423079,%ebx
  4055aa:	82 d6 a4             	adc    $0xa4,%dh
	...
  4055b5:	00 00                	add    %al,(%eax)
  4055b7:	31 3d ba 31 42 00    	xor    %edi,0x4231ba
  4055bd:	83 35 e6 31 42 00 02 	xorl   $0x2,0x4231e6
  4055c4:	83 e6 88             	and    $0xffffff88,%esi
  4055c7:	b9 01 00 00 00       	mov    $0x1,%ecx
  4055cc:	01 c1                	add    %eax,%ecx
  4055ce:	8d 05 97 17 a7 98    	lea    0x98a71797,%eax
  4055d4:	2d 21 e3 64 98       	sub    $0x9864e321,%eax
  4055d9:	50                   	push   %eax
  4055da:	6a 01                	push   $0x1
  4055dc:	ff 0c 24             	decl   (%esp)
  4055df:	68 01 00 10 00       	push   $0x100001
  4055e4:	ff 0c 24             	decl   (%esp)
  4055e7:	a1 e8 f0 41 00       	mov    0x41f0e8,%eax
  4055ec:	ff d0                	call   *%eax
  4055ee:	85 c0                	test   %eax,%eax
  4055f0:	0f 85 b8 63 00 00    	jne    0x40b9ae
  4055f6:	31 c7                	xor    %eax,%edi
  4055f8:	13 1d 88 31 42 00    	adc    0x423188,%ebx
  4055fe:	b9 01 00 00 00       	mov    $0x1,%ecx
  405603:	83 c1 bc             	add    $0xffffffbc,%ecx
  405606:	8d 05 97 17 a7 98    	lea    0x98a71797,%eax
  40560c:	2d 21 e3 64 98       	sub    $0x9864e321,%eax
  405611:	50                   	push   %eax
  405612:	6a 01                	push   $0x1
  405614:	ff 0c 24             	decl   (%esp)
  405617:	68 01 00 10 00       	push   $0x100001
  40561c:	ff 0c 24             	decl   (%esp)
  40561f:	a1 e8 f0 41 00       	mov    0x41f0e8,%eax
  405624:	ff d0                	call   *%eax
  405626:	85 c0                	test   %eax,%eax
  405628:	0f 85 80 63 00 00    	jne    0x40b9ae
  40562e:	ba 01 00 00 00       	mov    $0x1,%edx
  405633:	01 c2                	add    %eax,%edx
  405635:	83 35 37 31 42 00 2f 	xorl   $0x2f,0x423137
  40563c:	21 05 2b 31 42 00    	and    %eax,0x42312b
  405642:	19 15 78 30 42 00    	sbb    %edx,0x423078
  405648:	8d 35 97 17 a7 98    	lea    0x98a71797,%esi
  40564e:	81 ee 21 e3 64 98    	sub    $0x9864e321,%esi
  405654:	56                   	push   %esi
  405655:	6a 01                	push   $0x1
  405657:	ff 0c 24             	decl   (%esp)
  40565a:	68 01 00 10 00       	push   $0x100001
  40565f:	ff 0c 24             	decl   (%esp)
  405662:	a1 e8 f0 41 00       	mov    0x41f0e8,%eax
  405667:	ff d0                	call   *%eax
  405669:	83 f8 00             	cmp    $0x0,%eax
  40566c:	0f 85 3c 63 00 00    	jne    0x40b9ae
  405672:	82 2d 62 30 42 00 dc 	subb   $0xdc,0x423062
  405679:	12 05 21 31 42 00    	adc    0x423121,%al
  40567f:	8d 0d af 17 a7 98    	lea    0x98a717af,%ecx
  405685:	81 e9 21 e3 64 98    	sub    $0x9864e321,%ecx
  40568b:	51                   	push   %ecx
  40568c:	8d 3d a4 17 a7 98    	lea    0x98a717a4,%edi
  405692:	81 ef 21 e3 64 98    	sub    $0x9864e321,%edi
  405698:	57                   	push   %edi
  405699:	a1 10 f1 41 00       	mov    0x41f110,%eax
  40569e:	ff d0                	call   *%eax
  4056a0:	13 35 ee 30 42 00    	adc    0x4230ee,%esi
  4056a6:	ba 01 00 00 00       	mov    $0x1,%edx
  4056ab:	13 15 fd 30 42 00    	adc    0x4230fd,%edx
  4056b1:	8d 1d af 17 a7 98    	lea    0x98a717af,%ebx
  4056b7:	81 eb 21 e3 64 98    	sub    $0x9864e321,%ebx
  4056bd:	53                   	push   %ebx
  4056be:	8d 3d a4 17 a7 98    	lea    0x98a717a4,%edi
  4056c4:	81 ef 21 e3 64 98    	sub    $0x9864e321,%edi
  4056ca:	57                   	push   %edi
  4056cb:	a1 10 f1 41 00       	mov    0x41f110,%eax
  4056d0:	ff d0                	call   *%eax
  4056d2:	21 35 f1 30 42 00    	and    %esi,0x4230f1
  4056d8:	01 1d 9b 31 42 00    	add    %ebx,0x42319b
  4056de:	13 3d da 30 42 00    	adc    0x4230da,%edi
  4056e4:	8d 15 af 17 a7 98    	lea    0x98a717af,%edx
  4056ea:	81 ea 21 e3 64 98    	sub    $0x9864e321,%edx
  4056f0:	52                   	push   %edx
  4056f1:	8d 35 a4 17 a7 98    	lea    0x98a717a4,%esi
  4056f7:	81 ee 21 e3 64 98    	sub    $0x9864e321,%esi
  4056fd:	56                   	push   %esi
  4056fe:	a1 10 f1 41 00       	mov    0x41f110,%eax
  405703:	ff d0                	call   *%eax
  405705:	81 0d be 31 42 00 c2 	orl    $0xc2,0x4231be
  40570c:	00 00 00 
  40570f:	81 15 5c 31 42 00 b0 	adcl   $0xb0,0x42315c
  405716:	00 00 00 
  405719:	83 f3 d2             	xor    $0xffffffd2,%ebx
  40571c:	12 05 07 30 42 00    	adc    0x423007,%al
  405722:	13 05 9b 30 42 00    	adc    0x42309b,%eax
  405728:	8d 35 af 17 a7 98    	lea    0x98a717af,%esi
  40572e:	81 ee 21 e3 64 98    	sub    $0x9864e321,%esi
  405734:	56                   	push   %esi
  405735:	8d 3d a4 17 a7 98    	lea    0x98a717a4,%edi
  40573b:	81 ef 21 e3 64 98    	sub    $0x9864e321,%edi
  405741:	57                   	push   %edi
  405742:	a1 10 f1 41 00       	mov    0x41f110,%eax
  405747:	ff d0                	call   *%eax
  405749:	b2 01                	mov    $0x1,%dl
  40574b:	82 c2 51             	add    $0x51,%dl
  40574e:	13 1d 43 30 42 00    	adc    0x423043,%ebx
  405754:	81 1d 68 31 42 00 cf 	sbbl   $0xcf,0x423168
  40575b:	00 00 00 
  40575e:	8d 1d af 17 a7 98    	lea    0x98a717af,%ebx
  405764:	81 eb 21 e3 64 98    	sub    $0x9864e321,%ebx
  40576a:	53                   	push   %ebx
  40576b:	8d 15 a4 17 a7 98    	lea    0x98a717a4,%edx
  405771:	81 ea 21 e3 64 98    	sub    $0x9864e321,%edx
  405777:	52                   	push   %edx
  405778:	a1 10 f1 41 00       	mov    0x41f110,%eax
  40577d:	ff d0                	call   *%eax
  40577f:	19 05 08 31 42 00    	sbb    %eax,0x423108
  405785:	8d 1d 97 17 a7 98    	lea    0x98a71797,%ebx
  40578b:	81 eb 21 e3 64 98    	sub    $0x9864e321,%ebx
  405791:	53                   	push   %ebx
  405792:	6a 01                	push   $0x1
  405794:	ff 0c 24             	decl   (%esp)
  405797:	68 01 00 10 00       	push   $0x100001
  40579c:	ff 0c 24             	decl   (%esp)
  40579f:	a1 e8 f0 41 00       	mov    0x41f0e8,%eax
  4057a4:	ff d0                	call   *%eax
  4057a6:	85 c0                	test   %eax,%eax
  4057a8:	0f 85 00 62 00 00    	jne    0x40b9ae
  4057ae:	8d 05 97 17 a7 98    	lea    0x98a71797,%eax
  4057b4:	2d 21 e3 64 98       	sub    $0x9864e321,%eax
  4057b9:	50                   	push   %eax
  4057ba:	6a 01                	push   $0x1
  4057bc:	ff 0c 24             	decl   (%esp)
  4057bf:	68 01 00 10 00       	push   $0x100001
  4057c4:	ff 0c 24             	decl   (%esp)
  4057c7:	a1 e8 f0 41 00       	mov    0x41f0e8,%eax
  4057cc:	ff d0                	call   *%eax
  4057ce:	85 c0                	test   %eax,%eax
  4057d0:	0f 85 d8 61 00 00    	jne    0x40b9ae
  4057d6:	2b 35 ab 31 42 00    	sub    0x4231ab,%esi
  4057dc:	30 1d 85 30 42 00    	xor    %bl,0x423085
  4057e2:	2e e9 f0 5c 00 00    	cs jmp 0x40b4d8
  4057e8:	81 15 18 30 42 00 81 	adcl   $0x81,0x423018
  4057ef:	00 00 00 
  4057f2:	b5 01                	mov    $0x1,%ch
  4057f4:	82 c5 a1             	add    $0xa1,%ch
  4057f7:	83 15 3f 30 42 00 0a 	adcl   $0xa,0x42303f
  4057fe:	29 c1                	sub    %eax,%ecx
	...
  405808:	00 00                	add    %al,(%eax)
  40580a:	8d 3d 97 17 a7 98    	lea    0x98a71797,%edi
  405810:	81 ef 21 e3 64 98    	sub    $0x9864e321,%edi
  405816:	57                   	push   %edi
  405817:	6a 01                	push   $0x1
  405819:	ff 0c 24             	decl   (%esp)
  40581c:	68 01 00 10 00       	push   $0x100001
  405821:	ff 0c 24             	decl   (%esp)
  405824:	a1 e8 f0 41 00       	mov    0x41f0e8,%eax
  405829:	ff d0                	call   *%eax
  40582b:	85 c0                	test   %eax,%eax
  40582d:	0f 85 7b 61 00 00    	jne    0x40b9ae
  405833:	b9 01 00 00 00       	mov    $0x1,%ecx
  405838:	83 c1 e7             	add    $0xffffffe7,%ecx
  40583b:	09 05 f1 31 42 00    	or     %eax,0x4231f1
  405841:	83 c1 9f             	add    $0xffffff9f,%ecx
  405844:	8d 35 97 17 a7 98    	lea    0x98a71797,%esi
  40584a:	81 ee 21 e3 64 98    	sub    $0x9864e321,%esi
  405850:	56                   	push   %esi
  405851:	6a 01                	push   $0x1
  405853:	ff 0c 24             	decl   (%esp)
  405856:	68 01 00 10 00       	push   $0x100001
  40585b:	ff 0c 24             	decl   (%esp)
  40585e:	a1 e8 f0 41 00       	mov    0x41f0e8,%eax
  405863:	ff d0                	call   *%eax
  405865:	83 f8 00             	cmp    $0x0,%eax
  405868:	0f 85 40 61 00 00    	jne    0x40b9ae
  40586e:	83 d8 db             	sbb    $0xffffffdb,%eax
  405871:	ba 01 00 00 00       	mov    $0x1,%edx
  405876:	83 c2 1a             	add    $0x1a,%edx
  405879:	b9 01 00 00 00       	mov    $0x1,%ecx
  40587e:	83 c1 d5             	add    $0xffffffd5,%ecx
  405881:	81 25 f6 31 42 00 bf 	andl   $0xbf,0x4231f6
  405888:	00 00 00 
  40588b:	11 cb                	adc    %ecx,%ebx
  40588d:	8d 0d af 17 a7 98    	lea    0x98a717af,%ecx
  405893:	81 e9 21 e3 64 98    	sub    $0x9864e321,%ecx
  405899:	51                   	push   %ecx
  40589a:	8d 35 a4 17 a7 98    	lea    0x98a717a4,%esi
  4058a0:	81 ee 21 e3 64 98    	sub    $0x9864e321,%esi
  4058a6:	56                   	push   %esi
  4058a7:	a1 10 f1 41 00       	mov    0x41f110,%eax
  4058ac:	ff d0                	call   *%eax
  4058ae:	8d 35 af 17 a7 98    	lea    0x98a717af,%esi
  4058b4:	81 ee 21 e3 64 98    	sub    $0x9864e321,%esi
  4058ba:	56                   	push   %esi
  4058bb:	8d 3d a4 17 a7 98    	lea    0x98a717a4,%edi
  4058c1:	81 ef 21 e3 64 98    	sub    $0x9864e321,%edi
  4058c7:	57                   	push   %edi
  4058c8:	a1 10 f1 41 00       	mov    0x41f110,%eax
  4058cd:	ff d0                	call   *%eax
  4058cf:	8d 15 af 17 a7 98    	lea    0x98a717af,%edx
  4058d5:	81 ea 21 e3 64 98    	sub    $0x9864e321,%edx
  4058db:	52                   	push   %edx
  4058dc:	8d 15 a4 17 a7 98    	lea    0x98a717a4,%edx
  4058e2:	81 ea 21 e3 64 98    	sub    $0x9864e321,%edx
  4058e8:	52                   	push   %edx
  4058e9:	a1 10 f1 41 00       	mov    0x41f110,%eax
  4058ee:	ff d0                	call   *%eax
  4058f0:	c7 05 5f 30 42 00 f0 	movl   $0xf0,0x42305f
  4058f7:	00 00 00 
  4058fa:	83 f6 fb             	xor    $0xfffffffb,%esi
  4058fd:	13 3d 5f 30 42 00    	adc    0x42305f,%edi
  405903:	29 db                	sub    %ebx,%ebx
  405905:	82 2d 9d 30 42 00 37 	subb   $0x37,0x42309d
  40590c:	8d 35 97 17 a7 98    	lea    0x98a71797,%esi
  405912:	81 ee 21 e3 64 98    	sub    $0x9864e321,%esi
  405918:	56                   	push   %esi
  405919:	6a 01                	push   $0x1
  40591b:	ff 0c 24             	decl   (%esp)
  40591e:	68 01 00 10 00       	push   $0x100001
  405923:	ff 0c 24             	decl   (%esp)
  405926:	a1 e8 f0 41 00       	mov    0x41f0e8,%eax
  40592b:	ff d0                	call   *%eax
  40592d:	85 c0                	test   %eax,%eax
  40592f:	0f 85 79 60 00 00    	jne    0x40b9ae
  405935:	19 3d 5b 30 42 00    	sbb    %edi,0x42305b
  40593b:	8d 1d af 17 a7 98    	lea    0x98a717af,%ebx
  405941:	81 eb 21 e3 64 98    	sub    $0x9864e321,%ebx
  405947:	53                   	push   %ebx
  405948:	8d 1d a4 17 a7 98    	lea    0x98a717a4,%ebx
  40594e:	81 eb 21 e3 64 98    	sub    $0x9864e321,%ebx
  405954:	53                   	push   %ebx
  405955:	a1 10 f1 41 00       	mov    0x41f110,%eax
  40595a:	ff d0                	call   *%eax
  40595c:	2b 35 05 31 42 00    	sub    0x423105,%esi
  405962:	8d 1d af 17 a7 98    	lea    0x98a717af,%ebx
  405968:	81 eb 21 e3 64 98    	sub    $0x9864e321,%ebx
  40596e:	53                   	push   %ebx
  40596f:	8d 3d a4 17 a7 98    	lea    0x98a717a4,%edi
  405975:	81 ef 21 e3 64 98    	sub    $0x9864e321,%edi
  40597b:	57                   	push   %edi
  40597c:	a1 10 f1 41 00       	mov    0x41f110,%eax
  405981:	ff d0                	call   *%eax
  405983:	8d 0d af 17 a7 98    	lea    0x98a717af,%ecx
  405989:	81 e9 21 e3 64 98    	sub    $0x9864e321,%ecx
  40598f:	51                   	push   %ecx
  405990:	8d 15 a4 17 a7 98    	lea    0x98a717a4,%edx
  405996:	81 ea 21 e3 64 98    	sub    $0x9864e321,%edx
  40599c:	52                   	push   %edx
  40599d:	a1 10 f1 41 00       	mov    0x41f110,%eax
  4059a2:	ff d0                	call   *%eax
  4059a4:	83 1d 53 31 42 00 3a 	sbbl   $0x3a,0x423153
  4059ab:	19 c7                	sbb    %eax,%edi
  4059ad:	0b 05 e8 31 42 00    	or     0x4231e8,%eax
  4059b3:	83 c7 c2             	add    $0xffffffc2,%edi
  4059b6:	13 35 63 30 42 00    	adc    0x423063,%esi
  4059bc:	8d 05 97 17 a7 98    	lea    0x98a71797,%eax
  4059c2:	2d 21 e3 64 98       	sub    $0x9864e321,%eax
  4059c7:	50                   	push   %eax
  4059c8:	6a 01                	push   $0x1
  4059ca:	ff 0c 24             	decl   (%esp)
  4059cd:	68 01 00 10 00       	push   $0x100001
  4059d2:	ff 0c 24             	decl   (%esp)
  4059d5:	a1 e8 f0 41 00       	mov    0x41f0e8,%eax
  4059da:	ff d0                	call   *%eax
  4059dc:	85 c0                	test   %eax,%eax
  4059de:	0f 85 ca 5f 00 00    	jne    0x40b9ae
  4059e4:	8d 35 97 17 a7 98    	lea    0x98a71797,%esi
  4059ea:	81 ee 21 e3 64 98    	sub    $0x9864e321,%esi
  4059f0:	56                   	push   %esi
  4059f1:	6a 01                	push   $0x1
  4059f3:	ff 0c 24             	decl   (%esp)
  4059f6:	68 01 00 10 00       	push   $0x100001
  4059fb:	ff 0c 24             	decl   (%esp)
  4059fe:	a1 e8 f0 41 00       	mov    0x41f0e8,%eax
  405a03:	ff d0                	call   *%eax
  405a05:	85 c0                	test   %eax,%eax
  405a07:	0f 85 a1 5f 00 00    	jne    0x40b9ae
  405a0d:	13 3d ec 31 42 00    	adc    0x4231ec,%edi
  405a13:	8d 1d af 17 a7 98    	lea    0x98a717af,%ebx
  405a19:	81 eb 21 e3 64 98    	sub    $0x9864e321,%ebx
  405a1f:	53                   	push   %ebx
  405a20:	8d 15 a4 17 a7 98    	lea    0x98a717a4,%edx
  405a26:	81 ea 21 e3 64 98    	sub    $0x9864e321,%edx
  405a2c:	52                   	push   %edx
  405a2d:	a1 10 f1 41 00       	mov    0x41f110,%eax
  405a32:	ff d0                	call   *%eax
  405a34:	2e e9 9e 5a 00 00    	cs jmp 0x40b4d8
  405a3a:	b9 01 00 00 00       	mov    $0x1,%ecx
  405a3f:	13 0d bf 30 42 00    	adc    0x4230bf,%ecx
	...
  405a51:	81 1d 46 31 42 00 b5 	sbbl   $0xb5,0x423146
  405a58:	00 00 00 
  405a5b:	b9 01 00 00 00       	mov    $0x1,%ecx
  405a60:	01 f9                	add    %edi,%ecx
  405a62:	13 3d 7e 30 42 00    	adc    0x42307e,%edi
  405a68:	21 35 ab 30 42 00    	and    %esi,0x4230ab
  405a6e:	8d 1d af 17 a7 98    	lea    0x98a717af,%ebx
  405a74:	81 eb 21 e3 64 98    	sub    $0x9864e321,%ebx
  405a7a:	53                   	push   %ebx
  405a7b:	8d 1d a4 17 a7 98    	lea    0x98a717a4,%ebx
  405a81:	81 eb 21 e3 64 98    	sub    $0x9864e321,%ebx
  405a87:	53                   	push   %ebx
  405a88:	a1 10 f1 41 00       	mov    0x41f110,%eax
  405a8d:	ff d0                	call   *%eax
  405a8f:	83 15 ac 31 42 00 14 	adcl   $0x14,0x4231ac
  405a96:	01 db                	add    %ebx,%ebx
  405a98:	8d 05 97 17 a7 98    	lea    0x98a71797,%eax
  405a9e:	2d 21 e3 64 98       	sub    $0x9864e321,%eax
  405aa3:	50                   	push   %eax
  405aa4:	6a 01                	push   $0x1
  405aa6:	ff 0c 24             	decl   (%esp)
  405aa9:	68 01 00 10 00       	push   $0x100001
  405aae:	ff 0c 24             	decl   (%esp)
  405ab1:	a1 e8 f0 41 00       	mov    0x41f0e8,%eax
  405ab6:	ff d0                	call   *%eax
  405ab8:	85 c0                	test   %eax,%eax
  405aba:	0f 85 ee 5e 00 00    	jne    0x40b9ae
  405ac0:	19 3d 83 31 42 00    	sbb    %edi,0x423183
  405ac6:	01 3d cc 30 42 00    	add    %edi,0x4230cc
  405acc:	8d 0d 97 17 a7 98    	lea    0x98a71797,%ecx
  405ad2:	81 e9 21 e3 64 98    	sub    $0x9864e321,%ecx
  405ad8:	51                   	push   %ecx
  405ad9:	6a 01                	push   $0x1
  405adb:	ff 0c 24             	decl   (%esp)
  405ade:	68 01 00 10 00       	push   $0x100001
  405ae3:	ff 0c 24             	decl   (%esp)
  405ae6:	a1 e8 f0 41 00       	mov    0x41f0e8,%eax
  405aeb:	ff d0                	call   *%eax
  405aed:	83 f8 00             	cmp    $0x0,%eax
  405af0:	0f 85 b8 5e 00 00    	jne    0x40b9ae
  405af6:	b9 01 00 00 00       	mov    $0x1,%ecx
  405afb:	83 c1 1c             	add    $0x1c,%ecx
  405afe:	28 d8                	sub    %bl,%al
  405b00:	82 2d f6 31 42 00 c5 	subb   $0xc5,0x4231f6
  405b07:	18 0d a5 31 42 00    	sbb    %cl,0x4231a5
  405b0d:	8d 15 af 17 a7 98    	lea    0x98a717af,%edx
  405b13:	81 ea 21 e3 64 98    	sub    $0x9864e321,%edx
  405b19:	52                   	push   %edx
  405b1a:	8d 1d a4 17 a7 98    	lea    0x98a717a4,%ebx
  405b20:	81 eb 21 e3 64 98    	sub    $0x9864e321,%ebx
  405b26:	53                   	push   %ebx
  405b27:	a1 10 f1 41 00       	mov    0x41f110,%eax
  405b2c:	ff d0                	call   *%eax
  405b2e:	81 15 16 30 42 00 ad 	adcl   $0xad,0x423016
  405b35:	00 00 00 
  405b38:	8d 0d 97 17 a7 98    	lea    0x98a71797,%ecx
  405b3e:	81 e9 21 e3 64 98    	sub    $0x9864e321,%ecx
  405b44:	51                   	push   %ecx
  405b45:	6a 01                	push   $0x1
  405b47:	ff 0c 24             	decl   (%esp)
  405b4a:	68 01 00 10 00       	push   $0x100001
  405b4f:	ff 0c 24             	decl   (%esp)
  405b52:	a1 e8 f0 41 00       	mov    0x41f0e8,%eax
  405b57:	ff d0                	call   *%eax
  405b59:	85 c0                	test   %eax,%eax
  405b5b:	0f 85 4d 5e 00 00    	jne    0x40b9ae
  405b61:	01 f6                	add    %esi,%esi
  405b63:	8d 05 af 17 a7 98    	lea    0x98a717af,%eax
  405b69:	2d 21 e3 64 98       	sub    $0x9864e321,%eax
  405b6e:	50                   	push   %eax
  405b6f:	8d 0d a4 17 a7 98    	lea    0x98a717a4,%ecx
  405b75:	81 e9 21 e3 64 98    	sub    $0x9864e321,%ecx
  405b7b:	51                   	push   %ecx
  405b7c:	a1 10 f1 41 00       	mov    0x41f110,%eax
  405b81:	ff d0                	call   *%eax
  405b83:	83 35 9b 30 42 00 52 	xorl   $0x52,0x42309b
  405b8a:	82 e7 9a             	and    $0x9a,%bh
  405b8d:	2c a2                	sub    $0xa2,%al
  405b8f:	8d 1d af 17 a7 98    	lea    0x98a717af,%ebx
  405b95:	81 eb 21 e3 64 98    	sub    $0x9864e321,%ebx
  405b9b:	53                   	push   %ebx
  405b9c:	8d 15 a4 17 a7 98    	lea    0x98a717a4,%edx
  405ba2:	81 ea 21 e3 64 98    	sub    $0x9864e321,%edx
  405ba8:	52                   	push   %edx
  405ba9:	a1 10 f1 41 00       	mov    0x41f110,%eax
  405bae:	ff d0                	call   *%eax
  405bb0:	83 c0 f5             	add    $0xfffffff5,%eax
  405bb3:	31 d8                	xor    %ebx,%eax
  405bb5:	ba 01 00 00 00       	mov    $0x1,%edx
  405bba:	01 f2                	add    %esi,%edx
  405bbc:	81 15 b3 30 42 00 c8 	adcl   $0xc8,0x4230b3
  405bc3:	00 00 00 
  405bc6:	31 c0                	xor    %eax,%eax
  405bc8:	8d 3d af 17 a7 98    	lea    0x98a717af,%edi
  405bce:	81 ef 21 e3 64 98    	sub    $0x9864e321,%edi
  405bd4:	57                   	push   %edi
  405bd5:	8d 05 a4 17 a7 98    	lea    0x98a717a4,%eax
  405bdb:	2d 21 e3 64 98       	sub    $0x9864e321,%eax
  405be0:	50                   	push   %eax
  405be1:	a1 10 f1 41 00       	mov    0x41f110,%eax
  405be6:	ff d0                	call   *%eax
  405be8:	29 05 48 31 42 00    	sub    %eax,0x423148
  405bee:	83 e7 57             	and    $0x57,%edi
  405bf1:	2b 05 27 31 42 00    	sub    0x423127,%eax
  405bf7:	8d 0d af 17 a7 98    	lea    0x98a717af,%ecx
  405bfd:	81 e9 21 e3 64 98    	sub    $0x9864e321,%ecx
  405c03:	51                   	push   %ecx
  405c04:	8d 3d a4 17 a7 98    	lea    0x98a717a4,%edi
  405c0a:	81 ef 21 e3 64 98    	sub    $0x9864e321,%edi
  405c10:	57                   	push   %edi
  405c11:	a1 10 f1 41 00       	mov    0x41f110,%eax
  405c16:	ff d0                	call   *%eax
  405c18:	28 05 ff 31 42 00    	sub    %al,0x4231ff
  405c1e:	b9 01 00 00 00       	mov    $0x1,%ecx
  405c23:	01 c1                	add    %eax,%ecx
  405c25:	01 ce                	add    %ecx,%esi
  405c27:	01 d8                	add    %ebx,%eax
  405c29:	8d 1d af 17 a7 98    	lea    0x98a717af,%ebx
  405c2f:	81 eb 21 e3 64 98    	sub    $0x9864e321,%ebx
  405c35:	53                   	push   %ebx
  405c36:	8d 15 a4 17 a7 98    	lea    0x98a717a4,%edx
  405c3c:	81 ea 21 e3 64 98    	sub    $0x9864e321,%edx
  405c42:	52                   	push   %edx
  405c43:	a1 10 f1 41 00       	mov    0x41f110,%eax
  405c48:	ff d0                	call   *%eax
  405c4a:	31 c7                	xor    %eax,%edi
  405c4c:	8d 15 97 17 a7 98    	lea    0x98a71797,%edx
  405c52:	81 ea 21 e3 64 98    	sub    $0x9864e321,%edx
  405c58:	52                   	push   %edx
  405c59:	6a 01                	push   $0x1
  405c5b:	ff 0c 24             	decl   (%esp)
  405c5e:	68 01 00 10 00       	push   $0x100001
  405c63:	ff 0c 24             	decl   (%esp)
  405c66:	a1 e8 f0 41 00       	mov    0x41f0e8,%eax
  405c6b:	ff d0                	call   *%eax
  405c6d:	85 c0                	test   %eax,%eax
  405c6f:	0f 85 39 5d 00 00    	jne    0x40b9ae
  405c75:	31 1d cd 31 42 00    	xor    %ebx,0x4231cd
  405c7b:	2e e9 57 58 00 00    	cs jmp 0x40b4d8
  405c81:	00 01                	add    %al,(%ecx)
  405c83:	3d 0f 30 42 00       	cmp    $0x42300f,%eax
  405c88:	13 3d 42 30 42 00    	adc    0x423042,%edi
  405c8e:	01 1d 6f 30 42 00    	add    %ebx,0x42306f
  405c94:	2b 1d 24 31 42 00    	sub    0x423124,%ebx
  405c9a:	8d 05 af 17 a7 98    	lea    0x98a717af,%eax
  405ca0:	2d 21 e3 64 98       	sub    $0x9864e321,%eax
  405ca5:	50                   	push   %eax
  405ca6:	8d 3d a4 17 a7 98    	lea    0x98a717a4,%edi
  405cac:	81 ef 21 e3 64 98    	sub    $0x9864e321,%edi
  405cb2:	57                   	push   %edi
  405cb3:	a1 10 f1 41 00       	mov    0x41f110,%eax
  405cb8:	ff d0                	call   *%eax
  405cba:	ba 01 00 00 00       	mov    $0x1,%edx
  405cbf:	83 c2 d4             	add    $0xffffffd4,%edx
  405cc2:	8d 15 97 17 a7 98    	lea    0x98a71797,%edx
  405cc8:	81 ea 21 e3 64 98    	sub    $0x9864e321,%edx
  405cce:	52                   	push   %edx
  405ccf:	6a 01                	push   $0x1
  405cd1:	ff 0c 24             	decl   (%esp)
  405cd4:	68 01 00 10 00       	push   $0x100001
  405cd9:	ff 0c 24             	decl   (%esp)
  405cdc:	a1 e8 f0 41 00       	mov    0x41f0e8,%eax
  405ce1:	ff d0                	call   *%eax
  405ce3:	85 c0                	test   %eax,%eax
  405ce5:	0f 85 c3 5c 00 00    	jne    0x40b9ae
  405ceb:	19 05 ac 31 42 00    	sbb    %eax,0x4231ac
  405cf1:	01 3d fb 30 42 00    	add    %edi,0x4230fb
  405cf7:	29 05 88 31 42 00    	sub    %eax,0x423188
  405cfd:	82 df fd             	sbb    $0xfd,%bh
  405d00:	8d 1d af 17 a7 98    	lea    0x98a717af,%ebx
  405d06:	81 eb 21 e3 64 98    	sub    $0x9864e321,%ebx
  405d0c:	53                   	push   %ebx
  405d0d:	8d 05 a4 17 a7 98    	lea    0x98a717a4,%eax
  405d13:	2d 21 e3 64 98       	sub    $0x9864e321,%eax
  405d18:	50                   	push   %eax
  405d19:	a1 10 f1 41 00       	mov    0x41f110,%eax
  405d1e:	ff d0                	call   *%eax
  405d20:	01 d8                	add    %ebx,%eax
  405d22:	01 35 b1 30 42 00    	add    %esi,0x4230b1
  405d28:	8d 0d af 17 a7 98    	lea    0x98a717af,%ecx
  405d2e:	81 e9 21 e3 64 98    	sub    $0x9864e321,%ecx
  405d34:	51                   	push   %ecx
  405d35:	8d 0d a4 17 a7 98    	lea    0x98a717a4,%ecx
  405d3b:	81 e9 21 e3 64 98    	sub    $0x9864e321,%ecx
  405d41:	51                   	push   %ecx
  405d42:	a1 10 f1 41 00       	mov    0x41f110,%eax
  405d47:	ff d0                	call   *%eax
  405d49:	8d 1d 97 17 a7 98    	lea    0x98a71797,%ebx
  405d4f:	81 eb 21 e3 64 98    	sub    $0x9864e321,%ebx
  405d55:	53                   	push   %ebx
  405d56:	6a 01                	push   $0x1
  405d58:	ff 0c 24             	decl   (%esp)
  405d5b:	68 01 00 10 00       	push   $0x100001
  405d60:	ff 0c 24             	decl   (%esp)
  405d63:	a1 e8 f0 41 00       	mov    0x41f0e8,%eax
  405d68:	ff d0                	call   *%eax
  405d6a:	83 f8 00             	cmp    $0x0,%eax
  405d6d:	0f 85 3b 5c 00 00    	jne    0x40b9ae
  405d73:	01 de                	add    %ebx,%esi
  405d75:	12 1d b3 31 42 00    	adc    0x4231b3,%bl
  405d7b:	11 df                	adc    %ebx,%edi
  405d7d:	8d 1d af 17 a7 98    	lea    0x98a717af,%ebx
  405d83:	81 eb 21 e3 64 98    	sub    $0x9864e321,%ebx
  405d89:	53                   	push   %ebx
  405d8a:	8d 05 a4 17 a7 98    	lea    0x98a717a4,%eax
  405d90:	2d 21 e3 64 98       	sub    $0x9864e321,%eax
  405d95:	50                   	push   %eax
  405d96:	a1 10 f1 41 00       	mov    0x41f110,%eax
  405d9b:	ff d0                	call   *%eax
  405d9d:	00 1d ab 31 42 00    	add    %bl,0x4231ab
  405da3:	83 e7 e7             	and    $0xffffffe7,%edi
  405da6:	8d 15 af 17 a7 98    	lea    0x98a717af,%edx
  405dac:	81 ea 21 e3 64 98    	sub    $0x9864e321,%edx
  405db2:	52                   	push   %edx
  405db3:	8d 0d a4 17 a7 98    	lea    0x98a717a4,%ecx
  405db9:	81 e9 21 e3 64 98    	sub    $0x9864e321,%ecx
  405dbf:	51                   	push   %ecx
  405dc0:	a1 10 f1 41 00       	mov    0x41f110,%eax
  405dc5:	ff d0                	call   *%eax
  405dc7:	8d 15 af 17 a7 98    	lea    0x98a717af,%edx
  405dcd:	81 ea 21 e3 64 98    	sub    $0x9864e321,%edx
  405dd3:	52                   	push   %edx
  405dd4:	8d 3d a4 17 a7 98    	lea    0x98a717a4,%edi
  405dda:	81 ef 21 e3 64 98    	sub    $0x9864e321,%edi
  405de0:	57                   	push   %edi
  405de1:	a1 10 f1 41 00       	mov    0x41f110,%eax
  405de6:	ff d0                	call   *%eax
  405de8:	31 d8                	xor    %ebx,%eax
  405dea:	01 db                	add    %ebx,%ebx
  405dec:	c7 05 f3 31 42 00 36 	movl   $0x36,0x4231f3
  405df3:	00 00 00 
  405df6:	8d 35 af 17 a7 98    	lea    0x98a717af,%esi
  405dfc:	81 ee 21 e3 64 98    	sub    $0x9864e321,%esi
  405e02:	56                   	push   %esi
  405e03:	8d 15 a4 17 a7 98    	lea    0x98a717a4,%edx
  405e09:	81 ea 21 e3 64 98    	sub    $0x9864e321,%edx
  405e0f:	52                   	push   %edx
  405e10:	a1 10 f1 41 00       	mov    0x41f110,%eax
  405e15:	ff d0                	call   *%eax
  405e17:	01 db                	add    %ebx,%ebx
  405e19:	8d 1d 97 17 a7 98    	lea    0x98a71797,%ebx
  405e1f:	81 eb 21 e3 64 98    	sub    $0x9864e321,%ebx
  405e25:	53                   	push   %ebx
  405e26:	6a 01                	push   $0x1
  405e28:	ff 0c 24             	decl   (%esp)
  405e2b:	68 01 00 10 00       	push   $0x100001
  405e30:	ff 0c 24             	decl   (%esp)
  405e33:	a1 e8 f0 41 00       	mov    0x41f0e8,%eax
  405e38:	ff d0                	call   *%eax
  405e3a:	85 c0                	test   %eax,%eax
  405e3c:	0f 85 6c 5b 00 00    	jne    0x40b9ae
  405e42:	2e e9 90 56 00 00    	cs jmp 0x40b4d8
  405e48:	0b 3d f6 30 42 00    	or     0x4230f6,%edi
  405e4e:	83 d8 1e             	sbb    $0x1e,%eax
	...
  405e61:	8d 1d af 17 a7 98    	lea    0x98a717af,%ebx
  405e67:	81 eb 21 e3 64 98    	sub    $0x9864e321,%ebx
  405e6d:	53                   	push   %ebx
  405e6e:	8d 15 a4 17 a7 98    	lea    0x98a717a4,%edx
  405e74:	81 ea 21 e3 64 98    	sub    $0x9864e321,%edx
  405e7a:	52                   	push   %edx
  405e7b:	a1 10 f1 41 00       	mov    0x41f110,%eax
  405e80:	ff d0                	call   *%eax
  405e82:	83 c3 04             	add    $0x4,%ebx
  405e85:	83 c6 79             	add    $0x79,%esi
  405e88:	8d 35 97 17 a7 98    	lea    0x98a71797,%esi
  405e8e:	81 ee 21 e3 64 98    	sub    $0x9864e321,%esi
  405e94:	56                   	push   %esi
  405e95:	6a 01                	push   $0x1
  405e97:	ff 0c 24             	decl   (%esp)
  405e9a:	68 01 00 10 00       	push   $0x100001
  405e9f:	ff 0c 24             	decl   (%esp)
  405ea2:	a1 e8 f0 41 00       	mov    0x41f0e8,%eax
  405ea7:	ff d0                	call   *%eax
  405ea9:	83 f8 00             	cmp    $0x0,%eax
  405eac:	0f 85 fc 5a 00 00    	jne    0x40b9ae
  405eb2:	13 35 94 30 42 00    	adc    0x423094,%esi
  405eb8:	0a 05 25 30 42 00    	or     0x423025,%al
  405ebe:	c7 05 46 31 42 00 ff 	movl   $0xff,0x423146
  405ec5:	00 00 00 
  405ec8:	8d 0d af 17 a7 98    	lea    0x98a717af,%ecx
  405ece:	81 e9 21 e3 64 98    	sub    $0x9864e321,%ecx
  405ed4:	51                   	push   %ecx
  405ed5:	8d 0d a4 17 a7 98    	lea    0x98a717a4,%ecx
  405edb:	81 e9 21 e3 64 98    	sub    $0x9864e321,%ecx
  405ee1:	51                   	push   %ecx
  405ee2:	a1 10 f1 41 00       	mov    0x41f110,%eax
  405ee7:	ff d0                	call   *%eax
  405ee9:	b1 01                	mov    $0x1,%cl
  405eeb:	00 d9                	add    %bl,%cl
  405eed:	12 0d 07 31 42 00    	adc    0x423107,%cl
  405ef3:	13 0d 4a 30 42 00    	adc    0x42304a,%ecx
  405ef9:	83 25 8a 30 42 00 72 	andl   $0x72,0x42308a
  405f00:	8d 05 97 17 a7 98    	lea    0x98a71797,%eax
  405f06:	2d 21 e3 64 98       	sub    $0x9864e321,%eax
  405f0b:	50                   	push   %eax
  405f0c:	6a 01                	push   $0x1
  405f0e:	ff 0c 24             	decl   (%esp)
  405f11:	68 01 00 10 00       	push   $0x100001
  405f16:	ff 0c 24             	decl   (%esp)
  405f19:	a1 e8 f0 41 00       	mov    0x41f0e8,%eax
  405f1e:	ff d0                	call   *%eax
  405f20:	85 c0                	test   %eax,%eax
  405f22:	0f 85 86 5a 00 00    	jne    0x40b9ae
  405f28:	ba 01 00 00 00       	mov    $0x1,%edx
  405f2d:	01 c2                	add    %eax,%edx
  405f2f:	81 15 52 31 42 00 af 	adcl   $0xaf,0x423152
  405f36:	00 00 00 
  405f39:	21 15 41 31 42 00    	and    %edx,0x423141
  405f3f:	81 35 ce 30 42 00 c5 	xorl   $0xc5,0x4230ce
  405f46:	00 00 00 
  405f49:	83 eb a7             	sub    $0xffffffa7,%ebx
  405f4c:	8d 15 af 17 a7 98    	lea    0x98a717af,%edx
  405f52:	81 ea 21 e3 64 98    	sub    $0x9864e321,%edx
  405f58:	52                   	push   %edx
  405f59:	8d 35 a4 17 a7 98    	lea    0x98a717a4,%esi
  405f5f:	81 ee 21 e3 64 98    	sub    $0x9864e321,%esi
  405f65:	56                   	push   %esi
  405f66:	a1 10 f1 41 00       	mov    0x41f110,%eax
  405f6b:	ff d0                	call   *%eax
  405f6d:	81 25 af 30 42 00 ba 	andl   $0xba,0x4230af
  405f74:	00 00 00 
  405f77:	8d 35 97 17 a7 98    	lea    0x98a71797,%esi
  405f7d:	81 ee 21 e3 64 98    	sub    $0x9864e321,%esi
  405f83:	56                   	push   %esi
  405f84:	6a 01                	push   $0x1
  405f86:	ff 0c 24             	decl   (%esp)
  405f89:	68 01 00 10 00       	push   $0x100001
  405f8e:	ff 0c 24             	decl   (%esp)
  405f91:	a1 e8 f0 41 00       	mov    0x41f0e8,%eax
  405f96:	ff d0                	call   *%eax
  405f98:	85 c0                	test   %eax,%eax
  405f9a:	0f 85 0e 5a 00 00    	jne    0x40b9ae
  405fa0:	83 d0 c8             	adc    $0xffffffc8,%eax
  405fa3:	09 05 23 30 42 00    	or     %eax,0x423023
  405fa9:	ba 01 00 00 00       	mov    $0x1,%edx
  405fae:	01 da                	add    %ebx,%edx
  405fb0:	31 35 29 30 42 00    	xor    %esi,0x423029
  405fb6:	11 05 1c 31 42 00    	adc    %eax,0x42311c
  405fbc:	8d 1d 97 17 a7 98    	lea    0x98a71797,%ebx
  405fc2:	81 eb 21 e3 64 98    	sub    $0x9864e321,%ebx
  405fc8:	53                   	push   %ebx
  405fc9:	6a 01                	push   $0x1
  405fcb:	ff 0c 24             	decl   (%esp)
  405fce:	68 01 00 10 00       	push   $0x100001
  405fd3:	ff 0c 24             	decl   (%esp)
  405fd6:	a1 e8 f0 41 00       	mov    0x41f0e8,%eax
  405fdb:	ff d0                	call   *%eax
  405fdd:	85 c0                	test   %eax,%eax
  405fdf:	0f 85 c9 59 00 00    	jne    0x40b9ae
  405fe5:	0b 3d 0a 31 42 00    	or     0x42310a,%edi
  405feb:	8d 3d af 17 a7 98    	lea    0x98a717af,%edi
  405ff1:	81 ef 21 e3 64 98    	sub    $0x9864e321,%edi
  405ff7:	57                   	push   %edi
  405ff8:	8d 35 a4 17 a7 98    	lea    0x98a717a4,%esi
  405ffe:	81 ee 21 e3 64 98    	sub    $0x9864e321,%esi
  406004:	56                   	push   %esi
  406005:	a1 10 f1 41 00       	mov    0x41f110,%eax
  40600a:	ff d0                	call   *%eax
  40600c:	ba 01 00 00 00       	mov    $0x1,%edx
  406011:	13 15 a2 30 42 00    	adc    0x4230a2,%edx
  406017:	01 3d 1a 30 42 00    	add    %edi,0x42301a
  40601d:	83 ee 0f             	sub    $0xf,%esi
  406020:	13 35 1f 31 42 00    	adc    0x42311f,%esi
  406026:	19 3d 19 30 42 00    	sbb    %edi,0x423019
  40602c:	8d 3d af 17 a7 98    	lea    0x98a717af,%edi
  406032:	81 ef 21 e3 64 98    	sub    $0x9864e321,%edi
  406038:	57                   	push   %edi
  406039:	8d 05 a4 17 a7 98    	lea    0x98a717a4,%eax
  40603f:	2d 21 e3 64 98       	sub    $0x9864e321,%eax
  406044:	50                   	push   %eax
  406045:	a1 10 f1 41 00       	mov    0x41f110,%eax
  40604a:	ff d0                	call   *%eax
  40604c:	13 05 50 31 42 00    	adc    0x423150,%eax
  406052:	b5 01                	mov    $0x1,%ch
  406054:	82 c5 ea             	add    $0xea,%ch
  406057:	19 f3                	sbb    %esi,%ebx
  406059:	ba 01 00 00 00       	mov    $0x1,%edx
  40605e:	13 15 3f 31 42 00    	adc    0x42313f,%edx
  406064:	8d 35 97 17 a7 98    	lea    0x98a71797,%esi
  40606a:	81 ee 21 e3 64 98    	sub    $0x9864e321,%esi
  406070:	56                   	push   %esi
  406071:	6a 01                	push   $0x1
  406073:	ff 0c 24             	decl   (%esp)
  406076:	68 01 00 10 00       	push   $0x100001
  40607b:	ff 0c 24             	decl   (%esp)
  40607e:	a1 e8 f0 41 00       	mov    0x41f0e8,%eax
  406083:	ff d0                	call   *%eax
  406085:	85 c0                	test   %eax,%eax
  406087:	0f 85 21 59 00 00    	jne    0x40b9ae
  40608d:	8d 0d af 17 a7 98    	lea    0x98a717af,%ecx
  406093:	81 e9 21 e3 64 98    	sub    $0x9864e321,%ecx
  406099:	51                   	push   %ecx
  40609a:	8d 3d a4 17 a7 98    	lea    0x98a717a4,%edi
  4060a0:	81 ef 21 e3 64 98    	sub    $0x9864e321,%edi
  4060a6:	57                   	push   %edi
  4060a7:	a1 10 f1 41 00       	mov    0x41f110,%eax
  4060ac:	ff d0                	call   *%eax
  4060ae:	b9 01 00 00 00       	mov    $0x1,%ecx
  4060b3:	01 d9                	add    %ebx,%ecx
  4060b5:	8d 3d af 17 a7 98    	lea    0x98a717af,%edi
  4060bb:	81 ef 21 e3 64 98    	sub    $0x9864e321,%edi
  4060c1:	57                   	push   %edi
  4060c2:	8d 1d a4 17 a7 98    	lea    0x98a717a4,%ebx
  4060c8:	81 eb 21 e3 64 98    	sub    $0x9864e321,%ebx
  4060ce:	53                   	push   %ebx
  4060cf:	a1 10 f1 41 00       	mov    0x41f110,%eax
  4060d4:	ff d0                	call   *%eax
  4060d6:	01 3d 88 31 42 00    	add    %edi,0x423188
  4060dc:	0b 1d e7 31 42 00    	or     0x4231e7,%ebx
  4060e2:	29 35 84 30 42 00    	sub    %esi,0x423084
  4060e8:	83 15 19 30 42 00 3d 	adcl   $0x3d,0x423019
  4060ef:	83 c7 c8             	add    $0xffffffc8,%edi
  4060f2:	2e e9 e0 53 00 00    	cs jmp 0x40b4d8
  4060f8:	83 25 a9 30 42 00 76 	andl   $0x76,0x4230a9
  4060ff:	10 1d 0a 30 42 00    	adc    %bl,0x42300a
  406105:	11 f7                	adc    %esi,%edi
  406107:	00 00                	add    %al,(%eax)
  406109:	00 00                	add    %al,(%eax)
  40610b:	00 00                	add    %al,(%eax)
  40610d:	00 12                	add    %dl,(%edx)
  40610f:	05 85 31 42 00       	add    $0x423185,%eax
  406114:	b9 01 00 00 00       	mov    $0x1,%ecx
  406119:	13 0d 8b 31 42 00    	adc    0x42318b,%ecx
  40611f:	81 25 88 31 42 00 fb 	andl   $0xfb,0x423188
  406126:	00 00 00 
  406129:	ba 01 00 00 00       	mov    $0x1,%edx
  40612e:	83 c2 e4             	add    $0xffffffe4,%edx
  406131:	8d 1d 97 17 a7 98    	lea    0x98a71797,%ebx
  406137:	81 eb 21 e3 64 98    	sub    $0x9864e321,%ebx
  40613d:	53                   	push   %ebx
  40613e:	6a 01                	push   $0x1
  406140:	ff 0c 24             	decl   (%esp)
  406143:	68 01 00 10 00       	push   $0x100001
  406148:	ff 0c 24             	decl   (%esp)
  40614b:	a1 e8 f0 41 00       	mov    0x41f0e8,%eax
  406150:	ff d0                	call   *%eax
  406152:	83 f8 00             	cmp    $0x0,%eax
  406155:	0f 85 53 58 00 00    	jne    0x40b9ae
  40615b:	ba 01 00 00 00       	mov    $0x1,%edx
  406160:	13 15 3d 31 42 00    	adc    0x42313d,%edx
  406166:	01 05 f8 31 42 00    	add    %eax,0x4231f8
  40616c:	81 0d b7 31 42 00 fd 	orl    $0xfd,0x4231b7
  406173:	00 00 00 
  406176:	c7 05 19 30 42 00 2f 	movl   $0x2f,0x423019
  40617d:	00 00 00 
  406180:	8d 3d 97 17 a7 98    	lea    0x98a71797,%edi
  406186:	81 ef 21 e3 64 98    	sub    $0x9864e321,%edi
  40618c:	57                   	push   %edi
  40618d:	6a 01                	push   $0x1
  40618f:	ff 0c 24             	decl   (%esp)
  406192:	68 01 00 10 00       	push   $0x100001
